 PhysX3Cooking_x64

 Timestamp is 64a62f39 (Thu Jul  6 11:04:25 2023)

 Preferred load address is 0000000180000000

 Start         Length     Name                   Class
 0001:00000000 00000300H .text$di                CODE
 0001:00000300 0008ceb0H .text$mn                CODE
 0001:0008d1b0 00000040H .text$mn$00             CODE
 0001:0008d1f0 00000a60H .text$x                 CODE
 0002:00000000 000002f0H .idata$5                DATA
 0002:000002f0 00000038H .00cfg                  DATA
 0002:00000328 00000008H .CRT$XCA                DATA
 0002:00000330 00000180H .CRT$XCU                DATA
 0002:000004b0 00000008H .CRT$XCZ                DATA
 0002:000004b8 00000008H .CRT$XIA                DATA
 0002:000004c0 00000018H .CRT$XIC                DATA
 0002:000004d8 00000008H .CRT$XIZ                DATA
 0002:000004e0 00000008H .CRT$XPA                DATA
 0002:000004e8 00000010H .CRT$XPX                DATA
 0002:000004f8 00000008H .CRT$XPXA               DATA
 0002:00000500 00000008H .CRT$XPZ                DATA
 0002:00000508 00000008H .CRT$XTA                DATA
 0002:00000510 00000010H .CRT$XTZ                DATA
 0002:00000518 00000000H .gehcont$y              DATA
 0002:00000518 00000000H .gfids$y                DATA
 0002:00000520 0000d360H .rdata                  DATA
 0002:0000d880 00000080H .rdata$CastGuardVftablesA DATA
 0002:0000d900 00000080H .rdata$CastGuardVftablesC DATA
 0002:0000d980 00000464H .rdata$r                DATA
 0002:0000dde4 00000224H .rdata$voltmd           DATA
 0002:0000e008 00000450H .rdata$zzzdbg           DATA
 0002:0000e458 00000008H .rtc$IAA                DATA
 0002:0000e460 00000008H .rtc$IZZ                DATA
 0002:0000e468 00000008H .rtc$TAA                DATA
 0002:0000e470 00000008H .rtc$TZZ                DATA
 0002:0000e478 00009978H .xdata                  DATA
 0002:00017df0 00000084H .xdata$x                DATA
 0002:00017e74 00000040H .didat$2                DATA
 0002:00017eb4 00000024H .didat$3                DATA
 0002:00017ed8 00000170H .didat$4                DATA
 0002:00018048 000008a0H .didat$6                DATA
 0002:000188e8 00000178H .didat$7                DATA
 0002:00018a60 00000084H .edata                  DATA
 0002:00018ae4 00000014H .idata$2                DATA
 0002:00018af8 00000018H .idata$3                DATA
 0002:00018b10 000002f0H .idata$4                DATA
 0002:00018e00 000006c6H .idata$6                DATA
 0003:00000000 00000aa0H .data                   DATA
 0003:00000aa0 00000738H .data$r                 DATA
 0003:000011d8 000000f0H .data$rs                DATA
 0003:000012c8 00000178H .didat$5                DATA
 0003:00001440 00001d90H .bss                    DATA
 0004:00000000 00006a80H .pdata                  DATA
 0005:00000000 0000236cH _RDATA                  DATA
 0006:00000000 000000a0H .rsrc$01                DATA
 0006:000000a0 000004b8H .rsrc$02                DATA

  Address         Publics by Value              Rva+Base               Lib:Object

 0000:00000000       __AbsoluteZero             0000000000000000     <absolute>
 0000:00000000       ___safe_se_handler_count   0000000000000000     <absolute>
 0000:00000000       ___safe_se_handler_table   0000000000000000     <absolute>
 0000:00000000       __arm64x_extra_rfe_table   0000000000000000     <absolute>
 0000:00000000       __arm64x_extra_rfe_table_size 0000000000000000     <absolute>
 0000:00000000       __arm64x_native_entrypoint 0000000000000000     <absolute>
 0000:00000000       __arm64x_redirection_metadata 0000000000000000     <absolute>
 0000:00000000       __arm64x_redirection_metadata_count 0000000000000000     <absolute>
 0000:00000000       __dynamic_value_reloc_table 0000000000000000     <absolute>
 0000:00000000       __enclave_config           0000000000000000     <absolute>
 0000:00000000       __guard_check_icall_a64n_fptr 0000000000000000     <absolute>
 0000:00000000       __guard_eh_cont_count      0000000000000000     <absolute>
 0000:00000000       __guard_eh_cont_table      0000000000000000     <absolute>
 0000:00000000       __guard_fids_count         0000000000000000     <absolute>
 0000:00000000       __guard_fids_table         0000000000000000     <absolute>
 0000:00000000       __guard_iat_count          0000000000000000     <absolute>
 0000:00000000       __guard_iat_table          0000000000000000     <absolute>
 0000:00000000       __guard_longjmp_count      0000000000000000     <absolute>
 0000:00000000       __guard_longjmp_table      0000000000000000     <absolute>
 0000:00000000       __hybrid_auxiliary_delayload_iat 0000000000000000     <absolute>
 0000:00000000       __hybrid_auxiliary_delayload_iat_copy 0000000000000000     <absolute>
 0000:00000000       __hybrid_auxiliary_iat     0000000000000000     <absolute>
 0000:00000000       __hybrid_auxiliary_iat_copy 0000000000000000     <absolute>
 0000:00000000       __hybrid_code_map          0000000000000000     <absolute>
 0000:00000000       __hybrid_code_map_count    0000000000000000     <absolute>
 0000:00000000       __x64_code_ranges_to_entry_points 0000000000000000     <absolute>
 0000:00000000       __x64_code_ranges_to_entry_points_count 0000000000000000     <absolute>
 0000:00000100       __guard_flags              0000000000000100     <absolute>
 0000:00000000       __ImageBase                0000000180000000     <linker-defined>
 0001:00000300       PxSetPhysXCookingDelayLoadHook 0000000180001300 f   WindowsCookingDelayLoadHook.obj
 0001:00000310       ?delayHook@@YAP6A_JXZIPEAUDelayLoadInfo@@@Z 0000000180001310 f   WindowsCookingDelayLoadHook.obj
 0001:00000360       ?physXCommonDliNotePreLoadLibrary@Cm@physx@@YAP6A_JXZPEBDPEBVPxDelayLoadHook@2@@Z 0000000180001360 f i WindowsCookingDelayLoadHook.obj
 0001:000005e0       ?saveHeightField@physx@@YA_NAEBVHeightField@Gu@1@AEAVPxOutputStream@1@_N@Z 00000001800015e0 f   HeightFieldCooking.obj
 0001:00000830       ?__empty_global_delete@@YAXPEAX@Z 0000000180001830 f i HeightFieldCooking.obj
 0001:00000840       ?__empty_global_delete@@YAXPEAX_K@Z 0000000180001840 f i HeightFieldCooking.obj
 0001:00000840       ?__global_array_delete@@YAXPEAX_K@Z 0000000180001840 f i HeightFieldCooking.obj
 0001:00000840       ?__global_delete@@YAXPEAX_K@Z 0000000180001840 f i HeightFieldCooking.obj
 0001:00000850       ?buildFromTriangles@RTreeCooker@physx@@SAXAEAURTree@Gu@2@PEBVPxVec3@2@IPEBGPEBIIAEAV?$Array@IV?$ReflectionAllocator@I@shdfnd@physx@@@shdfnd@2@PEAURemapCallback@12@MW4Enum@PxMeshCookingHint@2@@Z 0000000180001850 f   RTreeCooking.obj
 0001:00000b10       ??$partition@UBoundsLTE@physx@@@quickSelect@physx@@YAIPEIAIIIIAEBUBoundsLTE@1@@Z 0000000180001b10 f i RTreeCooking.obj
 0001:00000ca0       ??$quickSelectFirstK@UBoundsLTE@physx@@@quickSelect@physx@@YAXPEIAIIIIAEBUBoundsLTE@1@@Z 0000000180001ca0 f i RTreeCooking.obj
 0001:00000e80       ??$smallSort@I$$CBUSortBoundsPredicate@physx@@@internal@shdfnd@physx@@YAXPEAIHHAEBUSortBoundsPredicate@2@@Z 0000000180001e80 f i RTreeCooking.obj
 0001:00001120       ??$sort@I@shdfnd@physx@@YAXPEAII@Z 0000000180002120 f i RTreeCooking.obj
 0001:00001140       ??$sort@IU?$Less@I@shdfnd@physx@@V?$ReflectionAllocator@I@23@@shdfnd@physx@@YAXPEAIIAEBU?$Less@I@01@AEBV?$ReflectionAllocator@I@01@I@Z 0000000180002140 f i RTreeCooking.obj
 0001:000014e0       ??$sort@IUSortBoundsPredicate@physx@@@shdfnd@physx@@YAXPEAIIAEBUSortBoundsPredicate@1@@Z 00000001800024e0 f i RTreeCooking.obj
 0001:00001500       ??$sort@IUSortBoundsPredicate@physx@@V?$ReflectionAllocator@I@shdfnd@2@@shdfnd@physx@@YAXPEAIIAEBUSortBoundsPredicate@1@AEBV?$ReflectionAllocator@I@01@I@Z 0000000180002500 f i RTreeCooking.obj
 0001:00001920       ??_H@YAXPEAX_K1P6APEAX0@Z@Z 0000000180002920 f i RTreeCooking.obj
 0001:00001970       ?allocate@?$Array@UInterval@physx@@V?$InlineAllocator@$0CAAA@V?$ReflectionAllocator@UInterval@physx@@@shdfnd@physx@@@shdfnd@2@@shdfnd@physx@@IEAAPEAUInterval@3@I@Z 0000000180002970 f i RTreeCooking.obj
 0001:00001a30       ?allocate@?$Array@UPxBounds3V@physx@@V?$ReflectionAllocator@UPxBounds3V@physx@@@shdfnd@2@@shdfnd@physx@@IEAAPEAUPxBounds3V@3@I@Z 0000000180002a30 f i RTreeCooking.obj
 0001:00001ad0       ?allocate@?$Array@URTreeNodeNQ@physx@@V?$ReflectionAllocator@URTreeNodeNQ@physx@@@shdfnd@2@@shdfnd@physx@@IEAAPEAURTreeNodeNQ@3@I@Z 0000000180002ad0 f i RTreeCooking.obj
 0001:00001b70       ?allocate@?$Array@URTreeNodeQ@Gu@physx@@V?$ReflectionAllocator@URTreeNodeQ@Gu@physx@@@shdfnd@3@@shdfnd@physx@@IEAAPEAURTreeNodeQ@Gu@3@I@Z 0000000180002b70 f i RTreeCooking.obj
 0001:00001c10       ?allocate@?$Array@VPxVec3@physx@@V?$ReflectionAllocator@VPxVec3@physx@@@shdfnd@2@@shdfnd@physx@@IEAAPEAVPxVec3@3@I@Z 0000000180002c10 f i RTreeCooking.obj
 0001:00001cb0       ?allocate@?$ReflectionAllocator@I@shdfnd@physx@@QEAAPEAX_KPEBDH@Z 0000000180002cb0 f i RTreeCooking.obj
 0001:000029c0       ?copy@?$Array@URTreeNodeNQ@physx@@V?$ReflectionAllocator@URTreeNodeNQ@physx@@@shdfnd@2@@shdfnd@physx@@KAXPEAURTreeNodeNQ@3@0PEBU43@@Z 00000001800039c0 f i RTreeCooking.obj
 0001:00002b80       ?copy@?$Array@VPxVec3@physx@@V?$ReflectionAllocator@VPxVec3@physx@@@shdfnd@2@@shdfnd@physx@@KAXPEAVPxVec3@3@0PEBV43@@Z 0000000180003b80 f i RTreeCooking.obj
 0001:00002c50       ?growAndPushBack@?$Array@IV?$ReflectionAllocator@I@shdfnd@physx@@@shdfnd@physx@@IEAAAEAIAEBI@Z 0000000180003c50 f i RTreeCooking.obj
 0001:00002d20       ?growAndPushBack@?$Array@UInterval@physx@@V?$InlineAllocator@$0CAAA@V?$ReflectionAllocator@UInterval@physx@@@shdfnd@physx@@@shdfnd@2@@shdfnd@physx@@IEAAAEAUInterval@3@AEBU43@@Z 0000000180003d20 f i RTreeCooking.obj
 0001:00002e00       ?growAndPushBack@?$Array@UPxBounds3V@physx@@V?$ReflectionAllocator@UPxBounds3V@physx@@@shdfnd@2@@shdfnd@physx@@IEAAAEAUPxBounds3V@3@AEBU43@@Z 0000000180003e00 f i RTreeCooking.obj
 0001:00002ed0       ?growAndPushBack@?$Array@URTreeNodeNQ@physx@@V?$ReflectionAllocator@URTreeNodeNQ@physx@@@shdfnd@2@@shdfnd@physx@@IEAAAEAURTreeNodeNQ@3@AEBU43@@Z 0000000180003ed0 f i RTreeCooking.obj
 0001:00002fb0       ?growAndPushBack@?$Array@URTreeNodeQ@Gu@physx@@V?$ReflectionAllocator@URTreeNodeQ@Gu@physx@@@shdfnd@3@@shdfnd@physx@@IEAAAEAURTreeNodeQ@Gu@3@AEBU453@@Z 0000000180003fb0 f i RTreeCooking.obj
 0001:00003090       ?growAndPushBack@?$Array@VPxVec3@physx@@V?$ReflectionAllocator@VPxVec3@physx@@@shdfnd@2@@shdfnd@physx@@IEAAAEAVPxVec3@3@AEBV43@@Z 0000000180004090 f i RTreeCooking.obj
 0001:00003150       ?recreate@?$Array@IV?$ReflectionAllocator@I@shdfnd@physx@@@shdfnd@physx@@IEAAXI@Z 0000000180004150 f i RTreeCooking.obj
 0001:00003210       ?recreate@?$Array@UPxBounds3V@physx@@V?$ReflectionAllocator@UPxBounds3V@physx@@@shdfnd@2@@shdfnd@physx@@IEAAXI@Z 0000000180004210 f i RTreeCooking.obj
 0001:000032c0       ?recreate@?$Array@URTreeNodeNQ@physx@@V?$ReflectionAllocator@URTreeNodeNQ@physx@@@shdfnd@2@@shdfnd@physx@@IEAAXI@Z 00000001800042c0 f i RTreeCooking.obj
 0001:00003350       ?recreate@?$Array@URTreeNodeQ@Gu@physx@@V?$ReflectionAllocator@URTreeNodeQ@Gu@physx@@@shdfnd@3@@shdfnd@physx@@IEAAXI@Z 0000000180004350 f i RTreeCooking.obj
 0001:00003410       ?recreate@?$Array@VPxVec3@physx@@V?$ReflectionAllocator@VPxVec3@physx@@@shdfnd@2@@shdfnd@physx@@IEAAXI@Z 0000000180004410 f i RTreeCooking.obj
 0001:000034a0       ?resize@?$Array@IV?$ReflectionAllocator@I@shdfnd@physx@@@shdfnd@physx@@QEAAXIAEBI@Z 00000001800044a0 f i RTreeCooking.obj
 0001:00003560       ?resizeUninitialized@?$Array@URTreeNodeNQ@physx@@V?$ReflectionAllocator@URTreeNodeNQ@physx@@@shdfnd@2@@shdfnd@physx@@QEAAXI@Z 0000000180004560 f i RTreeCooking.obj
 0001:000035a0       ?sort4@SubSortQuick@physx@@QEAAXPEIAIIAEAV?$Array@URTreeNodeNQ@physx@@V?$ReflectionAllocator@URTreeNodeNQ@physx@@@shdfnd@2@@shdfnd@2@AEAIAEAUPxBounds3V@2@I@Z 00000001800045a0 f i RTreeCooking.obj
 0001:00003930       ?sort4@SubSortSAH@physx@@QEAAXPEAIIAEAV?$Array@URTreeNodeNQ@physx@@V?$ReflectionAllocator@URTreeNodeNQ@physx@@@shdfnd@2@@shdfnd@2@AEAIIPEAURTreeNodeNQ@2@@Z 0000000180004930 f i RTreeCooking.obj
 0001:00004170       ?split@SubSortSAH@physx@@QEAAIPEAII@Z 0000000180005170 f i RTreeCooking.obj
 0001:00004be0       ??0TriangleMeshBuilder@physx@@QEAA@AEAVTriangleMeshData@Gu@1@AEBUPxCookingParams@1@@Z 0000000180005be0 f   TriangleMeshBuilder.obj
 0001:00004c10       ??1TriangleMeshBuilder@physx@@UEAA@XZ 0000000180005c10 f   TriangleMeshBuilder.obj
 0001:00004c80       ?cleanMesh@TriangleMeshBuilder@physx@@QEAA_N_NPEAW4Enum@PxTriangleMeshCookingResult@2@@Z 0000000180005c80 f   TriangleMeshBuilder.obj
 0001:00005140       ?remapTopology@TriangleMeshBuilder@physx@@QEAAXPEBI@Z 0000000180006140 f   TriangleMeshBuilder.obj
 0001:00005380       ?createSharedEdgeData@TriangleMeshBuilder@physx@@QEAAX_N0@Z 0000000180006380 f   TriangleMeshBuilder.obj
 0001:000057f0       ?recordTriangleIndices@TriangleMeshBuilder@physx@@QEAAXXZ 00000001800067f0 f   TriangleMeshBuilder.obj
 0001:00005890       ?createGRBMidPhaseAndData@TriangleMeshBuilder@physx@@QEAAXI@Z 0000000180006890 f   TriangleMeshBuilder.obj
 0001:00005c30       ?createGRBData@TriangleMeshBuilder@physx@@QEAAXXZ 0000000180006c30 f   TriangleMeshBuilder.obj
 0001:00005d30       ?loadFromDesc@TriangleMeshBuilder@physx@@QEAA_NAEBVPxTriangleMeshDesc@2@PEAW4Enum@PxTriangleMeshCookingResult@2@_N@Z 0000000180006d30 f   TriangleMeshBuilder.obj
 0001:00006190       ?save@TriangleMeshBuilder@physx@@QEBA_NAEAVPxOutputStream@2@_NAEBUPxCookingParams@2@@Z 0000000180007190 f   TriangleMeshBuilder.obj
 0001:00006790       ?checkMeshIndicesSize@TriangleMeshBuilder@physx@@QEAAXXZ 0000000180007790 f   TriangleMeshBuilder.obj
 0001:000068b0       ?computeLocalBounds@TriangleMeshBuilder@physx@@IEAAXXZ 00000001800078b0 f   TriangleMeshBuilder.obj
 0001:00006950       ?importMesh@TriangleMeshBuilder@physx@@IEAA_NAEBVPxTriangleMeshDesc@2@AEBUPxCookingParams@2@PEAW4Enum@PxTriangleMeshCookingResult@2@_N@Z 0000000180007950 f   TriangleMeshBuilder.obj
 0001:00006bd0       ?releaseEdgeList@TriangleMeshBuilder@physx@@IEAAXXZ 0000000180007bd0 f   TriangleMeshBuilder.obj
 0001:00006c30       ?createEdgeList@TriangleMeshBuilder@physx@@IEAAXXZ 0000000180007c30 f   TriangleMeshBuilder.obj
 0001:00006d50       ??0RTreeTriangleMeshBuilder@physx@@QEAA@AEBUPxCookingParams@1@@Z 0000000180007d50 f   TriangleMeshBuilder.obj
 0001:00006e10       ??1RTreeTriangleMeshBuilder@physx@@UEAA@XZ 0000000180007e10 f   TriangleMeshBuilder.obj
 0001:00006e40       ?createMidPhaseStructure@RTreeTriangleMeshBuilder@physx@@UEAAXXZ 0000000180007e40 f   TriangleMeshBuilder.obj
 0001:00006f40       ?saveMidPhaseStructure@RTreeTriangleMeshBuilder@physx@@UEBAXAEAVPxOutputStream@2@_N@Z 0000000180007f40 f   TriangleMeshBuilder.obj
 0001:00007190       ??0BV4TriangleMeshBuilder@physx@@QEAA@AEBUPxCookingParams@1@@Z 0000000180008190 f   TriangleMeshBuilder.obj
 0001:00007260       ??1BV4TriangleMeshBuilder@physx@@UEAA@XZ 0000000180008260 f   TriangleMeshBuilder.obj
 0001:000072c0       ?createMidPhaseStructure@BV4TriangleMeshBuilder@physx@@UEAAXXZ 00000001800082c0 f   TriangleMeshBuilder.obj
 0001:00007540       ?saveMidPhaseStructure@BV4TriangleMeshBuilder@physx@@UEBAXAEAVPxOutputStream@2@_N@Z 0000000180008540 f   TriangleMeshBuilder.obj
 0001:00007740       ?onMeshIndexFormatChange@BV4TriangleMeshBuilder@physx@@UEAAXXZ 0000000180008740 f   TriangleMeshBuilder.obj
 0001:00007780       ?createMidPhaseStructure@BV32TriangleMeshBuilder@physx@@SAXAEBUPxCookingParams@2@AEAVTriangleMeshData@Gu@2@AEAVBV32Tree@52@@Z 0000000180008780 f   TriangleMeshBuilder.obj
 0001:00007910       ?saveMidPhaseStructure@BV32TriangleMeshBuilder@physx@@SAXPEAVBV32Tree@Gu@2@AEAVPxOutputStream@2@_N@Z 0000000180008910 f   TriangleMeshBuilder.obj
 0001:00007ab0       ?findSharpVertices@GrbTrimeshCookerHelper@physx@@YAXAEAV?$Array@USortedNeighbor@GrbTrimeshCookerHelper@physx@@V?$ReflectionAllocator@USortedNeighbor@GrbTrimeshCookerHelper@physx@@@shdfnd@3@@shdfnd@2@AEAV?$Array@USharpEdgeRange@GrbTrimeshCookerHelper@physx@@V?$ReflectionAllocator@USharpEdgeRange@GrbTrimeshCookerHelper@physx@@@shdfnd@3@@42@PEBUuint3@2@PEBUuint4@2@II@Z 0000000180008ab0 f   TriangleMeshBuilder.obj
 0001:00007e50       ?buildVertexConnectionNew_p1@GrbTrimeshCookerHelper@physx@@YAIAEAV?$Array@USortedNeighbor@GrbTrimeshCookerHelper@physx@@V?$ReflectionAllocator@USortedNeighbor@GrbTrimeshCookerHelper@physx@@@shdfnd@3@@shdfnd@2@AEAV?$Array@USharpEdgeRange@GrbTrimeshCookerHelper@physx@@V?$ReflectionAllocator@USharpEdgeRange@GrbTrimeshCookerHelper@physx@@@shdfnd@3@@42@PEBUuint3@2@PEBUuint4@2@II@Z 0000000180008e50 f   TriangleMeshBuilder.obj
 0001:00007fd0       ?buildVertexConnectionNew_p2@GrbTrimeshCookerHelper@physx@@YAXPEAI00AEAV?$Array@USortedNeighbor@GrbTrimeshCookerHelper@physx@@V?$ReflectionAllocator@USortedNeighbor@GrbTrimeshCookerHelper@physx@@@shdfnd@3@@shdfnd@2@AEAV?$Array@USharpEdgeRange@GrbTrimeshCookerHelper@physx@@V?$ReflectionAllocator@USharpEdgeRange@GrbTrimeshCookerHelper@physx@@@shdfnd@3@@42@I@Z 0000000180008fd0 f   TriangleMeshBuilder.obj
 0001:00008080       ??$?_UG@@YAPEAX_KV?$ReflectionAllocator@G@shdfnd@physx@@PEBDH@Z 0000000180009080 f i TriangleMeshBuilder.obj
 0001:00008120       ??$median3@USortedNeighbor@GrbTrimeshCookerHelper@physx@@$$CBU?$Less@USortedNeighbor@GrbTrimeshCookerHelper@physx@@@shdfnd@3@@internal@shdfnd@physx@@YAXPEAUSortedNeighbor@GrbTrimeshCookerHelper@2@HHAEBU?$Less@USortedNeighbor@GrbTrimeshCookerHelper@physx@@@12@@Z 0000000180009120 f i TriangleMeshBuilder.obj
 0001:00008250       ??$sort@UEdgeTriLookup@physx@@@shdfnd@physx@@YAXPEAUEdgeTriLookup@1@I@Z 0000000180009250 f i TriangleMeshBuilder.obj
 0001:00008270       ??$sort@UEdgeTriLookup@physx@@U?$Less@UEdgeTriLookup@physx@@@shdfnd@2@V?$ReflectionAllocator@UEdgeTriLookup@physx@@@42@@shdfnd@physx@@YAXPEAUEdgeTriLookup@1@IAEBU?$Less@UEdgeTriLookup@physx@@@01@AEBV?$ReflectionAllocator@UEdgeTriLookup@physx@@@01@I@Z 0000000180009270 f i TriangleMeshBuilder.obj
 0001:00008800       ??$sort@USortedNeighbor@GrbTrimeshCookerHelper@physx@@@shdfnd@physx@@YAXPEAUSortedNeighbor@GrbTrimeshCookerHelper@1@I@Z 0000000180009800 f i TriangleMeshBuilder.obj
 0001:00008820       ??$sort@USortedNeighbor@GrbTrimeshCookerHelper@physx@@U?$Less@USortedNeighbor@GrbTrimeshCookerHelper@physx@@@shdfnd@3@V?$ReflectionAllocator@USortedNeighbor@GrbTrimeshCookerHelper@physx@@@53@@shdfnd@physx@@YAXPEAUSortedNeighbor@GrbTrimeshCookerHelper@1@IAEBU?$Less@USortedNeighbor@GrbTrimeshCookerHelper@physx@@@01@AEBV?$ReflectionAllocator@USortedNeighbor@GrbTrimeshCookerHelper@physx@@@01@I@Z 0000000180009820 f i TriangleMeshBuilder.obj
 0001:00008c90       ??0PxVec4@physx@@QEAA@XZ   0000000180009c90 f i TriangleMeshBuilder.obj
 0001:00008ca0       ??1BV4TriangleData@Gu@physx@@UEAA@XZ 0000000180009ca0 f i TriangleMeshBuilder.obj
 0001:00008ce0       ??1RTreeTriangleData@Gu@physx@@UEAA@XZ 0000000180009ce0 f i TriangleMeshBuilder.obj
 0001:00008d50       ??1RemapCallback@RTreeCooker@physx@@UEAA@XZ 0000000180009d50 f i TriangleMeshBuilder.obj
 0001:00008d60       ??1TriangleMeshData@Gu@physx@@UEAA@XZ 0000000180009d60 f i TriangleMeshBuilder.obj
 0001:00008ee0       ??_EBV4TriangleData@Gu@physx@@UEAAPEAXI@Z 0000000180009ee0 f i TriangleMeshBuilder.obj
 0001:00008ee0       ??_GBV4TriangleData@Gu@physx@@UEAAPEAXI@Z 0000000180009ee0 f i TriangleMeshBuilder.obj
 0001:00008f70       ??_EBV4TriangleMeshBuilder@physx@@UEAAPEAXI@Z 0000000180009f70 f i TriangleMeshBuilder.obj
 0001:00008f70       ??_GBV4TriangleMeshBuilder@physx@@UEAAPEAXI@Z 0000000180009f70 f i TriangleMeshBuilder.obj
 0001:00008ff0       ??_ERTreeCookerRemap@physx@@UEAAPEAXI@Z 0000000180009ff0 f i TriangleMeshBuilder.obj
 0001:00008ff0       ??_GRTreeCookerRemap@physx@@UEAAPEAXI@Z 0000000180009ff0 f i TriangleMeshBuilder.obj
 0001:00009020       ??_ERTreeTriangleData@Gu@physx@@UEAAPEAXI@Z 000000018000a020 f i TriangleMeshBuilder.obj
 0001:00009020       ??_GRTreeTriangleData@Gu@physx@@UEAAPEAXI@Z 000000018000a020 f i TriangleMeshBuilder.obj
 0001:00009090       ??_ERTreeTriangleMeshBuilder@physx@@UEAAPEAXI@Z 000000018000a090 f i TriangleMeshBuilder.obj
 0001:00009090       ??_GRTreeTriangleMeshBuilder@physx@@UEAAPEAXI@Z 000000018000a090 f i TriangleMeshBuilder.obj
 0001:000090e0       ??_ERemapCallback@RTreeCooker@physx@@UEAAPEAXI@Z 000000018000a0e0 f i TriangleMeshBuilder.obj
 0001:000090e0       ??_GRemapCallback@RTreeCooker@physx@@UEAAPEAXI@Z 000000018000a0e0 f i TriangleMeshBuilder.obj
 0001:00009110       ??_ETriangleMeshBuilder@physx@@UEAAPEAXI@Z 000000018000a110 f i TriangleMeshBuilder.obj
 0001:00009110       ??_GTriangleMeshBuilder@physx@@UEAAPEAXI@Z 000000018000a110 f i TriangleMeshBuilder.obj
 0001:00009150       ??_ETriangleMeshData@Gu@physx@@UEAAPEAXI@Z 000000018000a150 f i TriangleMeshBuilder.obj
 0001:00009150       ??_GTriangleMeshData@Gu@physx@@UEAAPEAXI@Z 000000018000a150 f i TriangleMeshBuilder.obj
 0001:000091c0       ?allocate@?$ReflectionAllocator@USortedNeighbor@GrbTrimeshCookerHelper@physx@@@shdfnd@physx@@QEAAPEAX_KPEBDH@Z 000000018000a1c0 f i TriangleMeshBuilder.obj
 0001:00009260       ?allocateTriangles@TriangleMeshData@Gu@physx@@QEAAPEAXI_NI@Z 000000018000a260 f i TriangleMeshBuilder.obj
 0001:00009340       ?allocateVertices@TriangleMeshData@Gu@physx@@QEAAPEAVPxVec3@3@I@Z 000000018000a340 f i TriangleMeshBuilder.obj
 0001:00009a50       ?getMidphaseID@BV4TriangleMeshBuilder@physx@@UEBA?AW4Enum@PxMeshMidPhase@2@XZ 000000018000aa50 f i TriangleMeshBuilder.obj
 0001:00009a60       ?getMidphaseID@RTreeTriangleMeshBuilder@physx@@UEBA?AW4Enum@PxMeshMidPhase@2@XZ 000000018000aa60 f i TriangleMeshBuilder.obj
 0001:00009a70       ?growAndPushBack@?$Array@USortedNeighbor@GrbTrimeshCookerHelper@physx@@V?$ReflectionAllocator@USortedNeighbor@GrbTrimeshCookerHelper@physx@@@shdfnd@3@@shdfnd@physx@@IEAAAEAUSortedNeighbor@GrbTrimeshCookerHelper@3@AEBU453@@Z 000000018000aa70 f i TriangleMeshBuilder.obj
 0001:00009b60       ?onMeshIndexFormatChange@TriangleMeshBuilder@physx@@UEAAXXZ 000000018000ab60 f i TriangleMeshBuilder.obj
 0001:00009b70       ?recreate@?$Array@USharpEdgeRange@GrbTrimeshCookerHelper@physx@@V?$ReflectionAllocator@USharpEdgeRange@GrbTrimeshCookerHelper@physx@@@shdfnd@3@@shdfnd@physx@@IEAAXI@Z 000000018000ab70 f i TriangleMeshBuilder.obj
 0001:00009c80       ?recreate@?$Array@USortedNeighbor@GrbTrimeshCookerHelper@physx@@V?$ReflectionAllocator@USortedNeighbor@GrbTrimeshCookerHelper@physx@@@shdfnd@3@@shdfnd@physx@@IEAAXI@Z 000000018000ac80 f i TriangleMeshBuilder.obj
 0001:00009d50       ?remap@RTreeCookerRemap@physx@@UEAAXPEAIII@Z 000000018000ad50 f i TriangleMeshBuilder.obj
 0001:00009d70       ?resize@?$Array@USharpEdgeRange@GrbTrimeshCookerHelper@physx@@V?$ReflectionAllocator@USharpEdgeRange@GrbTrimeshCookerHelper@physx@@@shdfnd@3@@shdfnd@physx@@QEAAXIAEBUSharpEdgeRange@GrbTrimeshCookerHelper@3@@Z 000000018000ad70 f i TriangleMeshBuilder.obj
 0001:00009e30       ?resizeUninitialized@?$Array@USortedNeighbor@GrbTrimeshCookerHelper@physx@@V?$ReflectionAllocator@USortedNeighbor@GrbTrimeshCookerHelper@physx@@@shdfnd@3@@shdfnd@physx@@QEAAXI@Z 000000018000ae30 f i TriangleMeshBuilder.obj
 0001:00009e70       ??0BigConvexDataBuilder@physx@@QEAA@PEBUConvexHullData@Gu@1@PEAVBigConvexData@1@PEBVPxVec3@1@@Z 000000018000ae70 f   BigConvexDataBuilder.obj
 0001:00009e90       ??1BigConvexDataBuilder@physx@@QEAA@XZ 000000018000ae90 f   BigConvexDataBuilder.obj
 0001:00009ea0       ?precompute@BigConvexDataBuilder@physx@@QEAA_NI@Z 000000018000aea0 f   BigConvexDataBuilder.obj
 0001:0000aae0       ?initialize@BigConvexDataBuilder@physx@@QEAA_NXZ 000000018000bae0 f   BigConvexDataBuilder.obj
 0001:0000ab80       ?save@BigConvexDataBuilder@physx@@QEBA_NAEAVPxOutputStream@2@_N@Z 000000018000bb80 f   BigConvexDataBuilder.obj
 0001:0000ac70       ?computeValencies@BigConvexDataBuilder@physx@@QEAA_NAEBVConvexHullBuilder@2@@Z 000000018000bc70 f   BigConvexDataBuilder.obj
 0001:0000b060       ?saveValencies@BigConvexDataBuilder@physx@@QEBA_NAEAVPxOutputStream@2@_N@Z 000000018000c060 f   BigConvexDataBuilder.obj
 0001:0000b210       ??0ConvexHullBuilder@physx@@QEAA@PEAUConvexHullData@Gu@1@_N@Z 000000018000c210 f   ConvexHullBuilder.obj
 0001:0000b240       ??1ConvexHullBuilder@physx@@QEAA@XZ 000000018000c240 f   ConvexHullBuilder.obj
 0001:0000b350       ?init@ConvexHullBuilder@physx@@QEAA_NIPEBVPxVec3@2@PEBIIIPEBUPxHullPolygon@2@_NPEAVConvexHullLib@2@@Z 000000018000c350 f   ConvexHullBuilder.obj
 0001:0000bcd0       ?save@ConvexHullBuilder@physx@@QEBA_NAEAVPxOutputStream@2@_N@Z 000000018000ccd0 f   ConvexHullBuilder.obj
 0001:0000c020       ?copy@ConvexHullBuilder@physx@@QEAA_NAEAUConvexHullData@Gu@2@AEAI@Z 000000018000d020 f   ConvexHullBuilder.obj
 0001:0000c290       ?createEdgeList@ConvexHullBuilder@physx@@QEAA_N_NI@Z 000000018000d290 f   ConvexHullBuilder.obj
 0001:0000ca70       ?checkHullPolygons@ConvexHullBuilder@physx@@QEBA_NXZ 000000018000da70 f   ConvexHullBuilder.obj
 0001:0000d060       ?calculateVertexMapTable@ConvexHullBuilder@physx@@QEAA_NI_N@Z 000000018000e060 f   ConvexHullBuilder.obj
 0001:0000d230       ?computeGeomCenter@ConvexHullBuilder@physx@@IEBA_NAEAVPxVec3@2@IPEAUHullTriangleData@2@@Z 000000018000e230 f   ConvexHullBuilder.obj
 0001:0000d4f0       ??$?_UE@@YAPEAX_KV?$ReflectionAllocator@E@shdfnd@physx@@PEBDH@Z 000000018000e4f0 f i ConvexHullBuilder.obj
 0001:0000d590       ??0PxVec3@physx@@QEAA@XZ   000000018000e590 f i ConvexHullBuilder.obj
 0001:0000d5a0       ??1ConvexHullLib@physx@@UEAA@XZ 000000018000e5a0 f   ConvexHullLib.obj
 0001:0000d600       ?cleanupVertices@ConvexHullLib@physx@@IEAA_NIPEBVPxVec3@2@IAEAIPEAV32@AEAV32@3@Z 000000018000e600 f   ConvexHullLib.obj
 0001:0000da60       ?shiftAndcleanupVertices@ConvexHullLib@physx@@IEAA_NIPEBVPxVec3@2@IAEAIPEAV32@AEAV32@3@Z 000000018000ea60 f   ConvexHullLib.obj
 0001:0000df10       ?swapLargestFace@ConvexHullLib@physx@@IEAAXAEAVPxConvexMeshDesc@2@@Z 000000018000ef10 f   ConvexHullLib.obj
 0001:0000e100       ?shiftConvexMeshDesc@ConvexHullLib@physx@@IEAAXAEAVPxConvexMeshDesc@2@@Z 000000018000f100 f   ConvexHullLib.obj
 0001:0000e1c0       ??_EConvexHullLib@physx@@UEAAPEAXI@Z 000000018000f1c0 f i ConvexHullLib.obj
 0001:0000e1c0       ??_GConvexHullLib@physx@@UEAAPEAXI@Z 000000018000f1c0 f i ConvexHullLib.obj
 0001:0000e720       ??0ConvexHull@physx@@QEAA@AEBVPxVec3@1@0AEBV?$Array@VPxPlane@physx@@V?$ReflectionAllocator@VPxPlane@physx@@@shdfnd@2@@shdfnd@1@@Z 000000018000f720 f   ConvexHullUtils.obj
 0001:0000f0f0       ??0ConvexHull@physx@@QEAA@AEBVPxVec3@1@AEBVPxTransform@1@AEBV?$Array@VPxPlane@physx@@V?$ReflectionAllocator@VPxPlane@physx@@@shdfnd@2@@shdfnd@1@@Z 00000001800100f0 f   ConvexHullUtils.obj
 0001:00010240       ?findCandidatePlane@ConvexHull@physx@@QEBAHMM@Z 0000000180011240 f   ConvexHullUtils.obj
 0001:00010690       ?assertIntact@ConvexHull@physx@@QEBA_NM@Z 0000000180011690 f   ConvexHullUtils.obj
 0001:000109b0       ?maxNumVertsPerFace@ConvexHull@physx@@QEBAIXZ 00000001800119b0 f   ConvexHullUtils.obj
 0001:00010a30       ?convexHullCrop@physx@@YAPEAVConvexHull@1@AEBV21@AEBVPxPlane@1@M@Z 0000000180011a30 f   ConvexHullUtils.obj
 0001:00011830       ?computeOBBFromConvex@physx@@YA_NAEBVPxConvexMeshDesc@1@AEAVPxVec3@1@AEAVPxTransform@1@@Z 0000000180012830 f   ConvexHullUtils.obj
 0001:00011f10       ?computeOBBSIMD@local@@YAXIPEBT__m128@@AEAT2@AEBT2@1@Z 0000000180012f10 f   ConvexHullUtils.obj
 0001:000122f0       ??0HalfEdge@ConvexHull@physx@@QEAA@XZ 00000001800132f0 f i ConvexHullUtils.obj
 0001:00012300       ??0PxPlane@physx@@QEAA@XZ  0000000180013300 f i ConvexHullUtils.obj
 0001:00012310       ?allocate@?$Array@VHalfEdge@ConvexHull@physx@@V?$ReflectionAllocator@VHalfEdge@ConvexHull@physx@@@shdfnd@3@@shdfnd@physx@@IEAAPEAVHalfEdge@ConvexHull@3@I@Z 0000000180013310 f i ConvexHullUtils.obj
 0001:000123b0       ?allocate@?$Array@VPxPlane@physx@@V?$ReflectionAllocator@VPxPlane@physx@@@shdfnd@2@@shdfnd@physx@@IEAAPEAVPxPlane@3@I@Z 00000001800133b0 f i ConvexHullUtils.obj
 0001:00012450       ?copy@?$Array@VPxPlane@physx@@V?$ReflectionAllocator@VPxPlane@physx@@@shdfnd@2@@shdfnd@physx@@KAXPEAVPxPlane@3@0PEBV43@@Z 0000000180013450 f i ConvexHullUtils.obj
 0001:00012550       ?getInverse@PxMat33@physx@@QEBA?BV12@XZ 0000000180013550 f i ConvexHullUtils.obj
 0001:000127a0       ?growAndPushBack@?$Array@VHalfEdge@ConvexHull@physx@@V?$ReflectionAllocator@VHalfEdge@ConvexHull@physx@@@shdfnd@3@@shdfnd@physx@@IEAAAEAVHalfEdge@ConvexHull@3@AEBV453@@Z 00000001800137a0 f i ConvexHullUtils.obj
 0001:00012860       ?growAndPushBack@?$Array@VPxPlane@physx@@V?$ReflectionAllocator@VPxPlane@physx@@@shdfnd@2@@shdfnd@physx@@IEAAAEAVPxPlane@3@AEBV43@@Z 0000000180013860 f i ConvexHullUtils.obj
 0001:00012920       ?recreate@?$Array@VHalfEdge@ConvexHull@physx@@V?$ReflectionAllocator@VHalfEdge@ConvexHull@physx@@@shdfnd@3@@shdfnd@physx@@IEAAXI@Z 0000000180013920 f i ConvexHullUtils.obj
 0001:000129c0       ?recreate@?$Array@VPxPlane@physx@@V?$ReflectionAllocator@VPxPlane@physx@@@shdfnd@2@@shdfnd@physx@@IEAAXI@Z 00000001800139c0 f i ConvexHullUtils.obj
 0001:00012a50       ?resize@?$Array@VHalfEdge@ConvexHull@physx@@V?$ReflectionAllocator@VHalfEdge@ConvexHull@physx@@@shdfnd@3@@shdfnd@physx@@QEAAXIAEBVHalfEdge@ConvexHull@3@@Z 0000000180013a50 f i ConvexHullUtils.obj
 0001:00012b10       ?resize@?$Array@VPxPlane@physx@@V?$ReflectionAllocator@VPxPlane@physx@@@shdfnd@2@@shdfnd@physx@@QEAAXIAEBVPxPlane@3@@Z 0000000180013b10 f i ConvexHullUtils.obj
 0001:00012c30       ?resize@?$Array@VPxVec3@physx@@V?$ReflectionAllocator@VPxVec3@physx@@@shdfnd@2@@shdfnd@physx@@QEAAXIAEBVPxVec3@3@@Z 0000000180013c30 f i ConvexHullUtils.obj
 0001:00012d20       ??0ConvexMeshBuilder@physx@@QEAA@_N@Z 0000000180013d20 f   ConvexMeshBuilder.obj
 0001:00012d90       ??1ConvexMeshBuilder@physx@@QEAA@XZ 0000000180013d90 f   ConvexMeshBuilder.obj
 0001:00012df0       ?build@ConvexMeshBuilder@physx@@QEAA_NAEBVPxConvexMeshDesc@2@I_NPEAVConvexHullLib@2@@Z 0000000180013df0 f   ConvexMeshBuilder.obj
 0001:00013120       ?save@ConvexMeshBuilder@physx@@QEBA_NAEAVPxOutputStream@2@_N@Z 0000000180014120 f   ConvexMeshBuilder.obj
 0001:00013350       ?copy@ConvexMeshBuilder@physx@@QEAA_NAEAUConvexHullData@Gu@2@AEAI@Z 0000000180014350 f   ConvexMeshBuilder.obj
 0001:000133e0       ?loadConvexHull@ConvexMeshBuilder@physx@@QEAA_NAEBVPxConvexMeshDesc@2@PEAVConvexHullLib@2@@Z 00000001800143e0 f   ConvexMeshBuilder.obj
 0001:00013660       ?computeHullPolygons@ConvexMeshBuilder@physx@@QEAA_NAEBIPEBVPxVec3@2@0PEBIAEAVPxAllocatorCallback@2@AEAIAEAPEAV32@4AEAPEAI4AEAPEAUPxHullPolygon@2@@Z 0000000180014660 f   ConvexMeshBuilder.obj
 0001:00013890       ?computeGaussMaps@ConvexMeshBuilder@physx@@QEAA_NXZ 0000000180014890 f   ConvexMeshBuilder.obj
 0001:00013980       ?computeMassInfo@ConvexMeshBuilder@physx@@QEAAX_N@Z 0000000180014980 f   ConvexMeshBuilder.obj
 0001:00013d50       ?computeInternalObjects@ConvexMeshBuilder@physx@@QEAAXXZ 0000000180014d50 f   ConvexMeshBuilder.obj
 0001:000141d0       ?isFinite@PxVec3@physx@@QEBA_NXZ 00000001800151d0 f i ConvexMeshBuilder.obj
 0001:00014230       ??0ConvexPolygonsBuilder@physx@@QEAA@PEAUConvexHullData@Gu@1@_N@Z 0000000180015230 f   ConvexPolygonsBuilder.obj
 0001:00014260       ??1ConvexPolygonsBuilder@physx@@QEAA@XZ 0000000180015260 f   ConvexPolygonsBuilder.obj
 0001:000142b0       ?computeHullPolygons@ConvexPolygonsBuilder@physx@@QEAA_NAEBIPEBVPxVec3@2@0PEBI@Z 00000001800152b0 f   ConvexPolygonsBuilder.obj
 0001:00015330       ?createPolygonData@ConvexPolygonsBuilder@physx@@AEAA_NXZ 0000000180016330 f   ConvexPolygonsBuilder.obj
 0001:00015cb0       ?createTrianglesFromPolygons@ConvexPolygonsBuilder@physx@@AEAA_NXZ 0000000180016cb0 f   ConvexPolygonsBuilder.obj
 0001:00016550       ??$?_UUHullTriangleData@physx@@@@YAPEAX_KV?$ReflectionAllocator@UHullTriangleData@physx@@@shdfnd@physx@@PEBDH@Z 0000000180017550 f i ConvexPolygonsBuilder.obj
 0001:000165f0       ??$copy@V?$ReflectionAllocator@VPair@@@shdfnd@physx@@@?$Array@VPair@@V?$ReflectionAllocator@VPair@@@shdfnd@physx@@@shdfnd@physx@@IEAAXAEBV012@@Z 00000001800175f0 f i ConvexPolygonsBuilder.obj
 0001:00016e70       ?allocate@?$Array@IV?$ReflectionAllocator@I@shdfnd@physx@@@shdfnd@physx@@IEAAPEAII@Z 0000000180017e70 f i ConvexPolygonsBuilder.obj
 0001:00016f10       ?allocate@?$Array@VPair@@V?$ReflectionAllocator@VPair@@@shdfnd@physx@@@shdfnd@physx@@IEAAPEAVPair@@I@Z 0000000180017f10 f i ConvexPolygonsBuilder.obj
 0001:000186b0       ?growAndPushBack@?$Array@VPair@@V?$ReflectionAllocator@VPair@@@shdfnd@physx@@@shdfnd@physx@@IEAAAEAVPair@@AEBV4@@Z 00000001800196b0 f i ConvexPolygonsBuilder.obj
 0001:00018780       ??0InflationConvexHullLib@physx@@QEAA@AEBVPxConvexMeshDesc@1@AEBUPxCookingParams@1@@Z 0000000180019780 f   InflationConvexHullLib.obj
 0001:000187c0       ??1InflationConvexHullLib@physx@@UEAA@XZ 00000001800197c0 f   InflationConvexHullLib.obj
 0001:00018850       ?createConvexHull@InflationConvexHullLib@physx@@UEAA?AW4Enum@PxConvexMeshCookingResult@2@XZ 0000000180019850 f   InflationConvexHullLib.obj
 0001:00018960       ?fillConvexMeshDesc@InflationConvexHullLib@physx@@UEAAXAEAVPxConvexMeshDesc@2@@Z 0000000180019960 f   InflationConvexHullLib.obj
 0001:000189e0       ?computeHull@InflationConvexHullLib@physx@@IEAA?AW4ErrorCode@ConvexHullLibResult@2@IPEBVPxVec3@2@@Z 00000001800199e0 f   InflationConvexHullLib.obj
 0001:00018c00       ?calchull@InflationConvexHullLib@physx@@IEAA?AW4ErrorCode@ConvexHullLibResult@2@PEBVPxVec3@2@IAEAPEAVConvexHull@2@@Z 0000000180019c00 f   InflationConvexHullLib.obj
 0001:00018e40       ?calchullgen@InflationConvexHullLib@physx@@IEAA?AW4ErrorCode@ConvexHullLibResult@2@PEBVPxVec3@2@IAEAVHullTriangles@local@@@Z 0000000180019e40 f   InflationConvexHullLib.obj
 0001:00019e70       ?calchullplanes@InflationConvexHullLib@physx@@IEAA_NPEBVPxVec3@2@AEAVHullTriangles@local@@AEAV?$Array@VPxPlane@physx@@V?$ReflectionAllocator@VPxPlane@physx@@@shdfnd@2@@shdfnd@2@@Z 000000018001ae70 f   InflationConvexHullLib.obj
 0001:0001a550       ?overhull@InflationConvexHullLib@physx@@IEAA_NPEBVPxVec3@2@IAEBV?$Array@VPxPlane@physx@@V?$ReflectionAllocator@VPxPlane@physx@@@shdfnd@2@@shdfnd@2@AEAPEAVConvexHull@2@@Z 000000018001b550 f   InflationConvexHullLib.obj
 0001:0001ade0       ?expandHull@InflationConvexHullLib@physx@@IEAA?AW4ErrorCode@ConvexHullLibResult@2@PEBVPxVec3@2@IAEBVHullTriangles@local@@AEAPEAVConvexHull@2@@Z 000000018001bde0 f   InflationConvexHullLib.obj
 0001:0001bce0       ?expandHullOBB@InflationConvexHullLib@physx@@IEAA?AW4ErrorCode@ConvexHullLibResult@2@PEBVPxVec3@2@IAEBVHullTriangles@local@@AEAPEAVConvexHull@2@@Z 000000018001cce0 f   InflationConvexHullLib.obj
 0001:0001c3d0       ?maxIndexInDirFiltered@local@@YAHPEBVPxVec3@physx@@IAEBV23@PEA_N@Z 000000018001d3d0 f   InflationConvexHullLib.obj
 0001:0001c690       ?maxIndexInDirSterid@local@@YAHPEBVPxVec3@physx@@IAEBV23@AEAV?$Array@EV?$ReflectionAllocator@E@shdfnd@physx@@@shdfnd@3@@Z 000000018001d690 f   InflationConvexHullLib.obj
 0001:0001cb20       ??_GConvexHull@physx@@QEAAPEAXI@Z 000000018001db20 f i InflationConvexHullLib.obj
 0001:0001cc00       ??_EInflationConvexHullLib@physx@@UEAAPEAXI@Z 000000018001dc00 f i InflationConvexHullLib.obj
 0001:0001cc00       ??_GInflationConvexHullLib@physx@@UEAAPEAXI@Z 000000018001dc00 f i InflationConvexHullLib.obj
 0001:0001ccd0       ?allocate@?$Array@EV?$ReflectionAllocator@E@shdfnd@physx@@@shdfnd@physx@@IEAAPEAEI@Z 000000018001dcd0 f i InflationConvexHullLib.obj
 0001:0001cd60       ?allocate@?$Array@HV?$ReflectionAllocator@H@shdfnd@physx@@@shdfnd@physx@@IEAAPEAHI@Z 000000018001dd60 f i InflationConvexHullLib.obj
 0001:0001ce00       ?allocate@?$Array@PEAVTri@local@@V?$ReflectionAllocator@PEAVTri@local@@@shdfnd@physx@@@shdfnd@physx@@IEAAPEAPEAVTri@local@@I@Z 000000018001de00 f i InflationConvexHullLib.obj
 0001:0001cea0       ?b2bfix@HullTriangles@local@@IEAAXPEAVTri@2@0@Z 000000018001dea0 f i InflationConvexHullLib.obj
 0001:0001d2a0       ?createEdgeList@InflationConvexHullLib@physx@@UEAA_NIPEBEPEAPEAEPEAPEAG2@Z 000000018001e2a0 f i InflationConvexHullLib.obj
 0001:0001d2b0       ?createTri@HullTriangles@local@@QEAAPEAVTri@2@HHH@Z 000000018001e2b0 f i InflationConvexHullLib.obj
 0001:0001d3b0       ?findExtrudable@HullTriangles@local@@QEBAPEAVTri@2@M@Z 000000018001e3b0 f i InflationConvexHullLib.obj
 0001:0001dcc0       ?getNormal@Tri@local@@QEBA?AVPxVec3@physx@@PEBV34@@Z 000000018001ecc0 f i InflationConvexHullLib.obj
 0001:0001ddd0       ?growAndPushBack@?$Array@EV?$ReflectionAllocator@E@shdfnd@physx@@@shdfnd@physx@@IEAAAEAEAEBE@Z 000000018001edd0 f i InflationConvexHullLib.obj
 0001:0001de90       ?growAndPushBack@?$Array@HV?$ReflectionAllocator@H@shdfnd@physx@@@shdfnd@physx@@IEAAAEAHAEBH@Z 000000018001ee90 f i InflationConvexHullLib.obj
 0001:0001df50       ?growAndPushBack@?$Array@PEAVTri@local@@V?$ReflectionAllocator@PEAVTri@local@@@shdfnd@physx@@@shdfnd@physx@@IEAAAEAPEAVTri@local@@AEBQEAV45@@Z 000000018001ef50 f i InflationConvexHullLib.obj
 0001:0001e010       ?growAndPushBack@?$Array@UExpandPlane@local@@V?$ReflectionAllocator@UExpandPlane@local@@@shdfnd@physx@@@shdfnd@physx@@IEAAAEAUExpandPlane@local@@AEBU45@@Z 000000018001f010 f i InflationConvexHullLib.obj
 0001:0001e360       ?neib@Tri@local@@QEAAAEAHHH@Z 000000018001f360 f i InflationConvexHullLib.obj
 0001:0001e410       ?recreate@?$Array@EV?$ReflectionAllocator@E@shdfnd@physx@@@shdfnd@physx@@IEAAXI@Z 000000018001f410 f i InflationConvexHullLib.obj
 0001:0001e4b0       ?recreate@?$Array@HV?$ReflectionAllocator@H@shdfnd@physx@@@shdfnd@physx@@IEAAXI@Z 000000018001f4b0 f i InflationConvexHullLib.obj
 0001:0001e550       ?recreate@?$Array@PEAVTri@local@@V?$ReflectionAllocator@PEAVTri@local@@@shdfnd@physx@@@shdfnd@physx@@IEAAXI@Z 000000018001f550 f i InflationConvexHullLib.obj
 0001:0001e5f0       ?removeb2b@HullTriangles@local@@IEAAXPEAVTri@2@0@Z 000000018001f5f0 f i InflationConvexHullLib.obj
 0001:0001e660       ?resize@?$Array@HV?$ReflectionAllocator@H@shdfnd@physx@@@shdfnd@physx@@QEAAXIAEBH@Z 000000018001f660 f i InflationConvexHullLib.obj
 0001:0001e720       ??0QuickHullConvexHullLib@physx@@QEAA@AEBVPxConvexMeshDesc@1@AEBUPxCookingParams@1@@Z 000000018001f720 f   QuickHullConvexHullLib.obj
 0001:0001e820       ??1QuickHullConvexHullLib@physx@@UEAA@XZ 000000018001f820 f   QuickHullConvexHullLib.obj
 0001:0001e8f0       ?createConvexHull@QuickHullConvexHullLib@physx@@UEAA?AW4Enum@PxConvexMeshCookingResult@2@XZ 000000018001f8f0 f   QuickHullConvexHullLib.obj
 0001:0001ed00       ?fillConvexMeshDesc@QuickHullConvexHullLib@physx@@UEAAXAEAVPxConvexMeshDesc@2@@Z 000000018001fd00 f   QuickHullConvexHullLib.obj
 0001:0001ed50       ?createEdgeList@QuickHullConvexHullLib@physx@@UEAA_NIPEBEPEAPEAEPEAPEAG2@Z 000000018001fd50 f   QuickHullConvexHullLib.obj
 0001:0001efa0       ?expandHullOBB@QuickHullConvexHullLib@physx@@IEAA?AW4Enum@PxConvexMeshCookingResult@2@XZ 000000018001ffa0 f   QuickHullConvexHullLib.obj
 0001:0001f3c0       ?expandHull@QuickHullConvexHullLib@physx@@IEAA?AW4Enum@PxConvexMeshCookingResult@2@XZ 00000001800203c0 f   QuickHullConvexHullLib.obj
 0001:0001fcf0       ?cleanupForSimplex@QuickHullConvexHullLib@physx@@IEAA_NPEAVPxVec3@2@IPEAUQuickHullVertex@local@@1AEAM2@Z 0000000180020cf0 f   QuickHullConvexHullLib.obj
 0001:00020950       ?fillConvexMeshDescFromQuickHull@QuickHullConvexHullLib@physx@@IEAAXAEAVPxConvexMeshDesc@2@@Z 0000000180021950 f   QuickHullConvexHullLib.obj
 0001:00020ce0       ?fillConvexMeshDescFromCroppedHull@QuickHullConvexHullLib@physx@@IEAAXAEAVPxConvexMeshDesc@2@@Z 0000000180021ce0 f   QuickHullConvexHullLib.obj
 0001:00020ee0       ?getOppositeFaceDistance@QuickHullHalfEdge@local@@QEBAMXZ 0000000180021ee0 f   QuickHullConvexHullLib.obj
 0001:00020f20       ?mergeAdjacentFace@QuickHullFace@local@@QEAA_NPEAUQuickHullHalfEdge@2@AEAV?$Array@PEAUQuickHullFace@local@@V?$ReflectionAllocator@PEAUQuickHullFace@local@@@shdfnd@physx@@@shdfnd@physx@@@Z 0000000180021f20 f   QuickHullConvexHullLib.obj
 0001:00021370       ?checkFaceConsistency@QuickHullFace@local@@QEAA_NXZ 0000000180022370 f   QuickHullConvexHullLib.obj
 0001:00021380       ?connectHalfEdges@QuickHullFace@local@@AEAAPEAU12@PEAUQuickHullHalfEdge@2@0@Z 0000000180022380 f   QuickHullConvexHullLib.obj
 0001:00021700       ??0QuickHull@local@@QEAA@AEBUPxCookingParams@physx@@AEBVPxConvexMeshDesc@3@@Z 0000000180022700 f   QuickHullConvexHullLib.obj
 0001:000217b0       ??1QuickHull@local@@QEAA@XZ 00000001800227b0 f   QuickHullConvexHullLib.obj
 0001:00021900       ?preallocate@QuickHull@local@@QEAAXI@Z 0000000180022900 f   QuickHullConvexHullLib.obj
 0001:00021a40       ?parseInputVertices@QuickHull@local@@QEAAXPEBVPxVec3@physx@@I@Z 0000000180022a40 f   QuickHullConvexHullLib.obj
 0001:00021bc0       ?releaseHull@QuickHull@local@@QEAAXXZ 0000000180022bc0 f   QuickHullConvexHullLib.obj
 0001:00021c20       ?setPrecomputedMinMax@QuickHull@local@@QEAAXPEBUQuickHullVertex@2@0MM@Z 0000000180022c20 f   QuickHullConvexHullLib.obj
 0001:00021db0       ?buildHull@QuickHull@local@@QEAA?AW4Enum@QuickHullResult@2@XZ 0000000180022db0 f   QuickHullConvexHullLib.obj
 0001:00021fd0       ?maxNumVertsPerFace@QuickHull@local@@QEBAIXZ 0000000180022fd0 f   QuickHullConvexHullLib.obj
 0001:00022010       ?computeMinMaxVerts@QuickHull@local@@IEAAXXZ 0000000180023010 f   QuickHullConvexHullLib.obj
 0001:00022400       ?findSimplex@QuickHull@local@@IEAA_NXZ 0000000180023400 f   QuickHullConvexHullLib.obj
 0001:000230b0       ?addSimplex@QuickHull@local@@IEAAXPEAUQuickHullVertex@2@_N@Z 00000001800240b0 f   QuickHullConvexHullLib.obj
 0001:00023580       ?nextPointToAdd@QuickHull@local@@IEAAPEAUQuickHullVertex@2@AEAPEAUQuickHullFace@2@@Z 0000000180024580 f   QuickHullConvexHullLib.obj
 0001:00023700       ?addPointToHull@QuickHull@local@@IEAA_NPEBUQuickHullVertex@2@AEAUQuickHullFace@2@AEA_N@Z 0000000180024700 f   QuickHullConvexHullLib.obj
 0001:000239d0       ?createTriangle@QuickHull@local@@IEAAPEAUQuickHullFace@2@AEBUQuickHullVertex@2@00@Z 00000001800249d0 f   QuickHullConvexHullLib.obj
 0001:00023dc0       ?addPointToFace@QuickHull@local@@IEAAXAEAUQuickHullFace@2@PEAUQuickHullVertex@2@M@Z 0000000180024dc0 f   QuickHullConvexHullLib.obj
 0001:00023e10       ?removeEyePointFromFace@QuickHull@local@@IEAAXAEAUQuickHullFace@2@PEBUQuickHullVertex@2@@Z 0000000180024e10 f   QuickHullConvexHullLib.obj
 0001:00023e30       ?calculateHorizon@QuickHull@local@@IEAAXAEBVPxVec3@physx@@PEAUQuickHullHalfEdge@2@AEAUQuickHullFace@2@AEAV?$Array@PEAUQuickHullHalfEdge@local@@V?$ReflectionAllocator@PEAUQuickHullHalfEdge@local@@@shdfnd@physx@@@shdfnd@4@AEAV?$Array@PEAUQuickHullFace@local@@V?$ReflectionAllocator@PEAUQuickHullFace@local@@@shdfnd@physx@@@84@@Z 0000000180024e30 f   QuickHullConvexHullLib.obj
 0001:00023ff0       ?addNewFacesFromHorizon@QuickHull@local@@IEAAXPEBUQuickHullVertex@2@AEBV?$Array@PEAUQuickHullHalfEdge@local@@V?$ReflectionAllocator@PEAUQuickHullHalfEdge@local@@@shdfnd@physx@@@shdfnd@physx@@AEAV?$Array@PEAUQuickHullFace@local@@V?$ReflectionAllocator@PEAUQuickHullFace@local@@@shdfnd@physx@@@56@@Z 0000000180024ff0 f   QuickHullConvexHullLib.obj
 0001:00024140       ?doAdjacentMerge@QuickHull@local@@IEAA_NAEAUQuickHullFace@2@_NAEA_N@Z 0000000180025140 f   QuickHullConvexHullLib.obj
 0001:00024490       ?doPostAdjacentMerge@QuickHull@local@@IEAA_NAEAUQuickHullFace@2@M@Z 0000000180025490 f   QuickHullConvexHullLib.obj
 0001:000246b0       ?deleteFacePoints@QuickHull@local@@IEAAXAEAUQuickHullFace@2@PEAU32@@Z 00000001800256b0 f   QuickHullConvexHullLib.obj
 0001:000247d0       ?resolveUnclaimedPoints@QuickHull@local@@IEAAXAEBV?$Array@PEAUQuickHullFace@local@@V?$ReflectionAllocator@PEAUQuickHullFace@local@@@shdfnd@physx@@@shdfnd@physx@@@Z 00000001800257d0 f   QuickHullConvexHullLib.obj
 0001:00024a50       ?postMergeHull@QuickHull@local@@IEAAXXZ 0000000180025a50 f   QuickHullConvexHullLib.obj
 0001:00024cb0       ?canMergeFaces@QuickHull@local@@IEAA_NAEBUQuickHullHalfEdge@2@@Z 0000000180025cb0 f   QuickHullConvexHullLib.obj
 0001:000254d0       ?getExpandPoint@local@@YAXAEBUQuickHullHalfEdge@1@AEAUExpandPoint@1@PEBV?$Array@IV?$ReflectionAllocator@I@shdfnd@physx@@@shdfnd@physx@@@Z 00000001800264d0 f   QuickHullConvexHullLib.obj
 0001:000255a0       ?addExpandPoint@local@@YAXAEBUExpandPoint@1@AEAV?$Array@UExpandPoint@local@@V?$ReflectionAllocator@UExpandPoint@local@@@shdfnd@physx@@@shdfnd@physx@@@Z 00000001800265a0 f   QuickHullConvexHullLib.obj
 0001:00025670       ??0PxPlane@physx@@QEAA@AEBV01@@Z 0000000180026670 f i QuickHullConvexHullLib.obj
 0001:00025690       ??0QuickHullVertex@local@@QEAA@XZ 0000000180026690 f i QuickHullConvexHullLib.obj
 0001:000256a0       ??1?$MemBlock@UQuickHullFace@local@@$00@local@@QEAA@XZ 00000001800266a0 f i QuickHullConvexHullLib.obj
 0001:00025730       ??1?$MemBlock@UQuickHullHalfEdge@local@@$0A@@local@@QEAA@XZ 0000000180026730 f i QuickHullConvexHullLib.obj
 0001:000257c0       ??_EQuickHullConvexHullLib@physx@@UEAAPEAXI@Z 00000001800267c0 f i QuickHullConvexHullLib.obj
 0001:000257c0       ??_GQuickHullConvexHullLib@physx@@UEAAPEAXI@Z 00000001800267c0 f i QuickHullConvexHullLib.obj
 0001:000258c0       ??__G@YAXPEAX0_K1P6APEAX00@Z@Z 00000001800268c0 f i QuickHullConvexHullLib.obj
 0001:00025920       ?allocate@?$Array@PEAUQuickHullFace@local@@V?$ReflectionAllocator@PEAUQuickHullFace@local@@@shdfnd@physx@@@shdfnd@physx@@IEAAPEAPEAUQuickHullFace@local@@I@Z 0000000180026920 f i QuickHullConvexHullLib.obj
 0001:000259c0       ?allocate@?$Array@PEAUQuickHullHalfEdge@local@@V?$ReflectionAllocator@PEAUQuickHullHalfEdge@local@@@shdfnd@physx@@@shdfnd@physx@@IEAAPEAPEAUQuickHullHalfEdge@local@@I@Z 00000001800269c0 f i QuickHullConvexHullLib.obj
 0001:00025a60       ?allocate@?$Array@PEAUQuickHullVertex@local@@V?$ReflectionAllocator@PEAUQuickHullVertex@local@@@shdfnd@physx@@@shdfnd@physx@@IEAAPEAPEAUQuickHullVertex@local@@I@Z 0000000180026a60 f i QuickHullConvexHullLib.obj
 0001:00025b00       ?allocate@?$Array@UExpandPoint@local@@V?$ReflectionAllocator@UExpandPoint@local@@@shdfnd@physx@@@shdfnd@physx@@IEAAPEAUExpandPoint@local@@I@Z 0000000180026b00 f i QuickHullConvexHullLib.obj
 0001:00025ba0       ?copy@?$Array@UExpandPoint@local@@V?$ReflectionAllocator@UExpandPoint@local@@@shdfnd@physx@@@shdfnd@physx@@KAXPEAUExpandPoint@local@@0PEBU45@@Z 0000000180026ba0 f i QuickHullConvexHullLib.obj
 0001:00025c50       ?getFreeItem@?$MemBlock@UQuickHullFace@local@@$00@local@@QEAAPEAUQuickHullFace@2@XZ 0000000180026c50 f i QuickHullConvexHullLib.obj
 0001:00025d80       ?getFreeItem@?$MemBlock@UQuickHullHalfEdge@local@@$0A@@local@@QEAAPEAUQuickHullHalfEdge@2@XZ 0000000180026d80 f i QuickHullConvexHullLib.obj
 0001:00025e50       ?growAndPushBack@?$Array@PEAUQuickHullFace@local@@V?$ReflectionAllocator@PEAUQuickHullFace@local@@@shdfnd@physx@@@shdfnd@physx@@IEAAAEAPEAUQuickHullFace@local@@AEBQEAU45@@Z 0000000180026e50 f i QuickHullConvexHullLib.obj
 0001:00025f10       ?growAndPushBack@?$Array@PEAUQuickHullHalfEdge@local@@V?$ReflectionAllocator@PEAUQuickHullHalfEdge@local@@@shdfnd@physx@@@shdfnd@physx@@IEAAAEAPEAUQuickHullHalfEdge@local@@AEBQEAU45@@Z 0000000180026f10 f i QuickHullConvexHullLib.obj
 0001:00025fd0       ?growAndPushBack@?$Array@PEAUQuickHullVertex@local@@V?$ReflectionAllocator@PEAUQuickHullVertex@local@@@shdfnd@physx@@@shdfnd@physx@@IEAAAEAPEAUQuickHullVertex@local@@AEBQEAU45@@Z 0000000180026fd0 f i QuickHullConvexHullLib.obj
 0001:00026090       ?growAndPushBack@?$Array@UExpandPoint@local@@V?$ReflectionAllocator@UExpandPoint@local@@@shdfnd@physx@@@shdfnd@physx@@IEAAAEAUExpandPoint@local@@AEBU45@@Z 0000000180027090 f i QuickHullConvexHullLib.obj
 0001:00026190       ?init@?$MemBlock@UQuickHullFace@local@@$00@local@@QEAAXI@Z 0000000180027190 f i QuickHullConvexHullLib.obj
 0001:00026290       ?init@?$MemBlock@UQuickHullHalfEdge@local@@$0A@@local@@QEAAXI@Z 0000000180027290 f i QuickHullConvexHullLib.obj
 0001:00026330       ?recreate@?$Array@PEAUQuickHullFace@local@@V?$ReflectionAllocator@PEAUQuickHullFace@local@@@shdfnd@physx@@@shdfnd@physx@@IEAAXI@Z 0000000180027330 f i QuickHullConvexHullLib.obj
 0001:000263d0       ?recreate@?$Array@PEAUQuickHullHalfEdge@local@@V?$ReflectionAllocator@PEAUQuickHullHalfEdge@local@@@shdfnd@physx@@@shdfnd@physx@@IEAAXI@Z 00000001800273d0 f i QuickHullConvexHullLib.obj
 0001:00026470       ?recreate@?$Array@PEAUQuickHullVertex@local@@V?$ReflectionAllocator@PEAUQuickHullVertex@local@@@shdfnd@physx@@@shdfnd@physx@@IEAAXI@Z 0000000180027470 f i QuickHullConvexHullLib.obj
 0001:00026510       ?recreate@?$Array@UExpandPoint@local@@V?$ReflectionAllocator@UExpandPoint@local@@@shdfnd@physx@@@shdfnd@physx@@IEAAXI@Z 0000000180027510 f i QuickHullConvexHullLib.obj
 0001:000265a0       ?computeVolumeIntegrals@physx@@YA_NAEBVPxSimpleTriangleMesh@1@MAEAUPxIntegrals@1@@Z 00000001800275a0 f   VolumeIntegration.obj
 0001:00026610       ?computeVolumeIntegralsEberly@physx@@YA_NAEBVPxConvexMeshDesc@1@MAEAUPxIntegrals@1@AEBVPxVec3@1@@Z 0000000180027610 f   VolumeIntegration.obj
 0001:00026660       ?computeVolumeIntegralsEberlySIMD@physx@@YA_NAEBVPxConvexMeshDesc@1@MAEAUPxIntegrals@1@AEBVPxVec3@1@@Z 0000000180027660 f   VolumeIntegration.obj
 0001:000288a0       ?ComputeNbBoundaryEdges@AdjTriangle@physx@@QEBAIXZ 00000001800298a0 f   Adjacencies.obj
 0001:000288f0       ?ComputeNbNeighbors@AdjTriangle@physx@@QEBAIXZ 00000001800298f0 f   Adjacencies.obj
 0001:00028940       ?HasNeighbor@AdjTriangle@physx@@QEBA_NIPEAI@Z 0000000180029940 f   Adjacencies.obj
 0001:000289b0       ?Flip@AdjTriangle@physx@@QEAAXXZ 00000001800299b0 f   Adjacencies.obj
 0001:000289d0       ??0Adjacencies@physx@@QEAA@XZ 00000001800299d0 f   Adjacencies.obj
 0001:000289f0       ??1Adjacencies@physx@@QEAA@XZ 00000001800299f0 f   Adjacencies.obj
 0001:00028a60       ?Load@Adjacencies@physx@@QEAA_NAEAVPxInputStream@2@@Z 0000000180029a60 f   Adjacencies.obj
 0001:00028b40       ?ComputeNbBoundaryEdges@Adjacencies@physx@@QEBAIXZ 0000000180029b40 f   Adjacencies.obj
 0001:00028bc0       ?GetBoundaryVertices@Adjacencies@physx@@QEBA_NIPEA_NPEBU?$TriangleT@I@Gu@2@@Z 0000000180029bc0 f   Adjacencies.obj
 0001:00028d20       ?MakeLastRef@Adjacencies@physx@@QEAA_NAEAVAdjTriangle@2@IPEAU?$TriangleT@I@Gu@2@@Z 0000000180029d20 f   Adjacencies.obj
 0001:00028f60       ?AssignNewEdgeCode@Adjacencies@physx@@AEAAXIE@Z 0000000180029f60 f   Adjacencies.obj
 0001:00028fb0       ??0AdjacenciesBuilder@physx@@QEAA@XZ 0000000180029fb0 f   Adjacencies.obj
 0001:00028fd0       ??1AdjacenciesBuilder@physx@@QEAA@XZ 0000000180029fd0 f   Adjacencies.obj
 0001:00028fe0       ?Init@AdjacenciesBuilder@physx@@QEAA_NAEBUADJACENCIESCREATE@2@@Z 0000000180029fe0 f   Adjacencies.obj
 0001:00029300       ??$?_UV?$ReflectionAllocator@VAdjTriangle@physx@@@shdfnd@physx@@@UserAllocated@shdfnd@physx@@SAPEAX_KV?$ReflectionAllocator@VAdjTriangle@physx@@@12@PEBDH@Z 000000018002a300 f i Adjacencies.obj
 0001:000293a0       ??0AdjEdge@@QEAA@XZ        000000018002a3a0 f i Adjacencies.obj
 0001:000293b0       ??0AdjTriangle@physx@@QEAA@XZ 000000018002a3b0 f i Adjacencies.obj
 0001:000293c0       ??1AdjEdge@@QEAA@XZ        000000018002a3c0 f i Adjacencies.obj
 0001:000293d0       ??1AdjTriangle@physx@@QEAA@XZ 000000018002a3d0 f i Adjacencies.obj
 0001:000293e0       ??_EAdjEdge@@QEAAPEAXI@Z   000000018002a3e0 f i Adjacencies.obj
 0001:00029460       ??_EAdjTriangle@physx@@QEAAPEAXI@Z 000000018002a460 f i Adjacencies.obj
 0001:000294e0       ??_I@YAXPEAX_K1P6AX0@Z@Z   000000018002a4e0 f i Adjacencies.obj
 0001:00029ae0       PxCreateCooking            000000018002aae0 f   Cooking.obj
 0001:00029c00       ?release@Cooking@physx@@UEAAXXZ 000000018002ac00 f   Cooking.obj
 0001:00029c30       ?setParams@Cooking@physx@@UEAAXAEBUPxCookingParams@2@@Z 000000018002ac30 f   Cooking.obj
 0001:00029cb0       ?getParams@Cooking@physx@@UEBAAEBUPxCookingParams@2@XZ 000000018002acb0 f   Cooking.obj
 0001:00029cc0       ?platformMismatch@Cooking@physx@@UEBA_NXZ 000000018002acc0 f   Cooking.obj
 0001:00029ce0       ?cookTriangleMesh@Cooking@physx@@UEBA_NAEBVPxTriangleMeshDesc@2@AEAVPxOutputStream@2@PEAW4Enum@PxTriangleMeshCookingResult@2@@Z 000000018002ace0 f   Cooking.obj
 0001:00029e50       ?createTriangleMesh@Cooking@physx@@UEBAPEAVPxTriangleMesh@2@AEBVPxTriangleMeshDesc@2@AEAVPxPhysicsInsertionCallback@2@PEAW4Enum@PxTriangleMeshCookingResult@2@@Z 000000018002ae50 f   Cooking.obj
 0001:00029fc0       ?validateTriangleMesh@Cooking@physx@@UEBA_NAEBVPxTriangleMeshDesc@2@@Z 000000018002afc0 f   Cooking.obj
 0001:0002a0d0       ?cookConvexMesh@Cooking@physx@@UEBA_NAEBVPxConvexMeshDesc@2@AEAVPxOutputStream@2@PEAW4Enum@PxConvexMeshCookingResult@2@@Z 000000018002b0d0 f   Cooking.obj
 0001:0002a340       ?createConvexMesh@Cooking@physx@@UEBAPEAVPxConvexMesh@2@AEBVPxConvexMeshDesc@2@AEAVPxPhysicsInsertionCallback@2@PEAW4Enum@PxConvexMeshCookingResult@2@@Z 000000018002b340 f   Cooking.obj
 0001:0002a650       ?validateConvexMesh@Cooking@physx@@UEBA_NAEBVPxConvexMeshDesc@2@@Z 000000018002b650 f   Cooking.obj
 0001:0002a6c0       ?computeHullPolygons@Cooking@physx@@UEBA_NAEBVPxSimpleTriangleMesh@2@AEAVPxAllocatorCallback@2@AEAIAEAPEAVPxVec3@2@2AEAPEAI2AEAPEAUPxHullPolygon@2@@Z 000000018002b6c0 f   Cooking.obj
 0001:0002a8a0       ?cookHeightField@Cooking@physx@@UEBA_NAEBVPxHeightFieldDesc@2@AEAVPxOutputStream@2@@Z 000000018002b8a0 f   Cooking.obj
 0001:0002a9c0       ?createHeightField@Cooking@physx@@UEBAPEAVPxHeightField@2@AEBVPxHeightFieldDesc@2@AEAVPxPhysicsInsertionCallback@2@@Z 000000018002b9c0 f   Cooking.obj
 0001:0002ab50       ?cookConvexMeshInternal@Cooking@physx@@AEBA_NAEBVPxConvexMeshDesc@2@AEAVConvexMeshBuilder@2@PEAVConvexHullLib@2@PEAW4Enum@PxConvexMeshCookingResult@2@@Z 000000018002bb50 f   Cooking.obj
 0001:0002ae00       ?cookTriangleMesh@Cooking@physx@@AEBA_NAEAVTriangleMeshBuilder@2@AEBVPxTriangleMeshDesc@2@AEAVPxOutputStream@2@PEAW4Enum@PxTriangleMeshCookingResult@2@@Z 000000018002be00 f   Cooking.obj
 0001:0002aea0       ?createTriangleMesh@Cooking@physx@@AEBAPEAVPxTriangleMesh@2@AEAVTriangleMeshBuilder@2@AEBVPxTriangleMeshDesc@2@AEAVPxPhysicsInsertionCallback@2@PEAW4Enum@PxTriangleMeshCookingResult@2@@Z 000000018002bea0 f   Cooking.obj
 0001:0002af50       ??1PxCooking@physx@@MEAA@XZ 000000018002bf50 f i Cooking.obj
 0001:0002af60       ??_ECooking@physx@@UEAAPEAXI@Z 000000018002bf60 f i Cooking.obj
 0001:0002af60       ??_GCooking@physx@@UEAAPEAXI@Z 000000018002bf60 f i Cooking.obj
 0001:0002afb0       ??_EPxCooking@physx@@MEAAPEAXI@Z 000000018002bfb0 f i Cooking.obj
 0001:0002afb0       ??_GPxCooking@physx@@MEAAPEAXI@Z 000000018002bfb0 f i Cooking.obj
 0001:0002afe0       ??0ReducedVertexCloud@physx@@QEAA@PEBVPxVec3@1@I@Z 000000018002bfe0 f   CookingUtils.obj
 0001:0002b000       ??1ReducedVertexCloud@physx@@QEAA@XZ 000000018002c000 f   CookingUtils.obj
 0001:0002b010       ?Clean@ReducedVertexCloud@physx@@QEAAAEAV12@XZ 000000018002c010 f   CookingUtils.obj
 0001:0002b080       ?Reduce@ReducedVertexCloud@physx@@QEAA_NPEAUREDUCEDCLOUD@2@@Z 000000018002c080 f   CookingUtils.obj
 0001:0002b3c0       ??0EdgeList@Gu@physx@@QEAA@XZ 000000018002c3c0 f   EdgeList.obj
 0001:0002b3e0       ??1EdgeList@Gu@physx@@QEAA@XZ 000000018002c3e0 f   EdgeList.obj
 0001:0002b490       ?load@EdgeList@Gu@physx@@QEAA_NAEAVPxInputStream@3@@Z 000000018002c490 f   EdgeList.obj
 0001:0002b680       ??0EdgeListBuilder@Gu@physx@@QEAA@XZ 000000018002c680 f   EdgeList.obj
 0001:0002b6a0       ??1EdgeListBuilder@Gu@physx@@QEAA@XZ 000000018002c6a0 f   EdgeList.obj
 0001:0002b6b0       ?init@EdgeListBuilder@Gu@physx@@QEAA_NAEBUEDGELISTCREATE@23@@Z 000000018002c6b0 f   EdgeList.obj
 0001:0002b7e0       ?createFacesToEdges@EdgeListBuilder@Gu@physx@@AEAA_NIPEBIPEBG@Z 000000018002c7e0 f   EdgeList.obj
 0001:0002bc20       ?createEdgesToFaces@EdgeListBuilder@Gu@physx@@AEAA_NIPEBIPEBG@Z 000000018002cc20 f   EdgeList.obj
 0001:0002be80       ?computeActiveEdges@EdgeListBuilder@Gu@physx@@AEAA_NIPEBIPEBGPEBVPxVec3@3@M@Z 000000018002ce80 f   EdgeList.obj
 0001:0002d510       ??$?_UI@@YAPEAX_KV?$ReflectionAllocator@I@shdfnd@physx@@PEBDH@Z 000000018002e510 f i EdgeList.obj
 0001:0002d5b0       ??0MeshCleaner@physx@@QEAA@IPEBVPxVec3@1@IPEBIM@Z 000000018002e5b0 f   MeshCleaner.obj
 0001:0002df60       ??1MeshCleaner@physx@@QEAA@XZ 000000018002ef60 f   MeshCleaner.obj
 0001:0002dff0       ?createQuantizer@physx@@YAPEAVQuantizer@1@XZ 000000018002eff0 f   Quantizer.obj
 0001:0002e0a0       ?kmeans_cluster3d@@YAIPEBVPxVec3@physx@@IIPEAV12@PEAIMM@Z 000000018002f0a0 f   Quantizer.obj
 0001:0002e0b0       ??$kmeans_cluster@VPxVec3@physx@@M@@YAIPEBVPxVec3@physx@@IIPEAV01@PEAIMM@Z 000000018002f0b0 f i Quantizer.obj
 0001:0002ea70       ??1Quantizer@physx@@MEAA@XZ 000000018002fa70 f i Quantizer.obj
 0001:0002ea80       ??1QuantizerImpl@@EEAA@XZ  000000018002fa80 f i Quantizer.obj
 0001:0002eb00       ??_EQuantizer@physx@@MEAAPEAXI@Z 000000018002fb00 f i Quantizer.obj
 0001:0002eb00       ??_GQuantizer@physx@@MEAAPEAXI@Z 000000018002fb00 f i Quantizer.obj
 0001:0002eb30       ??_EQuantizerImpl@@EEAAPEAXI@Z 000000018002fb30 f i Quantizer.obj
 0001:0002eb30       ??_GQuantizerImpl@@EEAAPEAXI@Z 000000018002fb30 f i Quantizer.obj
 0001:0002ec00       ?getDenormalizeCenter@QuantizerImpl@@UEBAAEBVPxVec3@physx@@XZ 000000018002fc00 f i Quantizer.obj
 0001:0002ec10       ?getDenormalizeScale@QuantizerImpl@@UEBAAEBVPxVec3@physx@@XZ 000000018002fc10 f i Quantizer.obj
 0001:0002ec20       ?kmeansQuantize3D@QuantizerImpl@@UEAAPEBVPxVec3@physx@@IPEBV23@I_NIAEAI@Z 000000018002fc20 f i Quantizer.obj
 0001:0002ee80       ?normalizeInput@QuantizerImpl@@AEAAXIPEBVPxVec3@physx@@I@Z 000000018002fe80 f i Quantizer.obj
 0001:0002f2d0       ?release@QuantizerImpl@@UEAAXXZ 00000001800302d0 f i Quantizer.obj
 0001:0002f2e2       LoadLibraryA               00000001800302e2 f   kernel32:KERNEL32.dll
 0001:0002f2e8       __imp_load_PxGetFoundation 00000001800302e8 f   PxFoundation_x64:PxFoundation_x64.dll
 0001:0002f2f4       PxGetFoundation            00000001800302f4 f   PxFoundation_x64:PxFoundation_x64.dll
 0001:0002f2fa       __tailMerge_pxfoundation_x64_dll 00000001800302fa     PxFoundation_x64:PxFoundation_x64.dll
 0001:0002f373       __imp_load_?getAllocator@shdfnd@physx@@YAAEAVPxAllocatorCallback@2@XZ 0000000180030373 f   PxFoundation_x64:PxFoundation_x64.dll
 0001:0002f37f       ?getAllocator@shdfnd@physx@@YAAEAVPxAllocatorCallback@2@XZ 000000018003037f f   PxFoundation_x64:PxFoundation_x64.dll
 0001:0002f385       __imp_load_?allocate@TempAllocator@shdfnd@physx@@QEAAPEAX_KPEBDH@Z 0000000180030385 f   PxFoundation_x64:PxFoundation_x64.dll
 0001:0002f391       ?allocate@TempAllocator@shdfnd@physx@@QEAAPEAX_KPEBDH@Z 0000000180030391 f   PxFoundation_x64:PxFoundation_x64.dll
 0001:0002f397       __imp_load_?deallocate@TempAllocator@shdfnd@physx@@QEAAXPEAX@Z 0000000180030397 f   PxFoundation_x64:PxFoundation_x64.dll
 0001:0002f3a3       ?deallocate@TempAllocator@shdfnd@physx@@QEAAXPEAX@Z 00000001800303a3 f   PxFoundation_x64:PxFoundation_x64.dll
 0001:0002f3a9       __imp_load_?getInstance@Foundation@shdfnd@physx@@SAAEAV123@XZ 00000001800303a9 f   PxFoundation_x64:PxFoundation_x64.dll
 0001:0002f3b5       ?getInstance@Foundation@shdfnd@physx@@SAAEAV123@XZ 00000001800303b5 f   PxFoundation_x64:PxFoundation_x64.dll
 0001:0002f3bb       __imp_load_?error@Foundation@shdfnd@physx@@QEAAXW4Enum@PxErrorCode@3@PEBDH1ZZ 00000001800303bb f   PxFoundation_x64:PxFoundation_x64.dll
 0001:0002f3c7       ?error@Foundation@shdfnd@physx@@QEAAXW4Enum@PxErrorCode@3@PEBDH1ZZ 00000001800303c7 f   PxFoundation_x64:PxFoundation_x64.dll
 0001:0002f3cd       __imp_load_?PxDiagonalize@physx@@YA?AVPxVec3@1@AEBVPxMat33@1@AEAVPxQuat@1@@Z 00000001800303cd f   PxFoundation_x64:PxFoundation_x64.dll
 0001:0002f3d9       ?PxDiagonalize@physx@@YA?AVPxVec3@1@AEBVPxMat33@1@AEAVPxQuat@1@@Z 00000001800303d9 f   PxFoundation_x64:PxFoundation_x64.dll
 0001:0002f3df       __imp_load_?incRefCount@Foundation@shdfnd@physx@@SAXXZ 00000001800303df f   PxFoundation_x64:PxFoundation_x64.dll
 0001:0002f3eb       ?incRefCount@Foundation@shdfnd@physx@@SAXXZ 00000001800303eb f   PxFoundation_x64:PxFoundation_x64.dll
 0001:0002f3f1       __imp_load_?decRefCount@Foundation@shdfnd@physx@@SAXXZ 00000001800303f1 f   PxFoundation_x64:PxFoundation_x64.dll
 0001:0002f3fd       ?decRefCount@Foundation@shdfnd@physx@@SAXXZ 00000001800303fd f   PxFoundation_x64:PxFoundation_x64.dll
 0001:0002f403       __imp_load_??0FPUGuard@shdfnd@physx@@QEAA@XZ 0000000180030403 f   PxFoundation_x64:PxFoundation_x64.dll
 0001:0002f40f       ??0FPUGuard@shdfnd@physx@@QEAA@XZ 000000018003040f f   PxFoundation_x64:PxFoundation_x64.dll
 0001:0002f415       __imp_load_??1FPUGuard@shdfnd@physx@@QEAA@XZ 0000000180030415 f   PxFoundation_x64:PxFoundation_x64.dll
 0001:0002f421       ??1FPUGuard@shdfnd@physx@@QEAA@XZ 0000000180030421 f   PxFoundation_x64:PxFoundation_x64.dll
 0001:0002f427       __imp_load_?writeWord@physx@@YAXG_NAEAVPxOutputStream@1@@Z 0000000180030427 f   PhysX3Common_x64:PhysX3Common_x64.dll
 0001:0002f433       ?writeWord@physx@@YAXG_NAEAVPxOutputStream@1@@Z 0000000180030433 f   PhysX3Common_x64:PhysX3Common_x64.dll
 0001:0002f439       __tailMerge_physx3common_x64_dll 0000000180030439     PhysX3Common_x64:PhysX3Common_x64.dll
 0001:0002f4b2       __imp_load_?writeDword@physx@@YAXI_NAEAVPxOutputStream@1@@Z 00000001800304b2 f   PhysX3Common_x64:PhysX3Common_x64.dll
 0001:0002f4be       ?writeDword@physx@@YAXI_NAEAVPxOutputStream@1@@Z 00000001800304be f   PhysX3Common_x64:PhysX3Common_x64.dll
 0001:0002f4c4       __imp_load_?writeFloat@physx@@YAXM_NAEAVPxOutputStream@1@@Z 00000001800304c4 f   PhysX3Common_x64:PhysX3Common_x64.dll
 0001:0002f4d0       ?writeFloat@physx@@YAXM_NAEAVPxOutputStream@1@@Z 00000001800304d0 f   PhysX3Common_x64:PhysX3Common_x64.dll
 0001:0002f4d6       __imp_load_?writeHeader@physx@@YA_NCCCCI_NAEAVPxOutputStream@1@@Z 00000001800304d6 f   PhysX3Common_x64:PhysX3Common_x64.dll
 0001:0002f4e2       ?writeHeader@physx@@YA_NCCCCI_NAEAVPxOutputStream@1@@Z 00000001800304e2 f   PhysX3Common_x64:PhysX3Common_x64.dll
 0001:0002f4e8       __imp_load_??0SourceMesh@Gu@physx@@QEAA@XZ 00000001800304e8 f   PhysX3Common_x64:PhysX3Common_x64.dll
 0001:0002f4f4       ??0SourceMesh@Gu@physx@@QEAA@XZ 00000001800304f4 f   PhysX3Common_x64:PhysX3Common_x64.dll
 0001:0002f4fa       __imp_load_??1SourceMesh@Gu@physx@@QEAA@XZ 00000001800304fa f   PhysX3Common_x64:PhysX3Common_x64.dll
 0001:0002f506       ??1SourceMesh@Gu@physx@@QEAA@XZ 0000000180030506 f   PhysX3Common_x64:PhysX3Common_x64.dll
 0001:0002f50c       __imp_load_??0BV4Tree@Gu@physx@@QEAA@XZ 000000018003050c f   PhysX3Common_x64:PhysX3Common_x64.dll
 0001:0002f518       ??0BV4Tree@Gu@physx@@QEAA@XZ 0000000180030518 f   PhysX3Common_x64:PhysX3Common_x64.dll
 0001:0002f51e       __imp_load_??1BV4Tree@Gu@physx@@QEAA@XZ 000000018003051e f   PhysX3Common_x64:PhysX3Common_x64.dll
 0001:0002f52a       ??1BV4Tree@Gu@physx@@QEAA@XZ 000000018003052a f   PhysX3Common_x64:PhysX3Common_x64.dll
 0001:0002f530       __imp_load_??0BV32Tree@Gu@physx@@QEAA@XZ 0000000180030530 f   PhysX3Common_x64:PhysX3Common_x64.dll
 0001:0002f53c       ??0BV32Tree@Gu@physx@@QEAA@XZ 000000018003053c f   PhysX3Common_x64:PhysX3Common_x64.dll
 0001:0002f542       __imp_load_??1BV32Tree@Gu@physx@@QEAA@XZ 0000000180030542 f   PhysX3Common_x64:PhysX3Common_x64.dll
 0001:0002f54e       ??1BV32Tree@Gu@physx@@QEAA@XZ 000000018003054e f   PhysX3Common_x64:PhysX3Common_x64.dll
 0001:0002f554       __imp_load_?writeFloatBuffer@physx@@YAXPEBMI_NAEAVPxOutputStream@1@@Z 0000000180030554 f   PhysX3Common_x64:PhysX3Common_x64.dll
 0001:0002f560       ?writeFloatBuffer@physx@@YAXPEBMI_NAEAVPxOutputStream@1@@Z 0000000180030560 f   PhysX3Common_x64:PhysX3Common_x64.dll
 0001:0002f566       __imp_load_?writeWordBuffer@physx@@YAXPEBGI_NAEAVPxOutputStream@1@@Z 0000000180030566 f   PhysX3Common_x64:PhysX3Common_x64.dll
 0001:0002f572       ?writeWordBuffer@physx@@YAXPEBGI_NAEAVPxOutputStream@1@@Z 0000000180030572 f   PhysX3Common_x64:PhysX3Common_x64.dll
 0001:0002f578       __imp_load_?computeMaxIndex@physx@@YAIPEBII@Z 0000000180030578 f   PhysX3Common_x64:PhysX3Common_x64.dll
 0001:0002f584       ?computeMaxIndex@physx@@YAIPEBII@Z 0000000180030584 f   PhysX3Common_x64:PhysX3Common_x64.dll
 0001:0002f58a       __imp_load_?storeIndices@physx@@YAXIIPEBIAEAVPxOutputStream@1@_N@Z 000000018003058a f   PhysX3Common_x64:PhysX3Common_x64.dll
 0001:0002f596       ?storeIndices@physx@@YAXIIPEBIAEAVPxOutputStream@1@_N@Z 0000000180030596 f   PhysX3Common_x64:PhysX3Common_x64.dll
 0001:0002f59c       __imp_load_?computeBoundsAroundVertices@Gu@physx@@YAXAEAVPxBounds3@2@IPEIBVPxVec3@2@@Z 000000018003059c f   PhysX3Common_x64:PhysX3Common_x64.dll
 0001:0002f5a8       ?computeBoundsAroundVertices@Gu@physx@@YAXAEAVPxBounds3@2@IPEIBVPxVec3@2@@Z 00000001800305a8 f   PhysX3Common_x64:PhysX3Common_x64.dll
 0001:0002f5ae       __imp_load_?BuildBV4Ex@Gu@physx@@YA_NAEAVBV4Tree@12@AEAVSourceMesh@12@MI@Z 00000001800305ae f   PhysX3Common_x64:PhysX3Common_x64.dll
 0001:0002f5ba       ?BuildBV4Ex@Gu@physx@@YA_NAEAVBV4Tree@12@AEAVSourceMesh@12@MI@Z 00000001800305ba f   PhysX3Common_x64:PhysX3Common_x64.dll
 0001:0002f5c0       __imp_load_?BuildBV32Ex@Gu@physx@@YA_NAEAVBV32Tree@12@AEAVSourceMesh@12@MI@Z 00000001800305c0 f   PhysX3Common_x64:PhysX3Common_x64.dll
 0001:0002f5cc       ?BuildBV32Ex@Gu@physx@@YA_NAEAVBV32Tree@12@AEAVSourceMesh@12@MI@Z 00000001800305cc f   PhysX3Common_x64:PhysX3Common_x64.dll
 0001:0002f5d2       __imp_load_?computeMaxIndex@physx@@YAGPEBGI@Z 00000001800305d2 f   PhysX3Common_x64:PhysX3Common_x64.dll
 0001:0002f5de       ?computeMaxIndex@physx@@YAGPEBGI@Z 00000001800305de f   PhysX3Common_x64:PhysX3Common_x64.dll
 0001:0002f5e4       __imp_load_?WriteHeader@Gu@physx@@YA_NEEEEI_NAEAVPxOutputStream@2@@Z 00000001800305e4 f   PhysX3Common_x64:PhysX3Common_x64.dll
 0001:0002f5f0       ?WriteHeader@Gu@physx@@YA_NEEEEI_NAEAVPxOutputStream@2@@Z 00000001800305f0 f   PhysX3Common_x64:PhysX3Common_x64.dll
 0001:0002f5f6       __imp_load_?StoreIndices@Gu@physx@@YAXGIPEBGAEAVPxOutputStream@2@_N@Z 00000001800305f6 f   PhysX3Common_x64:PhysX3Common_x64.dll
 0001:0002f602       ?StoreIndices@Gu@physx@@YAXGIPEBGAEAVPxOutputStream@2@_N@Z 0000000180030602 f   PhysX3Common_x64:PhysX3Common_x64.dll
 0001:0002f608       __imp_load_?CreateOffsets@BigConvexData@physx@@IEAAXXZ 0000000180030608 f   PhysX3Common_x64:PhysX3Common_x64.dll
 0001:0002f614       ?CreateOffsets@BigConvexData@physx@@IEAAXXZ 0000000180030614 f   PhysX3Common_x64:PhysX3Common_x64.dll
 0001:0002f61a       __imp_load_??0RadixSortBuffered@Cm@physx@@QEAA@XZ 000000018003061a f   PhysX3Common_x64:PhysX3Common_x64.dll
 0001:0002f626       ??0RadixSortBuffered@Cm@physx@@QEAA@XZ 0000000180030626 f   PhysX3Common_x64:PhysX3Common_x64.dll
 0001:0002f62c       __imp_load_??1RadixSortBuffered@Cm@physx@@UEAA@XZ 000000018003062c f   PhysX3Common_x64:PhysX3Common_x64.dll
 0001:0002f638       ??1RadixSortBuffered@Cm@physx@@UEAA@XZ 0000000180030638 f   PhysX3Common_x64:PhysX3Common_x64.dll
 0001:0002f63e       __imp_load_?Sort@RadixSortBuffered@Cm@physx@@QEAAAEAV123@PEBIIW4RadixHint@23@@Z 000000018003063e f   PhysX3Common_x64:PhysX3Common_x64.dll
 0001:0002f64a       ?Sort@RadixSortBuffered@Cm@physx@@QEAAAEAV123@PEBIIW4RadixHint@23@@Z 000000018003064a f   PhysX3Common_x64:PhysX3Common_x64.dll
 0001:0002f650       __imp_load_?computeOBBPoints@Gu@physx@@YAXPEIAVPxVec3@2@AEBV32@1111@Z 0000000180030650 f   PhysX3Common_x64:PhysX3Common_x64.dll
 0001:0002f65c       ?computeOBBPoints@Gu@physx@@YAXPEIAVPxVec3@2@AEBV32@1111@Z 000000018003065c f   PhysX3Common_x64:PhysX3Common_x64.dll
 0001:0002f662       __imp_load_??0BigConvexData@physx@@QEAA@XZ 0000000180030662 f   PhysX3Common_x64:PhysX3Common_x64.dll
 0001:0002f66e       ??0BigConvexData@physx@@QEAA@XZ 000000018003066e f   PhysX3Common_x64:PhysX3Common_x64.dll
 0001:0002f674       __imp_load_??1BigConvexData@physx@@QEAA@XZ 0000000180030674 f   PhysX3Common_x64:PhysX3Common_x64.dll
 0001:0002f680       ??1BigConvexData@physx@@QEAA@XZ 0000000180030680 f   PhysX3Common_x64:PhysX3Common_x64.dll
 0001:0002f686       __imp_load_?readDword@physx@@YAI_NAEAVPxInputStream@1@@Z 0000000180030686 f   PhysX3Common_x64:PhysX3Common_x64.dll
 0001:0002f692       ?readDword@physx@@YAI_NAEAVPxInputStream@1@@Z 0000000180030692 f   PhysX3Common_x64:PhysX3Common_x64.dll
 0001:0002f698       __imp_load_?ReadHeader@Gu@physx@@YA_NEEEEAEAIAEA_NAEAVPxInputStream@2@@Z 0000000180030698 f   PhysX3Common_x64:PhysX3Common_x64.dll
 0001:0002f6a4       ?ReadHeader@Gu@physx@@YA_NEEEEAEAIAEA_NAEAVPxInputStream@2@@Z 00000001800306a4 f   PhysX3Common_x64:PhysX3Common_x64.dll
 0001:0002f6aa       __imp_load_??0HeightField@Gu@physx@@QEAA@PEAVGuMeshFactory@2@@Z 00000001800306aa f   PhysX3Common_x64:PhysX3Common_x64.dll
 0001:0002f6b6       ??0HeightField@Gu@physx@@QEAA@PEAVGuMeshFactory@2@@Z 00000001800306b6 f   PhysX3Common_x64:PhysX3Common_x64.dll
 0001:0002f6bc       __imp_load_?loadFromDesc@HeightField@Gu@physx@@QEAA_NAEBVPxHeightFieldDesc@3@@Z 00000001800306bc f   PhysX3Common_x64:PhysX3Common_x64.dll
 0001:0002f6c8       ?loadFromDesc@HeightField@Gu@physx@@QEAA_NAEBVPxHeightFieldDesc@3@@Z 00000001800306c8 f   PhysX3Common_x64:PhysX3Common_x64.dll
 0001:0002f6ce       __imp_load_?releaseMemory@HeightField@Gu@physx@@QEAAXXZ 00000001800306ce f   PhysX3Common_x64:PhysX3Common_x64.dll
 0001:0002f6da       ?releaseMemory@HeightField@Gu@physx@@QEAAXXZ 00000001800306da f   PhysX3Common_x64:PhysX3Common_x64.dll
 0001:0002f6e0       __imp_load_??1HeightField@Gu@physx@@UEAA@XZ 00000001800306e0 f   PhysX3Common_x64:PhysX3Common_x64.dll
 0001:0002f6ec       ??1HeightField@Gu@physx@@UEAA@XZ 00000001800306ec f   PhysX3Common_x64:PhysX3Common_x64.dll
 0001:0002f6f4       ??$PFromRva@PEAP6A_JXZ@@YAPEAP6A_JXZK@Z 00000001800306f4 f i delayimp:delayhlp.obj
 0001:0002f704       ??$PFromRva@PEAPEAUHINSTANCE__@@@@YAPEAPEAUHINSTANCE__@@K@Z 0000000180030704 f i delayimp:delayhlp.obj
 0001:0002f714       ??$PFromRva@PEAU_IMAGE_IMPORT_BY_NAME@@@@YAPEAU_IMAGE_IMPORT_BY_NAME@@K@Z 0000000180030714 f i delayimp:delayhlp.obj
 0001:0002f724       ??$PFromRva@PEAU_IMAGE_THUNK_DATA64@@@@YAPEAU_IMAGE_THUNK_DATA64@@K@Z 0000000180030724 f i delayimp:delayhlp.obj
 0001:0002f734       ??$PFromRva@PEBD@@YAPEBDK@Z 0000000180030734 f i delayimp:delayhlp.obj
 0001:0002f744       ??$PFromRva@PEBUImgDelayDescr@@@@YAPEBUImgDelayDescr@@K@Z 0000000180030744 f i delayimp:delayhlp.obj
 0001:0002f754       ??$PFromRva@PEBU_IMAGE_THUNK_DATA64@@@@YAPEBU_IMAGE_THUNK_DATA64@@K@Z 0000000180030754 f i delayimp:delayhlp.obj
 0001:0002f764       ?CountOfImports@@YAIPEBU_IMAGE_THUNK_DATA64@@@Z 0000000180030764 f i delayimp:delayhlp.obj
 0001:0002f778       ?DloadAcquireSectionWriteAccess@@YAXXZ 0000000180030778 f i delayimp:delayhlp.obj
 0001:0002f824       ?DloadGetSRWLockFunctionPointers@@YAEXZ 0000000180030824 f i delayimp:delayhlp.obj
 0001:0002f8c4       ?DloadLock@@YAXXZ          00000001800308c4 f i delayimp:delayhlp.obj
 0001:0002f90c       ?DloadMakePermanentImageCommit@@YAXPEAX_K@Z 000000018003090c f i delayimp:delayhlp.obj
 0001:0002f9a4       ?DloadObtainSection@@YAPEAXPEAK0@Z 00000001800309a4 f i delayimp:delayhlp.obj
 0001:0002fa40       ?DloadProtectSection@@YAXKPEAK@Z 0000000180030a40 f i delayimp:delayhlp.obj
 0001:0002fad0       ?DloadReleaseSectionWriteAccess@@YAXXZ 0000000180030ad0 f i delayimp:delayhlp.obj
 0001:0002fb64       ?DloadUnlock@@YAXXZ        0000000180030b64 f i delayimp:delayhlp.obj
 0001:0002fba4       ?IndexFromPImgThunkData@@YAIPEBU_IMAGE_THUNK_DATA64@@0@Z 0000000180030ba4 f i delayimp:delayhlp.obj
 0001:0002fcec       HRESULT_FROM_WIN32         0000000180030cec f i delayimp:delayhlp.obj
 0001:0002fcfc       ReadAcquire64              0000000180030cfc f i delayimp:delayhlp.obj
 0001:0002fd00       ReadPointerAcquire         0000000180030d00 f i delayimp:delayhlp.obj
 0001:0002fd04       WritePointerRelease        0000000180030d04 f i delayimp:delayhlp.obj
 0001:0002fd08       WriteRelease64             0000000180030d08 f i delayimp:delayhlp.obj
 0001:0002fd0c       __FUnloadDelayLoadedDLL2   0000000180030d0c f   delayimp:delayhlp.obj
 0001:0002fdc8       __HrLoadAllImportsForDll   0000000180030dc8 f   delayimp:delayhlp.obj
 0001:0002fe3c       __delayLoadHelper2         0000000180030e3c f   delayimp:delayhlp.obj
 0001:00030130       __chkstk                   0000000180031130 f   LIBCMT:chkstk.obj
 0001:00030130       _alloca_probe              0000000180031130 f   LIBCMT:chkstk.obj
 0001:00030180       ??1type_info@@UEAA@XZ      0000000180031180 f   LIBCMT:std_type_info_static.obj
 0001:0003018c       ??_Etype_info@@UEAAPEAXI@Z 000000018003118c f i LIBCMT:std_type_info_static.obj
 0001:0003018c       ??_Gtype_info@@UEAAPEAXI@Z 000000018003118c f i LIBCMT:std_type_info_static.obj
 0001:000301b8       ?__scrt_initialize_type_info@@YAXXZ 00000001800311b8 f   LIBCMT:tncleanup.obj
 0001:000301c8       ?__scrt_uninitialize_type_info@@YAXXZ 00000001800311c8 f   LIBCMT:tncleanup.obj
 0001:000301d4       ??3@YAXPEAX_K@Z            00000001800311d4 f   LIBCMT:delete_scalar_size.obj
 0001:000301e0       __vdecl_sinf4              00000001800311e0 f   LIBCMT:svml_ssinf4_dispatch.obj
 0001:00030200       __libm_sse2_sincosf_       0000000180031200 f   LIBCMT:svml_ssinf4_dispatch.obj
 0001:00030243       __libm_sse2_sincosf4_      0000000180031243 f   LIBCMT:svml_ssinf4_dispatch.obj
 0001:0003058c       _CRT_INIT                  000000018003158c f   LIBCMT:dll_dllmain.obj
 0001:00030594       _DllMainCRTStartup         0000000180031594 f   LIBCMT:dll_dllmain.obj
 0001:000305d4       _guard_check_icall_nop     00000001800315d4 f i LIBCMT:guard_support.obj
 0001:000305d8       ReadNoFence64              00000001800315d8 f i LIBCMT:guard_support.obj
 0001:000305dc       ReadPointerNoFence         00000001800315dc f i LIBCMT:guard_support.obj
 0001:000305e0       __castguard_check_failure_debugbreak 00000001800315e0 f i LIBCMT:guard_support.obj
 0001:000305fc       __castguard_check_failure_fastfail 00000001800315fc f i LIBCMT:guard_support.obj
 0001:00030620       __castguard_check_failure_nop 0000000180031620 f i LIBCMT:guard_support.obj
 0001:00030624       __castguard_check_failure_os_handled 0000000180031624 f i LIBCMT:guard_support.obj
 0001:00030680       __castguard_check_failure_user_handled 0000000180031680 f i LIBCMT:guard_support.obj
 0001:000306f4       __castguard_set_user_handler 00000001800316f4 f i LIBCMT:guard_support.obj
 0001:00030700       __castguard_slow_path_check_debugbreak 0000000180031700 f i LIBCMT:guard_support.obj
 0001:00030734       __castguard_slow_path_check_fastfail 0000000180031734 f i LIBCMT:guard_support.obj
 0001:00030770       __castguard_slow_path_check_nop 0000000180031770 f i LIBCMT:guard_support.obj
 0001:00030774       __castguard_slow_path_check_os_handled 0000000180031774 f i LIBCMT:guard_support.obj
 0001:000307c8       __castguard_slow_path_check_user_handled 00000001800317c8 f i LIBCMT:guard_support.obj
 0001:00030834       _guard_icall_checks_enforced 0000000180031834 f i LIBCMT:guard_support.obj
 0001:0003084c       _guard_rf_checks_enforced  000000018003184c f i LIBCMT:guard_support.obj
 0001:00030850       ??3@YAXPEAX@Z              0000000180031850 f   LIBCMT:delete_scalar.obj
 0001:00030858       __isa_available_init       0000000180031858 f   LIBCMT:cpu_disp.obj
 0001:00030a10       __sse2_sinf4@@16           0000000180031a10 f   LIBCMT:svml_ssinf4_sse2.obj
 0001:00031350       __sse4_sinf4@@16           0000000180032350 f   LIBCMT:svml_ssinf4_sse4.obj
 0001:00031b30       __security_init_cookie     0000000180032b30 f   LIBCMT:gs_support.obj
 0001:00031bdc       DllMain                    0000000180032bdc f   LIBCMT:dll_dllmain_stub.obj
 0001:00031be4       __local_stdio_printf_options 0000000180032be4 f i LIBCMT:default_local_stdio_options.obj
 0001:00031bec       __local_stdio_scanf_options 0000000180032bec f i LIBCMT:default_local_stdio_options.obj
 0001:00031bf4       __scrt_initialize_default_local_stdio_options 0000000180032bf4 f   LIBCMT:default_local_stdio_options.obj
 0001:00031c10       ?configure_argv@__scrt_narrow_argv_policy@@SAHXZ 0000000180032c10 f i LIBCMT:utility.obj
 0001:00031c70       ?initialize_environment@__scrt_narrow_environment_policy@@SAHXZ 0000000180032c70 f i LIBCMT:utility.obj
 0001:00031ca8       NtCurrentTeb               0000000180032ca8 f i LIBCMT:utility.obj
 0001:00031cb4       __scrt_acquire_startup_lock 0000000180032cb4 f   LIBCMT:utility.obj
 0001:00031cf0       __scrt_dllmain_after_initialize_c 0000000180032cf0 f   LIBCMT:utility.obj
 0001:00031d24       __scrt_dllmain_before_initialize_c 0000000180032d24 f   LIBCMT:utility.obj
 0001:00031d3c       __scrt_dllmain_crt_thread_attach 0000000180032d3c f   LIBCMT:utility.obj
 0001:00031d64       __scrt_dllmain_crt_thread_detach 0000000180032d64 f   LIBCMT:utility.obj
 0001:00031d7c       __scrt_dllmain_exception_filter 0000000180032d7c f   LIBCMT:utility.obj
 0001:00031ddc       __scrt_dllmain_uninitialize_c 0000000180032ddc f   LIBCMT:utility.obj
 0001:00031e0c       __scrt_dllmain_uninitialize_critical 0000000180032e0c f   LIBCMT:utility.obj
 0001:00031e20       __scrt_initialize_crt      0000000180032e20 f   LIBCMT:utility.obj
 0001:00031e6c       __scrt_initialize_onexit_tables 0000000180032e6c f   LIBCMT:utility.obj
 0001:00031ef8       __scrt_is_nonwritable_in_current_image 0000000180032ef8 f   LIBCMT:utility.obj
 0001:00031f90       __scrt_release_startup_lock 0000000180032f90 f   LIBCMT:utility.obj
 0001:00031fb4       __scrt_uninitialize_crt    0000000180032fb4 f   LIBCMT:utility.obj
 0001:00031fe0       _onexit                    0000000180032fe0 f   LIBCMT:utility.obj
 0001:0003201c       at_quick_exit              000000018003301c f   LIBCMT:utility.obj
 0001:0003203c       atexit                     000000018003303c f   LIBCMT:utility.obj
 0001:00032054       __scrt_get_dyn_tls_init_callback 0000000180033054 f   LIBCMT:dyn_tls_init.obj
 0001:0003205c       __crt_debugger_hook        000000018003305c f   LIBCMT:utility_desktop.obj
 0001:00032064       __scrt_fastfail            0000000180033064 f   LIBCMT:utility_desktop.obj
 0001:000321b0       __scrt_get_show_window_mode 00000001800331b0 f   LIBCMT:utility_desktop.obj
 0001:000321ec       __scrt_initialize_mta      00000001800331ec f   LIBCMT:utility_desktop.obj
 0001:000321f4       __scrt_initialize_winrt    00000001800331f4 f   LIBCMT:utility_desktop.obj
 0001:000321f8       __scrt_is_managed_app      00000001800331f8 f   LIBCMT:utility_desktop.obj
 0001:0003224c       __scrt_set_unhandled_exception_filter 000000018003324c f   LIBCMT:utility_desktop.obj
 0001:0003225c       __scrt_exe_initialize_mta  000000018003325c f   LIBCMT:utility_desktop.obj
 0001:0003225c       __scrt_stub_for_initialize_mta 000000018003325c f   LIBCMT:utility_desktop.obj
 0001:00032260       __scrt_unhandled_exception_filter 0000000180033260 f   LIBCMT:utility_desktop.obj
 0001:000322bc       _RTC_Initialize            00000001800332bc f   LIBCMT:initsect.obj
 0001:000322f8       _RTC_Terminate             00000001800332f8 f   LIBCMT:initsect.obj
 0001:00032340       __common_ssin_cout_rare    0000000180033340 f   LIBCMT:svml_s_sin_cout.obj
 0001:000323b0       _get_startup_argv_mode     00000001800333b0 f   LIBCMT:argv_mode.obj
 0001:000323b8       __scrt_is_ucrt_dll_in_use  00000001800333b8 f   LIBCMT:ucrt_detection.obj
 0001:000323c4       strstr                     00000001800333c4 f   libvcruntime:strstr.obj
 0001:000325cc       ??$?RD@__crt_internal_free_policy@@QEBAXQEBD@Z 00000001800335cc f i libvcruntime:std_type_info.obj
 0001:000325d4       ??$?RX@__crt_internal_free_policy@@QEBAXQEBX@Z 00000001800335d4 f i libvcruntime:std_type_info.obj
 0001:000325dc       ??$__crt_interlocked_compare_exchange_pointer@$$CBDPEAD$$T@@YAPEBDPEDSEBDQEAD$$T@Z 00000001800335dc f i libvcruntime:std_type_info.obj
 0001:000325e8       ??$__crt_interlocked_read_pointer@$$CBD@@YAPEBDPEDSEBD@Z 00000001800335e8 f i libvcruntime:std_type_info.obj
 0001:000325f0       ??0?$__crt_unique_heap_ptr@DU__crt_internal_free_policy@@@@QEAA@QEAD@Z 00000001800335f0 f i libvcruntime:std_type_info.obj
 0001:000325f8       ??0?$__crt_unique_heap_ptr@XU__crt_internal_free_policy@@@@QEAA@QEAX@Z 00000001800335f8 f i libvcruntime:std_type_info.obj
 0001:00032600       ??1?$__crt_unique_heap_ptr@DU__crt_internal_free_policy@@@@QEAA@XZ 0000000180033600 f i libvcruntime:std_type_info.obj
 0001:0003261c       ??1?$__crt_unique_heap_ptr@XU__crt_internal_free_policy@@@@QEAA@XZ 000000018003361c f i libvcruntime:std_type_info.obj
 0001:00032638       ??B?$__crt_unique_heap_ptr@DU__crt_internal_free_policy@@@@QEBA_NXZ 0000000180033638 f i libvcruntime:std_type_info.obj
 0001:00032640       ??B?$__crt_unique_heap_ptr@XU__crt_internal_free_policy@@@@QEBA_NXZ 0000000180033640 f i libvcruntime:std_type_info.obj
 0001:00032658       ?__crt_interlocked_read_64@@YA_JPED_J@Z 0000000180033658 f i libvcruntime:std_type_info.obj
 0001:00032660       ?detach@?$__crt_unique_heap_ptr@XU__crt_internal_free_policy@@@@QEAAPEAXXZ 0000000180033660 f i libvcruntime:std_type_info.obj
 0001:00032668       ?get@?$__crt_unique_heap_ptr@DU__crt_internal_free_policy@@@@QEBAPEADXZ 0000000180033668 f i libvcruntime:std_type_info.obj
 0001:0003266c       ?get@?$__crt_unique_heap_ptr@XU__crt_internal_free_policy@@@@QEBAPEAXXZ 000000018003366c f i libvcruntime:std_type_info.obj
 0001:00032670       ?is_valid@?$__crt_unique_heap_ptr@DU__crt_internal_free_policy@@@@QEBA_NXZ 0000000180033670 f i libvcruntime:std_type_info.obj
 0001:00032678       ?is_valid@?$__crt_unique_heap_ptr@XU__crt_internal_free_policy@@@@QEBA_NXZ 0000000180033678 f i libvcruntime:std_type_info.obj
 0001:00032680       ?release@?$__crt_unique_heap_ptr@DU__crt_internal_free_policy@@@@QEAAXXZ 0000000180033680 f i libvcruntime:std_type_info.obj
 0001:0003269c       ?release@?$__crt_unique_heap_ptr@XU__crt_internal_free_policy@@@@QEAAXXZ 000000018003369c f i libvcruntime:std_type_info.obj
 0001:000326b8       __std_type_info_compare    00000001800336b8 f   libvcruntime:std_type_info.obj
 0001:000326e0       __std_type_info_destroy_list 00000001800336e0 f   libvcruntime:std_type_info.obj
 0001:0003270c       __std_type_info_hash       000000018003370c f   libvcruntime:std_type_info.obj
 0001:00032744       __std_type_info_name       0000000180033744 f   libvcruntime:std_type_info.obj
 0001:00032870       memcpy_repmovs             0000000180033870 f   libvcruntime:memcpy.obj
 0001:00032890       memcpy                     0000000180033890 f   libvcruntime:memcpy.obj
 0001:00032890       memmove                    0000000180033890 f   libvcruntime:memcpy.obj
 0001:00032f08       ??$__crt_interlocked_exchange_pointer@$$A6AXXZP6AXXZ@@YAP6AXXZPEDS6AXXZQ6AXXZ@Z 0000000180033f08 f i libvcruntime:purevirt.obj
 0001:00032f10       ??$__crt_interlocked_read_pointer@$$A6AXXZ@@YAP6AXXZPEDS6AXXZ@Z 0000000180033f10 f i libvcruntime:purevirt.obj
 0001:00032f18       _get_purecall_handler      0000000180033f18 f   libvcruntime:purevirt.obj
 0001:00032f24       _purecall                  0000000180033f24 f   libvcruntime:purevirt.obj
 0001:00032f40       _set_purecall_handler      0000000180033f40 f   libvcruntime:purevirt.obj
 0001:00032f60       memset_repstos             0000000180033f60 f   libvcruntime:memset.obj
 0001:00032f80       memset                     0000000180033f80 f   libvcruntime:memset.obj
 0001:00033308       __C_specific_handler       0000000180034308 f   libvcruntime:riscchandler.obj
 0001:00033500       __vcrt_initialize          0000000180034500 f   libvcruntime:initialization.obj
 0001:00033528       __vcrt_thread_attach       0000000180034528 f   libvcruntime:initialization.obj
 0001:0003353c       __vcrt_thread_detach       000000018003453c f   libvcruntime:initialization.obj
 0001:00033550       __vcrt_uninitialize        0000000180034550 f   libvcruntime:initialization.obj
 0001:0003356c       __vcrt_uninitialize_critical 000000018003456c f   libvcruntime:initialization.obj
 0001:00033580       __DestructExceptionObject  0000000180034580 f   libvcruntime:ehhelpers.obj
 0001:000335f0       ?_CallMemberFunction0@@YAXQEAX0@Z 00000001800345f0 f i libvcruntime:ehhelpers.obj
 0001:0003364c       ?raw_name@type_info@@QEBAPEBDXZ 000000018003464c f i libvcruntime:ehhelpers.obj
 0001:00033654       _IsExceptionObjectToBeDestroyed 0000000180034654 f   libvcruntime:ehhelpers.obj
 0001:00033684       _SetWinRTOutOfMemoryExceptionCallback 0000000180034684 f   libvcruntime:ehhelpers.obj
 0001:0003368c       __AdjustPointer            000000018003468c f   libvcruntime:ehhelpers.obj
 0001:000336b0       __FrameUnwindFilter        00000001800346b0 f   libvcruntime:ehhelpers.obj
 0001:00033718       __GetPlatformExceptionInfo 0000000180034718 f   libvcruntime:ehhelpers.obj
 0001:00033774       __current_exception        0000000180034774 f   libvcruntime:ehhelpers.obj
 0001:00033788       __current_exception_context 0000000180034788 f   libvcruntime:ehhelpers.obj
 0001:0003379c       __processing_throw         000000018003479c f   libvcruntime:ehhelpers.obj
 0001:000337b0       __std_terminate            00000001800347b0 f   libvcruntime:ehhelpers.obj
 0001:000337bc       _is_exception_typeof       00000001800347bc f   libvcruntime:ehhelpers.obj
 0001:00033864       ??$?0$00@DName@@QEAA@PEBDU?$StringLifeSelector@$00@@@Z 0000000180034864 f i libvcruntime:undname.obj
 0001:000338a4       ??$?0$00@pcharNode@@QEAA@PEBDHU?$StringLifeSelector@$00@@@Z 00000001800348a4 f i libvcruntime:undname.obj
 0001:000338bc       ??$?0$01@DName@@QEAA@PEBDU?$StringLifeSelector@$01@@@Z 00000001800348bc f i libvcruntime:undname.obj
 0001:000338fc       ??$?0$01@pcharNode@@QEAA@PEBDHU?$StringLifeSelector@$01@@@Z 00000001800348fc f i libvcruntime:undname.obj
 0001:00033970       ??$?0$0A@@DName@@QEAA@PEBDU?$StringLifeSelector@$0A@@@@Z 0000000180034970 f i libvcruntime:undname.obj
 0001:000339b0       ??$?0$0A@@pcharNode@@QEAA@PEBDHU?$StringLifeSelector@$0A@@@@Z 00000001800349b0 f i libvcruntime:undname.obj
 0001:00033a24       ??$?0_K$0A@@?$optional@_K@std@@QEAA@$$QEA_K@Z 0000000180034a24 f i libvcruntime:undname.obj
 0001:00033a34       ??$?0_K@?$_Optional_construct_base@_K@std@@QEAA@Uin_place_t@1@$$QEA_K@Z 0000000180034a34 f i libvcruntime:undname.obj
 0001:00033a44       ??$?0_K@?$_Optional_destruct_base@_K$00@std@@QEAA@Uin_place_t@1@$$QEA_K@Z 0000000180034a44 f i libvcruntime:undname.obj
 0001:00033a54       ??$append@VDNameNode@@@DName@@AEAAXPEBVDNameNode@@@Z 0000000180034a54 f i libvcruntime:undname.obj
 0001:00033ab8       ??$append@VDNameStatusNode@@@DName@@AEAAXPEBVDNameStatusNode@@@Z 0000000180034ab8 f i libvcruntime:undname.obj
 0001:00033b1c       ??$append@VcharNode@@@DName@@AEAAXPEBVcharNode@@@Z 0000000180034b1c f i libvcruntime:undname.obj
 0001:00033b80       ??$append@VpDNameNode@@@DName@@AEAAXPEBVpDNameNode@@@Z 0000000180034b80 f i libvcruntime:undname.obj
 0001:00033be4       ??$append@VpcharNode@@@DName@@AEAAXPEBVpcharNode@@@Z 0000000180034be4 f i libvcruntime:undname.obj
 0001:00033c48       ??$doPchar@$00@DName@@AEAAXPEBDH@Z 0000000180034c48 f i libvcruntime:undname.obj
 0001:00033cec       ??$doPchar@$01@DName@@AEAAXPEBDH@Z 0000000180034cec f i libvcruntime:undname.obj
 0001:00033d84       ??$doPchar@$0A@@DName@@AEAAXPEBDH@Z 0000000180034d84 f i libvcruntime:undname.obj
 0001:00033e1c       ??$forward@_K@std@@YA$$QEA_KAEA_K@Z 0000000180034e1c f i libvcruntime:undname.obj
 0001:00033f3c       ??$size@D$04@std@@YA_KAEAY04$$CBD@Z 0000000180034f3c f i libvcruntime:undname.obj
 0001:00033f44       ??0?$_Optional_construct_base@_K@std@@QEAA@XZ 0000000180034f44 f i libvcruntime:undname.obj
 0001:00033f4c       ??0?$_Optional_destruct_base@_K$00@std@@QEAA@XZ 0000000180034f4c f i libvcruntime:undname.obj
 0001:00033f54       ??0?$optional@_K@std@@QEAA@XZ 0000000180034f54 f i libvcruntime:undname.obj
 0001:00033f5c       ??0Block@_HeapManager@@QEAA@XZ 0000000180034f5c f i libvcruntime:undname.obj
 0001:00033f64       ??0DName@@QEAA@AEAPEBDD@Z  0000000180034f64 f   libvcruntime:undname.obj
 0001:00034014       ??0DName@@QEAA@AEBUStringLiteral@@@Z 0000000180035014 f   libvcruntime:undname.obj
 0001:00034040       ??0DName@@QEAA@AEBV0@@Z    0000000180035040 f i libvcruntime:undname.obj
 0001:00034050       ??0DName@@QEAA@D@Z         0000000180035050 f   libvcruntime:undname.obj
 0001:00034070       ??0DName@@QEAA@PEAV0@@Z    0000000180035070 f   libvcruntime:undname.obj
 0001:000340f4       ??0DName@@QEAA@W4DNameStatus@@@Z 00000001800350f4 f   libvcruntime:undname.obj
 0001:00034124       ??0DName@@QEAA@XZ          0000000180035124 f i libvcruntime:undname.obj
 0001:00034130       ??0DName@@QEAA@_J@Z        0000000180035130 f   libvcruntime:undname.obj
 0001:000341d8       ??0DName@@QEAA@_K@Z        00000001800351d8 f   libvcruntime:undname.obj
 0001:00034260       ??0DNameNode@@IEAA@XZ      0000000180035260 f i libvcruntime:undname.obj
 0001:00034270       ??0Replicator@@QEAA@XZ     0000000180035270 f i libvcruntime:undname.obj
 0001:00034284       ??0UnDecorator@@QEAA@PEBDP6APEADJ@ZK@Z 0000000180035284 f i libvcruntime:undname.obj
 0001:000342d4       ??0_Nontrivial_dummy_type@std@@QEAA@XZ 00000001800352d4 f i libvcruntime:undname.obj
 0001:000342d8       ??0charNode@@QEAA@D@Z      00000001800352d8 f i libvcruntime:undname.obj
 0001:000342ec       ??0pDNameNode@@QEAA@PEAVDName@@@Z 00000001800352ec f   libvcruntime:undname.obj
 0001:00034314       ??0pairNode@@QEAA@PEBVDNameNode@@0@Z 0000000180035314 f i libvcruntime:undname.obj
 0001:00034338       ??2@YAPEAX_KAEAV_HeapManager@@H@Z 0000000180035338 f   libvcruntime:undname.obj
 0001:00034364       ??4DName@@QEAAAEAV0@AEBUStringLiteral@@@Z 0000000180035364 f   libvcruntime:undname.obj
 0001:0003438c       ??4DName@@QEAAAEAV0@AEBV0@@Z 000000018003538c f   libvcruntime:undname.obj
 0001:0003439c       ??4DName@@QEAAAEAV0@D@Z    000000018003539c f i libvcruntime:undname.obj
 0001:000343bc       ??4DName@@QEAAAEAV0@PEAV0@@Z 00000001800353bc f   libvcruntime:undname.obj
 0001:00034434       ??4DName@@QEAAAEAV0@W4DNameStatus@@@Z 0000000180035434 f   libvcruntime:undname.obj
 0001:00034464       ??AReplicator@@QEBA?AVDName@@H@Z 0000000180035464 f   libvcruntime:undname.obj
 0001:000344a4       ??B?$optional@_K@std@@QEBA_NXZ 00000001800354a4 f i libvcruntime:undname.obj
 0001:000344a8       ??D?$_Optional_construct_base@_K@std@@QEGAAAEA_KXZ 00000001800354a8 f i libvcruntime:undname.obj
 0001:000344ac       ??H@YA?AVDName@@AEBUStringLiteral@@AEBV0@@Z 00000001800354ac f i libvcruntime:undname.obj
 0001:000344e4       ??H@YA?AVDName@@DAEBV0@@Z  00000001800354e4 f i libvcruntime:undname.obj
 0001:00034528       ??H@YA?AVDName@@W4DNameStatus@@AEBV0@@Z 0000000180035528 f i libvcruntime:undname.obj
 0001:00034574       ??HDName@@QEBA?AV0@AEBUStringLiteral@@@Z 0000000180035574 f   libvcruntime:undname.obj
 0001:000345a0       ??HDName@@QEBA?AV0@AEBV0@@Z 00000001800355a0 f   libvcruntime:undname.obj
 0001:000345cc       ??HDName@@QEBA?AV0@D@Z     00000001800355cc f   libvcruntime:undname.obj
 0001:000345f8       ??HDName@@QEBA?AV0@PEAV0@@Z 00000001800355f8 f   libvcruntime:undname.obj
 0001:00034624       ??HDName@@QEBA?AV0@W4DNameStatus@@@Z 0000000180035624 f   libvcruntime:undname.obj
 0001:00034650       ??HStringLiteral@@QEBA?AU0@H@Z 0000000180035650 f i libvcruntime:undname.obj
 0001:00034668       ??YDName@@QEAAAEAV0@AEBUStringLiteral@@@Z 0000000180035668 f   libvcruntime:undname.obj
 0001:000346e8       ??YDName@@QEAAAEAV0@AEBV0@@Z 00000001800356e8 f   libvcruntime:undname.obj
 0001:00034740       ??YDName@@QEAAAEAV0@D@Z    0000000180035740 f   libvcruntime:undname.obj
 0001:000347ac       ??YDName@@QEAAAEAV0@PEAV0@@Z 00000001800357ac f   libvcruntime:undname.obj
 0001:00034840       ??YDName@@QEAAAEAV0@W4DNameStatus@@@Z 0000000180035840 f   libvcruntime:undname.obj
 0001:00034898       ??YReplicator@@QEAAAEAV0@AEBVDName@@@Z 0000000180035898 f   libvcruntime:undname.obj
 0001:000348f0       ??_5DName@@QEAAAEAV0@AEBV0@@Z 00000001800358f0 f   libvcruntime:undname.obj
 0001:00034908       ??__K_l@@YA?AUStringLiteral@@PEBD_K@Z 0000000180035908 f i libvcruntime:undname.obj
 0001:00034914       ?Constructor@_HeapManager@@QEAAXP6APEAX_K@ZP6AXPEAX@Z@Z 0000000180035914 f i libvcruntime:undname.obj
 0001:0003492c       ?Destructor@_HeapManager@@QEAAXXZ 000000018003592c f i libvcruntime:undname.obj
 0001:00034978       ?UScore@UnDecorator@@SA?AUStringLiteral@@W4Tokens@@@Z 0000000180035978 f   libvcruntime:undname.obj
 0001:000349c4       ?composeDeclaration@UnDecorator@@CA?AVDName@@AEBV2@@Z 00000001800359c4 f i libvcruntime:undname.obj
 0001:000358b8       ?doAccessSpecifiers@UnDecorator@@SAHXZ 00000001800368b8 f i libvcruntime:undname.obj
 0001:000358c8       ?doAllocationLanguage@UnDecorator@@SAHXZ 00000001800368c8 f i libvcruntime:undname.obj
 0001:000358d8       ?doAllocationModel@UnDecorator@@SAHXZ 00000001800368d8 f i libvcruntime:undname.obj
 0001:000358e8       ?doEcsu@UnDecorator@@SAHXZ 00000001800368e8 f i libvcruntime:undname.obj
 0001:000358f8       ?doEllipsis@UnDecorator@@SAHXZ 00000001800368f8 f i libvcruntime:undname.obj
 0001:00035908       ?doFunctionReturns@UnDecorator@@SAHXZ 0000000180036908 f i libvcruntime:undname.obj
 0001:00035918       ?doMSKeywords@UnDecorator@@SAHXZ 0000000180036918 f i libvcruntime:undname.obj
 0001:00035928       ?doMemberTypes@UnDecorator@@SAHXZ 0000000180036928 f i libvcruntime:undname.obj
 0001:00035938       ?doNameOnly@UnDecorator@@SAHXZ 0000000180036938 f i libvcruntime:undname.obj
 0001:00035944       ?doNoIdentCharCheck@UnDecorator@@SAHXZ 0000000180036944 f i libvcruntime:undname.obj
 0001:00035950       ?doPchar@DName@@AEAAXD@Z   0000000180036950 f   libvcruntime:undname.obj
 0001:000359a0       ?doPtr64@UnDecorator@@SAHXZ 00000001800369a0 f i libvcruntime:undname.obj
 0001:000359b0       ?doRestrictionSpec@UnDecorator@@SAHXZ 00000001800369b0 f i libvcruntime:undname.obj
 0001:000359c0       ?doThisTypes@UnDecorator@@SAHXZ 00000001800369c0 f i libvcruntime:undname.obj
 0001:000359d4       ?doThrowTypes@UnDecorator@@SAHXZ 00000001800369d4 f i libvcruntime:undname.obj
 0001:000359e4       ?doTypeOnly@UnDecorator@@SAHXZ 00000001800369e4 f i libvcruntime:undname.obj
 0001:000359f0       ?doUnderScore@UnDecorator@@SAHXZ 00000001800369f0 f i libvcruntime:undname.obj
 0001:000359fc       ?getAddressOf@UnDecorator@@CA?AVDName@@XZ 00000001800369fc f   libvcruntime:undname.obj
 0001:00035a8c       ?getArgumentList@UnDecorator@@CA?AVDName@@XZ 0000000180036a8c f   libvcruntime:undname.obj
 0001:00035c40       ?getArgumentTypes@UnDecorator@@CA?AVDName@@XZ 0000000180036c40 f   libvcruntime:undname.obj
 0001:00035d8c       ?getArrayAccess@UnDecorator@@CA?AVDName@@XZ 0000000180036d8c f   libvcruntime:undname.obj
 0001:00035e28       ?getArrayObject@UnDecorator@@CA?AVDName@@XZ 0000000180036e28 f   libvcruntime:undname.obj
 0001:00035ee4       ?getArrayType@UnDecorator@@CA?AVDName@@AEBV2@@Z 0000000180036ee4 f i libvcruntime:undname.obj
 0001:00036150       ?getBasedType@UnDecorator@@CA?AVDName@@XZ 0000000180037150 f   libvcruntime:undname.obj
 0001:00036248       ?getBasicDataType@UnDecorator@@CA?AVDName@@AEBV2@@Z 0000000180037248 f   libvcruntime:undname.obj
 0001:0003684c       ?getCHPEName@UnDecorator@@QEAAPEADPEADH@Z 000000018003784c f i libvcruntime:undname.obj
 0001:0003696c       ?getCallIndex@UnDecorator@@CA?AVDName@@XZ 000000018003796c f i libvcruntime:undname.obj
 0001:00036988       ?getCallingConvention@UnDecorator@@CA?AVDName@@XZ 0000000180037988 f   libvcruntime:undname.obj
 0001:00036ac0       ?getDataIndirectType@UnDecorator@@CA?AVDName@@AEBV2@W4IndirectionKind@@0H@Z 0000000180037ac0 f   libvcruntime:undname.obj
 0001:000373e4       ?getDataIndirectType@UnDecorator@@CA?AVDName@@XZ 00000001800383e4 f i libvcruntime:undname.obj
 0001:00037420       ?getDataType@UnDecorator@@CA?AVDName@@PEAV2@@Z 0000000180038420 f   libvcruntime:undname.obj
 0001:00037534       ?getDecoratedName@UnDecorator@@CA?AVDName@@XZ 0000000180038534 f   libvcruntime:undname.obj
 0001:0003781c       ?getDimension@UnDecorator@@CA?AVDName@@_N@Z 000000018003881c f   libvcruntime:undname.obj
 0001:00037964       ?getDispatchTarget@UnDecorator@@CA?AVDName@@XZ 0000000180038964 f   libvcruntime:undname.obj
 0001:000379c4       ?getDisplacement@UnDecorator@@CA?AVDName@@XZ 00000001800389c4 f i libvcruntime:undname.obj
 0001:000379e0       ?getECSUDataType@UnDecorator@@CA?AVDName@@XZ 00000001800389e0 f   libvcruntime:undname.obj
 0001:00037bdc       ?getECSUName@UnDecorator@@CA?AVDName@@XZ 0000000180038bdc f i libvcruntime:undname.obj
 0001:00037bf4       ?getEnumType@UnDecorator@@CA?AVDName@@XZ 0000000180038bf4 f i libvcruntime:undname.obj
 0001:00037d24       ?getExtendedDataIndirectType@UnDecorator@@CA?AVDName@@AEAW4IndirectionKind@@AEA_NH@Z 0000000180038d24 f   libvcruntime:undname.obj
 0001:00037f28       ?getExternalDataType@UnDecorator@@CA?AVDName@@AEBV2@@Z 0000000180038f28 f i libvcruntime:undname.obj
 0001:00037fe8       ?getFloatingPoint@UnDecorator@@CA?AVDName@@H@Z 0000000180038fe8 f   libvcruntime:undname.obj
 0001:00038150       ?getFunctionIndirectType@UnDecorator@@CA?AVDName@@AEBV2@@Z 0000000180039150 f   libvcruntime:undname.obj
 0001:00038684       ?getGuardNumber@UnDecorator@@CA?AVDName@@XZ 0000000180039684 f i libvcruntime:undname.obj
 0001:000386a0       ?getLastChar@DName@@QEBADXZ 00000001800396a0 f i libvcruntime:undname.obj
 0001:000386bc       ?getLastChar@DNameStatusNode@@UEBADXZ 00000001800396bc f i libvcruntime:undname.obj
 0001:000386c8       ?getLastChar@charNode@@UEBADXZ 00000001800396c8 f i libvcruntime:undname.obj
 0001:000386cc       ?getLastChar@pDNameNode@@UEBADXZ 00000001800396cc f i libvcruntime:undname.obj
 0001:000386f8       ?getLastChar@pairNode@@UEBADXZ 00000001800396f8 f i libvcruntime:undname.obj
 0001:00038730       ?getLastChar@pcharNode@@UEBADXZ 0000000180039730 f i libvcruntime:undname.obj
 0001:00038744       ?getLexicalFrame@UnDecorator@@CA?AVDName@@XZ 0000000180039744 f i libvcruntime:undname.obj
 0001:000387a8       ?getMemberAccess@UnDecorator@@CA?AVDName@@XZ 00000001800397a8 f   libvcruntime:undname.obj
 0001:0003883c       ?getMemoryWithBuffer@_HeapManager@@QEAAPEAX_K@Z 000000018003983c f   libvcruntime:undname.obj
 0001:000388cc       ?getMemoryWithoutBuffer@_HeapManager@@QEAAPEAX_K@Z 00000001800398cc f   libvcruntime:undname.obj
 0001:000388e0       ?getNoexcept@UnDecorator@@CA?AVDName@@XZ 00000001800398e0 f   libvcruntime:undname.obj
 0001:00038944       ?getNumberOfDimensions@UnDecorator@@CAHXZ 0000000180039944 f   libvcruntime:undname.obj
 0001:000389ac       ?getOperatorName@UnDecorator@@CA?AVDName@@_NPEA_N@Z 00000001800399ac f i libvcruntime:undname.obj
 0001:0003935c       ?getPointerToMember@UnDecorator@@CA?AVDName@@XZ 000000018003a35c f   libvcruntime:undname.obj
 0001:00039454       ?getPointerType@UnDecorator@@CA?AVDName@@AEBV2@0@Z 000000018003a454 f i libvcruntime:undname.obj
 0001:00039474       ?getPointerTypeArray@UnDecorator@@CA?AVDName@@AEBV2@0@Z 000000018003a474 f i libvcruntime:undname.obj
 0001:00039490       ?getPrimaryDataType@UnDecorator@@CA?AVDName@@AEBV2@@Z 000000018003a490 f   libvcruntime:undname.obj
 0001:00039748       ?getPtrRefDataType@UnDecorator@@CA?AVDName@@AEBV2@H@Z 000000018003a748 f   libvcruntime:undname.obj
 0001:00039914       ?getPtrRefType@UnDecorator@@CA?AVDName@@AEBV2@0W4IndirectionKind@@@Z 000000018003a914 f   libvcruntime:undname.obj
 0001:00039aec       ?getReferenceType@UnDecorator@@CA?AVDName@@AEBV2@0W4IndirectionKind@@@Z 000000018003aaec f i libvcruntime:undname.obj
 0001:00039b04       ?getRestrictionSpec@UnDecorator@@CA?AVDName@@XZ 000000018003ab04 f   libvcruntime:undname.obj
 0001:00039ce0       ?getReturnType@UnDecorator@@CA?AVDName@@PEAV2@@Z 000000018003ace0 f   libvcruntime:undname.obj
 0001:00039d14       ?getScope@UnDecorator@@CA?AVDName@@XZ 000000018003ad14 f   libvcruntime:undname.obj
 0001:0003a1cc       ?getScopedName@UnDecorator@@CA?AVDName@@XZ 000000018003b1cc f   libvcruntime:undname.obj
 0001:0003a30c       ?getSignedDimension@UnDecorator@@CA?AVDName@@XZ 000000018003b30c f   libvcruntime:undname.obj
 0001:0003a394       ?getStorageConvention@UnDecorator@@CA?AVDName@@XZ 000000018003b394 f i libvcruntime:undname.obj
 0001:0003a3d0       ?getString@DName@@QEBAPEADPEAD0@Z 000000018003b3d0 f i libvcruntime:undname.obj
 0001:0003a3ec       ?getString@DName@@QEBAPEADPEADH@Z 000000018003b3ec f i libvcruntime:undname.obj
 0001:0003a480       ?getString@DNameStatusNode@@UEBAPEADPEAD0@Z 000000018003b480 f i libvcruntime:undname.obj
 0001:0003a4c8       ?getString@charNode@@UEBAPEADPEAD0@Z 000000018003b4c8 f i libvcruntime:undname.obj
 0001:0003a4dc       ?getString@pDNameNode@@UEBAPEADPEAD0@Z 000000018003b4dc f i libvcruntime:undname.obj
 0001:0003a50c       ?getString@pairNode@@UEBAPEADPEAD0@Z 000000018003b50c f i libvcruntime:undname.obj
 0001:0003a558       ?getString@pcharNode@@UEBAPEADPEAD0@Z 000000018003b558 f i libvcruntime:undname.obj
 0001:0003a590       ?getStringEncoding@UnDecorator@@CA?AVDName@@W4PrefixKind@@H@Z 000000018003b590 f   libvcruntime:undname.obj
 0001:0003a6a0       ?getStringHelper@@YAPEADPEADPEBD1H@Z 000000018003b6a0 f i libvcruntime:undname.obj
 0001:0003a6d0       ?getStringObject@UnDecorator@@CA?AVDName@@XZ 000000018003b6d0 f   libvcruntime:undname.obj
 0001:0003a738       ?getSymbolName@UnDecorator@@CA?AVDName@@XZ 000000018003b738 f i libvcruntime:undname.obj
 0001:0003a784       ?getTemplateArgumentList@UnDecorator@@CA?AVDName@@XZ 000000018003b784 f   libvcruntime:undname.obj
 0001:0003a9a0       ?getTemplateName@UnDecorator@@CA?AVDName@@_N@Z 000000018003b9a0 f   libvcruntime:undname.obj
 0001:0003ac34       ?getTemplateNonTypeArgument@UnDecorator@@CA?AVDName@@XZ 000000018003bc34 f   libvcruntime:undname.obj
 0001:0003b184       ?getTemplateTypeArgument@UnDecorator@@CA?AVDName@@XZ 000000018003c184 f   libvcruntime:undname.obj
 0001:0003b2ec       ?getThisType@UnDecorator@@CA?AVDName@@XZ 000000018003c2ec f i libvcruntime:undname.obj
 0001:0003b32c       ?getThrowTypes@UnDecorator@@CA?AVDName@@XZ 000000018003c32c f   libvcruntime:undname.obj
 0001:0003b350       ?getTypeEncoding@UnDecorator@@CAHXZ 000000018003c350 f i libvcruntime:undname.obj
 0001:0003b70c       ?getUndecoratedName@UnDecorator@@QEAAPEADPEADH@Z 000000018003c70c f i libvcruntime:undname.obj
 0001:0003b860       ?getUnionObject@UnDecorator@@CA?AVDName@@XZ 000000018003c860 f   libvcruntime:undname.obj
 0001:0003b938       ?getVCallThunkType@UnDecorator@@CA?AVDName@@XZ 000000018003c938 f i libvcruntime:undname.obj
 0001:0003b9b0       ?getValue@UnDecorator@@CA?AV?$optional@_K@std@@XZ 000000018003c9b0 f   libvcruntime:undname.obj
 0001:0003ba00       ?getValueObject@UnDecorator@@CA?AVDName@@XZ 000000018003ca00 f   libvcruntime:undname.obj
 0001:0003bb40       ?getVbTableType@UnDecorator@@CA?AVDName@@AEBV2@@Z 000000018003cb40 f i libvcruntime:undname.obj
 0001:0003bb58       ?getVdispMapType@UnDecorator@@CA?AVDName@@AEBV2@@Z 000000018003cb58 f i libvcruntime:undname.obj
 0001:0003bbd4       ?getVfTableType@UnDecorator@@CA?AVDName@@AEBV2@@Z 000000018003cbd4 f i libvcruntime:undname.obj
 0001:0003bde0       ?getZName@UnDecorator@@CA?AVDName@@_N0@Z 000000018003cde0 f   libvcruntime:undname.obj
 0001:0003c0b4       ?get_current_character_and_increment_buffer@UnDecorator@@CADXZ 000000018003d0b4 f i libvcruntime:undname.obj
 0001:0003c0cc       ?haveTemplateParameters@UnDecorator@@SAHXZ 000000018003d0cc f i libvcruntime:undname.obj
 0001:0003c0d8       ?increment_buffer@UnDecorator@@CA_N_K@Z 000000018003d0d8 f i libvcruntime:undname.obj
 0001:0003c104       ?increment_buffer_no_check@UnDecorator@@CAXXZ 000000018003d104 f i libvcruntime:undname.obj
 0001:0003c10c       ?increment_buffer_no_check@UnDecorator@@CAX_K@Z 000000018003d10c f i libvcruntime:undname.obj
 0001:0003c114       ?isArray@DName@@QEBAHXZ    000000018003d114 f i libvcruntime:undname.obj
 0001:0003c120       ?isComArray@DName@@QEBAHXZ 000000018003d120 f i libvcruntime:undname.obj
 0001:0003c12c       ?isEmpty@DName@@QEBAHXZ    000000018003d12c f i libvcruntime:undname.obj
 0001:0003c138       ?isFull@Replicator@@QEBAHXZ 000000018003d138 f i libvcruntime:undname.obj
 0001:0003c144       ?isNoTE@DName@@QEBAHXZ     000000018003d144 f i libvcruntime:undname.obj
 0001:0003c150       ?isPinPtr@DName@@QEBAHXZ   000000018003d150 f i libvcruntime:undname.obj
 0001:0003c15c       ?isPtrRef@DName@@QEBAHXZ   000000018003d15c f i libvcruntime:undname.obj
 0001:0003c168       ?isUDC@DName@@QEBAHXZ      000000018003d168 f i libvcruntime:undname.obj
 0001:0003c180       ?isUDTThunk@DName@@QEBAHXZ 000000018003d180 f i libvcruntime:undname.obj
 0001:0003c198       ?isVCallThunk@DName@@QEBAHXZ 000000018003d198 f i libvcruntime:undname.obj
 0001:0003c1a4       ?isValid@DName@@QEBAHXZ    000000018003d1a4 f i libvcruntime:undname.obj
 0001:0003c1b0       ?length@DName@@QEBAHXZ     000000018003d1b0 f i libvcruntime:undname.obj
 0001:0003c1c8       ?length@DNameStatusNode@@UEBAHXZ 000000018003d1c8 f i libvcruntime:undname.obj
 0001:0003c1cc       ?length@charNode@@UEBAHXZ  000000018003d1cc f i libvcruntime:undname.obj
 0001:0003c1d4       ?length@pDNameNode@@UEBAHXZ 000000018003d1d4 f i libvcruntime:undname.obj
 0001:0003c1fc       ?length@pairNode@@UEBAHXZ  000000018003d1fc f i libvcruntime:undname.obj
 0001:0003c244       ?length@pcharNode@@UEBAHXZ 000000018003d244 f i libvcruntime:undname.obj
 0001:0003c248       ?make@DNameStatusNode@@SAPEBV1@W4DNameStatus@@@Z 000000018003d248 f i libvcruntime:undname.obj
 0001:0003c268       ?parseDecoratedName@UnDecorator@@CA?AVDName@@XZ 000000018003d268 f   libvcruntime:undname.obj
 0001:0003c380       ?raw_length@DNameStatusNode@@UEBAHXZ 000000018003d380 f i libvcruntime:undname.obj
 0001:0003c384       ?raw_length@charNode@@UEBAHXZ 000000018003d384 f i libvcruntime:undname.obj
 0001:0003c38c       ?raw_length@pDNameNode@@UEBAHXZ 000000018003d38c f i libvcruntime:undname.obj
 0001:0003c390       ?raw_length@pairNode@@UEBAHXZ 000000018003d390 f i libvcruntime:undname.obj
 0001:0003c394       ?raw_length@pcharNode@@UEBAHXZ 000000018003d394 f i libvcruntime:undname.obj
 0001:0003c398       ?setIsArray@DName@@QEAAXXZ 000000018003d398 f i libvcruntime:undname.obj
 0001:0003c3a0       ?setIsComArray@DName@@QEAAXXZ 000000018003d3a0 f i libvcruntime:undname.obj
 0001:0003c3a8       ?setIsNoTE@DName@@QEAAXXZ  000000018003d3a8 f i libvcruntime:undname.obj
 0001:0003c3b0       ?setIsPinPtr@DName@@QEAAXXZ 000000018003d3b0 f i libvcruntime:undname.obj
 0001:0003c3b8       ?setIsUDC@DName@@QEAAXXZ   000000018003d3b8 f i libvcruntime:undname.obj
 0001:0003c3c4       ?setIsVCallThunk@DName@@QEAAXXZ 000000018003d3c4 f i libvcruntime:undname.obj
 0001:0003c3cc       ?setPtrRef@DName@@QEAAAEAV1@XZ 000000018003d3cc f i libvcruntime:undname.obj
 0001:0003c3d8       ?status@DName@@QEBA?AW4DNameStatus@@XZ 000000018003d3d8 f i libvcruntime:undname.obj
 0001:0003c43c       __unDName                  000000018003d43c f   libvcruntime:undname.obj
 0001:0003c464       __unDNameEx                000000018003d464 f   libvcruntime:undname.obj
 0001:0003c598       _vsprintf_s_l              000000018003d598 f i libvcruntime:undname.obj
 0001:0003c5fc       snprintf                   000000018003d5fc f i libvcruntime:undname.obj
 0001:0003c654       sprintf_s                  000000018003d654 f i libvcruntime:undname.obj
 0001:0003c6a8       unDNameGenerateCHPE        000000018003d6a8 f   libvcruntime:undname.obj
 0001:0003c7b0       vsnprintf                  000000018003d7b0 f i libvcruntime:undname.obj
 0001:0003c830       _NLG_Notify                000000018003d830 f   libvcruntime:notify.obj
 0001:0003c850       __NLG_Dispatch2            000000018003d850 f   libvcruntime:notify.obj
 0001:0003c860       __NLG_Return2              000000018003d860 f   libvcruntime:notify.obj
 0001:0003c86c       __except_validate_context_record 000000018003d86c f   libvcruntime:jbcxrval.obj
 0001:0003c8a4       __except_validate_jump_buffer 000000018003d8a4 f   libvcruntime:jbcxrval.obj
 0001:0003c8e4       __except_validate_jump_buffer_common 000000018003d8e4 f i libvcruntime:jbcxrval.obj
 0001:0003c940       ??$?RU__vcrt_ptd@@@__crt_internal_free_policy@@QEBAXQEBU__vcrt_ptd@@@Z 000000018003d940 f i libvcruntime:per_thread_data.obj
 0001:0003c948       ??0?$__crt_unique_heap_ptr@U__vcrt_ptd@@U__crt_internal_free_policy@@@@QEAA@QEAU__vcrt_ptd@@@Z 000000018003d948 f i libvcruntime:per_thread_data.obj
 0001:0003c96c       ??1?$__crt_unique_heap_ptr@U__vcrt_ptd@@U__crt_internal_free_policy@@@@QEAA@XZ 000000018003d96c f i libvcruntime:per_thread_data.obj
 0001:0003c994       ??B?$__crt_unique_heap_ptr@U__vcrt_ptd@@U__crt_internal_free_policy@@@@QEBA_NXZ 000000018003d994 f i libvcruntime:per_thread_data.obj
 0001:0003c99c       ?detach@?$__crt_unique_heap_ptr@U__vcrt_ptd@@U__crt_internal_free_policy@@@@QEAAPEAU__vcrt_ptd@@XZ 000000018003d99c f i libvcruntime:per_thread_data.obj
 0001:0003c9a4       ?get@?$__crt_unique_heap_ptr@U__vcrt_ptd@@U__crt_internal_free_policy@@@@QEBAPEAU__vcrt_ptd@@XZ 000000018003d9a4 f i libvcruntime:per_thread_data.obj
 0001:0003c9a8       ?is_valid@?$__crt_unique_heap_ptr@U__vcrt_ptd@@U__crt_internal_free_policy@@@@QEBA_NXZ 000000018003d9a8 f i libvcruntime:per_thread_data.obj
 0001:0003c9b0       ?release@?$__crt_unique_heap_ptr@U__vcrt_ptd@@U__crt_internal_free_policy@@@@QEAAXXZ 000000018003d9b0 f i libvcruntime:per_thread_data.obj
 0001:0003c9f8       __vcrt_freefls             000000018003d9f8 f   libvcruntime:per_thread_data.obj
 0001:0003ca18       __vcrt_freeptd             000000018003da18 f   libvcruntime:per_thread_data.obj
 0001:0003ca68       __vcrt_getptd              000000018003da68 f   libvcruntime:per_thread_data.obj
 0001:0003ca84       __vcrt_getptd_noexit       000000018003da84 f   libvcruntime:per_thread_data.obj
 0001:0003cb44       __vcrt_getptd_noinit       000000018003db44 f   libvcruntime:per_thread_data.obj
 0001:0003cb94       __vcrt_initialize_ptd      000000018003db94 f   libvcruntime:per_thread_data.obj
 0001:0003cbdc       __vcrt_uninitialize_ptd    000000018003dbdc f   libvcruntime:per_thread_data.obj
 0001:0003cc00       __vcrt_initialize_locks    000000018003dc00 f   libvcruntime:locks.obj
 0001:0003cc48       __vcrt_lock                000000018003dc48 f   libvcruntime:locks.obj
 0001:0003cc64       __vcrt_uninitialize_locks  000000018003dc64 f   libvcruntime:locks.obj
 0001:0003cc9c       __vcrt_unlock              000000018003dc9c f   libvcruntime:locks.obj
 0001:0003ccb8       ??$?0AEAViterator@TryBlockMap4@FH4@@AEAV012@$0A@@?$pair@Viterator@TryBlockMap4@FH4@@V123@@std@@QEAA@AEAViterator@TryBlockMap4@FH4@@0@Z 000000018003dcb8 f i libvcruntime:risctrnsctrl.obj
 0001:0003cccc       ??$?0AEAViterator@TryBlockMap@__FrameHandler3@@AEAV012@$0A@@?$pair@Viterator@TryBlockMap@__FrameHandler3@@V123@@std@@QEAA@AEAViterator@TryBlockMap@__FrameHandler3@@0@Z 000000018003dccc f i libvcruntime:risctrnsctrl.obj
 0001:0003ce50       ??$_CallSETranslator@V__FrameHandler3@@@@YAHPEAUEHExceptionRecord@@PEA_KPEAU_CONTEXT@@PEAU_xDISPATCHER_CONTEXT@@PEBU_s_FuncInfo@@K1H@Z 000000018003de50 f i libvcruntime:risctrnsctrl.obj
 0001:0003cea4       ??$_CallSETranslator@V__FrameHandler4@@@@YAHPEAUEHExceptionRecord@@PEA_KPEAU_CONTEXT@@PEAU_xDISPATCHER_CONTEXT@@PEAUFuncInfo4@FH4@@K1H@Z 000000018003dea4 f i libvcruntime:risctrnsctrl.obj
 0001:0003cef8       ??$forward@AEAViterator@TryBlockMap4@FH4@@@std@@YAAEAViterator@TryBlockMap4@FH4@@AEAV123@@Z 000000018003def8 f i libvcruntime:risctrnsctrl.obj
 0001:0003cefc       ??$forward@AEAViterator@TryBlockMap@__FrameHandler3@@@std@@YAAEAViterator@TryBlockMap@__FrameHandler3@@AEAV123@@Z 000000018003defc f i libvcruntime:risctrnsctrl.obj
 0001:0003cf00       ??0FuncInfo4@FH4@@QEAA@XZ  000000018003df00 f i libvcruntime:risctrnsctrl.obj
 0001:0003cf14       ??0FuncInfoHeader@FH4@@QEAA@XZ 000000018003df14 f i libvcruntime:risctrnsctrl.obj
 0001:0003cf1c       ??0iterator@TryBlockMap4@FH4@@QEAA@AEAV12@I@Z 000000018003df1c f i libvcruntime:risctrnsctrl.obj
 0001:0003cf28       ??0iterator@TryBlockMap@__FrameHandler3@@QEAA@AEAV12@I@Z 000000018003df28 f i libvcruntime:risctrnsctrl.obj
 0001:0003cf34       ??4iterator@TryBlockMap4@FH4@@QEAAAEAV012@AEBV012@@Z 000000018003df34 f i libvcruntime:risctrnsctrl.obj
 0001:0003cf40       ??9iterator@TryBlockMap4@FH4@@QEBA_NAEBV012@@Z 000000018003df40 f i libvcruntime:risctrnsctrl.obj
 0001:0003cf4c       ??Diterator@TryBlockMap4@FH4@@QEAA?AUTryBlockMapEntry4@2@XZ 000000018003df4c f i libvcruntime:risctrnsctrl.obj
 0001:0003cf5c       ??Eiterator@TryBlockMap4@FH4@@QEAAAEAV012@XZ 000000018003df5c f i libvcruntime:risctrnsctrl.obj
 0001:0003cff8       ?CatchTryBlock@__FrameHandler3@@SAPEBU_s_TryBlockMapEntry@@PEBU_s_FuncInfo@@H@Z 000000018003dff8 f   libvcruntime:risctrnsctrl.obj
 0001:0003d05c       ?DecompFuncInfo@FH4@@YA_JPEAEAEAUFuncInfo4@1@_KH@Z 000000018003e05c f i libvcruntime:risctrnsctrl.obj
 0001:0003d070       ?DecompFuncInfo@FH4@@YA_JPEAEAEAUFuncInfo4@1@_KH_N@Z 000000018003e070 f i libvcruntime:risctrnsctrl.obj
 0001:0003d1a4       ?DecompTryBlock@TryBlockMap4@FH4@@AEAAXXZ 000000018003e1a4 f i libvcruntime:risctrnsctrl.obj
 0001:0003d238       ?ExecutionInCatch@__FrameHandler3@@SA_NPEAU_xDISPATCHER_CONTEXT@@PEBU_s_FuncInfo@@@Z 000000018003e238 f   libvcruntime:risctrnsctrl.obj
 0001:0003d264       ?ExecutionInCatch@__FrameHandler4@@SA_NPEAU_xDISPATCHER_CONTEXT@@PEAUFuncInfo4@FH4@@@Z 000000018003e264 f   libvcruntime:risctrnsctrl.obj
 0001:0003d26c       ?FrameUnwindToEmptyState@__FrameHandler3@@SAXPEA_KPEAU_xDISPATCHER_CONTEXT@@PEBU_s_FuncInfo@@@Z 000000018003e26c f   libvcruntime:risctrnsctrl.obj
 0001:0003d2d0       ?FrameUnwindToEmptyState@__FrameHandler4@@SAXPEA_KPEAU_xDISPATCHER_CONTEXT@@PEAUFuncInfo4@FH4@@@Z 000000018003e2d0 f   libvcruntime:risctrnsctrl.obj
 0001:0003d304       ?GetEstablisherFrame@__FrameHandler3@@SAPEA_KPEA_KPEAU_xDISPATCHER_CONTEXT@@PEBU_s_FuncInfo@@0@Z 000000018003e304 f   libvcruntime:risctrnsctrl.obj
 0001:0003d3d0       ?GetEstablisherFrame@__FrameHandler4@@SAPEA_KPEA_KPEAU_xDISPATCHER_CONTEXT@@PEAUFuncInfo4@FH4@@0@Z 000000018003e3d0 f   libvcruntime:risctrnsctrl.obj
 0001:0003d3f4       ?GetRangeOfTrysToCheck@__FrameHandler3@@SA?AU?$pair@Viterator@TryBlockMap@__FrameHandler3@@V123@@std@@AEAVTryBlockMap@1@HPEAU_xDISPATCHER_CONTEXT@@PEBU_s_FuncInfo@@H@Z 000000018003e3f4 f   libvcruntime:risctrnsctrl.obj
 0001:0003d534       ?GetRangeOfTrysToCheck@__FrameHandler4@@SA?AU?$pair@Viterator@TryBlockMap4@FH4@@V123@@std@@AEAVTryBlockMap4@FH4@@HPEAU_xDISPATCHER_CONTEXT@@PEAUFuncInfo4@5@H@Z 000000018003e534 f   libvcruntime:risctrnsctrl.obj
 0001:0003d6a0       ?ReadInt@FH4@@YAHPEAPEAE@Z 000000018003e6a0 f i libvcruntime:risctrnsctrl.obj
 0001:0003d6b0       ?ReadUnsigned@FH4@@YAIPEAPEAE@Z 000000018003e6b0 f i libvcruntime:risctrnsctrl.obj
 0001:0003d6e0       ?UnwindNestedFrames@__FrameHandler3@@SAXPEA_KPEAUEHExceptionRecord@@PEAU_CONTEXT@@0PEAXPEBU_s_FuncInfo@@HHPEBU_s_HandlerType@@PEAU_xDISPATCHER_CONTEXT@@E@Z 000000018003e6e0 f   libvcruntime:risctrnsctrl.obj
 0001:0003d7e4       ?UnwindNestedFrames@__FrameHandler4@@SAXPEA_KPEAUEHExceptionRecord@@PEAU_CONTEXT@@0PEAXPEAUFuncInfo4@FH4@@HHPEAUHandlerType4@5@PEAU_xDISPATCHER_CONTEXT@@E@Z 000000018003e7e4 f   libvcruntime:risctrnsctrl.obj
 0001:0003d904       ?begin@TryBlockMap4@FH4@@QEAA?AViterator@12@XZ 000000018003e904 f i libvcruntime:risctrnsctrl.obj
 0001:0003d910       ?end@TryBlockMap4@FH4@@QEAA?AViterator@12@XZ 000000018003e910 f i libvcruntime:risctrnsctrl.obj
 0001:0003d91c       ?imageRelToByteBuffer@FH4@@YAPEAE_KH@Z 000000018003e91c f i libvcruntime:risctrnsctrl.obj
 0001:0003d924       ?incrementToSentinel@iterator@TryBlockMap4@FH4@@QEAAXXZ 000000018003e924 f i libvcruntime:risctrnsctrl.obj
 0001:0003d928       ?setBuffer@TryBlockMap4@FH4@@QEAAXViterator@12@@Z 000000018003e928 f i libvcruntime:risctrnsctrl.obj
 0001:0003daec       _CreateFrameInfo           000000018003eaec f   libvcruntime:risctrnsctrl.obj
 0001:0003db28       _FindAndUnlinkFrame        000000018003eb28 f   libvcruntime:risctrnsctrl.obj
 0001:0003db7c       _GetImageBase              000000018003eb7c f   libvcruntime:risctrnsctrl.obj
 0001:0003db90       _GetThrowImageBase         000000018003eb90 f   libvcruntime:risctrnsctrl.obj
 0001:0003dba4       _SetImageBase              000000018003eba4 f   libvcruntime:risctrnsctrl.obj
 0001:0003dbbc       _SetThrowImageBase         000000018003ebbc f   libvcruntime:risctrnsctrl.obj
 0001:0003dbd4       __CxxFrameHandler          000000018003ebd4 f   libvcruntime:risctrnsctrl.obj
 0001:0003dbdc       __CxxFrameHandler2         000000018003ebdc f   libvcruntime:risctrnsctrl.obj
 0001:0003dbe4       __CxxFrameHandler3         000000018003ebe4 f   libvcruntime:risctrnsctrl.obj
 0001:0003dc6c       __CxxFrameHandler4         000000018003ec6c f   libvcruntime:risctrnsctrl.obj
 0001:0003dd2c       ??$__crt_interlocked_exchange_pointer@UHINSTANCE__@@PEAU1@@@YAPEAUHINSTANCE__@@PEDSEAU0@QEAU0@@Z 000000018003ed2c f i libvcruntime:winapi_downlevel.obj
 0001:0003dd34       ??$__crt_interlocked_exchange_pointer@UHINSTANCE__@@PEAX@@YAPEAUHINSTANCE__@@PEDSEAU0@QEAX@Z 000000018003ed34 f i libvcruntime:winapi_downlevel.obj
 0001:0003dd3c       ??$__crt_interlocked_exchange_pointer@XPEAX@@YAPEAXPEDSEAXQEAX@Z 000000018003ed3c f i libvcruntime:winapi_downlevel.obj
 0001:0003dd44       ??$__crt_interlocked_read_pointer@UHINSTANCE__@@@@YAPEAUHINSTANCE__@@PEDSEAU0@@Z 000000018003ed44 f i libvcruntime:winapi_downlevel.obj
 0001:0003dd4c       ??$__crt_interlocked_read_pointer@X@@YAPEAXPEDSEAX@Z 000000018003ed4c f i libvcruntime:winapi_downlevel.obj
 0001:0003e28c       __vcrt_FlsAlloc            000000018003f28c f   libvcruntime:winapi_downlevel.obj
 0001:0003e2d4       __vcrt_FlsFree             000000018003f2d4 f   libvcruntime:winapi_downlevel.obj
 0001:0003e31c       __vcrt_FlsGetValue         000000018003f31c f   libvcruntime:winapi_downlevel.obj
 0001:0003e364       __vcrt_FlsSetValue         000000018003f364 f   libvcruntime:winapi_downlevel.obj
 0001:0003e3b8       __vcrt_InitializeCriticalSectionEx 000000018003f3b8 f   libvcruntime:winapi_downlevel.obj
 0001:0003e41c       ?GetCurrentState@__FrameHandler3@@SAHPEA_KPEAU_xDISPATCHER_CONTEXT@@PEBU_s_FuncInfo@@@Z 000000018003f41c f   libvcruntime:ehstate.obj
 0001:0003e444       ?GetUnwindTryBlock@__FrameHandler3@@SAHPEA_KPEAU_xDISPATCHER_CONTEXT@@PEBU_s_FuncInfo@@@Z 000000018003f444 f   libvcruntime:ehstate.obj
 0001:0003e470       ?SetState@__FrameHandler3@@SAXPEA_KPEBU_s_FuncInfo@@H@Z 000000018003f470 f   libvcruntime:ehstate.obj
 0001:0003e47c       ?SetUnwindTryBlock@__FrameHandler3@@SAXPEA_KPEAU_xDISPATCHER_CONTEXT@@PEBU_s_FuncInfo@@H@Z 000000018003f47c f   libvcruntime:ehstate.obj
 0001:0003e4b8       ?StateFromControlPc@__FrameHandler3@@SAHPEBU_s_FuncInfo@@PEAU_xDISPATCHER_CONTEXT@@@Z 000000018003f4b8 f   libvcruntime:ehstate.obj
 0001:0003e4c0       ?StateFromControlPc@__FrameHandler4@@SAHPEAUFuncInfo4@FH4@@PEAU_xDISPATCHER_CONTEXT@@@Z 000000018003f4c0 f   libvcruntime:ehstate.obj
 0001:0003e4c8       ?StateFromIp@__FrameHandler3@@SAHPEBU_s_FuncInfo@@PEAU_xDISPATCHER_CONTEXT@@_K@Z 000000018003f4c8 f   libvcruntime:ehstate.obj
 0001:0003e530       ?StateFromIp@__FrameHandler4@@SAHPEAUFuncInfo4@FH4@@PEAU_xDISPATCHER_CONTEXT@@_K@Z 000000018003f530 f   libvcruntime:ehstate.obj
 0001:0003e620       ?__FuncRelToRealOffset@@YA_KPEAU_xDISPATCHER_CONTEXT@@I@Z 000000018003f620 f i libvcruntime:ehstate.obj
 0001:0003e630       ?__RVAtoRealOffset@@YA_KPEAU_xDISPATCHER_CONTEXT@@H@Z 000000018003f630 f i libvcruntime:ehstate.obj
 0001:0003fc4c       ??$TypeMatchHelper@V__FrameHandler3@@@@YAHPEBU_s_HandlerType@@PEBU_s_CatchableType@@PEBU_s_ThrowInfo@@@Z 0000000180040c4c f i libvcruntime:frame.obj
 0001:0003fd8c       ??$TypeMatchHelper@V__FrameHandler4@@@@YAHPEAUHandlerType4@FH4@@PEBU_s_CatchableType@@PEBU_s_ThrowInfo@@@Z 0000000180040d8c f i libvcruntime:frame.obj
 0001:0003fed0       ??$__InternalCxxFrameHandler@V__FrameHandler3@@@@YA?AW4_EXCEPTION_DISPOSITION@@PEAUEHExceptionRecord@@PEA_KPEAU_CONTEXT@@PEAU_xDISPATCHER_CONTEXT@@PEBU_s_FuncInfo@@H1E@Z 0000000180040ed0 f i libvcruntime:frame.obj
 0001:00040108       ??$__InternalCxxFrameHandler@V__FrameHandler4@@@@YA?AW4_EXCEPTION_DISPOSITION@@PEAUEHExceptionRecord@@PEA_KPEAU_CONTEXT@@PEAU_xDISPATCHER_CONTEXT@@PEAUFuncInfo4@FH4@@H1E@Z 0000000180041108 f i libvcruntime:frame.obj
 0001:0004039c       ??$__InternalCxxFrameHandlerWrapper@V__FrameHandler3@@@@YA?AW4_EXCEPTION_DISPOSITION@@PEAUEHExceptionRecord@@PEA_KPEAU_CONTEXT@@PEAU_xDISPATCHER_CONTEXT@@PEBU_s_FuncInfo@@H1E@Z 000000018004139c f i libvcruntime:frame.obj
 0001:000403a4       ??$__InternalCxxFrameHandlerWrapper@V__FrameHandler4@@@@YA?AW4_EXCEPTION_DISPOSITION@@PEAUEHExceptionRecord@@PEA_KPEAU_CONTEXT@@PEAU_xDISPATCHER_CONTEXT@@PEAUFuncInfo4@FH4@@H1E@Z 00000001800413a4 f i libvcruntime:frame.obj
 0001:00040400       ??0HandlerMap4@FH4@@QEAA@PEBUTryBlockMapEntry4@1@_KH@Z 0000000180041400 f i libvcruntime:frame.obj
 0001:0004047c       ??0HandlerMap@__FrameHandler3@@QEAA@PEBU_s_TryBlockMapEntry@@_KI@Z 000000018004147c f i libvcruntime:frame.obj
 0001:00040490       ??0HandlerType4@FH4@@QEAA@XZ 0000000180041490 f i libvcruntime:frame.obj
 0001:000404a8       ??0TryBlockMap4@FH4@@QEAA@PEBUFuncInfo4@1@_K@Z 00000001800414a8 f i libvcruntime:frame.obj
 0001:00040580       ??0TryBlockMap@__FrameHandler3@@QEAA@PEBU_s_FuncInfo@@_K@Z 0000000180041580 f i libvcruntime:frame.obj
 0001:0004058c       ??0UWMap4@FH4@@QEAA@PEBUFuncInfo4@1@_K@Z 000000018004158c f i libvcruntime:frame.obj
 0001:000405d0       ??0bad_exception@std@@QEAA@AEBV01@@Z 00000001800415d0 f i libvcruntime:frame.obj
 0001:0004060c       ??0bad_exception@std@@QEAA@XZ 000000018004160c f i libvcruntime:frame.obj
 0001:0004062c       ??0exception@std@@QEAA@AEBV01@@Z 000000018004162c f i libvcruntime:frame.obj
 0001:00040660       ??0exception@std@@QEAA@QEBDH@Z 0000000180041660 f i libvcruntime:frame.obj
 0001:00040678       ??0iterator@HandlerMap4@FH4@@QEAA@AEAV12@I@Z 0000000180041678 f i libvcruntime:frame.obj
 0001:00040684       ??0iterator@HandlerMap@__FrameHandler3@@QEAA@AEAV12@I@Z 0000000180041684 f i libvcruntime:frame.obj
 0001:00040690       ??0iterator@UWMap4@FH4@@QEAA@AEAV12@PEAE@Z 0000000180041690 f i libvcruntime:frame.obj
 0001:0004069c       ??1bad_exception@std@@UEAA@XZ 000000018004169c f i libvcruntime:frame.obj
 0001:000406b0       ??1exception@std@@UEAA@XZ  00000001800416b0 f i libvcruntime:frame.obj
 0001:000406c4       ??4iterator@UWMap4@FH4@@QEAAAEAV012@AEBV012@@Z 00000001800416c4 f i libvcruntime:frame.obj
 0001:000406e4       ??8iterator@HandlerMap4@FH4@@QEBA_NAEBV012@@Z 00000001800416e4 f i libvcruntime:frame.obj
 0001:000406f0       ??8iterator@HandlerMap@__FrameHandler3@@QEBA_NAEBV012@@Z 00000001800416f0 f i libvcruntime:frame.obj
 0001:000406fc       ??8type_info@@QEBA_NAEBV0@@Z 00000001800416fc f i libvcruntime:frame.obj
 0001:00040718       ??9iterator@HandlerMap4@FH4@@QEBA_NAEBV012@@Z 0000000180041718 f i libvcruntime:frame.obj
 0001:00040724       ??9iterator@HandlerMap@__FrameHandler3@@QEBA_NAEBV012@@Z 0000000180041724 f i libvcruntime:frame.obj
 0001:00040730       ??Diterator@HandlerMap4@FH4@@QEAA?AUHandlerType4@2@XZ 0000000180041730 f i libvcruntime:frame.obj
 0001:00040750       ??Diterator@HandlerMap@__FrameHandler3@@QEAA?BU_s_HandlerType@@XZ 0000000180041750 f i libvcruntime:frame.obj
 0001:00040774       ??Diterator@TryBlockMap@__FrameHandler3@@QEAA?BU_s_TryBlockMapEntry@@XZ 0000000180041774 f i libvcruntime:frame.obj
 0001:000407a4       ??Diterator@UWMap4@FH4@@QEAA?AUUnwindMapEntry4@2@XZ 00000001800417a4 f i libvcruntime:frame.obj
 0001:000407f8       ??Eiterator@HandlerMap4@FH4@@QEAAAEAV012@XZ 00000001800417f8 f i libvcruntime:frame.obj
 0001:00040818       ??Eiterator@HandlerMap@__FrameHandler3@@QEAAAEAV012@XZ 0000000180041818 f i libvcruntime:frame.obj
 0001:00040820       ??Eiterator@TryBlockMap@__FrameHandler3@@QEAAAEAV012@XZ 0000000180041820 f i libvcruntime:frame.obj
 0001:00040828       ??Eiterator@UWMap4@FH4@@QEAAAEAV012@XZ 0000000180041828 f i libvcruntime:frame.obj
 0001:00040848       ??Giterator@UWMap4@FH4@@QEBA_JAEBV012@@Z 0000000180041848 f i libvcruntime:frame.obj
 0001:00040854       ??Miterator@TryBlockMap4@FH4@@QEBA_NAEBV012@@Z 0000000180041854 f i libvcruntime:frame.obj
 0001:00040860       ??Miterator@TryBlockMap@__FrameHandler3@@QEBA_NAEBV012@@Z 0000000180041860 f i libvcruntime:frame.obj
 0001:0004086c       ??Oiterator@UWMap4@FH4@@QEBA_NAEBV012@@Z 000000018004186c f i libvcruntime:frame.obj
 0001:00040878       ??Piterator@UWMap4@FH4@@QEBA_NAEBV012@@Z 0000000180041878 f i libvcruntime:frame.obj
 0001:00040884       ??_Ebad_exception@std@@UEAAPEAXI@Z 0000000180041884 f i libvcruntime:frame.obj
 0001:00040884       ??_Gbad_exception@std@@UEAAPEAXI@Z 0000000180041884 f i libvcruntime:frame.obj
 0001:000408c8       ??_Eexception@std@@UEAAPEAXI@Z 00000001800418c8 f i libvcruntime:frame.obj
 0001:000408c8       ??_Gexception@std@@UEAAPEAXI@Z 00000001800418c8 f i libvcruntime:frame.obj
 0001:0004090c       ?BuildCatchObject@__FrameHandler3@@SAXPEAUEHExceptionRecord@@PEAXPEBU_s_HandlerType@@PEBU_s_CatchableType@@@Z 000000018004190c f   libvcruntime:frame.obj
 0001:00040914       ?BuildCatchObject@__FrameHandler4@@SAXPEAUEHExceptionRecord@@PEAXPEAUHandlerType4@FH4@@PEBU_s_CatchableType@@@Z 0000000180041914 f   libvcruntime:frame.obj
 0001:0004091c       ?BuildCatchObjectHelper@__FrameHandler3@@SAHPEAUEHExceptionRecord@@PEAXPEBU_s_HandlerType@@PEBU_s_CatchableType@@@Z 000000018004191c f   libvcruntime:frame.obj
 0001:00040924       ?BuildCatchObjectHelper@__FrameHandler4@@SAHPEAUEHExceptionRecord@@PEAXPEAUHandlerType4@FH4@@PEBU_s_CatchableType@@@Z 0000000180041924 f   libvcruntime:frame.obj
 0001:0004092c       ?CxxCallCatchBlock@__FrameHandler3@@SAPEAXPEAU_EXCEPTION_RECORD@@@Z 000000018004192c f   libvcruntime:frame.obj
 0001:00040b18       ?CxxCallCatchBlock@__FrameHandler4@@SAPEAXPEAU_EXCEPTION_RECORD@@@Z 0000000180041b18 f   libvcruntime:frame.obj
 0001:00040d68       ?DecompHandler@HandlerMap4@FH4@@AEAAXXZ 0000000180041d68 f i libvcruntime:frame.obj
 0001:00040fb4       ?FrameUnwindToState@__FrameHandler3@@SAXPEA_KPEAU_xDISPATCHER_CONTEXT@@PEBU_s_FuncInfo@@H@Z 0000000180041fb4 f   libvcruntime:frame.obj
 0001:00041140       ?FrameUnwindToState@__FrameHandler4@@SAXPEA_KPEAU_xDISPATCHER_CONTEXT@@PEAUFuncInfo4@FH4@@H@Z 0000000180042140 f   libvcruntime:frame.obj
 0001:0004143c       ?GetHandlerSearchState@__FrameHandler3@@SAHPEA_KPEAU_xDISPATCHER_CONTEXT@@PEBU_s_FuncInfo@@@Z 000000018004243c f i libvcruntime:frame.obj
 0001:000414d4       ?GetHandlerSearchState@__FrameHandler4@@SAHPEA_KPEAU_xDISPATCHER_CONTEXT@@PEAUFuncInfo4@FH4@@@Z 00000001800424d4 f i libvcruntime:frame.obj
 0001:00041538       ?GetMaxState@__FrameHandler3@@SAHPEAU_xDISPATCHER_CONTEXT@@PEBU_s_FuncInfo@@@Z 0000000180042538 f i libvcruntime:frame.obj
 0001:0004153c       ?GetMaxState@__FrameHandler4@@SAHPEAU_xDISPATCHER_CONTEXT@@PEAUFuncInfo4@FH4@@@Z 000000018004253c f i libvcruntime:frame.obj
 0001:000416ec       ?ReadEntry@UWMap4@FH4@@AEAAXPEAPEAE@Z 00000001800426ec f i libvcruntime:frame.obj
 0001:00041788       ?TypeMatch@__FrameHandler3@@SAHPEBU_s_HandlerType@@PEBU_s_CatchableType@@PEBU_s_ThrowInfo@@@Z 0000000180042788 f   libvcruntime:frame.obj
 0001:00041790       ?TypeMatch@__FrameHandler4@@SAHPEAUHandlerType4@FH4@@PEBU_s_CatchableType@@PEBU_s_ThrowInfo@@@Z 0000000180042790 f   libvcruntime:frame.obj
 0001:00041798       ?WalkBack@UWMap4@FH4@@AEAAXPEAPEAE@Z 0000000180042798 f i libvcruntime:frame.obj
 0001:000417d0       ?WalkBack@iterator@UWMap4@FH4@@QEAAXXZ 00000001800427d0 f i libvcruntime:frame.obj
 0001:00041810       ?WalkForward@UWMap4@FH4@@AEAAXPEAPEAE@Z 0000000180042810 f i libvcruntime:frame.obj
 0001:00041818       ?_CallMemberFunction1@@YAXQEAX00@Z 0000000180042818 f i libvcruntime:frame.obj
 0001:00041824       ?_CallMemberFunction2@@YAXQEAX00H@Z 0000000180042824 f i libvcruntime:frame.obj
 0001:00041848       ?begin@HandlerMap4@FH4@@QEAA?AViterator@12@XZ 0000000180042848 f i libvcruntime:frame.obj
 0001:00041854       ?begin@HandlerMap@__FrameHandler3@@QEAA?AViterator@12@XZ 0000000180042854 f i libvcruntime:frame.obj
 0001:00041860       ?begin@UWMap4@FH4@@QEAA?AViterator@12@XZ 0000000180042860 f i libvcruntime:frame.obj
 0001:00041870       ?end@HandlerMap4@FH4@@QEAA?AViterator@12@XZ 0000000180042870 f i libvcruntime:frame.obj
 0001:0004187c       ?end@HandlerMap@__FrameHandler3@@QEAA?AViterator@12@XZ 000000018004287c f i libvcruntime:frame.obj
 0001:00041888       ?getESTypes@__FrameHandler3@@SAPEBU_s_ESTypeList@@PEBU_s_FuncInfo@@@Z 0000000180042888 f i libvcruntime:frame.obj
 0001:000418b0       ?getESTypes@__FrameHandler4@@SAPEBU_s_ESTypeList@@PEAUFuncInfo4@FH4@@@Z 00000001800428b0 f i libvcruntime:frame.obj
 0001:000418b4       ?getLastEntry@HandlerMap4@FH4@@QEAAPEAUHandlerType4@2@XZ 00000001800428b4 f i libvcruntime:frame.obj
 0001:00041904       ?getLastEntry@HandlerMap@__FrameHandler3@@QEAAPEBU_s_HandlerType@@XZ 0000000180042904 f i libvcruntime:frame.obj
 0001:00041918       ?getMagicNum@__FrameHandler3@@SAIPEBU_s_FuncInfo@@@Z 0000000180042918 f i libvcruntime:frame.obj
 0001:00041920       ?getMagicNum@__FrameHandler4@@SAIPEAUFuncInfo4@FH4@@@Z 0000000180042920 f i libvcruntime:frame.obj
 0001:00041928       ?getNumTryBlocks@TryBlockMap4@FH4@@QEAAIXZ 0000000180042928 f i libvcruntime:frame.obj
 0001:0004192c       ?getNumTryBlocks@TryBlockMap@__FrameHandler3@@QEAAIXZ 000000018004292c f i libvcruntime:frame.obj
 0001:00041934       ?getStartStop@UWMap4@FH4@@QEAAXHHAEAViterator@12@0@Z 0000000180042934 f i libvcruntime:frame.obj
 0001:00041a04       ?getStateFromIterators@UWMap4@FH4@@SAHAEBViterator@12@H0H0@Z 0000000180042a04 f i libvcruntime:frame.obj
 0001:00041ab4       ?isEHs@__FrameHandler3@@SA_NPEBU_s_FuncInfo@@@Z 0000000180042ab4 f i libvcruntime:frame.obj
 0001:00041abc       ?isEHs@__FrameHandler4@@SA_NPEAUFuncInfo4@FH4@@@Z 0000000180042abc f i libvcruntime:frame.obj
 0001:00041ac4       ?isNoExcept@__FrameHandler3@@SA_NPEBU_s_FuncInfo@@@Z 0000000180042ac4 f i libvcruntime:frame.obj
 0001:00041ad0       ?isNoExcept@__FrameHandler4@@SA_NPEAUFuncInfo4@FH4@@@Z 0000000180042ad0 f i libvcruntime:frame.obj
 0001:00041ad8       ?reset@HandlerType4@FH4@@QEAAXXZ 0000000180042ad8 f i libvcruntime:frame.obj
 0001:00041aec       ?resetBuffer@HandlerMap4@FH4@@QEAAXXZ 0000000180042aec f i libvcruntime:frame.obj
 0001:00041afc       ?setBuffer@HandlerMap4@FH4@@QEAAXI@Z 0000000180042afc f i libvcruntime:frame.obj
 0001:00041b38       ?what@exception@std@@UEBAPEBDXZ 0000000180042b38 f i libvcruntime:frame.obj
 0001:00041b4c       __BuildCatchObject         0000000180042b4c f   libvcruntime:frame.obj
 0001:00041b54       __BuildCatchObjectHelper   0000000180042b54 f   libvcruntime:frame.obj
 0001:00041b5c       __TypeMatch                0000000180042b5c f   libvcruntime:frame.obj
 0001:00041b64       __vcrt_EncodePointer       0000000180042b64 f i libvcruntime:frame.obj
 0001:00041b80       _CallSettingFrame          0000000180042b80 f   libvcruntime:handlers.obj
 0001:00041bd0       _CallSettingFrame_LookupContinuationIndex 0000000180042bd0 f   libvcruntime:handlers.obj
 0001:00041c00       _CallSettingFrame_NotifyContinuationAddr 0000000180042c00 f   libvcruntime:handlers.obj
 0001:00041c30       _CallSettingFrameEncoded   0000000180042c30 f   libvcruntime:handlers.obj
 0001:00041c78       ??$?RD@__crt_public_free_policy@@QEBAXQEBD@Z 0000000180042c78 f i libvcruntime:std_exception.obj
 0001:00041c80       ??0?$__crt_unique_heap_ptr@DU__crt_public_free_policy@@@@QEAA@QEAD@Z 0000000180042c80 f i libvcruntime:std_exception.obj
 0001:00041c88       ??1?$__crt_unique_heap_ptr@DU__crt_public_free_policy@@@@QEAA@XZ 0000000180042c88 f i libvcruntime:std_exception.obj
 0001:00041ca4       ??B?$__crt_unique_heap_ptr@DU__crt_public_free_policy@@@@QEBA_NXZ 0000000180042ca4 f i libvcruntime:std_exception.obj
 0001:00041cac       ?detach@?$__crt_unique_heap_ptr@DU__crt_public_free_policy@@@@QEAAPEADXZ 0000000180042cac f i libvcruntime:std_exception.obj
 0001:00041cb4       ?get@?$__crt_unique_heap_ptr@DU__crt_public_free_policy@@@@QEBAPEADXZ 0000000180042cb4 f i libvcruntime:std_exception.obj
 0001:00041cb8       ?is_valid@?$__crt_unique_heap_ptr@DU__crt_public_free_policy@@@@QEBA_NXZ 0000000180042cb8 f i libvcruntime:std_exception.obj
 0001:00041cc0       ?release@?$__crt_unique_heap_ptr@DU__crt_public_free_policy@@@@QEAAXXZ 0000000180042cc0 f i libvcruntime:std_exception.obj
 0001:00041cdc       __std_exception_copy       0000000180042cdc f   libvcruntime:std_exception.obj
 0001:00041d6c       __std_exception_destroy    0000000180042d6c f   libvcruntime:std_exception.obj
 0001:00041d94       _CxxThrowException         0000000180042d94 f   libvcruntime:throw.obj
 0001:00041e34       _local_unwind              0000000180042e34 f   libvcruntime:jmpuwind.obj
 0001:00041e60       cosf                       0000000180042e60 f   libucrt:cosf.obj
 0001:00042360       sinf                       0000000180043360 f   libucrt:sinf.obj
 0001:00042a58       _fpclass                   0000000180043a58 f   libucrt:ieeemisc.obj
 0001:00042ae0       _fpclassf                  0000000180043ae0 f   libucrt:ieeemisc.obj
 0001:00042b4c       _isnan                     0000000180043b4c f   libucrt:ieeemisc.obj
 0001:00042b78       _isnanf                    0000000180043b78 f   libucrt:ieeemisc.obj
 0001:00042b94       _nextafter                 0000000180043b94 f   libucrt:ieeemisc.obj
 0001:00042b9c       _nextafterf                0000000180043b9c f   libucrt:ieeemisc.obj
 0001:00042ba4       _scalb                     0000000180043ba4 f   libucrt:ieeemisc.obj
 0001:00042d50       _scalbf                    0000000180043d50 f   libucrt:ieeemisc.obj
 0001:00042ef0       atan2f                     0000000180043ef0 f   libucrt:atan2f.obj
 0001:00043438       _initterm                  0000000180044438 f   libucrt:initterm.obj
 0001:0004347c       _initterm_e                000000018004447c f   libucrt:initterm.obj
 0001:000434c4       free                       00000001800444c4 f   libucrt:free.obj
 0001:000434f8       _seh_filter_dll            00000001800444f8 f   libucrt:exception_filter.obj
 0001:0004350c       _seh_filter_exe            000000018004450c f   libucrt:exception_filter.obj
 0001:00043690       ??$?B$$A6AXPEAXK0@Z@__crt_fast_encoded_nullptr_t@@QEBAP6AXPEAXK0@ZXZ 0000000180044690 f i libucrt:exit.obj
 0001:00043700       ??$__crt_fast_decode_pointer@P6AXPEAXK0@Z@@YAP6AXPEAXK0@ZQ6AX0K0@Z@Z 0000000180044700 f i libucrt:exit.obj
 0001:00043718       ??$__crt_fast_encode_pointer@P6AXPEAXK0@Z@@YAP6AXPEAXK0@ZQ6AX0K0@Z@Z 0000000180044718 f i libucrt:exit.obj
 0001:00043738       ??$__crt_get_proc_address@P6AXI@Z@@YAP6AXI@ZQEAUHINSTANCE__@@QEBD@Z 0000000180044738 f i libucrt:exit.obj
 0001:00043740       ??$__crt_interlocked_read@J@@YAJPEDJ@Z 0000000180044740 f i libucrt:exit.obj
 0001:00043764       ??0?$__crt_unique_handle_t@U__crt_hmodule_traits@@@@QEAA@QEAUHINSTANCE__@@@Z 0000000180044764 f i libucrt:exit.obj
 0001:0004376c       ??1?$__crt_unique_handle_t@U__crt_hmodule_traits@@@@QEAA@XZ 000000018004476c f i libucrt:exit.obj
 0001:0004386c       ?__acrt_select_exit_lock@@YA?AW4__acrt_lock_id@@XZ 000000018004486c f i libucrt:exit.obj
 0001:00043874       ?__crt_fast_encode_pointer@@YA?AU__crt_fast_encoded_nullptr_t@@$$T@Z 0000000180044874 f i libucrt:exit.obj
 0001:0004387c       ?__crt_interlocked_read_32@@YAHPEDH@Z 000000018004487c f i libucrt:exit.obj
 0001:00043880       ?__crt_rotate_pointer_value@@YA_K_KH@Z 0000000180044880 f i libucrt:exit.obj
 0001:00043898       ?close@?$__crt_unique_handle_t@U__crt_hmodule_traits@@@@QEAAXXZ 0000000180044898 f i libucrt:exit.obj
 0001:000438bc       ?close@__crt_hmodule_traits@@SA_NPEAUHINSTANCE__@@@Z 00000001800448bc f i libucrt:exit.obj
 0001:000439cc       ?get@?$__crt_unique_handle_t@U__crt_hmodule_traits@@@@QEBAPEAUHINSTANCE__@@XZ 00000001800449cc f i libucrt:exit.obj
 0001:000439d0       ?get_address_of@?$__crt_unique_handle_t@U__crt_hmodule_traits@@@@QEAAPEAPEAUHINSTANCE__@@XZ 00000001800449d0 f i libucrt:exit.obj
 0001:000439d4       ?get_invalid_value@__crt_hmodule_traits@@SAPEAUHINSTANCE__@@XZ 00000001800449d4 f i libucrt:exit.obj
 0001:00043acc       _Exit                      0000000180044acc f   libucrt:exit.obj
 0001:00043ad8       __acrt_initialize_thread_local_exit_callback 0000000180044ad8 f   libucrt:exit.obj
 0001:00043ae0       _c_exit                    0000000180044ae0 f   libucrt:exit.obj
 0001:00043af0       _cexit                     0000000180044af0 f   libucrt:exit.obj
 0001:00043b00       _exit                      0000000180044b00 f   libucrt:exit.obj
 0001:00043b0c       _is_c_termination_complete 0000000180044b0c f   libucrt:exit.obj
 0001:00043b14       _register_thread_local_exe_atexit_callback 0000000180044b14 f   libucrt:exit.obj
 0001:00043b54       exit                       0000000180044b54 f   libucrt:exit.obj
 0001:00043b60       quick_exit                 0000000180044b60 f   libucrt:exit.obj
 0001:00043b6c       ??$?RE@__crt_internal_free_policy@@QEBAXQEBE@Z 0000000180044b6c f i libucrt:argv_parsing.obj
 0001:00043b74       ??$?RPEAD@__crt_internal_free_policy@@QEBAXQEBQEAD@Z 0000000180044b74 f i libucrt:argv_parsing.obj
 0001:00043b7c       ??$?RPEA_W@__crt_internal_free_policy@@QEBAXQEBQEA_W@Z 0000000180044b7c f i libucrt:argv_parsing.obj
 0001:00043e78       ??$get_module_file_name@$$TAEAY0BAF@DH@?$__crt_char_traits@D@@SAK$$QEA$$TAEAY0BAF@D$$QEAH@Z 0000000180044e78 f i libucrt:argv_parsing.obj
 0001:00043e84       ??$get_module_file_name@$$TAEAY0BAF@_WH@?$__crt_char_traits@_W@@SAK$$QEA$$TAEAY0BAF@_W$$QEAH@Z 0000000180044e84 f i libucrt:argv_parsing.obj
 0001:000441f8       ??$set_program_name@PEAD@?$__crt_char_traits@D@@SAX$$QEAPEAD@Z 00000001800451f8 f i libucrt:argv_parsing.obj
 0001:00044204       ??$set_program_name@PEA_W@?$__crt_char_traits@_W@@SAX$$QEAPEA_W@Z 0000000180045204 f i libucrt:argv_parsing.obj
 0001:00044220       ??0?$__crt_unique_heap_ptr@EU__crt_internal_free_policy@@@@QEAA@QEAE@Z 0000000180045220 f i libucrt:argv_parsing.obj
 0001:00044228       ??0?$__crt_unique_heap_ptr@PEADU__crt_internal_free_policy@@@@QEAA@QEAPEAD@Z 0000000180045228 f i libucrt:argv_parsing.obj
 0001:00044230       ??0?$__crt_unique_heap_ptr@PEA_WU__crt_internal_free_policy@@@@QEAA@QEAPEA_W@Z 0000000180045230 f i libucrt:argv_parsing.obj
 0001:00044238       ??1?$__crt_unique_heap_ptr@EU__crt_internal_free_policy@@@@QEAA@XZ 0000000180045238 f i libucrt:argv_parsing.obj
 0001:00044254       ??1?$__crt_unique_heap_ptr@PEADU__crt_internal_free_policy@@@@QEAA@XZ 0000000180045254 f i libucrt:argv_parsing.obj
 0001:00044270       ??1?$__crt_unique_heap_ptr@PEA_WU__crt_internal_free_policy@@@@QEAA@XZ 0000000180045270 f i libucrt:argv_parsing.obj
 0001:0004428c       ??B?$__crt_unique_heap_ptr@EU__crt_internal_free_policy@@@@QEBA_NXZ 000000018004528c f i libucrt:argv_parsing.obj
 0001:000442cc       ?detach@?$__crt_unique_heap_ptr@EU__crt_internal_free_policy@@@@QEAAPEAEXZ 00000001800452cc f i libucrt:argv_parsing.obj
 0001:000442d4       ?detach@?$__crt_unique_heap_ptr@PEADU__crt_internal_free_policy@@@@QEAAPEAPEADXZ 00000001800452d4 f i libucrt:argv_parsing.obj
 0001:000442dc       ?detach@?$__crt_unique_heap_ptr@PEA_WU__crt_internal_free_policy@@@@QEAAPEAPEA_WXZ 00000001800452dc f i libucrt:argv_parsing.obj
 0001:00044300       ?get@?$__crt_unique_heap_ptr@EU__crt_internal_free_policy@@@@QEBAPEAEXZ 0000000180045300 f i libucrt:argv_parsing.obj
 0001:00044304       ?get@?$__crt_unique_heap_ptr@PEADU__crt_internal_free_policy@@@@QEBAPEAPEADXZ 0000000180045304 f i libucrt:argv_parsing.obj
 0001:00044308       ?get@?$__crt_unique_heap_ptr@PEA_WU__crt_internal_free_policy@@@@QEBAPEAPEA_WXZ 0000000180045308 f i libucrt:argv_parsing.obj
 0001:0004430c       ?get_address_of@?$__crt_unique_heap_ptr@PEADU__crt_internal_free_policy@@@@QEAAPEAPEAPEADXZ 000000018004530c f i libucrt:argv_parsing.obj
 0001:00044310       ?get_address_of@?$__crt_unique_heap_ptr@PEA_WU__crt_internal_free_policy@@@@QEAAPEAPEAPEA_WXZ 0000000180045310 f i libucrt:argv_parsing.obj
 0001:00044334       ?is_valid@?$__crt_unique_heap_ptr@EU__crt_internal_free_policy@@@@QEBA_NXZ 0000000180045334 f i libucrt:argv_parsing.obj
 0001:0004433c       ?release@?$__crt_unique_heap_ptr@EU__crt_internal_free_policy@@@@QEAAXXZ 000000018004533c f i libucrt:argv_parsing.obj
 0001:00044358       ?release@?$__crt_unique_heap_ptr@PEADU__crt_internal_free_policy@@@@QEAAXXZ 0000000180045358 f i libucrt:argv_parsing.obj
 0001:00044374       ?release@?$__crt_unique_heap_ptr@PEA_WU__crt_internal_free_policy@@@@QEAAXXZ 0000000180045374 f i libucrt:argv_parsing.obj
 0001:000443ac       __acrt_allocate_buffer_for_argv 00000001800453ac f   libucrt:argv_parsing.obj
 0001:0004440c       _configure_narrow_argv     000000018004540c f   libucrt:argv_parsing.obj
 0001:00044594       _configure_wide_argv       0000000180045594 f   libucrt:argv_parsing.obj
 0001:00044718       _set_pgmptr                0000000180045718 f i libucrt:argv_parsing.obj
 0001:00044720       _set_wpgmptr               0000000180045720 f i libucrt:argv_parsing.obj
 0001:00044728       ??$?R_W@__crt_internal_free_policy@@QEBAXQEB_W@Z 0000000180045728 f i libucrt:environment_initialization.obj
 0001:00044c50       ??$get_environment_from_os@$$V@?$__crt_char_traits@D@@SAPEADXZ 0000000180045c50 f i libucrt:environment_initialization.obj
 0001:00044c58       ??$get_environment_from_os@$$V@?$__crt_char_traits@_W@@SAPEA_WXZ 0000000180045c58 f i libucrt:environment_initialization.obj
 0001:00044dfc       ??$set_variable_in_environment_nolock@PEADH@?$__crt_char_traits@D@@SAH$$QEAPEAD$$QEAH@Z 0000000180045dfc f i libucrt:environment_initialization.obj
 0001:00044e08       ??$set_variable_in_environment_nolock@PEA_WH@?$__crt_char_traits@_W@@SAH$$QEAPEA_W$$QEAH@Z 0000000180045e08 f i libucrt:environment_initialization.obj
 0001:00044e14       ??$tcscpy_s@PEADAEB_KAEAPEAD@?$__crt_char_traits@D@@SAH$$QEAPEADAEB_KAEAPEAD@Z 0000000180045e14 f i libucrt:environment_initialization.obj
 0001:00044e24       ??$tcscpy_s@PEA_WAEB_KAEAPEA_W@?$__crt_char_traits@_W@@SAH$$QEAPEA_WAEB_KAEAPEA_W@Z 0000000180045e24 f i libucrt:environment_initialization.obj
 0001:00044e34       ??$tcslen@AEAPEAD@?$__crt_char_traits@D@@SA_KAEAPEAD@Z 0000000180045e34 f i libucrt:environment_initialization.obj
 0001:00044e48       ??$tcslen@AEAPEA_W@?$__crt_char_traits@_W@@SA_KAEAPEA_W@Z 0000000180045e48 f i libucrt:environment_initialization.obj
 0001:00044e5c       ??$uninitialize@A6AXAEAPEAPEAD@_E@?$dual_state_global@PEAPEAD@__crt_state_management@@QEAAXA6AXAEAPEAPEAD@_E@Z 0000000180045e5c f i libucrt:environment_initialization.obj
 0001:00044eb4       ??$uninitialize@A6AXAEAPEAPEA_W@_E@?$dual_state_global@PEAPEA_W@__crt_state_management@@QEAAXA6AXAEAPEAPEA_W@_E@Z 0000000180045eb4 f i libucrt:environment_initialization.obj
 0001:00044f44       ??0?$__crt_unique_heap_ptr@_WU__crt_internal_free_policy@@@@QEAA@QEA_W@Z 0000000180045f44 f i libucrt:environment_initialization.obj
 0001:00044f4c       ??1?$__crt_unique_heap_ptr@_WU__crt_internal_free_policy@@@@QEAA@XZ 0000000180045f4c f i libucrt:environment_initialization.obj
 0001:00044f68       ??B?$__crt_unique_heap_ptr@PEADU__crt_internal_free_policy@@@@QEBA_NXZ 0000000180045f68 f i libucrt:environment_initialization.obj
 0001:00044f70       ??B?$__crt_unique_heap_ptr@PEA_WU__crt_internal_free_policy@@@@QEBA_NXZ 0000000180045f70 f i libucrt:environment_initialization.obj
 0001:00044f78       ??B?$__crt_unique_heap_ptr@_WU__crt_internal_free_policy@@@@QEBA_NXZ 0000000180045f78 f i libucrt:environment_initialization.obj
 0001:00044f80       ?__crt_compute_required_transform_buffer_count@@YA_KIQEBD@Z 0000000180045f80 f i libucrt:environment_initialization.obj
 0001:00044fa4       ?__crt_compute_required_transform_buffer_count@@YA_KIQEB_W@Z 0000000180045fa4 f i libucrt:environment_initialization.obj
 0001:00044fd4       ?__crt_transform_string@@YA_KIQEBDQEA_W_K@Z 0000000180045fd4 f i libucrt:environment_initialization.obj
 0001:00044ff8       ?__crt_transform_string@@YA_KIQEB_WQEAD_K@Z 0000000180045ff8 f i libucrt:environment_initialization.obj
 0001:00045028       ?detach@?$__crt_unique_heap_ptr@DU__crt_internal_free_policy@@@@QEAAPEADXZ 0000000180046028 f i libucrt:environment_initialization.obj
 0001:00045030       ?detach@?$__crt_unique_heap_ptr@_WU__crt_internal_free_policy@@@@QEAAPEA_WXZ 0000000180046030 f i libucrt:environment_initialization.obj
 0001:00045038       ?get@?$__crt_unique_heap_ptr@_WU__crt_internal_free_policy@@@@QEBAPEA_WXZ 0000000180046038 f i libucrt:environment_initialization.obj
 0001:0004503c       ?get_current_state_index@__crt_state_management@@YA_KXZ 000000018004603c f i libucrt:environment_initialization.obj
 0001:00045070       ?initialize@?$dual_state_global@PEAPEAD@__crt_state_management@@QEAAXQEAPEAD@Z 0000000180046070 f i libucrt:environment_initialization.obj
 0001:00045080       ?initialize@?$dual_state_global@PEAPEA_W@__crt_state_management@@QEAAXQEAPEA_W@Z 0000000180046080 f i libucrt:environment_initialization.obj
 0001:00045090       ?is_valid@?$__crt_unique_heap_ptr@PEADU__crt_internal_free_policy@@@@QEBA_NXZ 0000000180046090 f i libucrt:environment_initialization.obj
 0001:00045098       ?is_valid@?$__crt_unique_heap_ptr@PEA_WU__crt_internal_free_policy@@@@QEBA_NXZ 0000000180046098 f i libucrt:environment_initialization.obj
 0001:000450a0       ?is_valid@?$__crt_unique_heap_ptr@_WU__crt_internal_free_policy@@@@QEBA_NXZ 00000001800460a0 f i libucrt:environment_initialization.obj
 0001:000450b4       ?release@?$__crt_unique_heap_ptr@_WU__crt_internal_free_policy@@@@QEAAXXZ 00000001800460b4 f i libucrt:environment_initialization.obj
 0001:000450d0       ?value@?$dual_state_global@PEAPEAD@__crt_state_management@@QEAAAEAPEAPEADXZ 00000001800460d0 f i libucrt:environment_initialization.obj
 0001:000450d4       ?value@?$dual_state_global@PEAPEA_W@__crt_state_management@@QEAAAEAPEAPEA_WXZ 00000001800460d4 f i libucrt:environment_initialization.obj
 0001:000450d8       __dcrt_get_or_create_narrow_environment_nolock 00000001800460d8 f   libucrt:environment_initialization.obj
 0001:00045114       __dcrt_get_or_create_wide_environment_nolock 0000000180046114 f   libucrt:environment_initialization.obj
 0001:00045150       __dcrt_uninitialize_environments_nolock 0000000180046150 f   libucrt:environment_initialization.obj
 0001:00045194       __p__environ               0000000180046194 f   libucrt:environment_initialization.obj
 0001:0004519c       __p__wenviron              000000018004619c f   libucrt:environment_initialization.obj
 0001:000451a4       _get_initial_narrow_environment 00000001800461a4 f   libucrt:environment_initialization.obj
 0001:000451f4       _get_initial_wide_environment 00000001800461f4 f   libucrt:environment_initialization.obj
 0001:00045244       _initialize_narrow_environment 0000000180046244 f   libucrt:environment_initialization.obj
 0001:0004524c       _initialize_wide_environment 000000018004624c f   libucrt:environment_initialization.obj
 0001:00045254       _invoke_watson_if_error    0000000180046254 f i libucrt:environment_initialization.obj
 0001:00045288       ??$?B$$A6AXXZ@__crt_fast_encoded_nullptr_t@@QEBAP6AXXZXZ 0000000180046288 f i libucrt:onexit.obj
 0001:00045290       ??$?BP6AXXZ@__crt_fast_encoded_nullptr_t@@QEBAPEAP6AXXZXZ 0000000180046290 f i libucrt:onexit.obj
 0001:00045298       ??$?RP6AXXZ@__crt_internal_free_policy@@QEBAXQEBQ6AXXZ@Z 0000000180046298 f i libucrt:onexit.obj
 0001:00045370       ??$__crt_fast_decode_pointer@P6AXXZ@@YAP6AXXZQ6AXXZ@Z 0000000180046370 f i libucrt:onexit.obj
 0001:00045388       ??$__crt_fast_decode_pointer@PEAP6AXXZ@@YAPEAP6AXXZQEAP6AXXZ@Z 0000000180046388 f i libucrt:onexit.obj
 0001:000453a0       ??$__crt_fast_encode_pointer@P6AHXZ@@YAP6AHXZQ6AHXZ@Z 00000001800463a0 f i libucrt:onexit.obj
 0001:000453c0       ??$__crt_fast_encode_pointer@P6AXXZ@@YAP6AXXZQ6AXXZ@Z 00000001800463c0 f i libucrt:onexit.obj
 0001:000453e0       ??$__crt_fast_encode_pointer@PEAP6AXXZ@@YAPEAP6AXXZQEAP6AXXZ@Z 00000001800463e0 f i libucrt:onexit.obj
 0001:00045434       ??0?$__crt_unique_heap_ptr@P6AXXZU__crt_internal_free_policy@@@@QEAA@QEAP6AXXZ@Z 0000000180046434 f i libucrt:onexit.obj
 0001:0004543c       ??1?$__crt_unique_heap_ptr@P6AXXZU__crt_internal_free_policy@@@@QEAA@XZ 000000018004643c f i libucrt:onexit.obj
 0001:00045458       ??1scoped_global_state_reset@__crt_state_management@@QEAA@XZ 0000000180046458 f i libucrt:onexit.obj
 0001:0004574c       ?detach@?$__crt_unique_heap_ptr@P6AXXZU__crt_internal_free_policy@@@@QEAAPEAP6AXXZXZ 000000018004674c f i libucrt:onexit.obj
 0001:00045754       ?release@?$__crt_unique_heap_ptr@P6AXXZU__crt_internal_free_policy@@@@QEAAXXZ 0000000180046754 f i libucrt:onexit.obj
 0001:00045770       _crt_at_quick_exit         0000000180046770 f   libucrt:onexit.obj
 0001:00045780       _crt_atexit                0000000180046780 f   libucrt:onexit.obj
 0001:00045790       _execute_onexit_table      0000000180046790 f   libucrt:onexit.obj
 0001:000457d4       _initialize_onexit_table   00000001800467d4 f   libucrt:onexit.obj
 0001:000457fc       _register_onexit_function  00000001800467fc f   libucrt:onexit.obj
 0001:00045984       ??$?BX@__crt_fast_encoded_nullptr_t@@QEBAPEAXXZ 0000000180046984 f i libucrt:initialization.obj
 0001:0004598c       ??$__crt_fast_encode_pointer@PEAX@@YAPEAXQEAX@Z 000000018004698c f i libucrt:initialization.obj
 0001:00045a48       ?__acrt_stdio_is_initialized@@YA_NXZ 0000000180046a48 f i libucrt:initialization.obj
 0001:00045a54       ?initialize@?$dual_state_global@PEAU__crt_locale_data@@@__crt_state_management@@QEAAXQEAU__crt_locale_data@@@Z 0000000180046a54 f i libucrt:initialization.obj
 0001:00045a64       __acrt_initialize          0000000180046a64 f   libucrt:initialization.obj
 0001:00045a78       __acrt_thread_attach       0000000180046a78 f   libucrt:initialization.obj
 0001:00045a8c       __acrt_thread_detach       0000000180046a8c f   libucrt:initialization.obj
 0001:00045a9c       __acrt_uninitialize        0000000180046a9c f   libucrt:initialization.obj
 0001:00045ad4       __acrt_uninitialize_critical 0000000180046ad4 f   libucrt:initialization.obj
 0001:00045af8       _get_terminate             0000000180046af8 f   libucrt:terminate.obj
 0001:00045b1c       set_terminate              0000000180046b1c f   libucrt:terminate.obj
 0001:00045b48       terminate                  0000000180046b48 f   libucrt:terminate.obj
 0001:00045b74       malloc                     0000000180046b74 f   libucrt:malloc.obj
 0001:00045be0       strcpy_s                   0000000180046be0 f   libucrt:strcpy_s.obj
 0001:00045c40       _set_abort_behavior        0000000180046c40 f   libucrt:abort.obj
 0001:00045c5c       abort                      0000000180046c5c f   libucrt:abort.obj
 0001:00045cb4       ??$?0AEBV?$stream_output_adapter@D@__crt_stdio_output@@AEB_KAEBQEBDAEAV__crt_cached_ptd_host@@AEBQEAD@?$format_validation_base@DV?$stream_output_adapter@D@__crt_stdio_output@@@__crt_stdio_output@@IEAA@AEBV?$stream_output_adapter@D@1@AEB_KAEBQEBDAEAV__crt_cached_ptd_host@@AEBQEAD@Z 0000000180046cb4 f i libucrt:output.obj
 0001:00045d24       ??$?0AEBV?$stream_output_adapter@D@__crt_stdio_output@@AEB_KAEBQEBDAEAV__crt_cached_ptd_host@@AEBQEAD@?$positional_parameter_base@DV?$stream_output_adapter@D@__crt_stdio_output@@@__crt_stdio_output@@IEAA@AEBV?$stream_output_adapter@D@1@AEB_KAEBQEBDAEAV__crt_cached_ptd_host@@AEBQEAD@Z 0000000180046d24 f i libucrt:output.obj
 0001:00045db4       ??$?0AEBV?$stream_output_adapter@D@__crt_stdio_output@@AEB_KAEBQEBDAEAV__crt_cached_ptd_host@@AEBQEAD@?$standard_base@DV?$stream_output_adapter@D@__crt_stdio_output@@@__crt_stdio_output@@IEAA@AEBV?$stream_output_adapter@D@1@AEB_KAEBQEBDAEAV__crt_cached_ptd_host@@AEBQEAD@Z 0000000180046db4 f i libucrt:output.obj
 0001:00045e24       ??$?0AEBV?$stream_output_adapter@_W@__crt_stdio_output@@AEB_KAEBQEB_WAEAV__crt_cached_ptd_host@@AEBQEAD@?$format_validation_base@_WV?$stream_output_adapter@_W@__crt_stdio_output@@@__crt_stdio_output@@IEAA@AEBV?$stream_output_adapter@_W@1@AEB_KAEBQEB_WAEAV__crt_cached_ptd_host@@AEBQEAD@Z 0000000180046e24 f i libucrt:output.obj
 0001:00045e98       ??$?0AEBV?$stream_output_adapter@_W@__crt_stdio_output@@AEB_KAEBQEB_WAEAV__crt_cached_ptd_host@@AEBQEAD@?$positional_parameter_base@_WV?$stream_output_adapter@_W@__crt_stdio_output@@@__crt_stdio_output@@IEAA@AEBV?$stream_output_adapter@_W@1@AEB_KAEBQEB_WAEAV__crt_cached_ptd_host@@AEBQEAD@Z 0000000180046e98 f i libucrt:output.obj
 0001:00045f2c       ??$?0AEBV?$stream_output_adapter@_W@__crt_stdio_output@@AEB_KAEBQEB_WAEAV__crt_cached_ptd_host@@AEBQEAD@?$standard_base@_WV?$stream_output_adapter@_W@__crt_stdio_output@@@__crt_stdio_output@@IEAA@AEBV?$stream_output_adapter@_W@1@AEB_KAEBQEB_WAEAV__crt_cached_ptd_host@@AEBQEAD@Z 0000000180046f2c f i libucrt:output.obj
 0001:00045fa0       ??$?0AEBV?$string_output_adapter@D@__crt_stdio_output@@AEB_KAEBQEBDAEAV__crt_cached_ptd_host@@AEBQEAD@?$format_validation_base@DV?$string_output_adapter@D@__crt_stdio_output@@@__crt_stdio_output@@IEAA@AEBV?$string_output_adapter@D@1@AEB_KAEBQEBDAEAV__crt_cached_ptd_host@@AEBQEAD@Z 0000000180046fa0 f i libucrt:output.obj
 0001:00046010       ??$?0AEBV?$string_output_adapter@D@__crt_stdio_output@@AEB_KAEBQEBDAEAV__crt_cached_ptd_host@@AEBQEAD@?$positional_parameter_base@DV?$string_output_adapter@D@__crt_stdio_output@@@__crt_stdio_output@@IEAA@AEBV?$string_output_adapter@D@1@AEB_KAEBQEBDAEAV__crt_cached_ptd_host@@AEBQEAD@Z 0000000180047010 f i libucrt:output.obj
 0001:000460a0       ??$?0AEBV?$string_output_adapter@D@__crt_stdio_output@@AEB_KAEBQEBDAEAV__crt_cached_ptd_host@@AEBQEAD@?$standard_base@DV?$string_output_adapter@D@__crt_stdio_output@@@__crt_stdio_output@@IEAA@AEBV?$string_output_adapter@D@1@AEB_KAEBQEBDAEAV__crt_cached_ptd_host@@AEBQEAD@Z 00000001800470a0 f i libucrt:output.obj
 0001:00046110       ??$?0AEBV?$string_output_adapter@_W@__crt_stdio_output@@AEB_KAEBQEB_WAEAV__crt_cached_ptd_host@@AEBQEAD@?$format_validation_base@_WV?$string_output_adapter@_W@__crt_stdio_output@@@__crt_stdio_output@@IEAA@AEBV?$string_output_adapter@_W@1@AEB_KAEBQEB_WAEAV__crt_cached_ptd_host@@AEBQEAD@Z 0000000180047110 f i libucrt:output.obj
 0001:00046184       ??$?0AEBV?$string_output_adapter@_W@__crt_stdio_output@@AEB_KAEBQEB_WAEAV__crt_cached_ptd_host@@AEBQEAD@?$positional_parameter_base@_WV?$string_output_adapter@_W@__crt_stdio_output@@@__crt_stdio_output@@IEAA@AEBV?$string_output_adapter@_W@1@AEB_KAEBQEB_WAEAV__crt_cached_ptd_host@@AEBQEAD@Z 0000000180047184 f i libucrt:output.obj
 0001:00046218       ??$?0AEBV?$string_output_adapter@_W@__crt_stdio_output@@AEB_KAEBQEB_WAEAV__crt_cached_ptd_host@@AEBQEAD@?$standard_base@_WV?$string_output_adapter@_W@__crt_stdio_output@@@__crt_stdio_output@@IEAA@AEBV?$string_output_adapter@_W@1@AEB_KAEBQEB_WAEAV__crt_cached_ptd_host@@AEBQEAD@Z 0000000180047218 f i libucrt:output.obj
 0001:000464fc       ??$_tcstol_internal@DPEAPEAD$0A@@@YAJAEAV__crt_cached_ptd_host@@QEBDQEAPEADH@Z 00000001800474fc f i libucrt:output.obj
 0001:0004652c       ??$_tcstol_internal@_WPEAPEA_W$0A@@@YAJAEAV__crt_cached_ptd_host@@QEB_WQEAPEA_WH@Z 000000018004752c f i libucrt:output.obj
 0001:0004766c       ??$count@D@formatting_buffer@__crt_stdio_output@@QEBA_KXZ 000000018004866c f i libucrt:output.obj
 0001:00047688       ??$count@_W@formatting_buffer@__crt_stdio_output@@QEBA_KXZ 0000000180048688 f i libucrt:output.obj
 0001:000476a4       ??$data@D@formatting_buffer@__crt_stdio_output@@QEAAPEADXZ 00000001800486a4 f i libucrt:output.obj
 0001:000476b4       ??$data@_W@formatting_buffer@__crt_stdio_output@@QEAAPEA_WXZ 00000001800486b4 f i libucrt:output.obj
 0001:000476c4       ??$ensure_buffer_is_big_enough@D@formatting_buffer@__crt_stdio_output@@QEAA_N_KAEAV__crt_cached_ptd_host@@@Z 00000001800486c4 f i libucrt:output.obj
 0001:0004776c       ??$ensure_buffer_is_big_enough@_W@formatting_buffer@__crt_stdio_output@@QEAA_N_KAEAV__crt_cached_ptd_host@@@Z 000000018004876c f i libucrt:output.obj
 0001:00047818       ??$extract_argument_from_va_list@C_J@?$positional_parameter_base@DV?$stream_output_adapter@D@__crt_stdio_output@@@__crt_stdio_output@@IEAA_NAEA_J@Z 0000000180048818 f i libucrt:output.obj
 0001:00047920       ??$extract_argument_from_va_list@C_J@?$positional_parameter_base@DV?$string_output_adapter@D@__crt_stdio_output@@@__crt_stdio_output@@IEAA_NAEA_J@Z 0000000180048920 f i libucrt:output.obj
 0001:00047a28       ??$extract_argument_from_va_list@C_J@?$positional_parameter_base@_WV?$stream_output_adapter@_W@__crt_stdio_output@@@__crt_stdio_output@@IEAA_NAEA_J@Z 0000000180048a28 f i libucrt:output.obj
 0001:00047b34       ??$extract_argument_from_va_list@C_J@?$positional_parameter_base@_WV?$string_output_adapter@_W@__crt_stdio_output@@@__crt_stdio_output@@IEAA_NAEA_J@Z 0000000180048b34 f i libucrt:output.obj
 0001:00047c40       ??$extract_argument_from_va_list@C_J@?$standard_base@DV?$stream_output_adapter@D@__crt_stdio_output@@@__crt_stdio_output@@IEAA_NAEA_J@Z 0000000180048c40 f i libucrt:output.obj
 0001:00047c54       ??$extract_argument_from_va_list@C_J@?$standard_base@DV?$string_output_adapter@D@__crt_stdio_output@@@__crt_stdio_output@@IEAA_NAEA_J@Z 0000000180048c54 f i libucrt:output.obj
 0001:00047c68       ??$extract_argument_from_va_list@C_J@?$standard_base@_WV?$stream_output_adapter@_W@__crt_stdio_output@@@__crt_stdio_output@@IEAA_NAEA_J@Z 0000000180048c68 f i libucrt:output.obj
 0001:00047c7c       ??$extract_argument_from_va_list@C_J@?$standard_base@_WV?$string_output_adapter@_W@__crt_stdio_output@@@__crt_stdio_output@@IEAA_NAEA_J@Z 0000000180048c7c f i libucrt:output.obj
 0001:00047c90       ??$extract_argument_from_va_list@E_J@?$positional_parameter_base@DV?$stream_output_adapter@D@__crt_stdio_output@@@__crt_stdio_output@@IEAA_NAEA_J@Z 0000000180048c90 f i libucrt:output.obj
 0001:00047d98       ??$extract_argument_from_va_list@E_J@?$positional_parameter_base@DV?$string_output_adapter@D@__crt_stdio_output@@@__crt_stdio_output@@IEAA_NAEA_J@Z 0000000180048d98 f i libucrt:output.obj
 0001:00047ea0       ??$extract_argument_from_va_list@E_J@?$positional_parameter_base@_WV?$stream_output_adapter@_W@__crt_stdio_output@@@__crt_stdio_output@@IEAA_NAEA_J@Z 0000000180048ea0 f i libucrt:output.obj
 0001:00047fa8       ??$extract_argument_from_va_list@E_J@?$positional_parameter_base@_WV?$string_output_adapter@_W@__crt_stdio_output@@@__crt_stdio_output@@IEAA_NAEA_J@Z 0000000180048fa8 f i libucrt:output.obj
 0001:000480b0       ??$extract_argument_from_va_list@E_J@?$standard_base@DV?$stream_output_adapter@D@__crt_stdio_output@@@__crt_stdio_output@@IEAA_NAEA_J@Z 00000001800490b0 f i libucrt:output.obj
 0001:000480c4       ??$extract_argument_from_va_list@E_J@?$standard_base@DV?$string_output_adapter@D@__crt_stdio_output@@@__crt_stdio_output@@IEAA_NAEA_J@Z 00000001800490c4 f i libucrt:output.obj
 0001:000480d8       ??$extract_argument_from_va_list@E_J@?$standard_base@_WV?$stream_output_adapter@_W@__crt_stdio_output@@@__crt_stdio_output@@IEAA_NAEA_J@Z 00000001800490d8 f i libucrt:output.obj
 0001:000480ec       ??$extract_argument_from_va_list@E_J@?$standard_base@_WV?$string_output_adapter@_W@__crt_stdio_output@@@__crt_stdio_output@@IEAA_NAEA_J@Z 00000001800490ec f i libucrt:output.obj
 0001:00048100       ??$extract_argument_from_va_list@F_J@?$positional_parameter_base@DV?$stream_output_adapter@D@__crt_stdio_output@@@__crt_stdio_output@@IEAA_NAEA_J@Z 0000000180049100 f i libucrt:output.obj
 0001:00048208       ??$extract_argument_from_va_list@F_J@?$positional_parameter_base@DV?$string_output_adapter@D@__crt_stdio_output@@@__crt_stdio_output@@IEAA_NAEA_J@Z 0000000180049208 f i libucrt:output.obj
 0001:00048310       ??$extract_argument_from_va_list@F_J@?$positional_parameter_base@_WV?$stream_output_adapter@_W@__crt_stdio_output@@@__crt_stdio_output@@IEAA_NAEA_J@Z 0000000180049310 f i libucrt:output.obj
 0001:0004841c       ??$extract_argument_from_va_list@F_J@?$positional_parameter_base@_WV?$string_output_adapter@_W@__crt_stdio_output@@@__crt_stdio_output@@IEAA_NAEA_J@Z 000000018004941c f i libucrt:output.obj
 0001:00048528       ??$extract_argument_from_va_list@F_J@?$standard_base@DV?$stream_output_adapter@D@__crt_stdio_output@@@__crt_stdio_output@@IEAA_NAEA_J@Z 0000000180049528 f i libucrt:output.obj
 0001:0004853c       ??$extract_argument_from_va_list@F_J@?$standard_base@DV?$string_output_adapter@D@__crt_stdio_output@@@__crt_stdio_output@@IEAA_NAEA_J@Z 000000018004953c f i libucrt:output.obj
 0001:00048550       ??$extract_argument_from_va_list@F_J@?$standard_base@_WV?$stream_output_adapter@_W@__crt_stdio_output@@@__crt_stdio_output@@IEAA_NAEA_J@Z 0000000180049550 f i libucrt:output.obj
 0001:00048564       ??$extract_argument_from_va_list@F_J@?$standard_base@_WV?$string_output_adapter@_W@__crt_stdio_output@@@__crt_stdio_output@@IEAA_NAEA_J@Z 0000000180049564 f i libucrt:output.obj
 0001:00048578       ??$extract_argument_from_va_list@GD@?$positional_parameter_base@DV?$stream_output_adapter@D@__crt_stdio_output@@@__crt_stdio_output@@IEAA_NAEAD@Z 0000000180049578 f i libucrt:output.obj
 0001:0004867c       ??$extract_argument_from_va_list@GD@?$positional_parameter_base@DV?$string_output_adapter@D@__crt_stdio_output@@@__crt_stdio_output@@IEAA_NAEAD@Z 000000018004967c f i libucrt:output.obj
 0001:00048780       ??$extract_argument_from_va_list@GD@?$standard_base@DV?$stream_output_adapter@D@__crt_stdio_output@@@__crt_stdio_output@@IEAA_NAEAD@Z 0000000180049780 f i libucrt:output.obj
 0001:00048794       ??$extract_argument_from_va_list@GD@?$standard_base@DV?$string_output_adapter@D@__crt_stdio_output@@@__crt_stdio_output@@IEAA_NAEAD@Z 0000000180049794 f i libucrt:output.obj
 0001:000487a8       ??$extract_argument_from_va_list@G_J@?$positional_parameter_base@DV?$stream_output_adapter@D@__crt_stdio_output@@@__crt_stdio_output@@IEAA_NAEA_J@Z 00000001800497a8 f i libucrt:output.obj
 0001:000488b0       ??$extract_argument_from_va_list@G_J@?$positional_parameter_base@DV?$string_output_adapter@D@__crt_stdio_output@@@__crt_stdio_output@@IEAA_NAEA_J@Z 00000001800498b0 f i libucrt:output.obj
 0001:000489b8       ??$extract_argument_from_va_list@G_J@?$positional_parameter_base@_WV?$stream_output_adapter@_W@__crt_stdio_output@@@__crt_stdio_output@@IEAA_NAEA_J@Z 00000001800499b8 f i libucrt:output.obj
 0001:00048ac0       ??$extract_argument_from_va_list@G_J@?$positional_parameter_base@_WV?$string_output_adapter@_W@__crt_stdio_output@@@__crt_stdio_output@@IEAA_NAEA_J@Z 0000000180049ac0 f i libucrt:output.obj
 0001:00048bc8       ??$extract_argument_from_va_list@G_J@?$standard_base@DV?$stream_output_adapter@D@__crt_stdio_output@@@__crt_stdio_output@@IEAA_NAEA_J@Z 0000000180049bc8 f i libucrt:output.obj
 0001:00048bdc       ??$extract_argument_from_va_list@G_J@?$standard_base@DV?$string_output_adapter@D@__crt_stdio_output@@@__crt_stdio_output@@IEAA_NAEA_J@Z 0000000180049bdc f i libucrt:output.obj
 0001:00048bf0       ??$extract_argument_from_va_list@G_J@?$standard_base@_WV?$stream_output_adapter@_W@__crt_stdio_output@@@__crt_stdio_output@@IEAA_NAEA_J@Z 0000000180049bf0 f i libucrt:output.obj
 0001:00048c04       ??$extract_argument_from_va_list@G_J@?$standard_base@_WV?$string_output_adapter@_W@__crt_stdio_output@@@__crt_stdio_output@@IEAA_NAEA_J@Z 0000000180049c04 f i libucrt:output.obj
 0001:00048c18       ??$extract_argument_from_va_list@H_J@?$positional_parameter_base@DV?$stream_output_adapter@D@__crt_stdio_output@@@__crt_stdio_output@@IEAA_NAEA_J@Z 0000000180049c18 f i libucrt:output.obj
 0001:00048d20       ??$extract_argument_from_va_list@H_J@?$positional_parameter_base@DV?$string_output_adapter@D@__crt_stdio_output@@@__crt_stdio_output@@IEAA_NAEA_J@Z 0000000180049d20 f i libucrt:output.obj
 0001:00048e28       ??$extract_argument_from_va_list@H_J@?$positional_parameter_base@_WV?$stream_output_adapter@_W@__crt_stdio_output@@@__crt_stdio_output@@IEAA_NAEA_J@Z 0000000180049e28 f i libucrt:output.obj
 0001:00048f30       ??$extract_argument_from_va_list@H_J@?$positional_parameter_base@_WV?$string_output_adapter@_W@__crt_stdio_output@@@__crt_stdio_output@@IEAA_NAEA_J@Z 0000000180049f30 f i libucrt:output.obj
 0001:00049038       ??$extract_argument_from_va_list@H_J@?$standard_base@DV?$stream_output_adapter@D@__crt_stdio_output@@@__crt_stdio_output@@IEAA_NAEA_J@Z 000000018004a038 f i libucrt:output.obj
 0001:0004904c       ??$extract_argument_from_va_list@H_J@?$standard_base@DV?$string_output_adapter@D@__crt_stdio_output@@@__crt_stdio_output@@IEAA_NAEA_J@Z 000000018004a04c f i libucrt:output.obj
 0001:00049060       ??$extract_argument_from_va_list@H_J@?$standard_base@_WV?$stream_output_adapter@_W@__crt_stdio_output@@@__crt_stdio_output@@IEAA_NAEA_J@Z 000000018004a060 f i libucrt:output.obj
 0001:00049074       ??$extract_argument_from_va_list@H_J@?$standard_base@_WV?$string_output_adapter@_W@__crt_stdio_output@@@__crt_stdio_output@@IEAA_NAEA_J@Z 000000018004a074 f i libucrt:output.obj
 0001:00049088       ??$extract_argument_from_va_list@I_J@?$positional_parameter_base@DV?$stream_output_adapter@D@__crt_stdio_output@@@__crt_stdio_output@@IEAA_NAEA_J@Z 000000018004a088 f i libucrt:output.obj
 0001:0004918c       ??$extract_argument_from_va_list@I_J@?$positional_parameter_base@DV?$string_output_adapter@D@__crt_stdio_output@@@__crt_stdio_output@@IEAA_NAEA_J@Z 000000018004a18c f i libucrt:output.obj
 0001:00049290       ??$extract_argument_from_va_list@I_J@?$positional_parameter_base@_WV?$stream_output_adapter@_W@__crt_stdio_output@@@__crt_stdio_output@@IEAA_NAEA_J@Z 000000018004a290 f i libucrt:output.obj
 0001:00049398       ??$extract_argument_from_va_list@I_J@?$positional_parameter_base@_WV?$string_output_adapter@_W@__crt_stdio_output@@@__crt_stdio_output@@IEAA_NAEA_J@Z 000000018004a398 f i libucrt:output.obj
 0001:000494a0       ??$extract_argument_from_va_list@I_J@?$standard_base@DV?$stream_output_adapter@D@__crt_stdio_output@@@__crt_stdio_output@@IEAA_NAEA_J@Z 000000018004a4a0 f i libucrt:output.obj
 0001:000494b4       ??$extract_argument_from_va_list@I_J@?$standard_base@DV?$string_output_adapter@D@__crt_stdio_output@@@__crt_stdio_output@@IEAA_NAEA_J@Z 000000018004a4b4 f i libucrt:output.obj
 0001:000494c8       ??$extract_argument_from_va_list@I_J@?$standard_base@_WV?$stream_output_adapter@_W@__crt_stdio_output@@@__crt_stdio_output@@IEAA_NAEA_J@Z 000000018004a4c8 f i libucrt:output.obj
 0001:000494dc       ??$extract_argument_from_va_list@I_J@?$standard_base@_WV?$string_output_adapter@_W@__crt_stdio_output@@@__crt_stdio_output@@IEAA_NAEA_J@Z 000000018004a4dc f i libucrt:output.obj
 0001:000494f0       ??$extract_argument_from_va_list@PEADPEAD@?$positional_parameter_base@DV?$stream_output_adapter@D@__crt_stdio_output@@@__crt_stdio_output@@IEAA_NAEAPEAD@Z 000000018004a4f0 f i libucrt:output.obj
 0001:000495f8       ??$extract_argument_from_va_list@PEADPEAD@?$positional_parameter_base@DV?$string_output_adapter@D@__crt_stdio_output@@@__crt_stdio_output@@IEAA_NAEAPEAD@Z 000000018004a5f8 f i libucrt:output.obj
 0001:00049700       ??$extract_argument_from_va_list@PEADPEAD@?$positional_parameter_base@_WV?$stream_output_adapter@_W@__crt_stdio_output@@@__crt_stdio_output@@IEAA_NAEAPEAD@Z 000000018004a700 f i libucrt:output.obj
 0001:00049808       ??$extract_argument_from_va_list@PEADPEAD@?$positional_parameter_base@_WV?$string_output_adapter@_W@__crt_stdio_output@@@__crt_stdio_output@@IEAA_NAEAPEAD@Z 000000018004a808 f i libucrt:output.obj
 0001:00049910       ??$extract_argument_from_va_list@PEADPEAD@?$standard_base@DV?$stream_output_adapter@D@__crt_stdio_output@@@__crt_stdio_output@@IEAA_NAEAPEAD@Z 000000018004a910 f i libucrt:output.obj
 0001:00049924       ??$extract_argument_from_va_list@PEADPEAD@?$standard_base@DV?$string_output_adapter@D@__crt_stdio_output@@@__crt_stdio_output@@IEAA_NAEAPEAD@Z 000000018004a924 f i libucrt:output.obj
 0001:00049938       ??$extract_argument_from_va_list@PEADPEAD@?$standard_base@_WV?$stream_output_adapter@_W@__crt_stdio_output@@@__crt_stdio_output@@IEAA_NAEAPEAD@Z 000000018004a938 f i libucrt:output.obj
 0001:0004994c       ??$extract_argument_from_va_list@PEADPEAD@?$standard_base@_WV?$string_output_adapter@_W@__crt_stdio_output@@@__crt_stdio_output@@IEAA_NAEAPEAD@Z 000000018004a94c f i libucrt:output.obj
 0001:00049960       ??$extract_argument_from_va_list@PEAUansi_string@?1??type_case_Z@?$output_processor@DV?$stream_output_adapter@D@__crt_stdio_output@@V?$format_validation_base@DV?$stream_output_adapter@D@__crt_stdio_output@@@2@@__crt_stdio_output@@AEAA_NXZ@PEAU1?1??234@AEAA_NXZ@@?$standard_base@DV?$stream_output_adapter@D@__crt_stdio_output@@@__crt_stdio_output@@IEAA_NAEAPEAUansi_string@?1??type_case_Z@?$output_processor@DV?$stream_output_adapter@D@__crt_stdio_output@@V?$format_validation_base@DV?$stream_output_adapter@D@__crt_stdio_output@@@2@@1@AEAA_NXZ@@Z 000000018004a960 f i libucrt:output.obj
 0001:00049974       ??$extract_argument_from_va_list@PEAUansi_string@?1??type_case_Z@?$output_processor@DV?$stream_output_adapter@D@__crt_stdio_output@@V?$positional_parameter_base@DV?$stream_output_adapter@D@__crt_stdio_output@@@2@@__crt_stdio_output@@AEAA_NXZ@PEAU1?1??234@AEAA_NXZ@@?$positional_parameter_base@DV?$stream_output_adapter@D@__crt_stdio_output@@@__crt_stdio_output@@IEAA_NAEAPEAUansi_string@?1??type_case_Z@?$output_processor@DV?$stream_output_adapter@D@__crt_stdio_output@@V?$positional_parameter_base@DV?$stream_output_adapter@D@__crt_stdio_output@@@2@@1@AEAA_NXZ@@Z 000000018004a974 f i libucrt:output.obj
 0001:00049a7c       ??$extract_argument_from_va_list@PEAUansi_string@?1??type_case_Z@?$output_processor@DV?$stream_output_adapter@D@__crt_stdio_output@@V?$positional_parameter_base@DV?$stream_output_adapter@D@__crt_stdio_output@@@2@@__crt_stdio_output@@AEAA_NXZ@PEAU1?1??234@AEAA_NXZ@@?$standard_base@DV?$stream_output_adapter@D@__crt_stdio_output@@@__crt_stdio_output@@IEAA_NAEAPEAUansi_string@?1??type_case_Z@?$output_processor@DV?$stream_output_adapter@D@__crt_stdio_output@@V?$positional_parameter_base@DV?$stream_output_adapter@D@__crt_stdio_output@@@2@@1@AEAA_NXZ@@Z 000000018004aa7c f i libucrt:output.obj
 0001:00049a90       ??$extract_argument_from_va_list@PEAUansi_string@?1??type_case_Z@?$output_processor@DV?$stream_output_adapter@D@__crt_stdio_output@@V?$standard_base@DV?$stream_output_adapter@D@__crt_stdio_output@@@2@@__crt_stdio_output@@AEAA_NXZ@PEAU1?1??234@AEAA_NXZ@@?$standard_base@DV?$stream_output_adapter@D@__crt_stdio_output@@@__crt_stdio_output@@IEAA_NAEAPEAUansi_string@?1??type_case_Z@?$output_processor@DV?$stream_output_adapter@D@__crt_stdio_output@@V?$standard_base@DV?$stream_output_adapter@D@__crt_stdio_output@@@2@@1@AEAA_NXZ@@Z 000000018004aa90 f i libucrt:output.obj
 0001:00049aa4       ??$extract_argument_from_va_list@PEAUansi_string@?1??type_case_Z@?$output_processor@DV?$string_output_adapter@D@__crt_stdio_output@@V?$format_validation_base@DV?$string_output_adapter@D@__crt_stdio_output@@@2@@__crt_stdio_output@@AEAA_NXZ@PEAU1?1??234@AEAA_NXZ@@?$standard_base@DV?$string_output_adapter@D@__crt_stdio_output@@@__crt_stdio_output@@IEAA_NAEAPEAUansi_string@?1??type_case_Z@?$output_processor@DV?$string_output_adapter@D@__crt_stdio_output@@V?$format_validation_base@DV?$string_output_adapter@D@__crt_stdio_output@@@2@@1@AEAA_NXZ@@Z 000000018004aaa4 f i libucrt:output.obj
 0001:00049ab8       ??$extract_argument_from_va_list@PEAUansi_string@?1??type_case_Z@?$output_processor@DV?$string_output_adapter@D@__crt_stdio_output@@V?$positional_parameter_base@DV?$string_output_adapter@D@__crt_stdio_output@@@2@@__crt_stdio_output@@AEAA_NXZ@PEAU1?1??234@AEAA_NXZ@@?$positional_parameter_base@DV?$string_output_adapter@D@__crt_stdio_output@@@__crt_stdio_output@@IEAA_NAEAPEAUansi_string@?1??type_case_Z@?$output_processor@DV?$string_output_adapter@D@__crt_stdio_output@@V?$positional_parameter_base@DV?$string_output_adapter@D@__crt_stdio_output@@@2@@1@AEAA_NXZ@@Z 000000018004aab8 f i libucrt:output.obj
 0001:00049bc0       ??$extract_argument_from_va_list@PEAUansi_string@?1??type_case_Z@?$output_processor@DV?$string_output_adapter@D@__crt_stdio_output@@V?$positional_parameter_base@DV?$string_output_adapter@D@__crt_stdio_output@@@2@@__crt_stdio_output@@AEAA_NXZ@PEAU1?1??234@AEAA_NXZ@@?$standard_base@DV?$string_output_adapter@D@__crt_stdio_output@@@__crt_stdio_output@@IEAA_NAEAPEAUansi_string@?1??type_case_Z@?$output_processor@DV?$string_output_adapter@D@__crt_stdio_output@@V?$positional_parameter_base@DV?$string_output_adapter@D@__crt_stdio_output@@@2@@1@AEAA_NXZ@@Z 000000018004abc0 f i libucrt:output.obj
 0001:00049bd4       ??$extract_argument_from_va_list@PEAUansi_string@?1??type_case_Z@?$output_processor@DV?$string_output_adapter@D@__crt_stdio_output@@V?$standard_base@DV?$string_output_adapter@D@__crt_stdio_output@@@2@@__crt_stdio_output@@AEAA_NXZ@PEAU1?1??234@AEAA_NXZ@@?$standard_base@DV?$string_output_adapter@D@__crt_stdio_output@@@__crt_stdio_output@@IEAA_NAEAPEAUansi_string@?1??type_case_Z@?$output_processor@DV?$string_output_adapter@D@__crt_stdio_output@@V?$standard_base@DV?$string_output_adapter@D@__crt_stdio_output@@@2@@1@AEAA_NXZ@@Z 000000018004abd4 f i libucrt:output.obj
 0001:00049be8       ??$extract_argument_from_va_list@PEAUansi_string@?1??type_case_Z@?$output_processor@_WV?$stream_output_adapter@_W@__crt_stdio_output@@V?$format_validation_base@_WV?$stream_output_adapter@_W@__crt_stdio_output@@@2@@__crt_stdio_output@@AEAA_NXZ@PEAU1?1??234@AEAA_NXZ@@?$standard_base@_WV?$stream_output_adapter@_W@__crt_stdio_output@@@__crt_stdio_output@@IEAA_NAEAPEAUansi_string@?1??type_case_Z@?$output_processor@_WV?$stream_output_adapter@_W@__crt_stdio_output@@V?$format_validation_base@_WV?$stream_output_adapter@_W@__crt_stdio_output@@@2@@1@AEAA_NXZ@@Z 000000018004abe8 f i libucrt:output.obj
 0001:00049bfc       ??$extract_argument_from_va_list@PEAUansi_string@?1??type_case_Z@?$output_processor@_WV?$stream_output_adapter@_W@__crt_stdio_output@@V?$positional_parameter_base@_WV?$stream_output_adapter@_W@__crt_stdio_output@@@2@@__crt_stdio_output@@AEAA_NXZ@PEAU1?1??234@AEAA_NXZ@@?$positional_parameter_base@_WV?$stream_output_adapter@_W@__crt_stdio_output@@@__crt_stdio_output@@IEAA_NAEAPEAUansi_string@?1??type_case_Z@?$output_processor@_WV?$stream_output_adapter@_W@__crt_stdio_output@@V?$positional_parameter_base@_WV?$stream_output_adapter@_W@__crt_stdio_output@@@2@@1@AEAA_NXZ@@Z 000000018004abfc f i libucrt:output.obj
 0001:00049d04       ??$extract_argument_from_va_list@PEAUansi_string@?1??type_case_Z@?$output_processor@_WV?$stream_output_adapter@_W@__crt_stdio_output@@V?$positional_parameter_base@_WV?$stream_output_adapter@_W@__crt_stdio_output@@@2@@__crt_stdio_output@@AEAA_NXZ@PEAU1?1??234@AEAA_NXZ@@?$standard_base@_WV?$stream_output_adapter@_W@__crt_stdio_output@@@__crt_stdio_output@@IEAA_NAEAPEAUansi_string@?1??type_case_Z@?$output_processor@_WV?$stream_output_adapter@_W@__crt_stdio_output@@V?$positional_parameter_base@_WV?$stream_output_adapter@_W@__crt_stdio_output@@@2@@1@AEAA_NXZ@@Z 000000018004ad04 f i libucrt:output.obj
 0001:00049d18       ??$extract_argument_from_va_list@PEAUansi_string@?1??type_case_Z@?$output_processor@_WV?$stream_output_adapter@_W@__crt_stdio_output@@V?$standard_base@_WV?$stream_output_adapter@_W@__crt_stdio_output@@@2@@__crt_stdio_output@@AEAA_NXZ@PEAU1?1??234@AEAA_NXZ@@?$standard_base@_WV?$stream_output_adapter@_W@__crt_stdio_output@@@__crt_stdio_output@@IEAA_NAEAPEAUansi_string@?1??type_case_Z@?$output_processor@_WV?$stream_output_adapter@_W@__crt_stdio_output@@V?$standard_base@_WV?$stream_output_adapter@_W@__crt_stdio_output@@@2@@1@AEAA_NXZ@@Z 000000018004ad18 f i libucrt:output.obj
 0001:00049d2c       ??$extract_argument_from_va_list@PEAUansi_string@?1??type_case_Z@?$output_processor@_WV?$string_output_adapter@_W@__crt_stdio_output@@V?$format_validation_base@_WV?$string_output_adapter@_W@__crt_stdio_output@@@2@@__crt_stdio_output@@AEAA_NXZ@PEAU1?1??234@AEAA_NXZ@@?$standard_base@_WV?$string_output_adapter@_W@__crt_stdio_output@@@__crt_stdio_output@@IEAA_NAEAPEAUansi_string@?1??type_case_Z@?$output_processor@_WV?$string_output_adapter@_W@__crt_stdio_output@@V?$format_validation_base@_WV?$string_output_adapter@_W@__crt_stdio_output@@@2@@1@AEAA_NXZ@@Z 000000018004ad2c f i libucrt:output.obj
 0001:00049d40       ??$extract_argument_from_va_list@PEAUansi_string@?1??type_case_Z@?$output_processor@_WV?$string_output_adapter@_W@__crt_stdio_output@@V?$positional_parameter_base@_WV?$string_output_adapter@_W@__crt_stdio_output@@@2@@__crt_stdio_output@@AEAA_NXZ@PEAU1?1??234@AEAA_NXZ@@?$positional_parameter_base@_WV?$string_output_adapter@_W@__crt_stdio_output@@@__crt_stdio_output@@IEAA_NAEAPEAUansi_string@?1??type_case_Z@?$output_processor@_WV?$string_output_adapter@_W@__crt_stdio_output@@V?$positional_parameter_base@_WV?$string_output_adapter@_W@__crt_stdio_output@@@2@@1@AEAA_NXZ@@Z 000000018004ad40 f i libucrt:output.obj
 0001:00049e48       ??$extract_argument_from_va_list@PEAUansi_string@?1??type_case_Z@?$output_processor@_WV?$string_output_adapter@_W@__crt_stdio_output@@V?$positional_parameter_base@_WV?$string_output_adapter@_W@__crt_stdio_output@@@2@@__crt_stdio_output@@AEAA_NXZ@PEAU1?1??234@AEAA_NXZ@@?$standard_base@_WV?$string_output_adapter@_W@__crt_stdio_output@@@__crt_stdio_output@@IEAA_NAEAPEAUansi_string@?1??type_case_Z@?$output_processor@_WV?$string_output_adapter@_W@__crt_stdio_output@@V?$positional_parameter_base@_WV?$string_output_adapter@_W@__crt_stdio_output@@@2@@1@AEAA_NXZ@@Z 000000018004ae48 f i libucrt:output.obj
 0001:00049e5c       ??$extract_argument_from_va_list@PEAUansi_string@?1??type_case_Z@?$output_processor@_WV?$string_output_adapter@_W@__crt_stdio_output@@V?$standard_base@_WV?$string_output_adapter@_W@__crt_stdio_output@@@2@@__crt_stdio_output@@AEAA_NXZ@PEAU1?1??234@AEAA_NXZ@@?$standard_base@_WV?$string_output_adapter@_W@__crt_stdio_output@@@__crt_stdio_output@@IEAA_NAEAPEAUansi_string@?1??type_case_Z@?$output_processor@_WV?$string_output_adapter@_W@__crt_stdio_output@@V?$standard_base@_WV?$string_output_adapter@_W@__crt_stdio_output@@@2@@1@AEAA_NXZ@@Z 000000018004ae5c f i libucrt:output.obj
 0001:00049e70       ??$extract_argument_from_va_list@PEAXPEAX@?$positional_parameter_base@DV?$stream_output_adapter@D@__crt_stdio_output@@@__crt_stdio_output@@IEAA_NAEAPEAX@Z 000000018004ae70 f i libucrt:output.obj
 0001:00049f78       ??$extract_argument_from_va_list@PEAXPEAX@?$positional_parameter_base@DV?$string_output_adapter@D@__crt_stdio_output@@@__crt_stdio_output@@IEAA_NAEAPEAX@Z 000000018004af78 f i libucrt:output.obj
 0001:0004a080       ??$extract_argument_from_va_list@PEAXPEAX@?$positional_parameter_base@_WV?$stream_output_adapter@_W@__crt_stdio_output@@@__crt_stdio_output@@IEAA_NAEAPEAX@Z 000000018004b080 f i libucrt:output.obj
 0001:0004a188       ??$extract_argument_from_va_list@PEAXPEAX@?$positional_parameter_base@_WV?$string_output_adapter@_W@__crt_stdio_output@@@__crt_stdio_output@@IEAA_NAEAPEAX@Z 000000018004b188 f i libucrt:output.obj
 0001:0004a290       ??$extract_argument_from_va_list@PEAXPEAX@?$standard_base@DV?$stream_output_adapter@D@__crt_stdio_output@@@__crt_stdio_output@@IEAA_NAEAPEAX@Z 000000018004b290 f i libucrt:output.obj
 0001:0004a2a4       ??$extract_argument_from_va_list@PEAXPEAX@?$standard_base@DV?$string_output_adapter@D@__crt_stdio_output@@@__crt_stdio_output@@IEAA_NAEAPEAX@Z 000000018004b2a4 f i libucrt:output.obj
 0001:0004a2b8       ??$extract_argument_from_va_list@PEAXPEAX@?$standard_base@_WV?$stream_output_adapter@_W@__crt_stdio_output@@@__crt_stdio_output@@IEAA_NAEAPEAX@Z 000000018004b2b8 f i libucrt:output.obj
 0001:0004a2cc       ??$extract_argument_from_va_list@PEAXPEAX@?$standard_base@_WV?$string_output_adapter@_W@__crt_stdio_output@@@__crt_stdio_output@@IEAA_NAEAPEAX@Z 000000018004b2cc f i libucrt:output.obj
 0001:0004a2e0       ??$extract_argument_from_va_list@U_CRT_DOUBLE@@U1@@?$positional_parameter_base@DV?$stream_output_adapter@D@__crt_stdio_output@@@__crt_stdio_output@@IEAA_NAEAU_CRT_DOUBLE@@@Z 000000018004b2e0 f i libucrt:output.obj
 0001:0004a3e8       ??$extract_argument_from_va_list@U_CRT_DOUBLE@@U1@@?$positional_parameter_base@DV?$string_output_adapter@D@__crt_stdio_output@@@__crt_stdio_output@@IEAA_NAEAU_CRT_DOUBLE@@@Z 000000018004b3e8 f i libucrt:output.obj
 0001:0004a4f0       ??$extract_argument_from_va_list@U_CRT_DOUBLE@@U1@@?$positional_parameter_base@_WV?$stream_output_adapter@_W@__crt_stdio_output@@@__crt_stdio_output@@IEAA_NAEAU_CRT_DOUBLE@@@Z 000000018004b4f0 f i libucrt:output.obj
 0001:0004a5f8       ??$extract_argument_from_va_list@U_CRT_DOUBLE@@U1@@?$positional_parameter_base@_WV?$string_output_adapter@_W@__crt_stdio_output@@@__crt_stdio_output@@IEAA_NAEAU_CRT_DOUBLE@@@Z 000000018004b5f8 f i libucrt:output.obj
 0001:0004a700       ??$extract_argument_from_va_list@U_CRT_DOUBLE@@U1@@?$standard_base@DV?$stream_output_adapter@D@__crt_stdio_output@@@__crt_stdio_output@@IEAA_NAEAU_CRT_DOUBLE@@@Z 000000018004b700 f i libucrt:output.obj
 0001:0004a718       ??$extract_argument_from_va_list@U_CRT_DOUBLE@@U1@@?$standard_base@DV?$string_output_adapter@D@__crt_stdio_output@@@__crt_stdio_output@@IEAA_NAEAU_CRT_DOUBLE@@@Z 000000018004b718 f i libucrt:output.obj
 0001:0004a730       ??$extract_argument_from_va_list@U_CRT_DOUBLE@@U1@@?$standard_base@_WV?$stream_output_adapter@_W@__crt_stdio_output@@@__crt_stdio_output@@IEAA_NAEAU_CRT_DOUBLE@@@Z 000000018004b730 f i libucrt:output.obj
 0001:0004a748       ??$extract_argument_from_va_list@U_CRT_DOUBLE@@U1@@?$standard_base@_WV?$string_output_adapter@_W@__crt_stdio_output@@@__crt_stdio_output@@IEAA_NAEAU_CRT_DOUBLE@@@Z 000000018004b748 f i libucrt:output.obj
 0001:0004a760       ??$extract_argument_from_va_list@_J_J@?$positional_parameter_base@DV?$stream_output_adapter@D@__crt_stdio_output@@@__crt_stdio_output@@IEAA_NAEA_J@Z 000000018004b760 f i libucrt:output.obj
 0001:0004a868       ??$extract_argument_from_va_list@_J_J@?$positional_parameter_base@DV?$string_output_adapter@D@__crt_stdio_output@@@__crt_stdio_output@@IEAA_NAEA_J@Z 000000018004b868 f i libucrt:output.obj
 0001:0004a970       ??$extract_argument_from_va_list@_J_J@?$positional_parameter_base@_WV?$stream_output_adapter@_W@__crt_stdio_output@@@__crt_stdio_output@@IEAA_NAEA_J@Z 000000018004b970 f i libucrt:output.obj
 0001:0004aa78       ??$extract_argument_from_va_list@_J_J@?$positional_parameter_base@_WV?$string_output_adapter@_W@__crt_stdio_output@@@__crt_stdio_output@@IEAA_NAEA_J@Z 000000018004ba78 f i libucrt:output.obj
 0001:0004ab80       ??$extract_argument_from_va_list@_J_J@?$standard_base@DV?$stream_output_adapter@D@__crt_stdio_output@@@__crt_stdio_output@@IEAA_NAEA_J@Z 000000018004bb80 f i libucrt:output.obj
 0001:0004ab94       ??$extract_argument_from_va_list@_J_J@?$standard_base@DV?$string_output_adapter@D@__crt_stdio_output@@@__crt_stdio_output@@IEAA_NAEA_J@Z 000000018004bb94 f i libucrt:output.obj
 0001:0004aba8       ??$extract_argument_from_va_list@_J_J@?$standard_base@_WV?$stream_output_adapter@_W@__crt_stdio_output@@@__crt_stdio_output@@IEAA_NAEA_J@Z 000000018004bba8 f i libucrt:output.obj
 0001:0004abbc       ??$extract_argument_from_va_list@_J_J@?$standard_base@_WV?$string_output_adapter@_W@__crt_stdio_output@@@__crt_stdio_output@@IEAA_NAEA_J@Z 000000018004bbbc f i libucrt:output.obj
 0001:0004abd0       ??$extract_argument_from_va_list@_K_J@?$positional_parameter_base@DV?$stream_output_adapter@D@__crt_stdio_output@@@__crt_stdio_output@@IEAA_NAEA_J@Z 000000018004bbd0 f i libucrt:output.obj
 0001:0004acd8       ??$extract_argument_from_va_list@_K_J@?$positional_parameter_base@DV?$string_output_adapter@D@__crt_stdio_output@@@__crt_stdio_output@@IEAA_NAEA_J@Z 000000018004bcd8 f i libucrt:output.obj
 0001:0004ade0       ??$extract_argument_from_va_list@_K_J@?$positional_parameter_base@_WV?$stream_output_adapter@_W@__crt_stdio_output@@@__crt_stdio_output@@IEAA_NAEA_J@Z 000000018004bde0 f i libucrt:output.obj
 0001:0004aee8       ??$extract_argument_from_va_list@_K_J@?$positional_parameter_base@_WV?$string_output_adapter@_W@__crt_stdio_output@@@__crt_stdio_output@@IEAA_NAEA_J@Z 000000018004bee8 f i libucrt:output.obj
 0001:0004aff0       ??$extract_argument_from_va_list@_K_J@?$standard_base@DV?$stream_output_adapter@D@__crt_stdio_output@@@__crt_stdio_output@@IEAA_NAEA_J@Z 000000018004bff0 f i libucrt:output.obj
 0001:0004b004       ??$extract_argument_from_va_list@_K_J@?$standard_base@DV?$string_output_adapter@D@__crt_stdio_output@@@__crt_stdio_output@@IEAA_NAEA_J@Z 000000018004c004 f i libucrt:output.obj
 0001:0004b018       ??$extract_argument_from_va_list@_K_J@?$standard_base@_WV?$stream_output_adapter@_W@__crt_stdio_output@@@__crt_stdio_output@@IEAA_NAEA_J@Z 000000018004c018 f i libucrt:output.obj
 0001:0004b02c       ??$extract_argument_from_va_list@_K_J@?$standard_base@_WV?$string_output_adapter@_W@__crt_stdio_output@@@__crt_stdio_output@@IEAA_NAEA_J@Z 000000018004c02c f i libucrt:output.obj
 0001:0004b040       ??$extract_argument_from_va_list@_W_W@?$positional_parameter_base@DV?$stream_output_adapter@D@__crt_stdio_output@@@__crt_stdio_output@@IEAA_NAEA_W@Z 000000018004c040 f i libucrt:output.obj
 0001:0004b148       ??$extract_argument_from_va_list@_W_W@?$positional_parameter_base@DV?$string_output_adapter@D@__crt_stdio_output@@@__crt_stdio_output@@IEAA_NAEA_W@Z 000000018004c148 f i libucrt:output.obj
 0001:0004b250       ??$extract_argument_from_va_list@_W_W@?$positional_parameter_base@_WV?$stream_output_adapter@_W@__crt_stdio_output@@@__crt_stdio_output@@IEAA_NAEA_W@Z 000000018004c250 f i libucrt:output.obj
 0001:0004b35c       ??$extract_argument_from_va_list@_W_W@?$positional_parameter_base@_WV?$string_output_adapter@_W@__crt_stdio_output@@@__crt_stdio_output@@IEAA_NAEA_W@Z 000000018004c35c f i libucrt:output.obj
 0001:0004b468       ??$extract_argument_from_va_list@_W_W@?$standard_base@DV?$stream_output_adapter@D@__crt_stdio_output@@@__crt_stdio_output@@IEAA_NAEA_W@Z 000000018004c468 f i libucrt:output.obj
 0001:0004b47c       ??$extract_argument_from_va_list@_W_W@?$standard_base@DV?$string_output_adapter@D@__crt_stdio_output@@@__crt_stdio_output@@IEAA_NAEA_W@Z 000000018004c47c f i libucrt:output.obj
 0001:0004b490       ??$extract_argument_from_va_list@_W_W@?$standard_base@_WV?$stream_output_adapter@_W@__crt_stdio_output@@@__crt_stdio_output@@IEAA_NAEA_W@Z 000000018004c490 f i libucrt:output.obj
 0001:0004b4a4       ??$extract_argument_from_va_list@_W_W@?$standard_base@_WV?$string_output_adapter@_W@__crt_stdio_output@@@__crt_stdio_output@@IEAA_NAEA_W@Z 000000018004c4a4 f i libucrt:output.obj
 0001:0004b4b8       ??$get_parameter_type@D@?$positional_parameter_base@DV?$stream_output_adapter@D@__crt_stdio_output@@@__crt_stdio_output@@CA?AW4parameter_type@01@PEAD@Z 000000018004c4b8 f i libucrt:output.obj
 0001:0004b4c0       ??$get_parameter_type@D@?$positional_parameter_base@DV?$string_output_adapter@D@__crt_stdio_output@@@__crt_stdio_output@@CA?AW4parameter_type@01@PEAD@Z 000000018004c4c0 f i libucrt:output.obj
 0001:0004b4c8       ??$get_parameter_type@D@?$positional_parameter_base@_WV?$stream_output_adapter@_W@__crt_stdio_output@@@__crt_stdio_output@@CA?AW4parameter_type@01@PEAD@Z 000000018004c4c8 f i libucrt:output.obj
 0001:0004b4d0       ??$get_parameter_type@D@?$positional_parameter_base@_WV?$string_output_adapter@_W@__crt_stdio_output@@@__crt_stdio_output@@CA?AW4parameter_type@01@PEAD@Z 000000018004c4d0 f i libucrt:output.obj
 0001:0004b4d8       ??$get_parameter_type@Uansi_string@?1??type_case_Z@?$output_processor@DV?$stream_output_adapter@D@__crt_stdio_output@@V?$positional_parameter_base@DV?$stream_output_adapter@D@__crt_stdio_output@@@2@@__crt_stdio_output@@AEAA_NXZ@@?$positional_parameter_base@DV?$stream_output_adapter@D@__crt_stdio_output@@@__crt_stdio_output@@CA?AW4parameter_type@01@PEAUansi_string@?1??type_case_Z@?$output_processor@DV?$stream_output_adapter@D@__crt_stdio_output@@V?$positional_parameter_base@DV?$stream_output_adapter@D@__crt_stdio_output@@@2@@1@AEAA_NXZ@@Z 000000018004c4d8 f i libucrt:output.obj
 0001:0004b4e0       ??$get_parameter_type@Uansi_string@?1??type_case_Z@?$output_processor@DV?$string_output_adapter@D@__crt_stdio_output@@V?$positional_parameter_base@DV?$string_output_adapter@D@__crt_stdio_output@@@2@@__crt_stdio_output@@AEAA_NXZ@@?$positional_parameter_base@DV?$string_output_adapter@D@__crt_stdio_output@@@__crt_stdio_output@@CA?AW4parameter_type@01@PEAUansi_string@?1??type_case_Z@?$output_processor@DV?$string_output_adapter@D@__crt_stdio_output@@V?$positional_parameter_base@DV?$string_output_adapter@D@__crt_stdio_output@@@2@@1@AEAA_NXZ@@Z 000000018004c4e0 f i libucrt:output.obj
 0001:0004b4e8       ??$get_parameter_type@Uansi_string@?1??type_case_Z@?$output_processor@_WV?$stream_output_adapter@_W@__crt_stdio_output@@V?$positional_parameter_base@_WV?$stream_output_adapter@_W@__crt_stdio_output@@@2@@__crt_stdio_output@@AEAA_NXZ@@?$positional_parameter_base@_WV?$stream_output_adapter@_W@__crt_stdio_output@@@__crt_stdio_output@@CA?AW4parameter_type@01@PEAUansi_string@?1??type_case_Z@?$output_processor@_WV?$stream_output_adapter@_W@__crt_stdio_output@@V?$positional_parameter_base@_WV?$stream_output_adapter@_W@__crt_stdio_output@@@2@@1@AEAA_NXZ@@Z 000000018004c4e8 f i libucrt:output.obj
 0001:0004b4f0       ??$get_parameter_type@Uansi_string@?1??type_case_Z@?$output_processor@_WV?$string_output_adapter@_W@__crt_stdio_output@@V?$positional_parameter_base@_WV?$string_output_adapter@_W@__crt_stdio_output@@@2@@__crt_stdio_output@@AEAA_NXZ@@?$positional_parameter_base@_WV?$string_output_adapter@_W@__crt_stdio_output@@@__crt_stdio_output@@CA?AW4parameter_type@01@PEAUansi_string@?1??type_case_Z@?$output_processor@_WV?$string_output_adapter@_W@__crt_stdio_output@@V?$positional_parameter_base@_WV?$string_output_adapter@_W@__crt_stdio_output@@@2@@1@AEAA_NXZ@@Z 000000018004c4f0 f i libucrt:output.obj
 0001:0004b4f8       ??$get_parameter_type@X@?$positional_parameter_base@DV?$stream_output_adapter@D@__crt_stdio_output@@@__crt_stdio_output@@CA?AW4parameter_type@01@PEAX@Z 000000018004c4f8 f i libucrt:output.obj
 0001:0004b500       ??$get_parameter_type@X@?$positional_parameter_base@DV?$string_output_adapter@D@__crt_stdio_output@@@__crt_stdio_output@@CA?AW4parameter_type@01@PEAX@Z 000000018004c500 f i libucrt:output.obj
 0001:0004b508       ??$get_parameter_type@X@?$positional_parameter_base@_WV?$stream_output_adapter@_W@__crt_stdio_output@@@__crt_stdio_output@@CA?AW4parameter_type@01@PEAX@Z 000000018004c508 f i libucrt:output.obj
 0001:0004b510       ??$get_parameter_type@X@?$positional_parameter_base@_WV?$string_output_adapter@_W@__crt_stdio_output@@@__crt_stdio_output@@CA?AW4parameter_type@01@PEAX@Z 000000018004c510 f i libucrt:output.obj
 0001:0004b518       ??$is_character_specifier@D@?$positional_parameter_base@DV?$stream_output_adapter@D@__crt_stdio_output@@@__crt_stdio_output@@CA_ND@Z 000000018004c518 f i libucrt:output.obj
 0001:0004b524       ??$is_character_specifier@D@?$positional_parameter_base@DV?$string_output_adapter@D@__crt_stdio_output@@@__crt_stdio_output@@CA_ND@Z 000000018004c524 f i libucrt:output.obj
 0001:0004b530       ??$is_character_specifier@_W@?$positional_parameter_base@_WV?$stream_output_adapter@_W@__crt_stdio_output@@@__crt_stdio_output@@CA_N_W@Z 000000018004c530 f i libucrt:output.obj
 0001:0004b540       ??$is_character_specifier@_W@?$positional_parameter_base@_WV?$string_output_adapter@_W@__crt_stdio_output@@@__crt_stdio_output@@CA_N_W@Z 000000018004c540 f i libucrt:output.obj
 0001:0004b550       ??$is_integral_specifier@D@?$positional_parameter_base@DV?$stream_output_adapter@D@__crt_stdio_output@@@__crt_stdio_output@@CA_ND@Z 000000018004c550 f i libucrt:output.obj
 0001:0004b574       ??$is_integral_specifier@D@?$positional_parameter_base@DV?$string_output_adapter@D@__crt_stdio_output@@@__crt_stdio_output@@CA_ND@Z 000000018004c574 f i libucrt:output.obj
 0001:0004b598       ??$is_integral_specifier@_W@?$positional_parameter_base@_WV?$stream_output_adapter@_W@__crt_stdio_output@@@__crt_stdio_output@@CA_N_W@Z 000000018004c598 f i libucrt:output.obj
 0001:0004b5c0       ??$is_integral_specifier@_W@?$positional_parameter_base@_WV?$string_output_adapter@_W@__crt_stdio_output@@@__crt_stdio_output@@CA_N_W@Z 000000018004c5c0 f i libucrt:output.obj
 0001:0004b5e8       ??$is_overflow_condition@K@__crt_strtox@@YA_NIK@Z 000000018004c5e8 f i libucrt:output.obj
 0001:0004b60c       ??$is_pointer_specifier@D@?$positional_parameter_base@DV?$stream_output_adapter@D@__crt_stdio_output@@@__crt_stdio_output@@CA_ND@Z 000000018004c60c f i libucrt:output.obj
 0001:0004b614       ??$is_pointer_specifier@D@?$positional_parameter_base@DV?$string_output_adapter@D@__crt_stdio_output@@@__crt_stdio_output@@CA_ND@Z 000000018004c614 f i libucrt:output.obj
 0001:0004b61c       ??$is_pointer_specifier@_W@?$positional_parameter_base@_WV?$stream_output_adapter@_W@__crt_stdio_output@@@__crt_stdio_output@@CA_N_W@Z 000000018004c61c f i libucrt:output.obj
 0001:0004b624       ??$is_pointer_specifier@_W@?$positional_parameter_base@_WV?$string_output_adapter@_W@__crt_stdio_output@@@__crt_stdio_output@@CA_N_W@Z 000000018004c624 f i libucrt:output.obj
 0001:0004b62c       ??$is_string_specifier@D@?$positional_parameter_base@DV?$stream_output_adapter@D@__crt_stdio_output@@@__crt_stdio_output@@CA_ND@Z 000000018004c62c f i libucrt:output.obj
 0001:0004b638       ??$is_string_specifier@D@?$positional_parameter_base@DV?$string_output_adapter@D@__crt_stdio_output@@@__crt_stdio_output@@CA_ND@Z 000000018004c638 f i libucrt:output.obj
 0001:0004b644       ??$is_string_specifier@_W@?$positional_parameter_base@_WV?$stream_output_adapter@_W@__crt_stdio_output@@@__crt_stdio_output@@CA_N_W@Z 000000018004c644 f i libucrt:output.obj
 0001:0004b654       ??$is_string_specifier@_W@?$positional_parameter_base@_WV?$string_output_adapter@_W@__crt_stdio_output@@@__crt_stdio_output@@CA_N_W@Z 000000018004c654 f i libucrt:output.obj
 0001:0004b664       ??$is_wide_character_specifier@D@__crt_stdio_output@@YA_N_KDW4length_modifier@0@@Z 000000018004c664 f i libucrt:output.obj
 0001:0004b68c       ??$is_wide_character_specifier@_W@__crt_stdio_output@@YA_N_K_WW4length_modifier@0@@Z 000000018004c68c f i libucrt:output.obj
 0001:0004b6cc       ??$make_c_string_character_source@DPEAPEAD@__crt_strtox@@YA?AV?$c_string_character_source@D@0@QEBDQEAPEAD@Z 000000018004c6cc f i libucrt:output.obj
 0001:0004b6e0       ??$make_c_string_character_source@_WPEAPEA_W@__crt_strtox@@YA?AV?$c_string_character_source@_W@0@QEB_WQEAPEA_W@Z 000000018004c6e0 f i libucrt:output.obj
 0001:0004b6f4       ??$parse_integer@KV?$c_string_character_source@D@__crt_strtox@@$0A@@__crt_strtox@@YAKAEAV__crt_cached_ptd_host@@V?$c_string_character_source@D@0@H_N@Z 000000018004c6f4 f i libucrt:output.obj
 0001:0004b9a4       ??$parse_integer@KV?$c_string_character_source@_W@__crt_strtox@@$0A@@__crt_strtox@@YAKAEAV__crt_cached_ptd_host@@V?$c_string_character_source@_W@0@H_N@Z 000000018004c9a4 f i libucrt:output.obj
 0001:0004c0fc       ??$peek_va_arg@C@__crt_stdio_output@@YACPEAD@Z 000000018004d0fc f i libucrt:output.obj
 0001:0004c100       ??$peek_va_arg@E@__crt_stdio_output@@YAEPEAD@Z 000000018004d100 f i libucrt:output.obj
 0001:0004c104       ??$peek_va_arg@F@__crt_stdio_output@@YAFPEAD@Z 000000018004d104 f i libucrt:output.obj
 0001:0004c108       ??$peek_va_arg@G@__crt_stdio_output@@YAGPEAD@Z 000000018004d108 f i libucrt:output.obj
 0001:0004c10c       ??$peek_va_arg@H@__crt_stdio_output@@YAHPEAD@Z 000000018004d10c f i libucrt:output.obj
 0001:0004c110       ??$peek_va_arg@I@__crt_stdio_output@@YAIPEAD@Z 000000018004d110 f i libucrt:output.obj
 0001:0004c114       ??$peek_va_arg@PEAD@__crt_stdio_output@@YAPEADPEAD@Z 000000018004d114 f i libucrt:output.obj
 0001:0004c118       ??$peek_va_arg@PEAUansi_string@?1??type_case_Z@?$output_processor@DV?$stream_output_adapter@D@__crt_stdio_output@@V?$positional_parameter_base@DV?$stream_output_adapter@D@__crt_stdio_output@@@2@@__crt_stdio_output@@AEAA_NXZ@@__crt_stdio_output@@YAPEAUansi_string@?1??type_case_Z@?$output_processor@DV?$stream_output_adapter@D@__crt_stdio_output@@V?$positional_parameter_base@DV?$stream_output_adapter@D@__crt_stdio_output@@@2@@0@AEAA_NXZ@PEAD@Z 000000018004d118 f i libucrt:output.obj
 0001:0004c11c       ??$peek_va_arg@PEAUansi_string@?1??type_case_Z@?$output_processor@DV?$string_output_adapter@D@__crt_stdio_output@@V?$positional_parameter_base@DV?$string_output_adapter@D@__crt_stdio_output@@@2@@__crt_stdio_output@@AEAA_NXZ@@__crt_stdio_output@@YAPEAUansi_string@?1??type_case_Z@?$output_processor@DV?$string_output_adapter@D@__crt_stdio_output@@V?$positional_parameter_base@DV?$string_output_adapter@D@__crt_stdio_output@@@2@@0@AEAA_NXZ@PEAD@Z 000000018004d11c f i libucrt:output.obj
 0001:0004c120       ??$peek_va_arg@PEAUansi_string@?1??type_case_Z@?$output_processor@_WV?$stream_output_adapter@_W@__crt_stdio_output@@V?$positional_parameter_base@_WV?$stream_output_adapter@_W@__crt_stdio_output@@@2@@__crt_stdio_output@@AEAA_NXZ@@__crt_stdio_output@@YAPEAUansi_string@?1??type_case_Z@?$output_processor@_WV?$stream_output_adapter@_W@__crt_stdio_output@@V?$positional_parameter_base@_WV?$stream_output_adapter@_W@__crt_stdio_output@@@2@@0@AEAA_NXZ@PEAD@Z 000000018004d120 f i libucrt:output.obj
 0001:0004c124       ??$peek_va_arg@PEAUansi_string@?1??type_case_Z@?$output_processor@_WV?$string_output_adapter@_W@__crt_stdio_output@@V?$positional_parameter_base@_WV?$string_output_adapter@_W@__crt_stdio_output@@@2@@__crt_stdio_output@@AEAA_NXZ@@__crt_stdio_output@@YAPEAUansi_string@?1??type_case_Z@?$output_processor@_WV?$string_output_adapter@_W@__crt_stdio_output@@V?$positional_parameter_base@_WV?$string_output_adapter@_W@__crt_stdio_output@@@2@@0@AEAA_NXZ@PEAD@Z 000000018004d124 f i libucrt:output.obj
 0001:0004c128       ??$peek_va_arg@PEAX@__crt_stdio_output@@YAPEAXPEAD@Z 000000018004d128 f i libucrt:output.obj
 0001:0004c12c       ??$peek_va_arg@U_CRT_DOUBLE@@@__crt_stdio_output@@YA?AU_CRT_DOUBLE@@PEAD@Z 000000018004d12c f i libucrt:output.obj
 0001:0004c130       ??$peek_va_arg@_J@__crt_stdio_output@@YA_JPEAD@Z 000000018004d130 f i libucrt:output.obj
 0001:0004c134       ??$peek_va_arg@_K@__crt_stdio_output@@YA_KPEAD@Z 000000018004d134 f i libucrt:output.obj
 0001:0004c138       ??$peek_va_arg@_W@__crt_stdio_output@@YA_WPEAD@Z 000000018004d138 f i libucrt:output.obj
 0001:0004c13c       ??$puttc_nolock_internal@AEBDPEAU_iobuf@@AEAV__crt_cached_ptd_host@@@?$__crt_char_traits@D@@SAHAEBD$$QEAPEAU_iobuf@@AEAV__crt_cached_ptd_host@@@Z 000000018004d13c f i libucrt:output.obj
 0001:0004c148       ??$puttc_nolock_internal@AEB_WPEAU_iobuf@@AEAV__crt_cached_ptd_host@@@?$__crt_char_traits@_W@@SAGAEB_W$$QEAPEAU_iobuf@@AEAV__crt_cached_ptd_host@@@Z 000000018004d148 f i libucrt:output.obj
 0001:0004c154       ??$read_va_arg@C@__crt_stdio_output@@YACAEAPEAD@Z 000000018004d154 f i libucrt:output.obj
 0001:0004c160       ??$read_va_arg@E@__crt_stdio_output@@YAEAEAPEAD@Z 000000018004d160 f i libucrt:output.obj
 0001:0004c16c       ??$read_va_arg@F@__crt_stdio_output@@YAFAEAPEAD@Z 000000018004d16c f i libucrt:output.obj
 0001:0004c178       ??$read_va_arg@G@__crt_stdio_output@@YAGAEAPEAD@Z 000000018004d178 f i libucrt:output.obj
 0001:0004c184       ??$read_va_arg@H@__crt_stdio_output@@YAHAEAPEAD@Z 000000018004d184 f i libucrt:output.obj
 0001:0004c190       ??$read_va_arg@I@__crt_stdio_output@@YAIAEAPEAD@Z 000000018004d190 f i libucrt:output.obj
 0001:0004c19c       ??$read_va_arg@PEAD@__crt_stdio_output@@YAPEADAEAPEAD@Z 000000018004d19c f i libucrt:output.obj
 0001:0004c1a8       ??$read_va_arg@PEAUansi_string@?1??type_case_Z@?$output_processor@DV?$stream_output_adapter@D@__crt_stdio_output@@V?$format_validation_base@DV?$stream_output_adapter@D@__crt_stdio_output@@@2@@__crt_stdio_output@@AEAA_NXZ@@__crt_stdio_output@@YAPEAUansi_string@?1??type_case_Z@?$output_processor@DV?$stream_output_adapter@D@__crt_stdio_output@@V?$format_validation_base@DV?$stream_output_adapter@D@__crt_stdio_output@@@2@@0@AEAA_NXZ@AEAPEAD@Z 000000018004d1a8 f i libucrt:output.obj
 0001:0004c1b4       ??$read_va_arg@PEAUansi_string@?1??type_case_Z@?$output_processor@DV?$stream_output_adapter@D@__crt_stdio_output@@V?$positional_parameter_base@DV?$stream_output_adapter@D@__crt_stdio_output@@@2@@__crt_stdio_output@@AEAA_NXZ@@__crt_stdio_output@@YAPEAUansi_string@?1??type_case_Z@?$output_processor@DV?$stream_output_adapter@D@__crt_stdio_output@@V?$positional_parameter_base@DV?$stream_output_adapter@D@__crt_stdio_output@@@2@@0@AEAA_NXZ@AEAPEAD@Z 000000018004d1b4 f i libucrt:output.obj
 0001:0004c1c0       ??$read_va_arg@PEAUansi_string@?1??type_case_Z@?$output_processor@DV?$stream_output_adapter@D@__crt_stdio_output@@V?$standard_base@DV?$stream_output_adapter@D@__crt_stdio_output@@@2@@__crt_stdio_output@@AEAA_NXZ@@__crt_stdio_output@@YAPEAUansi_string@?1??type_case_Z@?$output_processor@DV?$stream_output_adapter@D@__crt_stdio_output@@V?$standard_base@DV?$stream_output_adapter@D@__crt_stdio_output@@@2@@0@AEAA_NXZ@AEAPEAD@Z 000000018004d1c0 f i libucrt:output.obj
 0001:0004c1cc       ??$read_va_arg@PEAUansi_string@?1??type_case_Z@?$output_processor@DV?$string_output_adapter@D@__crt_stdio_output@@V?$format_validation_base@DV?$string_output_adapter@D@__crt_stdio_output@@@2@@__crt_stdio_output@@AEAA_NXZ@@__crt_stdio_output@@YAPEAUansi_string@?1??type_case_Z@?$output_processor@DV?$string_output_adapter@D@__crt_stdio_output@@V?$format_validation_base@DV?$string_output_adapter@D@__crt_stdio_output@@@2@@0@AEAA_NXZ@AEAPEAD@Z 000000018004d1cc f i libucrt:output.obj
 0001:0004c1d8       ??$read_va_arg@PEAUansi_string@?1??type_case_Z@?$output_processor@DV?$string_output_adapter@D@__crt_stdio_output@@V?$positional_parameter_base@DV?$string_output_adapter@D@__crt_stdio_output@@@2@@__crt_stdio_output@@AEAA_NXZ@@__crt_stdio_output@@YAPEAUansi_string@?1??type_case_Z@?$output_processor@DV?$string_output_adapter@D@__crt_stdio_output@@V?$positional_parameter_base@DV?$string_output_adapter@D@__crt_stdio_output@@@2@@0@AEAA_NXZ@AEAPEAD@Z 000000018004d1d8 f i libucrt:output.obj
 0001:0004c1e4       ??$read_va_arg@PEAUansi_string@?1??type_case_Z@?$output_processor@DV?$string_output_adapter@D@__crt_stdio_output@@V?$standard_base@DV?$string_output_adapter@D@__crt_stdio_output@@@2@@__crt_stdio_output@@AEAA_NXZ@@__crt_stdio_output@@YAPEAUansi_string@?1??type_case_Z@?$output_processor@DV?$string_output_adapter@D@__crt_stdio_output@@V?$standard_base@DV?$string_output_adapter@D@__crt_stdio_output@@@2@@0@AEAA_NXZ@AEAPEAD@Z 000000018004d1e4 f i libucrt:output.obj
 0001:0004c1f0       ??$read_va_arg@PEAUansi_string@?1??type_case_Z@?$output_processor@_WV?$stream_output_adapter@_W@__crt_stdio_output@@V?$format_validation_base@_WV?$stream_output_adapter@_W@__crt_stdio_output@@@2@@__crt_stdio_output@@AEAA_NXZ@@__crt_stdio_output@@YAPEAUansi_string@?1??type_case_Z@?$output_processor@_WV?$stream_output_adapter@_W@__crt_stdio_output@@V?$format_validation_base@_WV?$stream_output_adapter@_W@__crt_stdio_output@@@2@@0@AEAA_NXZ@AEAPEAD@Z 000000018004d1f0 f i libucrt:output.obj
 0001:0004c1fc       ??$read_va_arg@PEAUansi_string@?1??type_case_Z@?$output_processor@_WV?$stream_output_adapter@_W@__crt_stdio_output@@V?$positional_parameter_base@_WV?$stream_output_adapter@_W@__crt_stdio_output@@@2@@__crt_stdio_output@@AEAA_NXZ@@__crt_stdio_output@@YAPEAUansi_string@?1??type_case_Z@?$output_processor@_WV?$stream_output_adapter@_W@__crt_stdio_output@@V?$positional_parameter_base@_WV?$stream_output_adapter@_W@__crt_stdio_output@@@2@@0@AEAA_NXZ@AEAPEAD@Z 000000018004d1fc f i libucrt:output.obj
 0001:0004c208       ??$read_va_arg@PEAUansi_string@?1??type_case_Z@?$output_processor@_WV?$stream_output_adapter@_W@__crt_stdio_output@@V?$standard_base@_WV?$stream_output_adapter@_W@__crt_stdio_output@@@2@@__crt_stdio_output@@AEAA_NXZ@@__crt_stdio_output@@YAPEAUansi_string@?1??type_case_Z@?$output_processor@_WV?$stream_output_adapter@_W@__crt_stdio_output@@V?$standard_base@_WV?$stream_output_adapter@_W@__crt_stdio_output@@@2@@0@AEAA_NXZ@AEAPEAD@Z 000000018004d208 f i libucrt:output.obj
 0001:0004c214       ??$read_va_arg@PEAUansi_string@?1??type_case_Z@?$output_processor@_WV?$string_output_adapter@_W@__crt_stdio_output@@V?$format_validation_base@_WV?$string_output_adapter@_W@__crt_stdio_output@@@2@@__crt_stdio_output@@AEAA_NXZ@@__crt_stdio_output@@YAPEAUansi_string@?1??type_case_Z@?$output_processor@_WV?$string_output_adapter@_W@__crt_stdio_output@@V?$format_validation_base@_WV?$string_output_adapter@_W@__crt_stdio_output@@@2@@0@AEAA_NXZ@AEAPEAD@Z 000000018004d214 f i libucrt:output.obj
 0001:0004c220       ??$read_va_arg@PEAUansi_string@?1??type_case_Z@?$output_processor@_WV?$string_output_adapter@_W@__crt_stdio_output@@V?$positional_parameter_base@_WV?$string_output_adapter@_W@__crt_stdio_output@@@2@@__crt_stdio_output@@AEAA_NXZ@@__crt_stdio_output@@YAPEAUansi_string@?1??type_case_Z@?$output_processor@_WV?$string_output_adapter@_W@__crt_stdio_output@@V?$positional_parameter_base@_WV?$string_output_adapter@_W@__crt_stdio_output@@@2@@0@AEAA_NXZ@AEAPEAD@Z 000000018004d220 f i libucrt:output.obj
 0001:0004c22c       ??$read_va_arg@PEAUansi_string@?1??type_case_Z@?$output_processor@_WV?$string_output_adapter@_W@__crt_stdio_output@@V?$standard_base@_WV?$string_output_adapter@_W@__crt_stdio_output@@@2@@__crt_stdio_output@@AEAA_NXZ@@__crt_stdio_output@@YAPEAUansi_string@?1??type_case_Z@?$output_processor@_WV?$string_output_adapter@_W@__crt_stdio_output@@V?$standard_base@_WV?$string_output_adapter@_W@__crt_stdio_output@@@2@@0@AEAA_NXZ@AEAPEAD@Z 000000018004d22c f i libucrt:output.obj
 0001:0004c238       ??$read_va_arg@PEAX@__crt_stdio_output@@YAPEAXAEAPEAD@Z 000000018004d238 f i libucrt:output.obj
 0001:0004c244       ??$read_va_arg@U_CRT_DOUBLE@@@__crt_stdio_output@@YA?AU_CRT_DOUBLE@@AEAPEAD@Z 000000018004d244 f i libucrt:output.obj
 0001:0004c254       ??$read_va_arg@_J@__crt_stdio_output@@YA_JAEAPEAD@Z 000000018004d254 f i libucrt:output.obj
 0001:0004c260       ??$read_va_arg@_K@__crt_stdio_output@@YA_KAEAPEAD@Z 000000018004d260 f i libucrt:output.obj
 0001:0004c26c       ??$read_va_arg@_W@__crt_stdio_output@@YA_WAEAPEAD@Z 000000018004d26c f i libucrt:output.obj
 0001:0004c278       ??$scratch_count@D@formatting_buffer@__crt_stdio_output@@QEBA_KXZ 000000018004d278 f i libucrt:output.obj
 0001:0004c294       ??$scratch_data@D@formatting_buffer@__crt_stdio_output@@QEAAPEADXZ 000000018004d294 f i libucrt:output.obj
 0001:0004c2b8       ??$type_case_integer@$07@?$output_processor@DV?$stream_output_adapter@D@__crt_stdio_output@@V?$format_validation_base@DV?$stream_output_adapter@D@__crt_stdio_output@@@2@@__crt_stdio_output@@AEAA_N_N@Z 000000018004d2b8 f i libucrt:output.obj
 0001:0004c4a0       ??$type_case_integer@$07@?$output_processor@DV?$stream_output_adapter@D@__crt_stdio_output@@V?$positional_parameter_base@DV?$stream_output_adapter@D@__crt_stdio_output@@@2@@__crt_stdio_output@@AEAA_N_N@Z 000000018004d4a0 f i libucrt:output.obj
 0001:0004c6cc       ??$type_case_integer@$07@?$output_processor@DV?$stream_output_adapter@D@__crt_stdio_output@@V?$standard_base@DV?$stream_output_adapter@D@__crt_stdio_output@@@2@@__crt_stdio_output@@AEAA_N_N@Z 000000018004d6cc f i libucrt:output.obj
 0001:0004c8b4       ??$type_case_integer@$07@?$output_processor@DV?$string_output_adapter@D@__crt_stdio_output@@V?$format_validation_base@DV?$string_output_adapter@D@__crt_stdio_output@@@2@@__crt_stdio_output@@AEAA_N_N@Z 000000018004d8b4 f i libucrt:output.obj
 0001:0004ca9c       ??$type_case_integer@$07@?$output_processor@DV?$string_output_adapter@D@__crt_stdio_output@@V?$positional_parameter_base@DV?$string_output_adapter@D@__crt_stdio_output@@@2@@__crt_stdio_output@@AEAA_N_N@Z 000000018004da9c f i libucrt:output.obj
 0001:0004ccc8       ??$type_case_integer@$07@?$output_processor@DV?$string_output_adapter@D@__crt_stdio_output@@V?$standard_base@DV?$string_output_adapter@D@__crt_stdio_output@@@2@@__crt_stdio_output@@AEAA_N_N@Z 000000018004dcc8 f i libucrt:output.obj
 0001:0004ceb0       ??$type_case_integer@$07@?$output_processor@_WV?$stream_output_adapter@_W@__crt_stdio_output@@V?$format_validation_base@_WV?$stream_output_adapter@_W@__crt_stdio_output@@@2@@__crt_stdio_output@@AEAA_N_N@Z 000000018004deb0 f i libucrt:output.obj
 0001:0004d09c       ??$type_case_integer@$07@?$output_processor@_WV?$stream_output_adapter@_W@__crt_stdio_output@@V?$positional_parameter_base@_WV?$stream_output_adapter@_W@__crt_stdio_output@@@2@@__crt_stdio_output@@AEAA_N_N@Z 000000018004e09c f i libucrt:output.obj
 0001:0004d2cc       ??$type_case_integer@$07@?$output_processor@_WV?$stream_output_adapter@_W@__crt_stdio_output@@V?$standard_base@_WV?$stream_output_adapter@_W@__crt_stdio_output@@@2@@__crt_stdio_output@@AEAA_N_N@Z 000000018004e2cc f i libucrt:output.obj
 0001:0004d4b8       ??$type_case_integer@$07@?$output_processor@_WV?$string_output_adapter@_W@__crt_stdio_output@@V?$format_validation_base@_WV?$string_output_adapter@_W@__crt_stdio_output@@@2@@__crt_stdio_output@@AEAA_N_N@Z 000000018004e4b8 f i libucrt:output.obj
 0001:0004d6a4       ??$type_case_integer@$07@?$output_processor@_WV?$string_output_adapter@_W@__crt_stdio_output@@V?$positional_parameter_base@_WV?$string_output_adapter@_W@__crt_stdio_output@@@2@@__crt_stdio_output@@AEAA_N_N@Z 000000018004e6a4 f i libucrt:output.obj
 0001:0004d8d4       ??$type_case_integer@$07@?$output_processor@_WV?$string_output_adapter@_W@__crt_stdio_output@@V?$standard_base@_WV?$string_output_adapter@_W@__crt_stdio_output@@@2@@__crt_stdio_output@@AEAA_N_N@Z 000000018004e8d4 f i libucrt:output.obj
 0001:0004dac0       ??$type_case_integer@$09@?$output_processor@DV?$stream_output_adapter@D@__crt_stdio_output@@V?$format_validation_base@DV?$stream_output_adapter@D@__crt_stdio_output@@@2@@__crt_stdio_output@@AEAA_N_N@Z 000000018004eac0 f i libucrt:output.obj
 0001:0004dca8       ??$type_case_integer@$09@?$output_processor@DV?$stream_output_adapter@D@__crt_stdio_output@@V?$positional_parameter_base@DV?$stream_output_adapter@D@__crt_stdio_output@@@2@@__crt_stdio_output@@AEAA_N_N@Z 000000018004eca8 f i libucrt:output.obj
 0001:0004ded4       ??$type_case_integer@$09@?$output_processor@DV?$stream_output_adapter@D@__crt_stdio_output@@V?$standard_base@DV?$stream_output_adapter@D@__crt_stdio_output@@@2@@__crt_stdio_output@@AEAA_N_N@Z 000000018004eed4 f i libucrt:output.obj
 0001:0004e0bc       ??$type_case_integer@$09@?$output_processor@DV?$string_output_adapter@D@__crt_stdio_output@@V?$format_validation_base@DV?$string_output_adapter@D@__crt_stdio_output@@@2@@__crt_stdio_output@@AEAA_N_N@Z 000000018004f0bc f i libucrt:output.obj
 0001:0004e2a4       ??$type_case_integer@$09@?$output_processor@DV?$string_output_adapter@D@__crt_stdio_output@@V?$positional_parameter_base@DV?$string_output_adapter@D@__crt_stdio_output@@@2@@__crt_stdio_output@@AEAA_N_N@Z 000000018004f2a4 f i libucrt:output.obj
 0001:0004e4d0       ??$type_case_integer@$09@?$output_processor@DV?$string_output_adapter@D@__crt_stdio_output@@V?$standard_base@DV?$string_output_adapter@D@__crt_stdio_output@@@2@@__crt_stdio_output@@AEAA_N_N@Z 000000018004f4d0 f i libucrt:output.obj
 0001:0004e6b8       ??$type_case_integer@$09@?$output_processor@_WV?$stream_output_adapter@_W@__crt_stdio_output@@V?$format_validation_base@_WV?$stream_output_adapter@_W@__crt_stdio_output@@@2@@__crt_stdio_output@@AEAA_N_N@Z 000000018004f6b8 f i libucrt:output.obj
 0001:0004e8a4       ??$type_case_integer@$09@?$output_processor@_WV?$stream_output_adapter@_W@__crt_stdio_output@@V?$positional_parameter_base@_WV?$stream_output_adapter@_W@__crt_stdio_output@@@2@@__crt_stdio_output@@AEAA_N_N@Z 000000018004f8a4 f i libucrt:output.obj
 0001:0004ead4       ??$type_case_integer@$09@?$output_processor@_WV?$stream_output_adapter@_W@__crt_stdio_output@@V?$standard_base@_WV?$stream_output_adapter@_W@__crt_stdio_output@@@2@@__crt_stdio_output@@AEAA_N_N@Z 000000018004fad4 f i libucrt:output.obj
 0001:0004ecc0       ??$type_case_integer@$09@?$output_processor@_WV?$string_output_adapter@_W@__crt_stdio_output@@V?$format_validation_base@_WV?$string_output_adapter@_W@__crt_stdio_output@@@2@@__crt_stdio_output@@AEAA_N_N@Z 000000018004fcc0 f i libucrt:output.obj
 0001:0004eeac       ??$type_case_integer@$09@?$output_processor@_WV?$string_output_adapter@_W@__crt_stdio_output@@V?$positional_parameter_base@_WV?$string_output_adapter@_W@__crt_stdio_output@@@2@@__crt_stdio_output@@AEAA_N_N@Z 000000018004feac f i libucrt:output.obj
 0001:0004f0dc       ??$type_case_integer@$09@?$output_processor@_WV?$string_output_adapter@_W@__crt_stdio_output@@V?$standard_base@_WV?$string_output_adapter@_W@__crt_stdio_output@@@2@@__crt_stdio_output@@AEAA_N_N@Z 00000001800500dc f i libucrt:output.obj
 0001:0004f2c8       ??$type_case_integer@$0BA@@?$output_processor@DV?$stream_output_adapter@D@__crt_stdio_output@@V?$format_validation_base@DV?$stream_output_adapter@D@__crt_stdio_output@@@2@@__crt_stdio_output@@AEAA_N_N@Z 00000001800502c8 f i libucrt:output.obj
 0001:0004f4b0       ??$type_case_integer@$0BA@@?$output_processor@DV?$stream_output_adapter@D@__crt_stdio_output@@V?$positional_parameter_base@DV?$stream_output_adapter@D@__crt_stdio_output@@@2@@__crt_stdio_output@@AEAA_N_N@Z 00000001800504b0 f i libucrt:output.obj
 0001:0004f6dc       ??$type_case_integer@$0BA@@?$output_processor@DV?$stream_output_adapter@D@__crt_stdio_output@@V?$standard_base@DV?$stream_output_adapter@D@__crt_stdio_output@@@2@@__crt_stdio_output@@AEAA_N_N@Z 00000001800506dc f i libucrt:output.obj
 0001:0004f8c4       ??$type_case_integer@$0BA@@?$output_processor@DV?$string_output_adapter@D@__crt_stdio_output@@V?$format_validation_base@DV?$string_output_adapter@D@__crt_stdio_output@@@2@@__crt_stdio_output@@AEAA_N_N@Z 00000001800508c4 f i libucrt:output.obj
 0001:0004faac       ??$type_case_integer@$0BA@@?$output_processor@DV?$string_output_adapter@D@__crt_stdio_output@@V?$positional_parameter_base@DV?$string_output_adapter@D@__crt_stdio_output@@@2@@__crt_stdio_output@@AEAA_N_N@Z 0000000180050aac f i libucrt:output.obj
 0001:0004fcd8       ??$type_case_integer@$0BA@@?$output_processor@DV?$string_output_adapter@D@__crt_stdio_output@@V?$standard_base@DV?$string_output_adapter@D@__crt_stdio_output@@@2@@__crt_stdio_output@@AEAA_N_N@Z 0000000180050cd8 f i libucrt:output.obj
 0001:0004fec0       ??$type_case_integer@$0BA@@?$output_processor@_WV?$stream_output_adapter@_W@__crt_stdio_output@@V?$format_validation_base@_WV?$stream_output_adapter@_W@__crt_stdio_output@@@2@@__crt_stdio_output@@AEAA_N_N@Z 0000000180050ec0 f i libucrt:output.obj
 0001:000500ac       ??$type_case_integer@$0BA@@?$output_processor@_WV?$stream_output_adapter@_W@__crt_stdio_output@@V?$positional_parameter_base@_WV?$stream_output_adapter@_W@__crt_stdio_output@@@2@@__crt_stdio_output@@AEAA_N_N@Z 00000001800510ac f i libucrt:output.obj
 0001:000502dc       ??$type_case_integer@$0BA@@?$output_processor@_WV?$stream_output_adapter@_W@__crt_stdio_output@@V?$standard_base@_WV?$stream_output_adapter@_W@__crt_stdio_output@@@2@@__crt_stdio_output@@AEAA_N_N@Z 00000001800512dc f i libucrt:output.obj
 0001:000504c8       ??$type_case_integer@$0BA@@?$output_processor@_WV?$string_output_adapter@_W@__crt_stdio_output@@V?$format_validation_base@_WV?$string_output_adapter@_W@__crt_stdio_output@@@2@@__crt_stdio_output@@AEAA_N_N@Z 00000001800514c8 f i libucrt:output.obj
 0001:000506b4       ??$type_case_integer@$0BA@@?$output_processor@_WV?$string_output_adapter@_W@__crt_stdio_output@@V?$positional_parameter_base@_WV?$string_output_adapter@_W@__crt_stdio_output@@@2@@__crt_stdio_output@@AEAA_N_N@Z 00000001800516b4 f i libucrt:output.obj
 0001:000508e4       ??$type_case_integer@$0BA@@?$output_processor@_WV?$string_output_adapter@_W@__crt_stdio_output@@V?$standard_base@_WV?$string_output_adapter@_W@__crt_stdio_output@@@2@@__crt_stdio_output@@AEAA_N_N@Z 00000001800518e4 f i libucrt:output.obj
 0001:00050ad0       ??$type_case_integer_parse_into_buffer@I$07@?$output_processor@DV?$stream_output_adapter@D@__crt_stdio_output@@V?$format_validation_base@DV?$stream_output_adapter@D@__crt_stdio_output@@@2@@__crt_stdio_output@@AEAAXI_N@Z 0000000180051ad0 f i libucrt:output.obj
 0001:00050b4c       ??$type_case_integer_parse_into_buffer@I$07@?$output_processor@DV?$stream_output_adapter@D@__crt_stdio_output@@V?$positional_parameter_base@DV?$stream_output_adapter@D@__crt_stdio_output@@@2@@__crt_stdio_output@@AEAAXI_N@Z 0000000180051b4c f i libucrt:output.obj
 0001:00050bc8       ??$type_case_integer_parse_into_buffer@I$07@?$output_processor@DV?$stream_output_adapter@D@__crt_stdio_output@@V?$standard_base@DV?$stream_output_adapter@D@__crt_stdio_output@@@2@@__crt_stdio_output@@AEAAXI_N@Z 0000000180051bc8 f i libucrt:output.obj
 0001:00050c44       ??$type_case_integer_parse_into_buffer@I$07@?$output_processor@DV?$string_output_adapter@D@__crt_stdio_output@@V?$format_validation_base@DV?$string_output_adapter@D@__crt_stdio_output@@@2@@__crt_stdio_output@@AEAAXI_N@Z 0000000180051c44 f i libucrt:output.obj
 0001:00050cc0       ??$type_case_integer_parse_into_buffer@I$07@?$output_processor@DV?$string_output_adapter@D@__crt_stdio_output@@V?$positional_parameter_base@DV?$string_output_adapter@D@__crt_stdio_output@@@2@@__crt_stdio_output@@AEAAXI_N@Z 0000000180051cc0 f i libucrt:output.obj
 0001:00050d3c       ??$type_case_integer_parse_into_buffer@I$07@?$output_processor@DV?$string_output_adapter@D@__crt_stdio_output@@V?$standard_base@DV?$string_output_adapter@D@__crt_stdio_output@@@2@@__crt_stdio_output@@AEAAXI_N@Z 0000000180051d3c f i libucrt:output.obj
 0001:00050db8       ??$type_case_integer_parse_into_buffer@I$07@?$output_processor@_WV?$stream_output_adapter@_W@__crt_stdio_output@@V?$format_validation_base@_WV?$stream_output_adapter@_W@__crt_stdio_output@@@2@@__crt_stdio_output@@AEAAXI_N@Z 0000000180051db8 f i libucrt:output.obj
 0001:00050e40       ??$type_case_integer_parse_into_buffer@I$07@?$output_processor@_WV?$stream_output_adapter@_W@__crt_stdio_output@@V?$positional_parameter_base@_WV?$stream_output_adapter@_W@__crt_stdio_output@@@2@@__crt_stdio_output@@AEAAXI_N@Z 0000000180051e40 f i libucrt:output.obj
 0001:00050ec8       ??$type_case_integer_parse_into_buffer@I$07@?$output_processor@_WV?$stream_output_adapter@_W@__crt_stdio_output@@V?$standard_base@_WV?$stream_output_adapter@_W@__crt_stdio_output@@@2@@__crt_stdio_output@@AEAAXI_N@Z 0000000180051ec8 f i libucrt:output.obj
 0001:00050f50       ??$type_case_integer_parse_into_buffer@I$07@?$output_processor@_WV?$string_output_adapter@_W@__crt_stdio_output@@V?$format_validation_base@_WV?$string_output_adapter@_W@__crt_stdio_output@@@2@@__crt_stdio_output@@AEAAXI_N@Z 0000000180051f50 f i libucrt:output.obj
 0001:00050fd8       ??$type_case_integer_parse_into_buffer@I$07@?$output_processor@_WV?$string_output_adapter@_W@__crt_stdio_output@@V?$positional_parameter_base@_WV?$string_output_adapter@_W@__crt_stdio_output@@@2@@__crt_stdio_output@@AEAAXI_N@Z 0000000180051fd8 f i libucrt:output.obj
 0001:00051060       ??$type_case_integer_parse_into_buffer@I$07@?$output_processor@_WV?$string_output_adapter@_W@__crt_stdio_output@@V?$standard_base@_WV?$string_output_adapter@_W@__crt_stdio_output@@@2@@__crt_stdio_output@@AEAAXI_N@Z 0000000180052060 f i libucrt:output.obj
 0001:000510e8       ??$type_case_integer_parse_into_buffer@I$09@?$output_processor@DV?$stream_output_adapter@D@__crt_stdio_output@@V?$format_validation_base@DV?$stream_output_adapter@D@__crt_stdio_output@@@2@@__crt_stdio_output@@AEAAXI_N@Z 00000001800520e8 f i libucrt:output.obj
 0001:00051190       ??$type_case_integer_parse_into_buffer@I$09@?$output_processor@DV?$stream_output_adapter@D@__crt_stdio_output@@V?$positional_parameter_base@DV?$stream_output_adapter@D@__crt_stdio_output@@@2@@__crt_stdio_output@@AEAAXI_N@Z 0000000180052190 f i libucrt:output.obj
 0001:00051238       ??$type_case_integer_parse_into_buffer@I$09@?$output_processor@DV?$stream_output_adapter@D@__crt_stdio_output@@V?$standard_base@DV?$stream_output_adapter@D@__crt_stdio_output@@@2@@__crt_stdio_output@@AEAAXI_N@Z 0000000180052238 f i libucrt:output.obj
 0001:000512e0       ??$type_case_integer_parse_into_buffer@I$09@?$output_processor@DV?$string_output_adapter@D@__crt_stdio_output@@V?$format_validation_base@DV?$string_output_adapter@D@__crt_stdio_output@@@2@@__crt_stdio_output@@AEAAXI_N@Z 00000001800522e0 f i libucrt:output.obj
 0001:00051388       ??$type_case_integer_parse_into_buffer@I$09@?$output_processor@DV?$string_output_adapter@D@__crt_stdio_output@@V?$positional_parameter_base@DV?$string_output_adapter@D@__crt_stdio_output@@@2@@__crt_stdio_output@@AEAAXI_N@Z 0000000180052388 f i libucrt:output.obj
 0001:00051430       ??$type_case_integer_parse_into_buffer@I$09@?$output_processor@DV?$string_output_adapter@D@__crt_stdio_output@@V?$standard_base@DV?$string_output_adapter@D@__crt_stdio_output@@@2@@__crt_stdio_output@@AEAAXI_N@Z 0000000180052430 f i libucrt:output.obj
 0001:000514d8       ??$type_case_integer_parse_into_buffer@I$09@?$output_processor@_WV?$stream_output_adapter@_W@__crt_stdio_output@@V?$format_validation_base@_WV?$stream_output_adapter@_W@__crt_stdio_output@@@2@@__crt_stdio_output@@AEAAXI_N@Z 00000001800524d8 f i libucrt:output.obj
 0001:00051590       ??$type_case_integer_parse_into_buffer@I$09@?$output_processor@_WV?$stream_output_adapter@_W@__crt_stdio_output@@V?$positional_parameter_base@_WV?$stream_output_adapter@_W@__crt_stdio_output@@@2@@__crt_stdio_output@@AEAAXI_N@Z 0000000180052590 f i libucrt:output.obj
 0001:00051648       ??$type_case_integer_parse_into_buffer@I$09@?$output_processor@_WV?$stream_output_adapter@_W@__crt_stdio_output@@V?$standard_base@_WV?$stream_output_adapter@_W@__crt_stdio_output@@@2@@__crt_stdio_output@@AEAAXI_N@Z 0000000180052648 f i libucrt:output.obj
 0001:00051700       ??$type_case_integer_parse_into_buffer@I$09@?$output_processor@_WV?$string_output_adapter@_W@__crt_stdio_output@@V?$format_validation_base@_WV?$string_output_adapter@_W@__crt_stdio_output@@@2@@__crt_stdio_output@@AEAAXI_N@Z 0000000180052700 f i libucrt:output.obj
 0001:000517b8       ??$type_case_integer_parse_into_buffer@I$09@?$output_processor@_WV?$string_output_adapter@_W@__crt_stdio_output@@V?$positional_parameter_base@_WV?$string_output_adapter@_W@__crt_stdio_output@@@2@@__crt_stdio_output@@AEAAXI_N@Z 00000001800527b8 f i libucrt:output.obj
 0001:00051870       ??$type_case_integer_parse_into_buffer@I$09@?$output_processor@_WV?$string_output_adapter@_W@__crt_stdio_output@@V?$standard_base@_WV?$string_output_adapter@_W@__crt_stdio_output@@@2@@__crt_stdio_output@@AEAAXI_N@Z 0000000180052870 f i libucrt:output.obj
 0001:00051928       ??$type_case_integer_parse_into_buffer@I$0BA@@?$output_processor@DV?$stream_output_adapter@D@__crt_stdio_output@@V?$format_validation_base@DV?$stream_output_adapter@D@__crt_stdio_output@@@2@@__crt_stdio_output@@AEAAXI_N@Z 0000000180052928 f i libucrt:output.obj
 0001:000519b4       ??$type_case_integer_parse_into_buffer@I$0BA@@?$output_processor@DV?$stream_output_adapter@D@__crt_stdio_output@@V?$positional_parameter_base@DV?$stream_output_adapter@D@__crt_stdio_output@@@2@@__crt_stdio_output@@AEAAXI_N@Z 00000001800529b4 f i libucrt:output.obj
 0001:00051a40       ??$type_case_integer_parse_into_buffer@I$0BA@@?$output_processor@DV?$stream_output_adapter@D@__crt_stdio_output@@V?$standard_base@DV?$stream_output_adapter@D@__crt_stdio_output@@@2@@__crt_stdio_output@@AEAAXI_N@Z 0000000180052a40 f i libucrt:output.obj
 0001:00051acc       ??$type_case_integer_parse_into_buffer@I$0BA@@?$output_processor@DV?$string_output_adapter@D@__crt_stdio_output@@V?$format_validation_base@DV?$string_output_adapter@D@__crt_stdio_output@@@2@@__crt_stdio_output@@AEAAXI_N@Z 0000000180052acc f i libucrt:output.obj
 0001:00051b58       ??$type_case_integer_parse_into_buffer@I$0BA@@?$output_processor@DV?$string_output_adapter@D@__crt_stdio_output@@V?$positional_parameter_base@DV?$string_output_adapter@D@__crt_stdio_output@@@2@@__crt_stdio_output@@AEAAXI_N@Z 0000000180052b58 f i libucrt:output.obj
 0001:00051be4       ??$type_case_integer_parse_into_buffer@I$0BA@@?$output_processor@DV?$string_output_adapter@D@__crt_stdio_output@@V?$standard_base@DV?$string_output_adapter@D@__crt_stdio_output@@@2@@__crt_stdio_output@@AEAAXI_N@Z 0000000180052be4 f i libucrt:output.obj
 0001:00051c70       ??$type_case_integer_parse_into_buffer@I$0BA@@?$output_processor@_WV?$stream_output_adapter@_W@__crt_stdio_output@@V?$format_validation_base@_WV?$stream_output_adapter@_W@__crt_stdio_output@@@2@@__crt_stdio_output@@AEAAXI_N@Z 0000000180052c70 f i libucrt:output.obj
 0001:00051d14       ??$type_case_integer_parse_into_buffer@I$0BA@@?$output_processor@_WV?$stream_output_adapter@_W@__crt_stdio_output@@V?$positional_parameter_base@_WV?$stream_output_adapter@_W@__crt_stdio_output@@@2@@__crt_stdio_output@@AEAAXI_N@Z 0000000180052d14 f i libucrt:output.obj
 0001:00051db8       ??$type_case_integer_parse_into_buffer@I$0BA@@?$output_processor@_WV?$stream_output_adapter@_W@__crt_stdio_output@@V?$standard_base@_WV?$stream_output_adapter@_W@__crt_stdio_output@@@2@@__crt_stdio_output@@AEAAXI_N@Z 0000000180052db8 f i libucrt:output.obj
 0001:00051e5c       ??$type_case_integer_parse_into_buffer@I$0BA@@?$output_processor@_WV?$string_output_adapter@_W@__crt_stdio_output@@V?$format_validation_base@_WV?$string_output_adapter@_W@__crt_stdio_output@@@2@@__crt_stdio_output@@AEAAXI_N@Z 0000000180052e5c f i libucrt:output.obj
 0001:00051f00       ??$type_case_integer_parse_into_buffer@I$0BA@@?$output_processor@_WV?$string_output_adapter@_W@__crt_stdio_output@@V?$positional_parameter_base@_WV?$string_output_adapter@_W@__crt_stdio_output@@@2@@__crt_stdio_output@@AEAAXI_N@Z 0000000180052f00 f i libucrt:output.obj
 0001:00051fa4       ??$type_case_integer_parse_into_buffer@I$0BA@@?$output_processor@_WV?$string_output_adapter@_W@__crt_stdio_output@@V?$standard_base@_WV?$string_output_adapter@_W@__crt_stdio_output@@@2@@__crt_stdio_output@@AEAAXI_N@Z 0000000180052fa4 f i libucrt:output.obj
 0001:00052048       ??$type_case_integer_parse_into_buffer@_K$07@?$output_processor@DV?$stream_output_adapter@D@__crt_stdio_output@@V?$format_validation_base@DV?$stream_output_adapter@D@__crt_stdio_output@@@2@@__crt_stdio_output@@AEAAX_K_N@Z 0000000180053048 f i libucrt:output.obj
 0001:000520c4       ??$type_case_integer_parse_into_buffer@_K$07@?$output_processor@DV?$stream_output_adapter@D@__crt_stdio_output@@V?$positional_parameter_base@DV?$stream_output_adapter@D@__crt_stdio_output@@@2@@__crt_stdio_output@@AEAAX_K_N@Z 00000001800530c4 f i libucrt:output.obj
 0001:00052140       ??$type_case_integer_parse_into_buffer@_K$07@?$output_processor@DV?$stream_output_adapter@D@__crt_stdio_output@@V?$standard_base@DV?$stream_output_adapter@D@__crt_stdio_output@@@2@@__crt_stdio_output@@AEAAX_K_N@Z 0000000180053140 f i libucrt:output.obj
 0001:000521bc       ??$type_case_integer_parse_into_buffer@_K$07@?$output_processor@DV?$string_output_adapter@D@__crt_stdio_output@@V?$format_validation_base@DV?$string_output_adapter@D@__crt_stdio_output@@@2@@__crt_stdio_output@@AEAAX_K_N@Z 00000001800531bc f i libucrt:output.obj
 0001:00052238       ??$type_case_integer_parse_into_buffer@_K$07@?$output_processor@DV?$string_output_adapter@D@__crt_stdio_output@@V?$positional_parameter_base@DV?$string_output_adapter@D@__crt_stdio_output@@@2@@__crt_stdio_output@@AEAAX_K_N@Z 0000000180053238 f i libucrt:output.obj
 0001:000522b4       ??$type_case_integer_parse_into_buffer@_K$07@?$output_processor@DV?$string_output_adapter@D@__crt_stdio_output@@V?$standard_base@DV?$string_output_adapter@D@__crt_stdio_output@@@2@@__crt_stdio_output@@AEAAX_K_N@Z 00000001800532b4 f i libucrt:output.obj
 0001:00052330       ??$type_case_integer_parse_into_buffer@_K$07@?$output_processor@_WV?$stream_output_adapter@_W@__crt_stdio_output@@V?$format_validation_base@_WV?$stream_output_adapter@_W@__crt_stdio_output@@@2@@__crt_stdio_output@@AEAAX_K_N@Z 0000000180053330 f i libucrt:output.obj
 0001:000523b8       ??$type_case_integer_parse_into_buffer@_K$07@?$output_processor@_WV?$stream_output_adapter@_W@__crt_stdio_output@@V?$positional_parameter_base@_WV?$stream_output_adapter@_W@__crt_stdio_output@@@2@@__crt_stdio_output@@AEAAX_K_N@Z 00000001800533b8 f i libucrt:output.obj
 0001:00052440       ??$type_case_integer_parse_into_buffer@_K$07@?$output_processor@_WV?$stream_output_adapter@_W@__crt_stdio_output@@V?$standard_base@_WV?$stream_output_adapter@_W@__crt_stdio_output@@@2@@__crt_stdio_output@@AEAAX_K_N@Z 0000000180053440 f i libucrt:output.obj
 0001:000524c8       ??$type_case_integer_parse_into_buffer@_K$07@?$output_processor@_WV?$string_output_adapter@_W@__crt_stdio_output@@V?$format_validation_base@_WV?$string_output_adapter@_W@__crt_stdio_output@@@2@@__crt_stdio_output@@AEAAX_K_N@Z 00000001800534c8 f i libucrt:output.obj
 0001:00052550       ??$type_case_integer_parse_into_buffer@_K$07@?$output_processor@_WV?$string_output_adapter@_W@__crt_stdio_output@@V?$positional_parameter_base@_WV?$string_output_adapter@_W@__crt_stdio_output@@@2@@__crt_stdio_output@@AEAAX_K_N@Z 0000000180053550 f i libucrt:output.obj
 0001:000525d8       ??$type_case_integer_parse_into_buffer@_K$07@?$output_processor@_WV?$string_output_adapter@_W@__crt_stdio_output@@V?$standard_base@_WV?$string_output_adapter@_W@__crt_stdio_output@@@2@@__crt_stdio_output@@AEAAX_K_N@Z 00000001800535d8 f i libucrt:output.obj
 0001:00052660       ??$type_case_integer_parse_into_buffer@_K$09@?$output_processor@DV?$stream_output_adapter@D@__crt_stdio_output@@V?$format_validation_base@DV?$stream_output_adapter@D@__crt_stdio_output@@@2@@__crt_stdio_output@@AEAAX_K_N@Z 0000000180053660 f i libucrt:output.obj
 0001:0005270c       ??$type_case_integer_parse_into_buffer@_K$09@?$output_processor@DV?$stream_output_adapter@D@__crt_stdio_output@@V?$positional_parameter_base@DV?$stream_output_adapter@D@__crt_stdio_output@@@2@@__crt_stdio_output@@AEAAX_K_N@Z 000000018005370c f i libucrt:output.obj
 0001:000527b8       ??$type_case_integer_parse_into_buffer@_K$09@?$output_processor@DV?$stream_output_adapter@D@__crt_stdio_output@@V?$standard_base@DV?$stream_output_adapter@D@__crt_stdio_output@@@2@@__crt_stdio_output@@AEAAX_K_N@Z 00000001800537b8 f i libucrt:output.obj
 0001:00052864       ??$type_case_integer_parse_into_buffer@_K$09@?$output_processor@DV?$string_output_adapter@D@__crt_stdio_output@@V?$format_validation_base@DV?$string_output_adapter@D@__crt_stdio_output@@@2@@__crt_stdio_output@@AEAAX_K_N@Z 0000000180053864 f i libucrt:output.obj
 0001:00052910       ??$type_case_integer_parse_into_buffer@_K$09@?$output_processor@DV?$string_output_adapter@D@__crt_stdio_output@@V?$positional_parameter_base@DV?$string_output_adapter@D@__crt_stdio_output@@@2@@__crt_stdio_output@@AEAAX_K_N@Z 0000000180053910 f i libucrt:output.obj
 0001:000529bc       ??$type_case_integer_parse_into_buffer@_K$09@?$output_processor@DV?$string_output_adapter@D@__crt_stdio_output@@V?$standard_base@DV?$string_output_adapter@D@__crt_stdio_output@@@2@@__crt_stdio_output@@AEAAX_K_N@Z 00000001800539bc f i libucrt:output.obj
 0001:00052a68       ??$type_case_integer_parse_into_buffer@_K$09@?$output_processor@_WV?$stream_output_adapter@_W@__crt_stdio_output@@V?$format_validation_base@_WV?$stream_output_adapter@_W@__crt_stdio_output@@@2@@__crt_stdio_output@@AEAAX_K_N@Z 0000000180053a68 f i libucrt:output.obj
 0001:00052b28       ??$type_case_integer_parse_into_buffer@_K$09@?$output_processor@_WV?$stream_output_adapter@_W@__crt_stdio_output@@V?$positional_parameter_base@_WV?$stream_output_adapter@_W@__crt_stdio_output@@@2@@__crt_stdio_output@@AEAAX_K_N@Z 0000000180053b28 f i libucrt:output.obj
 0001:00052be8       ??$type_case_integer_parse_into_buffer@_K$09@?$output_processor@_WV?$stream_output_adapter@_W@__crt_stdio_output@@V?$standard_base@_WV?$stream_output_adapter@_W@__crt_stdio_output@@@2@@__crt_stdio_output@@AEAAX_K_N@Z 0000000180053be8 f i libucrt:output.obj
 0001:00052ca8       ??$type_case_integer_parse_into_buffer@_K$09@?$output_processor@_WV?$string_output_adapter@_W@__crt_stdio_output@@V?$format_validation_base@_WV?$string_output_adapter@_W@__crt_stdio_output@@@2@@__crt_stdio_output@@AEAAX_K_N@Z 0000000180053ca8 f i libucrt:output.obj
 0001:00052d68       ??$type_case_integer_parse_into_buffer@_K$09@?$output_processor@_WV?$string_output_adapter@_W@__crt_stdio_output@@V?$positional_parameter_base@_WV?$string_output_adapter@_W@__crt_stdio_output@@@2@@__crt_stdio_output@@AEAAX_K_N@Z 0000000180053d68 f i libucrt:output.obj
 0001:00052e28       ??$type_case_integer_parse_into_buffer@_K$09@?$output_processor@_WV?$string_output_adapter@_W@__crt_stdio_output@@V?$standard_base@_WV?$string_output_adapter@_W@__crt_stdio_output@@@2@@__crt_stdio_output@@AEAAX_K_N@Z 0000000180053e28 f i libucrt:output.obj
 0001:00052ee8       ??$type_case_integer_parse_into_buffer@_K$0BA@@?$output_processor@DV?$stream_output_adapter@D@__crt_stdio_output@@V?$format_validation_base@DV?$stream_output_adapter@D@__crt_stdio_output@@@2@@__crt_stdio_output@@AEAAX_K_N@Z 0000000180053ee8 f i libucrt:output.obj
 0001:00052f74       ??$type_case_integer_parse_into_buffer@_K$0BA@@?$output_processor@DV?$stream_output_adapter@D@__crt_stdio_output@@V?$positional_parameter_base@DV?$stream_output_adapter@D@__crt_stdio_output@@@2@@__crt_stdio_output@@AEAAX_K_N@Z 0000000180053f74 f i libucrt:output.obj
 0001:00053000       ??$type_case_integer_parse_into_buffer@_K$0BA@@?$output_processor@DV?$stream_output_adapter@D@__crt_stdio_output@@V?$standard_base@DV?$stream_output_adapter@D@__crt_stdio_output@@@2@@__crt_stdio_output@@AEAAX_K_N@Z 0000000180054000 f i libucrt:output.obj
 0001:0005308c       ??$type_case_integer_parse_into_buffer@_K$0BA@@?$output_processor@DV?$string_output_adapter@D@__crt_stdio_output@@V?$format_validation_base@DV?$string_output_adapter@D@__crt_stdio_output@@@2@@__crt_stdio_output@@AEAAX_K_N@Z 000000018005408c f i libucrt:output.obj
 0001:00053118       ??$type_case_integer_parse_into_buffer@_K$0BA@@?$output_processor@DV?$string_output_adapter@D@__crt_stdio_output@@V?$positional_parameter_base@DV?$string_output_adapter@D@__crt_stdio_output@@@2@@__crt_stdio_output@@AEAAX_K_N@Z 0000000180054118 f i libucrt:output.obj
 0001:000531a4       ??$type_case_integer_parse_into_buffer@_K$0BA@@?$output_processor@DV?$string_output_adapter@D@__crt_stdio_output@@V?$standard_base@DV?$string_output_adapter@D@__crt_stdio_output@@@2@@__crt_stdio_output@@AEAAX_K_N@Z 00000001800541a4 f i libucrt:output.obj
 0001:00053230       ??$type_case_integer_parse_into_buffer@_K$0BA@@?$output_processor@_WV?$stream_output_adapter@_W@__crt_stdio_output@@V?$format_validation_base@_WV?$stream_output_adapter@_W@__crt_stdio_output@@@2@@__crt_stdio_output@@AEAAX_K_N@Z 0000000180054230 f i libucrt:output.obj
 0001:000532d4       ??$type_case_integer_parse_into_buffer@_K$0BA@@?$output_processor@_WV?$stream_output_adapter@_W@__crt_stdio_output@@V?$positional_parameter_base@_WV?$stream_output_adapter@_W@__crt_stdio_output@@@2@@__crt_stdio_output@@AEAAX_K_N@Z 00000001800542d4 f i libucrt:output.obj
 0001:00053378       ??$type_case_integer_parse_into_buffer@_K$0BA@@?$output_processor@_WV?$stream_output_adapter@_W@__crt_stdio_output@@V?$standard_base@_WV?$stream_output_adapter@_W@__crt_stdio_output@@@2@@__crt_stdio_output@@AEAAX_K_N@Z 0000000180054378 f i libucrt:output.obj
 0001:0005341c       ??$type_case_integer_parse_into_buffer@_K$0BA@@?$output_processor@_WV?$string_output_adapter@_W@__crt_stdio_output@@V?$format_validation_base@_WV?$string_output_adapter@_W@__crt_stdio_output@@@2@@__crt_stdio_output@@AEAAX_K_N@Z 000000018005441c f i libucrt:output.obj
 0001:000534c0       ??$type_case_integer_parse_into_buffer@_K$0BA@@?$output_processor@_WV?$string_output_adapter@_W@__crt_stdio_output@@V?$positional_parameter_base@_WV?$string_output_adapter@_W@__crt_stdio_output@@@2@@__crt_stdio_output@@AEAAX_K_N@Z 00000001800544c0 f i libucrt:output.obj
 0001:00053564       ??$type_case_integer_parse_into_buffer@_K$0BA@@?$output_processor@_WV?$string_output_adapter@_W@__crt_stdio_output@@V?$standard_base@_WV?$string_output_adapter@_W@__crt_stdio_output@@@2@@__crt_stdio_output@@AEAAX_K_N@Z 0000000180054564 f i libucrt:output.obj
 0001:00053608       ??$write_multiple_characters@V?$stream_output_adapter@D@__crt_stdio_output@@D@__crt_stdio_output@@YAXAEBV?$stream_output_adapter@D@0@DHQEAHAEAV__crt_cached_ptd_host@@@Z 0000000180054608 f i libucrt:output.obj
 0001:00053698       ??$write_multiple_characters@V?$stream_output_adapter@_W@__crt_stdio_output@@D@__crt_stdio_output@@YAXAEBV?$stream_output_adapter@_W@0@DHQEAHAEAV__crt_cached_ptd_host@@@Z 0000000180054698 f i libucrt:output.obj
 0001:00053730       ??$write_multiple_characters@V?$string_output_adapter@D@__crt_stdio_output@@D@__crt_stdio_output@@YAXAEBV?$string_output_adapter@D@0@DHQEAHAEAV__crt_cached_ptd_host@@@Z 0000000180054730 f i libucrt:output.obj
 0001:000537a8       ??$write_multiple_characters@V?$string_output_adapter@_W@__crt_stdio_output@@D@__crt_stdio_output@@YAXAEBV?$string_output_adapter@_W@0@DHQEAHAEAV__crt_cached_ptd_host@@@Z 00000001800547a8 f i libucrt:output.obj
 0001:00053988       ??0?$c_string_character_source@D@__crt_strtox@@QEAA@QEBDQEAPEBD@Z 0000000180054988 f i libucrt:output.obj
 0001:0005399c       ??0?$c_string_character_source@_W@__crt_strtox@@QEAA@QEB_WQEAPEB_W@Z 000000018005499c f i libucrt:output.obj
 0001:000539b0       ??0?$cached@H@__crt_cached_ptd_host@@QEAA@XZ 00000001800549b0 f i libucrt:output.obj
 0001:000539b8       ??0?$cached@K@__crt_cached_ptd_host@@QEAA@XZ 00000001800549b8 f i libucrt:output.obj
 0001:000539c0       ??0?$common_data@D@__crt_stdio_output@@IEAA@AEAV__crt_cached_ptd_host@@@Z 00000001800549c0 f i libucrt:output.obj
 0001:000539fc       ??0?$common_data@_W@__crt_stdio_output@@IEAA@AEAV__crt_cached_ptd_host@@@Z 00000001800549fc f i libucrt:output.obj
 0001:00053a3c       ??0?$output_adapter_data@DV?$stream_output_adapter@D@__crt_stdio_output@@@__crt_stdio_output@@IEAA@AEBV?$stream_output_adapter@D@1@_KQEBDAEAV__crt_cached_ptd_host@@QEAD@Z 0000000180054a3c f i libucrt:output.obj
 0001:00053a9c       ??0?$output_adapter_data@DV?$string_output_adapter@D@__crt_stdio_output@@@__crt_stdio_output@@IEAA@AEBV?$string_output_adapter@D@1@_KQEBDAEAV__crt_cached_ptd_host@@QEAD@Z 0000000180054a9c f i libucrt:output.obj
 0001:00053afc       ??0?$output_adapter_data@_WV?$stream_output_adapter@_W@__crt_stdio_output@@@__crt_stdio_output@@IEAA@AEBV?$stream_output_adapter@_W@1@_KQEB_WAEAV__crt_cached_ptd_host@@QEAD@Z 0000000180054afc f i libucrt:output.obj
 0001:00053b60       ??0?$output_adapter_data@_WV?$string_output_adapter@_W@__crt_stdio_output@@@__crt_stdio_output@@IEAA@AEBV?$string_output_adapter@_W@1@_KQEB_WAEAV__crt_cached_ptd_host@@QEAD@Z 0000000180054b60 f i libucrt:output.obj
 0001:00053bc4       ??0?$output_processor@DV?$stream_output_adapter@D@__crt_stdio_output@@V?$format_validation_base@DV?$stream_output_adapter@D@__crt_stdio_output@@@2@@__crt_stdio_output@@QEAA@AEBV?$stream_output_adapter@D@1@_KQEBDAEAV__crt_cached_ptd_host@@QEAD@Z 0000000180054bc4 f i libucrt:output.obj
 0001:00053c2c       ??0?$output_processor@DV?$stream_output_adapter@D@__crt_stdio_output@@V?$positional_parameter_base@DV?$stream_output_adapter@D@__crt_stdio_output@@@2@@__crt_stdio_output@@QEAA@AEBV?$stream_output_adapter@D@1@_KQEBDAEAV__crt_cached_ptd_host@@QEAD@Z 0000000180054c2c f i libucrt:output.obj
 0001:00053cb0       ??0?$output_processor@DV?$stream_output_adapter@D@__crt_stdio_output@@V?$standard_base@DV?$stream_output_adapter@D@__crt_stdio_output@@@2@@__crt_stdio_output@@QEAA@AEBV?$stream_output_adapter@D@1@_KQEBDAEAV__crt_cached_ptd_host@@QEAD@Z 0000000180054cb0 f i libucrt:output.obj
 0001:00053d18       ??0?$output_processor@DV?$string_output_adapter@D@__crt_stdio_output@@V?$format_validation_base@DV?$string_output_adapter@D@__crt_stdio_output@@@2@@__crt_stdio_output@@QEAA@AEBV?$string_output_adapter@D@1@_KQEBDAEAV__crt_cached_ptd_host@@QEAD@Z 0000000180054d18 f i libucrt:output.obj
 0001:00053d80       ??0?$output_processor@DV?$string_output_adapter@D@__crt_stdio_output@@V?$positional_parameter_base@DV?$string_output_adapter@D@__crt_stdio_output@@@2@@__crt_stdio_output@@QEAA@AEBV?$string_output_adapter@D@1@_KQEBDAEAV__crt_cached_ptd_host@@QEAD@Z 0000000180054d80 f i libucrt:output.obj
 0001:00053e04       ??0?$output_processor@DV?$string_output_adapter@D@__crt_stdio_output@@V?$standard_base@DV?$string_output_adapter@D@__crt_stdio_output@@@2@@__crt_stdio_output@@QEAA@AEBV?$string_output_adapter@D@1@_KQEBDAEAV__crt_cached_ptd_host@@QEAD@Z 0000000180054e04 f i libucrt:output.obj
 0001:00053e6c       ??0?$output_processor@_WV?$stream_output_adapter@_W@__crt_stdio_output@@V?$format_validation_base@_WV?$stream_output_adapter@_W@__crt_stdio_output@@@2@@__crt_stdio_output@@QEAA@AEBV?$stream_output_adapter@_W@1@_KQEB_WAEAV__crt_cached_ptd_host@@QEAD@Z 0000000180054e6c f i libucrt:output.obj
 0001:00053ed8       ??0?$output_processor@_WV?$stream_output_adapter@_W@__crt_stdio_output@@V?$positional_parameter_base@_WV?$stream_output_adapter@_W@__crt_stdio_output@@@2@@__crt_stdio_output@@QEAA@AEBV?$stream_output_adapter@_W@1@_KQEB_WAEAV__crt_cached_ptd_host@@QEAD@Z 0000000180054ed8 f i libucrt:output.obj
 0001:00053f60       ??0?$output_processor@_WV?$stream_output_adapter@_W@__crt_stdio_output@@V?$standard_base@_WV?$stream_output_adapter@_W@__crt_stdio_output@@@2@@__crt_stdio_output@@QEAA@AEBV?$stream_output_adapter@_W@1@_KQEB_WAEAV__crt_cached_ptd_host@@QEAD@Z 0000000180054f60 f i libucrt:output.obj
 0001:00053fcc       ??0?$output_processor@_WV?$string_output_adapter@_W@__crt_stdio_output@@V?$format_validation_base@_WV?$string_output_adapter@_W@__crt_stdio_output@@@2@@__crt_stdio_output@@QEAA@AEBV?$string_output_adapter@_W@1@_KQEB_WAEAV__crt_cached_ptd_host@@QEAD@Z 0000000180054fcc f i libucrt:output.obj
 0001:00054038       ??0?$output_processor@_WV?$string_output_adapter@_W@__crt_stdio_output@@V?$positional_parameter_base@_WV?$string_output_adapter@_W@__crt_stdio_output@@@2@@__crt_stdio_output@@QEAA@AEBV?$string_output_adapter@_W@1@_KQEB_WAEAV__crt_cached_ptd_host@@QEAD@Z 0000000180055038 f i libucrt:output.obj
 0001:000540c0       ??0?$output_processor@_WV?$string_output_adapter@_W@__crt_stdio_output@@V?$standard_base@_WV?$string_output_adapter@_W@__crt_stdio_output@@@2@@__crt_stdio_output@@QEAA@AEBV?$string_output_adapter@_W@1@_KQEB_WAEAV__crt_cached_ptd_host@@QEAD@Z 00000001800550c0 f i libucrt:output.obj
 0001:0005412c       ??0?$stream_output_adapter@D@__crt_stdio_output@@QEAA@QEAU_iobuf@@@Z 000000018005512c f i libucrt:output.obj
 0001:00054134       ??0?$stream_output_adapter@_W@__crt_stdio_output@@QEAA@QEAU_iobuf@@@Z 0000000180055134 f i libucrt:output.obj
 0001:0005413c       ??0?$string_output_adapter@D@__crt_stdio_output@@QEAA@QEAU?$string_output_adapter_context@D@1@@Z 000000018005513c f i libucrt:output.obj
 0001:00054144       ??0?$string_output_adapter@_W@__crt_stdio_output@@QEAA@QEAU?$string_output_adapter_context@_W@1@@Z 0000000180055144 f i libucrt:output.obj
 0001:0005414c       ??0__acrt_stdio_temporary_buffering_guard@@QEAA@QEAU_iobuf@@AEAV__crt_cached_ptd_host@@@Z 000000018005514c f i libucrt:output.obj
 0001:00054170       ??0__crt_cached_ptd_host@@QEAA@QEAU__crt_locale_pointers@@@Z 0000000180055170 f i libucrt:output.obj
 0001:000541b8       ??0__crt_scoped_get_last_error_reset@@QEAA@XZ 00000001800551b8 f i libucrt:output.obj
 0001:000541d4       ??0__crt_stdio_stream@@QEAA@QEAU_iobuf@@@Z 00000001800551d4 f i libucrt:output.obj
 0001:000541dc       ??0formatting_buffer@__crt_stdio_output@@QEAA@XZ 00000001800551dc f i libucrt:output.obj
 0001:000541f0       ??0guard@?$cached@H@__crt_cached_ptd_host@@QEAA@AEAU12@@Z 00000001800551f0 f i libucrt:output.obj
 0001:00054204       ??1?$c_string_character_source@D@__crt_strtox@@QEAA@XZ 0000000180055204 f i libucrt:output.obj
 0001:00054214       ??1?$c_string_character_source@_W@__crt_strtox@@QEAA@XZ 0000000180055214 f i libucrt:output.obj
 0001:00054224       ??1?$common_data@D@__crt_stdio_output@@QEAA@XZ 0000000180055224 f i libucrt:output.obj
 0001:00054248       ??1?$common_data@_W@__crt_stdio_output@@QEAA@XZ 0000000180055248 f i libucrt:output.obj
 0001:0005426c       ??1?$format_validation_base@DV?$stream_output_adapter@D@__crt_stdio_output@@@__crt_stdio_output@@QEAA@XZ 000000018005526c f i libucrt:output.obj
 0001:00054290       ??1?$format_validation_base@DV?$string_output_adapter@D@__crt_stdio_output@@@__crt_stdio_output@@QEAA@XZ 0000000180055290 f i libucrt:output.obj
 0001:000542b4       ??1?$format_validation_base@_WV?$stream_output_adapter@_W@__crt_stdio_output@@@__crt_stdio_output@@QEAA@XZ 00000001800552b4 f i libucrt:output.obj
 0001:000542d8       ??1?$format_validation_base@_WV?$string_output_adapter@_W@__crt_stdio_output@@@__crt_stdio_output@@QEAA@XZ 00000001800552d8 f i libucrt:output.obj
 0001:000542fc       ??1?$output_adapter_data@DV?$stream_output_adapter@D@__crt_stdio_output@@@__crt_stdio_output@@QEAA@XZ 00000001800552fc f i libucrt:output.obj
 0001:00054320       ??1?$output_adapter_data@DV?$string_output_adapter@D@__crt_stdio_output@@@__crt_stdio_output@@QEAA@XZ 0000000180055320 f i libucrt:output.obj
 0001:00054344       ??1?$output_adapter_data@_WV?$stream_output_adapter@_W@__crt_stdio_output@@@__crt_stdio_output@@QEAA@XZ 0000000180055344 f i libucrt:output.obj
 0001:00054368       ??1?$output_adapter_data@_WV?$string_output_adapter@_W@__crt_stdio_output@@@__crt_stdio_output@@QEAA@XZ 0000000180055368 f i libucrt:output.obj
 0001:0005438c       ??1?$output_processor@DV?$stream_output_adapter@D@__crt_stdio_output@@V?$format_validation_base@DV?$stream_output_adapter@D@__crt_stdio_output@@@2@@__crt_stdio_output@@QEAA@XZ 000000018005538c f i libucrt:output.obj
 0001:000543b0       ??1?$output_processor@DV?$stream_output_adapter@D@__crt_stdio_output@@V?$positional_parameter_base@DV?$stream_output_adapter@D@__crt_stdio_output@@@2@@__crt_stdio_output@@QEAA@XZ 00000001800553b0 f i libucrt:output.obj
 0001:000543d4       ??1?$output_processor@DV?$stream_output_adapter@D@__crt_stdio_output@@V?$standard_base@DV?$stream_output_adapter@D@__crt_stdio_output@@@2@@__crt_stdio_output@@QEAA@XZ 00000001800553d4 f i libucrt:output.obj
 0001:000543f8       ??1?$output_processor@DV?$string_output_adapter@D@__crt_stdio_output@@V?$format_validation_base@DV?$string_output_adapter@D@__crt_stdio_output@@@2@@__crt_stdio_output@@QEAA@XZ 00000001800553f8 f i libucrt:output.obj
 0001:0005441c       ??1?$output_processor@DV?$string_output_adapter@D@__crt_stdio_output@@V?$positional_parameter_base@DV?$string_output_adapter@D@__crt_stdio_output@@@2@@__crt_stdio_output@@QEAA@XZ 000000018005541c f i libucrt:output.obj
 0001:00054440       ??1?$output_processor@DV?$string_output_adapter@D@__crt_stdio_output@@V?$standard_base@DV?$string_output_adapter@D@__crt_stdio_output@@@2@@__crt_stdio_output@@QEAA@XZ 0000000180055440 f i libucrt:output.obj
 0001:00054464       ??1?$output_processor@_WV?$stream_output_adapter@_W@__crt_stdio_output@@V?$format_validation_base@_WV?$stream_output_adapter@_W@__crt_stdio_output@@@2@@__crt_stdio_output@@QEAA@XZ 0000000180055464 f i libucrt:output.obj
 0001:00054488       ??1?$output_processor@_WV?$stream_output_adapter@_W@__crt_stdio_output@@V?$positional_parameter_base@_WV?$stream_output_adapter@_W@__crt_stdio_output@@@2@@__crt_stdio_output@@QEAA@XZ 0000000180055488 f i libucrt:output.obj
 0001:000544ac       ??1?$output_processor@_WV?$stream_output_adapter@_W@__crt_stdio_output@@V?$standard_base@_WV?$stream_output_adapter@_W@__crt_stdio_output@@@2@@__crt_stdio_output@@QEAA@XZ 00000001800554ac f i libucrt:output.obj
 0001:000544d0       ??1?$output_processor@_WV?$string_output_adapter@_W@__crt_stdio_output@@V?$format_validation_base@_WV?$string_output_adapter@_W@__crt_stdio_output@@@2@@__crt_stdio_output@@QEAA@XZ 00000001800554d0 f i libucrt:output.obj
 0001:000544f4       ??1?$output_processor@_WV?$string_output_adapter@_W@__crt_stdio_output@@V?$positional_parameter_base@_WV?$string_output_adapter@_W@__crt_stdio_output@@@2@@__crt_stdio_output@@QEAA@XZ 00000001800554f4 f i libucrt:output.obj
 0001:00054518       ??1?$output_processor@_WV?$string_output_adapter@_W@__crt_stdio_output@@V?$standard_base@_WV?$string_output_adapter@_W@__crt_stdio_output@@@2@@__crt_stdio_output@@QEAA@XZ 0000000180055518 f i libucrt:output.obj
 0001:0005453c       ??1?$positional_parameter_base@DV?$stream_output_adapter@D@__crt_stdio_output@@@__crt_stdio_output@@QEAA@XZ 000000018005553c f i libucrt:output.obj
 0001:00054560       ??1?$positional_parameter_base@DV?$string_output_adapter@D@__crt_stdio_output@@@__crt_stdio_output@@QEAA@XZ 0000000180055560 f i libucrt:output.obj
 0001:00054584       ??1?$positional_parameter_base@_WV?$stream_output_adapter@_W@__crt_stdio_output@@@__crt_stdio_output@@QEAA@XZ 0000000180055584 f i libucrt:output.obj
 0001:000545a8       ??1?$positional_parameter_base@_WV?$string_output_adapter@_W@__crt_stdio_output@@@__crt_stdio_output@@QEAA@XZ 00000001800555a8 f i libucrt:output.obj
 0001:000545cc       ??1?$standard_base@DV?$stream_output_adapter@D@__crt_stdio_output@@@__crt_stdio_output@@QEAA@XZ 00000001800555cc f i libucrt:output.obj
 0001:000545f0       ??1?$standard_base@DV?$string_output_adapter@D@__crt_stdio_output@@@__crt_stdio_output@@QEAA@XZ 00000001800555f0 f i libucrt:output.obj
 0001:00054614       ??1?$standard_base@_WV?$stream_output_adapter@_W@__crt_stdio_output@@@__crt_stdio_output@@QEAA@XZ 0000000180055614 f i libucrt:output.obj
 0001:00054638       ??1?$standard_base@_WV?$string_output_adapter@_W@__crt_stdio_output@@@__crt_stdio_output@@QEAA@XZ 0000000180055638 f i libucrt:output.obj
 0001:0005465c       ??1__acrt_stdio_temporary_buffering_guard@@QEAA@XZ 000000018005565c f i libucrt:output.obj
 0001:00054670       ??1__crt_cached_ptd_host@@QEAA@XZ 0000000180055670 f i libucrt:output.obj
 0001:000546c0       ??1__crt_scoped_get_last_error_reset@@QEAA@XZ 00000001800556c0 f i libucrt:output.obj
 0001:000546cc       ??1formatting_buffer@__crt_stdio_output@@QEAA@XZ 00000001800556cc f i libucrt:output.obj
 0001:000546f0       ??1guard@?$cached@H@__crt_cached_ptd_host@@QEAA@XZ 00000001800556f0 f i libucrt:output.obj
 0001:00054704       ??4?$__crt_unique_heap_ptr@DU__crt_internal_free_policy@@@@QEAAAEAV0@$$QEAV0@@Z 0000000180055704 f i libucrt:output.obj
 0001:00054738       ??A?$spectre_mitigated_lookup_table@Ustate_transition_pair@__crt_stdio_output@@$0IA@@__crt_stdio_output@@QEBAAEBUstate_transition_pair@1@_K@Z 0000000180055738 f i libucrt:output.obj
 0001:00054740       ??C__crt_stdio_stream@@QEBAPEAU__crt_stdio_stream_data@@XZ 0000000180055740 f i libucrt:output.obj
 0001:00054e88       ?adjust_hexit@?$output_processor@DV?$stream_output_adapter@D@__crt_stdio_output@@V?$format_validation_base@DV?$stream_output_adapter@D@__crt_stdio_output@@@2@@__crt_stdio_output@@CADH_N@Z 0000000180055e88 f i libucrt:output.obj
 0001:00054e94       ?adjust_hexit@?$output_processor@DV?$stream_output_adapter@D@__crt_stdio_output@@V?$positional_parameter_base@DV?$stream_output_adapter@D@__crt_stdio_output@@@2@@__crt_stdio_output@@CADH_N@Z 0000000180055e94 f i libucrt:output.obj
 0001:00054ea0       ?adjust_hexit@?$output_processor@DV?$stream_output_adapter@D@__crt_stdio_output@@V?$standard_base@DV?$stream_output_adapter@D@__crt_stdio_output@@@2@@__crt_stdio_output@@CADH_N@Z 0000000180055ea0 f i libucrt:output.obj
 0001:00054eac       ?adjust_hexit@?$output_processor@DV?$string_output_adapter@D@__crt_stdio_output@@V?$format_validation_base@DV?$string_output_adapter@D@__crt_stdio_output@@@2@@__crt_stdio_output@@CADH_N@Z 0000000180055eac f i libucrt:output.obj
 0001:00054eb8       ?adjust_hexit@?$output_processor@DV?$string_output_adapter@D@__crt_stdio_output@@V?$positional_parameter_base@DV?$string_output_adapter@D@__crt_stdio_output@@@2@@__crt_stdio_output@@CADH_N@Z 0000000180055eb8 f i libucrt:output.obj
 0001:00054ec4       ?adjust_hexit@?$output_processor@DV?$string_output_adapter@D@__crt_stdio_output@@V?$standard_base@DV?$string_output_adapter@D@__crt_stdio_output@@@2@@__crt_stdio_output@@CADH_N@Z 0000000180055ec4 f i libucrt:output.obj
 0001:00054ed0       ?adjust_hexit@?$output_processor@_WV?$stream_output_adapter@_W@__crt_stdio_output@@V?$format_validation_base@_WV?$stream_output_adapter@_W@__crt_stdio_output@@@2@@__crt_stdio_output@@CADH_N@Z 0000000180055ed0 f i libucrt:output.obj
 0001:00054edc       ?adjust_hexit@?$output_processor@_WV?$stream_output_adapter@_W@__crt_stdio_output@@V?$positional_parameter_base@_WV?$stream_output_adapter@_W@__crt_stdio_output@@@2@@__crt_stdio_output@@CADH_N@Z 0000000180055edc f i libucrt:output.obj
 0001:00054ee8       ?adjust_hexit@?$output_processor@_WV?$stream_output_adapter@_W@__crt_stdio_output@@V?$standard_base@_WV?$stream_output_adapter@_W@__crt_stdio_output@@@2@@__crt_stdio_output@@CADH_N@Z 0000000180055ee8 f i libucrt:output.obj
 0001:00054ef4       ?adjust_hexit@?$output_processor@_WV?$string_output_adapter@_W@__crt_stdio_output@@V?$format_validation_base@_WV?$string_output_adapter@_W@__crt_stdio_output@@@2@@__crt_stdio_output@@CADH_N@Z 0000000180055ef4 f i libucrt:output.obj
 0001:00054f00       ?adjust_hexit@?$output_processor@_WV?$string_output_adapter@_W@__crt_stdio_output@@V?$positional_parameter_base@_WV?$string_output_adapter@_W@__crt_stdio_output@@@2@@__crt_stdio_output@@CADH_N@Z 0000000180055f00 f i libucrt:output.obj
 0001:00054f0c       ?adjust_hexit@?$output_processor@_WV?$string_output_adapter@_W@__crt_stdio_output@@V?$standard_base@_WV?$string_output_adapter@_W@__crt_stdio_output@@@2@@__crt_stdio_output@@CADH_N@Z 0000000180055f0c f i libucrt:output.obj
 0001:00054f18       ?advance_to_next_pass@?$positional_parameter_base@DV?$stream_output_adapter@D@__crt_stdio_output@@@__crt_stdio_output@@IEAA_NXZ 0000000180055f18 f i libucrt:output.obj
 0001:00054f68       ?advance_to_next_pass@?$positional_parameter_base@DV?$string_output_adapter@D@__crt_stdio_output@@@__crt_stdio_output@@IEAA_NXZ 0000000180055f68 f i libucrt:output.obj
 0001:00054fb8       ?advance_to_next_pass@?$positional_parameter_base@_WV?$stream_output_adapter@_W@__crt_stdio_output@@@__crt_stdio_output@@IEAA_NXZ 0000000180055fb8 f i libucrt:output.obj
 0001:00055008       ?advance_to_next_pass@?$positional_parameter_base@_WV?$string_output_adapter@_W@__crt_stdio_output@@@__crt_stdio_output@@IEAA_NXZ 0000000180056008 f i libucrt:output.obj
 0001:00055058       ?advance_to_next_pass@?$standard_base@DV?$stream_output_adapter@D@__crt_stdio_output@@@__crt_stdio_output@@IEAA_NXZ 0000000180056058 f i libucrt:output.obj
 0001:0005506c       ?advance_to_next_pass@?$standard_base@DV?$string_output_adapter@D@__crt_stdio_output@@@__crt_stdio_output@@IEAA_NXZ 000000018005606c f i libucrt:output.obj
 0001:00055080       ?advance_to_next_pass@?$standard_base@_WV?$stream_output_adapter@_W@__crt_stdio_output@@@__crt_stdio_output@@IEAA_NXZ 0000000180056080 f i libucrt:output.obj
 0001:00055094       ?advance_to_next_pass@?$standard_base@_WV?$string_output_adapter@_W@__crt_stdio_output@@@__crt_stdio_output@@IEAA_NXZ 0000000180056094 f i libucrt:output.obj
 0001:000550a8       ?check@?$cached@H@__crt_cached_ptd_host@@QEBA_NH@Z 00000001800560a8 f i libucrt:output.obj
 0001:000550c0       ?check_synchronize_global_state_index@__crt_cached_ptd_host@@AEAA_KAEBV__crt_scoped_get_last_error_reset@@@Z 00000001800560c0 f i libucrt:output.obj
 0001:000550e0       ?check_synchronize_per_thread_data@__crt_cached_ptd_host@@AEAAPEAU__acrt_ptd@@XZ 00000001800560e0 f i libucrt:output.obj
 0001:00055148       ?create_guard@?$cached@H@__crt_cached_ptd_host@@QEAA?AVguard@12@XZ 0000000180056148 f i libucrt:output.obj
 0001:0005515c       ?crop_zeroes@__crt_stdio_output@@YAXPEADQEAU__crt_locale_pointers@@@Z 000000018005615c f i libucrt:output.obj
 0001:000551c8       ?disable@guard@?$cached@H@__crt_cached_ptd_host@@QEAAXXZ 00000001800561c8 f i libucrt:output.obj
 0001:000551d0       ?enable@guard@?$cached@H@__crt_cached_ptd_host@@QEAAXXZ 00000001800561d0 f i libucrt:output.obj
 0001:000551d8       ?find_next_state@?$output_processor@DV?$stream_output_adapter@D@__crt_stdio_output@@V?$format_validation_base@DV?$stream_output_adapter@D@__crt_stdio_output@@@2@@__crt_stdio_output@@AEBA?AW4state@2@DW432@@Z 00000001800561d8 f i libucrt:output.obj
 0001:00055210       ?find_next_state@?$output_processor@DV?$stream_output_adapter@D@__crt_stdio_output@@V?$positional_parameter_base@DV?$stream_output_adapter@D@__crt_stdio_output@@@2@@__crt_stdio_output@@AEBA?AW4state@2@DW432@@Z 0000000180056210 f i libucrt:output.obj
 0001:00055248       ?find_next_state@?$output_processor@DV?$stream_output_adapter@D@__crt_stdio_output@@V?$standard_base@DV?$stream_output_adapter@D@__crt_stdio_output@@@2@@__crt_stdio_output@@AEBA?AW4state@2@DW432@@Z 0000000180056248 f i libucrt:output.obj
 0001:0005527c       ?find_next_state@?$output_processor@DV?$string_output_adapter@D@__crt_stdio_output@@V?$format_validation_base@DV?$string_output_adapter@D@__crt_stdio_output@@@2@@__crt_stdio_output@@AEBA?AW4state@2@DW432@@Z 000000018005627c f i libucrt:output.obj
 0001:000552b4       ?find_next_state@?$output_processor@DV?$string_output_adapter@D@__crt_stdio_output@@V?$positional_parameter_base@DV?$string_output_adapter@D@__crt_stdio_output@@@2@@__crt_stdio_output@@AEBA?AW4state@2@DW432@@Z 00000001800562b4 f i libucrt:output.obj
 0001:000552ec       ?find_next_state@?$output_processor@DV?$string_output_adapter@D@__crt_stdio_output@@V?$standard_base@DV?$string_output_adapter@D@__crt_stdio_output@@@2@@__crt_stdio_output@@AEBA?AW4state@2@DW432@@Z 00000001800562ec f i libucrt:output.obj
 0001:00055320       ?find_next_state@?$output_processor@_WV?$stream_output_adapter@_W@__crt_stdio_output@@V?$format_validation_base@_WV?$stream_output_adapter@_W@__crt_stdio_output@@@2@@__crt_stdio_output@@AEBA?AW4state@2@_WW432@@Z 0000000180056320 f i libucrt:output.obj
 0001:00055360       ?find_next_state@?$output_processor@_WV?$stream_output_adapter@_W@__crt_stdio_output@@V?$positional_parameter_base@_WV?$stream_output_adapter@_W@__crt_stdio_output@@@2@@__crt_stdio_output@@AEBA?AW4state@2@_WW432@@Z 0000000180056360 f i libucrt:output.obj
 0001:000553a0       ?find_next_state@?$output_processor@_WV?$stream_output_adapter@_W@__crt_stdio_output@@V?$standard_base@_WV?$stream_output_adapter@_W@__crt_stdio_output@@@2@@__crt_stdio_output@@AEBA?AW4state@2@_WW432@@Z 00000001800563a0 f i libucrt:output.obj
 0001:000553dc       ?find_next_state@?$output_processor@_WV?$string_output_adapter@_W@__crt_stdio_output@@V?$format_validation_base@_WV?$string_output_adapter@_W@__crt_stdio_output@@@2@@__crt_stdio_output@@AEBA?AW4state@2@_WW432@@Z 00000001800563dc f i libucrt:output.obj
 0001:0005541c       ?find_next_state@?$output_processor@_WV?$string_output_adapter@_W@__crt_stdio_output@@V?$positional_parameter_base@_WV?$string_output_adapter@_W@__crt_stdio_output@@@2@@__crt_stdio_output@@AEBA?AW4state@2@_WW432@@Z 000000018005641c f i libucrt:output.obj
 0001:0005545c       ?find_next_state@?$output_processor@_WV?$string_output_adapter@_W@__crt_stdio_output@@V?$standard_base@_WV?$string_output_adapter@_W@__crt_stdio_output@@@2@@__crt_stdio_output@@AEBA?AW4state@2@_WW432@@Z 000000018005645c f i libucrt:output.obj
 0001:00055498       ?force_decimal_point@__crt_stdio_output@@YAXPEADQEAU__crt_locale_pointers@@@Z 0000000180056498 f i libucrt:output.obj
 0001:00055500       ?force_synchronize_global_state_index@__crt_cached_ptd_host@@AEAA_KAEBV__crt_scoped_get_last_error_reset@@@Z 0000000180056500 f i libucrt:output.obj
 0001:00055510       ?force_synchronize_per_thread_data@__crt_cached_ptd_host@@AEAAPEAU__acrt_ptd@@XZ 0000000180056510 f i libucrt:output.obj
 0001:00055568       ?get@?$c_string_character_source@D@__crt_strtox@@QEAADXZ 0000000180056568 f i libucrt:output.obj
 0001:00055574       ?get@?$c_string_character_source@_W@__crt_strtox@@QEAA_WXZ 0000000180056574 f i libucrt:output.obj
 0001:00055584       ?get_current_state_index@__crt_state_management@@YA_KAEBV__crt_scoped_get_last_error_reset@@@Z 0000000180056584 f i libucrt:output.obj
 0001:00055590       ?get_errno@__crt_cached_ptd_host@@QEAAAEAU?$cached@H@1@XZ 0000000180056590 f i libucrt:output.obj
 0001:00055598       ?get_flags@__crt_stdio_stream@@QEBAJXZ 0000000180056598 f i libucrt:output.obj
 0001:000555a0       ?get_locale@__crt_cached_ptd_host@@QEAAPEAU__crt_locale_pointers@@XZ 00000001800565a0 f i libucrt:output.obj
 0001:000555c8       ?get_parameter_type@?$positional_parameter_base@DV?$stream_output_adapter@D@__crt_stdio_output@@@__crt_stdio_output@@CA?AW4parameter_type@12@F@Z 00000001800565c8 f i libucrt:output.obj
 0001:000555d0       ?get_parameter_type@?$positional_parameter_base@DV?$stream_output_adapter@D@__crt_stdio_output@@@__crt_stdio_output@@CA?AW4parameter_type@12@G@Z 00000001800565d0 f i libucrt:output.obj
 0001:000555d8       ?get_parameter_type@?$positional_parameter_base@DV?$stream_output_adapter@D@__crt_stdio_output@@@__crt_stdio_output@@CA?AW4parameter_type@12@H@Z 00000001800565d8 f i libucrt:output.obj
 0001:000555e0       ?get_parameter_type@?$positional_parameter_base@DV?$stream_output_adapter@D@__crt_stdio_output@@@__crt_stdio_output@@CA?AW4parameter_type@12@I@Z 00000001800565e0 f i libucrt:output.obj
 0001:000555e8       ?get_parameter_type@?$positional_parameter_base@DV?$stream_output_adapter@D@__crt_stdio_output@@@__crt_stdio_output@@CA?AW4parameter_type@12@U_CRT_DOUBLE@@@Z 00000001800565e8 f i libucrt:output.obj
 0001:000555f0       ?get_parameter_type@?$positional_parameter_base@DV?$stream_output_adapter@D@__crt_stdio_output@@@__crt_stdio_output@@CA?AW4parameter_type@12@_J@Z 00000001800565f0 f i libucrt:output.obj
 0001:000555f8       ?get_parameter_type@?$positional_parameter_base@DV?$stream_output_adapter@D@__crt_stdio_output@@@__crt_stdio_output@@CA?AW4parameter_type@12@_K@Z 00000001800565f8 f i libucrt:output.obj
 0001:00055600       ?get_parameter_type@?$positional_parameter_base@DV?$stream_output_adapter@D@__crt_stdio_output@@@__crt_stdio_output@@CA?AW4parameter_type@12@_W@Z 0000000180056600 f i libucrt:output.obj
 0001:00055608       ?get_parameter_type@?$positional_parameter_base@DV?$string_output_adapter@D@__crt_stdio_output@@@__crt_stdio_output@@CA?AW4parameter_type@12@F@Z 0000000180056608 f i libucrt:output.obj
 0001:00055610       ?get_parameter_type@?$positional_parameter_base@DV?$string_output_adapter@D@__crt_stdio_output@@@__crt_stdio_output@@CA?AW4parameter_type@12@G@Z 0000000180056610 f i libucrt:output.obj
 0001:00055618       ?get_parameter_type@?$positional_parameter_base@DV?$string_output_adapter@D@__crt_stdio_output@@@__crt_stdio_output@@CA?AW4parameter_type@12@H@Z 0000000180056618 f i libucrt:output.obj
 0001:00055620       ?get_parameter_type@?$positional_parameter_base@DV?$string_output_adapter@D@__crt_stdio_output@@@__crt_stdio_output@@CA?AW4parameter_type@12@I@Z 0000000180056620 f i libucrt:output.obj
 0001:00055628       ?get_parameter_type@?$positional_parameter_base@DV?$string_output_adapter@D@__crt_stdio_output@@@__crt_stdio_output@@CA?AW4parameter_type@12@U_CRT_DOUBLE@@@Z 0000000180056628 f i libucrt:output.obj
 0001:00055630       ?get_parameter_type@?$positional_parameter_base@DV?$string_output_adapter@D@__crt_stdio_output@@@__crt_stdio_output@@CA?AW4parameter_type@12@_J@Z 0000000180056630 f i libucrt:output.obj
 0001:00055638       ?get_parameter_type@?$positional_parameter_base@DV?$string_output_adapter@D@__crt_stdio_output@@@__crt_stdio_output@@CA?AW4parameter_type@12@_K@Z 0000000180056638 f i libucrt:output.obj
 0001:00055640       ?get_parameter_type@?$positional_parameter_base@DV?$string_output_adapter@D@__crt_stdio_output@@@__crt_stdio_output@@CA?AW4parameter_type@12@_W@Z 0000000180056640 f i libucrt:output.obj
 0001:00055648       ?get_parameter_type@?$positional_parameter_base@_WV?$stream_output_adapter@_W@__crt_stdio_output@@@__crt_stdio_output@@CA?AW4parameter_type@12@F@Z 0000000180056648 f i libucrt:output.obj
 0001:00055650       ?get_parameter_type@?$positional_parameter_base@_WV?$stream_output_adapter@_W@__crt_stdio_output@@@__crt_stdio_output@@CA?AW4parameter_type@12@G@Z 0000000180056650 f i libucrt:output.obj
 0001:00055658       ?get_parameter_type@?$positional_parameter_base@_WV?$stream_output_adapter@_W@__crt_stdio_output@@@__crt_stdio_output@@CA?AW4parameter_type@12@H@Z 0000000180056658 f i libucrt:output.obj
 0001:00055660       ?get_parameter_type@?$positional_parameter_base@_WV?$stream_output_adapter@_W@__crt_stdio_output@@@__crt_stdio_output@@CA?AW4parameter_type@12@I@Z 0000000180056660 f i libucrt:output.obj
 0001:00055668       ?get_parameter_type@?$positional_parameter_base@_WV?$stream_output_adapter@_W@__crt_stdio_output@@@__crt_stdio_output@@CA?AW4parameter_type@12@U_CRT_DOUBLE@@@Z 0000000180056668 f i libucrt:output.obj
 0001:00055670       ?get_parameter_type@?$positional_parameter_base@_WV?$stream_output_adapter@_W@__crt_stdio_output@@@__crt_stdio_output@@CA?AW4parameter_type@12@_J@Z 0000000180056670 f i libucrt:output.obj
 0001:00055678       ?get_parameter_type@?$positional_parameter_base@_WV?$stream_output_adapter@_W@__crt_stdio_output@@@__crt_stdio_output@@CA?AW4parameter_type@12@_K@Z 0000000180056678 f i libucrt:output.obj
 0001:00055680       ?get_parameter_type@?$positional_parameter_base@_WV?$stream_output_adapter@_W@__crt_stdio_output@@@__crt_stdio_output@@CA?AW4parameter_type@12@_W@Z 0000000180056680 f i libucrt:output.obj
 0001:00055688       ?get_parameter_type@?$positional_parameter_base@_WV?$string_output_adapter@_W@__crt_stdio_output@@@__crt_stdio_output@@CA?AW4parameter_type@12@F@Z 0000000180056688 f i libucrt:output.obj
 0001:00055690       ?get_parameter_type@?$positional_parameter_base@_WV?$string_output_adapter@_W@__crt_stdio_output@@@__crt_stdio_output@@CA?AW4parameter_type@12@G@Z 0000000180056690 f i libucrt:output.obj
 0001:00055698       ?get_parameter_type@?$positional_parameter_base@_WV?$string_output_adapter@_W@__crt_stdio_output@@@__crt_stdio_output@@CA?AW4parameter_type@12@H@Z 0000000180056698 f i libucrt:output.obj
 0001:000556a0       ?get_parameter_type@?$positional_parameter_base@_WV?$string_output_adapter@_W@__crt_stdio_output@@@__crt_stdio_output@@CA?AW4parameter_type@12@I@Z 00000001800566a0 f i libucrt:output.obj
 0001:000556a8       ?get_parameter_type@?$positional_parameter_base@_WV?$string_output_adapter@_W@__crt_stdio_output@@@__crt_stdio_output@@CA?AW4parameter_type@12@U_CRT_DOUBLE@@@Z 00000001800566a8 f i libucrt:output.obj
 0001:000556b0       ?get_parameter_type@?$positional_parameter_base@_WV?$string_output_adapter@_W@__crt_stdio_output@@@__crt_stdio_output@@CA?AW4parameter_type@12@_J@Z 00000001800566b0 f i libucrt:output.obj
 0001:000556b8       ?get_parameter_type@?$positional_parameter_base@_WV?$string_output_adapter@_W@__crt_stdio_output@@@__crt_stdio_output@@CA?AW4parameter_type@12@_K@Z 00000001800566b8 f i libucrt:output.obj
 0001:000556c0       ?get_parameter_type@?$positional_parameter_base@_WV?$string_output_adapter@_W@__crt_stdio_output@@@__crt_stdio_output@@CA?AW4parameter_type@12@_W@Z 00000001800566c0 f i libucrt:output.obj
 0001:000556d0       ?get_raw_ptd@__crt_cached_ptd_host@@QEAAPEAU__acrt_ptd@@XZ 00000001800566d0 f i libucrt:output.obj
 0001:00055738       ?has_flag@?$output_processor@DV?$stream_output_adapter@D@__crt_stdio_output@@V?$format_validation_base@DV?$stream_output_adapter@D@__crt_stdio_output@@@2@@__crt_stdio_output@@AEBA_NI@Z 0000000180056738 f i libucrt:output.obj
 0001:00055740       ?has_flag@?$output_processor@DV?$stream_output_adapter@D@__crt_stdio_output@@V?$positional_parameter_base@DV?$stream_output_adapter@D@__crt_stdio_output@@@2@@__crt_stdio_output@@AEBA_NI@Z 0000000180056740 f i libucrt:output.obj
 0001:00055748       ?has_flag@?$output_processor@DV?$stream_output_adapter@D@__crt_stdio_output@@V?$standard_base@DV?$stream_output_adapter@D@__crt_stdio_output@@@2@@__crt_stdio_output@@AEBA_NI@Z 0000000180056748 f i libucrt:output.obj
 0001:00055750       ?has_flag@?$output_processor@DV?$string_output_adapter@D@__crt_stdio_output@@V?$format_validation_base@DV?$string_output_adapter@D@__crt_stdio_output@@@2@@__crt_stdio_output@@AEBA_NI@Z 0000000180056750 f i libucrt:output.obj
 0001:00055758       ?has_flag@?$output_processor@DV?$string_output_adapter@D@__crt_stdio_output@@V?$positional_parameter_base@DV?$string_output_adapter@D@__crt_stdio_output@@@2@@__crt_stdio_output@@AEBA_NI@Z 0000000180056758 f i libucrt:output.obj
 0001:00055760       ?has_flag@?$output_processor@DV?$string_output_adapter@D@__crt_stdio_output@@V?$standard_base@DV?$string_output_adapter@D@__crt_stdio_output@@@2@@__crt_stdio_output@@AEBA_NI@Z 0000000180056760 f i libucrt:output.obj
 0001:00055768       ?has_flag@?$output_processor@_WV?$stream_output_adapter@_W@__crt_stdio_output@@V?$format_validation_base@_WV?$stream_output_adapter@_W@__crt_stdio_output@@@2@@__crt_stdio_output@@AEBA_NI@Z 0000000180056768 f i libucrt:output.obj
 0001:00055770       ?has_flag@?$output_processor@_WV?$stream_output_adapter@_W@__crt_stdio_output@@V?$positional_parameter_base@_WV?$stream_output_adapter@_W@__crt_stdio_output@@@2@@__crt_stdio_output@@AEBA_NI@Z 0000000180056770 f i libucrt:output.obj
 0001:00055778       ?has_flag@?$output_processor@_WV?$stream_output_adapter@_W@__crt_stdio_output@@V?$standard_base@_WV?$stream_output_adapter@_W@__crt_stdio_output@@@2@@__crt_stdio_output@@AEBA_NI@Z 0000000180056778 f i libucrt:output.obj
 0001:00055780       ?has_flag@?$output_processor@_WV?$string_output_adapter@_W@__crt_stdio_output@@V?$format_validation_base@_WV?$string_output_adapter@_W@__crt_stdio_output@@@2@@__crt_stdio_output@@AEBA_NI@Z 0000000180056780 f i libucrt:output.obj
 0001:00055788       ?has_flag@?$output_processor@_WV?$string_output_adapter@_W@__crt_stdio_output@@V?$positional_parameter_base@_WV?$string_output_adapter@_W@__crt_stdio_output@@@2@@__crt_stdio_output@@AEBA_NI@Z 0000000180056788 f i libucrt:output.obj
 0001:00055790       ?has_flag@?$output_processor@_WV?$string_output_adapter@_W@__crt_stdio_output@@V?$standard_base@_WV?$string_output_adapter@_W@__crt_stdio_output@@@2@@__crt_stdio_output@@AEBA_NI@Z 0000000180056790 f i libucrt:output.obj
 0001:00055798       ?is_positional_parameter_reappearance_consistent@?$positional_parameter_base@DV?$stream_output_adapter@D@__crt_stdio_output@@@__crt_stdio_output@@AEAA_NAEBUparameter_data@12@W4parameter_type@12@DW4length_modifier@2@@Z 0000000180056798 f i libucrt:output.obj
 0001:000559cc       ?is_positional_parameter_reappearance_consistent@?$positional_parameter_base@DV?$string_output_adapter@D@__crt_stdio_output@@@__crt_stdio_output@@AEAA_NAEBUparameter_data@12@W4parameter_type@12@DW4length_modifier@2@@Z 00000001800569cc f i libucrt:output.obj
 0001:00055c00       ?is_positional_parameter_reappearance_consistent@?$positional_parameter_base@_WV?$stream_output_adapter@_W@__crt_stdio_output@@@__crt_stdio_output@@AEAA_NAEBUparameter_data@12@W4parameter_type@12@_WW4length_modifier@2@@Z 0000000180056c00 f i libucrt:output.obj
 0001:00055e04       ?is_positional_parameter_reappearance_consistent@?$positional_parameter_base@_WV?$string_output_adapter@_W@__crt_stdio_output@@@__crt_stdio_output@@AEAA_NAEBUparameter_data@12@W4parameter_type@12@_WW4length_modifier@2@@Z 0000000180056e04 f i libucrt:output.obj
 0001:00056008       ?is_string_backed@__crt_stdio_stream@@QEBA_NXZ 0000000180057008 f i libucrt:output.obj
 0001:00056014       ?maximum_signed_value@__crt_strtox@@YAJK@Z 0000000180057014 f i libucrt:output.obj
 0001:0005601c       ?minimum_signed_value@__crt_strtox@@YAJK@Z 000000018005701c f i libucrt:output.obj
 0001:00056024       ?narrow_null_string@?$output_processor@DV?$stream_output_adapter@D@__crt_stdio_output@@V?$format_validation_base@DV?$stream_output_adapter@D@__crt_stdio_output@@@2@@__crt_stdio_output@@CAPEADXZ 0000000180057024 f i libucrt:output.obj
 0001:0005602c       ?narrow_null_string@?$output_processor@DV?$stream_output_adapter@D@__crt_stdio_output@@V?$positional_parameter_base@DV?$stream_output_adapter@D@__crt_stdio_output@@@2@@__crt_stdio_output@@CAPEADXZ 000000018005702c f i libucrt:output.obj
 0001:00056034       ?narrow_null_string@?$output_processor@DV?$stream_output_adapter@D@__crt_stdio_output@@V?$standard_base@DV?$stream_output_adapter@D@__crt_stdio_output@@@2@@__crt_stdio_output@@CAPEADXZ 0000000180057034 f i libucrt:output.obj
 0001:0005603c       ?narrow_null_string@?$output_processor@DV?$string_output_adapter@D@__crt_stdio_output@@V?$format_validation_base@DV?$string_output_adapter@D@__crt_stdio_output@@@2@@__crt_stdio_output@@CAPEADXZ 000000018005703c f i libucrt:output.obj
 0001:00056044       ?narrow_null_string@?$output_processor@DV?$string_output_adapter@D@__crt_stdio_output@@V?$positional_parameter_base@DV?$string_output_adapter@D@__crt_stdio_output@@@2@@__crt_stdio_output@@CAPEADXZ 0000000180057044 f i libucrt:output.obj
 0001:0005604c       ?narrow_null_string@?$output_processor@DV?$string_output_adapter@D@__crt_stdio_output@@V?$standard_base@DV?$string_output_adapter@D@__crt_stdio_output@@@2@@__crt_stdio_output@@CAPEADXZ 000000018005704c f i libucrt:output.obj
 0001:00056054       ?narrow_null_string@?$output_processor@_WV?$stream_output_adapter@_W@__crt_stdio_output@@V?$format_validation_base@_WV?$stream_output_adapter@_W@__crt_stdio_output@@@2@@__crt_stdio_output@@CAPEADXZ 0000000180057054 f i libucrt:output.obj
 0001:0005605c       ?narrow_null_string@?$output_processor@_WV?$stream_output_adapter@_W@__crt_stdio_output@@V?$positional_parameter_base@_WV?$stream_output_adapter@_W@__crt_stdio_output@@@2@@__crt_stdio_output@@CAPEADXZ 000000018005705c f i libucrt:output.obj
 0001:00056064       ?narrow_null_string@?$output_processor@_WV?$stream_output_adapter@_W@__crt_stdio_output@@V?$standard_base@_WV?$stream_output_adapter@_W@__crt_stdio_output@@@2@@__crt_stdio_output@@CAPEADXZ 0000000180057064 f i libucrt:output.obj
 0001:0005606c       ?narrow_null_string@?$output_processor@_WV?$string_output_adapter@_W@__crt_stdio_output@@V?$format_validation_base@_WV?$string_output_adapter@_W@__crt_stdio_output@@@2@@__crt_stdio_output@@CAPEADXZ 000000018005706c f i libucrt:output.obj
 0001:00056074       ?narrow_null_string@?$output_processor@_WV?$string_output_adapter@_W@__crt_stdio_output@@V?$positional_parameter_base@_WV?$string_output_adapter@_W@__crt_stdio_output@@@2@@__crt_stdio_output@@CAPEADXZ 0000000180057074 f i libucrt:output.obj
 0001:0005607c       ?narrow_null_string@?$output_processor@_WV?$string_output_adapter@_W@__crt_stdio_output@@V?$standard_base@_WV?$string_output_adapter@_W@__crt_stdio_output@@@2@@__crt_stdio_output@@CAPEADXZ 000000018005707c f i libucrt:output.obj
 0001:00056084       ?parse_digit@__crt_strtox@@YAID@Z 0000000180057084 f i libucrt:output.obj
 0001:000560b4       ?parse_digit@__crt_strtox@@YAI_W@Z 00000001800570b4 f i libucrt:output.obj
 0001:00056270       ?parse_int_from_format_string@?$output_processor@DV?$stream_output_adapter@D@__crt_stdio_output@@V?$format_validation_base@DV?$stream_output_adapter@D@__crt_stdio_output@@@2@@__crt_stdio_output@@AEAA_NQEAH@Z 0000000180057270 f i libucrt:output.obj
 0001:00056300       ?parse_int_from_format_string@?$output_processor@DV?$stream_output_adapter@D@__crt_stdio_output@@V?$positional_parameter_base@DV?$stream_output_adapter@D@__crt_stdio_output@@@2@@__crt_stdio_output@@AEAA_NQEAH@Z 0000000180057300 f i libucrt:output.obj
 0001:00056390       ?parse_int_from_format_string@?$output_processor@DV?$stream_output_adapter@D@__crt_stdio_output@@V?$standard_base@DV?$stream_output_adapter@D@__crt_stdio_output@@@2@@__crt_stdio_output@@AEAA_NQEAH@Z 0000000180057390 f i libucrt:output.obj
 0001:00056420       ?parse_int_from_format_string@?$output_processor@DV?$string_output_adapter@D@__crt_stdio_output@@V?$format_validation_base@DV?$string_output_adapter@D@__crt_stdio_output@@@2@@__crt_stdio_output@@AEAA_NQEAH@Z 0000000180057420 f i libucrt:output.obj
 0001:000564b0       ?parse_int_from_format_string@?$output_processor@DV?$string_output_adapter@D@__crt_stdio_output@@V?$positional_parameter_base@DV?$string_output_adapter@D@__crt_stdio_output@@@2@@__crt_stdio_output@@AEAA_NQEAH@Z 00000001800574b0 f i libucrt:output.obj
 0001:00056540       ?parse_int_from_format_string@?$output_processor@DV?$string_output_adapter@D@__crt_stdio_output@@V?$standard_base@DV?$string_output_adapter@D@__crt_stdio_output@@@2@@__crt_stdio_output@@AEAA_NQEAH@Z 0000000180057540 f i libucrt:output.obj
 0001:000565d0       ?parse_int_from_format_string@?$output_processor@_WV?$stream_output_adapter@_W@__crt_stdio_output@@V?$format_validation_base@_WV?$stream_output_adapter@_W@__crt_stdio_output@@@2@@__crt_stdio_output@@AEAA_NQEAH@Z 00000001800575d0 f i libucrt:output.obj
 0001:00056660       ?parse_int_from_format_string@?$output_processor@_WV?$stream_output_adapter@_W@__crt_stdio_output@@V?$positional_parameter_base@_WV?$stream_output_adapter@_W@__crt_stdio_output@@@2@@__crt_stdio_output@@AEAA_NQEAH@Z 0000000180057660 f i libucrt:output.obj
 0001:000566f0       ?parse_int_from_format_string@?$output_processor@_WV?$stream_output_adapter@_W@__crt_stdio_output@@V?$standard_base@_WV?$stream_output_adapter@_W@__crt_stdio_output@@@2@@__crt_stdio_output@@AEAA_NQEAH@Z 00000001800576f0 f i libucrt:output.obj
 0001:00056780       ?parse_int_from_format_string@?$output_processor@_WV?$string_output_adapter@_W@__crt_stdio_output@@V?$format_validation_base@_WV?$string_output_adapter@_W@__crt_stdio_output@@@2@@__crt_stdio_output@@AEAA_NQEAH@Z 0000000180057780 f i libucrt:output.obj
 0001:00056810       ?parse_int_from_format_string@?$output_processor@_WV?$string_output_adapter@_W@__crt_stdio_output@@V?$positional_parameter_base@_WV?$string_output_adapter@_W@__crt_stdio_output@@@2@@__crt_stdio_output@@AEAA_NQEAH@Z 0000000180057810 f i libucrt:output.obj
 0001:000568a0       ?parse_int_from_format_string@?$output_processor@_WV?$string_output_adapter@_W@__crt_stdio_output@@V?$standard_base@_WV?$string_output_adapter@_W@__crt_stdio_output@@@2@@__crt_stdio_output@@AEAA_NQEAH@Z 00000001800578a0 f i libucrt:output.obj
 0001:00056930       ?process@?$output_processor@DV?$stream_output_adapter@D@__crt_stdio_output@@V?$format_validation_base@DV?$stream_output_adapter@D@__crt_stdio_output@@@2@@__crt_stdio_output@@QEAAHXZ 0000000180057930 f i libucrt:output.obj
 0001:00056cc4       ?process@?$output_processor@DV?$stream_output_adapter@D@__crt_stdio_output@@V?$positional_parameter_base@DV?$stream_output_adapter@D@__crt_stdio_output@@@2@@__crt_stdio_output@@QEAAHXZ 0000000180057cc4 f i libucrt:output.obj
 0001:000570ec       ?process@?$output_processor@DV?$stream_output_adapter@D@__crt_stdio_output@@V?$standard_base@DV?$stream_output_adapter@D@__crt_stdio_output@@@2@@__crt_stdio_output@@QEAAHXZ 00000001800580ec f i libucrt:output.obj
 0001:00057478       ?process@?$output_processor@DV?$string_output_adapter@D@__crt_stdio_output@@V?$format_validation_base@DV?$string_output_adapter@D@__crt_stdio_output@@@2@@__crt_stdio_output@@QEAAHXZ 0000000180058478 f i libucrt:output.obj
 0001:00057808       ?process@?$output_processor@DV?$string_output_adapter@D@__crt_stdio_output@@V?$positional_parameter_base@DV?$string_output_adapter@D@__crt_stdio_output@@@2@@__crt_stdio_output@@QEAAHXZ 0000000180058808 f i libucrt:output.obj
 0001:00057c14       ?process@?$output_processor@DV?$string_output_adapter@D@__crt_stdio_output@@V?$standard_base@DV?$string_output_adapter@D@__crt_stdio_output@@@2@@__crt_stdio_output@@QEAAHXZ 0000000180058c14 f i libucrt:output.obj
 0001:00057f98       ?process@?$output_processor@_WV?$stream_output_adapter@_W@__crt_stdio_output@@V?$format_validation_base@_WV?$stream_output_adapter@_W@__crt_stdio_output@@@2@@__crt_stdio_output@@QEAAHXZ 0000000180058f98 f i libucrt:output.obj
 0001:0005827c       ?process@?$output_processor@_WV?$stream_output_adapter@_W@__crt_stdio_output@@V?$positional_parameter_base@_WV?$stream_output_adapter@_W@__crt_stdio_output@@@2@@__crt_stdio_output@@QEAAHXZ 000000018005927c f i libucrt:output.obj
 0001:000585f8       ?process@?$output_processor@_WV?$stream_output_adapter@_W@__crt_stdio_output@@V?$standard_base@_WV?$stream_output_adapter@_W@__crt_stdio_output@@@2@@__crt_stdio_output@@QEAAHXZ 00000001800595f8 f i libucrt:output.obj
 0001:000588b4       ?process@?$output_processor@_WV?$string_output_adapter@_W@__crt_stdio_output@@V?$format_validation_base@_WV?$string_output_adapter@_W@__crt_stdio_output@@@2@@__crt_stdio_output@@QEAAHXZ 00000001800598b4 f i libucrt:output.obj
 0001:00058b90       ?process@?$output_processor@_WV?$string_output_adapter@_W@__crt_stdio_output@@V?$positional_parameter_base@_WV?$string_output_adapter@_W@__crt_stdio_output@@@2@@__crt_stdio_output@@QEAAHXZ 0000000180059b90 f i libucrt:output.obj
 0001:00058f0c       ?process@?$output_processor@_WV?$string_output_adapter@_W@__crt_stdio_output@@V?$standard_base@_WV?$string_output_adapter@_W@__crt_stdio_output@@@2@@__crt_stdio_output@@QEAAHXZ 0000000180059f0c f i libucrt:output.obj
 0001:000591d0       ?public_stream@__crt_stdio_stream@@QEBAPEAU_iobuf@@XZ 000000018005a1d0 f i libucrt:output.obj
 0001:000591d4       ?restore_state@?$c_string_character_source@D@__crt_strtox@@QEAA_NQEBD@Z 000000018005a1d4 f i libucrt:output.obj
 0001:000591dc       ?restore_state@?$c_string_character_source@_W@__crt_strtox@@QEAA_NQEB_W@Z 000000018005a1dc f i libucrt:output.obj
 0001:000591e4       ?save_state@?$c_string_character_source@D@__crt_strtox@@QEBAPEBDXZ 000000018005a1e4 f i libucrt:output.obj
 0001:000591e8       ?save_state@?$c_string_character_source@_W@__crt_strtox@@QEBAPEB_WXZ 000000018005a1e8 f i libucrt:output.obj
 0001:000591ec       ?set@?$cached@H@__crt_cached_ptd_host@@QEAAHH@Z 000000018005a1ec f i libucrt:output.obj
 0001:000591f8       ?set_flag@?$output_processor@DV?$stream_output_adapter@D@__crt_stdio_output@@V?$format_validation_base@DV?$stream_output_adapter@D@__crt_stdio_output@@@2@@__crt_stdio_output@@AEAAXI@Z 000000018005a1f8 f i libucrt:output.obj
 0001:000591fc       ?set_flag@?$output_processor@DV?$stream_output_adapter@D@__crt_stdio_output@@V?$positional_parameter_base@DV?$stream_output_adapter@D@__crt_stdio_output@@@2@@__crt_stdio_output@@AEAAXI@Z 000000018005a1fc f i libucrt:output.obj
 0001:00059200       ?set_flag@?$output_processor@DV?$stream_output_adapter@D@__crt_stdio_output@@V?$standard_base@DV?$stream_output_adapter@D@__crt_stdio_output@@@2@@__crt_stdio_output@@AEAAXI@Z 000000018005a200 f i libucrt:output.obj
 0001:00059204       ?set_flag@?$output_processor@DV?$string_output_adapter@D@__crt_stdio_output@@V?$format_validation_base@DV?$string_output_adapter@D@__crt_stdio_output@@@2@@__crt_stdio_output@@AEAAXI@Z 000000018005a204 f i libucrt:output.obj
 0001:00059208       ?set_flag@?$output_processor@DV?$string_output_adapter@D@__crt_stdio_output@@V?$positional_parameter_base@DV?$string_output_adapter@D@__crt_stdio_output@@@2@@__crt_stdio_output@@AEAAXI@Z 000000018005a208 f i libucrt:output.obj
 0001:0005920c       ?set_flag@?$output_processor@DV?$string_output_adapter@D@__crt_stdio_output@@V?$standard_base@DV?$string_output_adapter@D@__crt_stdio_output@@@2@@__crt_stdio_output@@AEAAXI@Z 000000018005a20c f i libucrt:output.obj
 0001:00059210       ?set_flag@?$output_processor@_WV?$stream_output_adapter@_W@__crt_stdio_output@@V?$format_validation_base@_WV?$stream_output_adapter@_W@__crt_stdio_output@@@2@@__crt_stdio_output@@AEAAXI@Z 000000018005a210 f i libucrt:output.obj
 0001:00059214       ?set_flag@?$output_processor@_WV?$stream_output_adapter@_W@__crt_stdio_output@@V?$positional_parameter_base@_WV?$stream_output_adapter@_W@__crt_stdio_output@@@2@@__crt_stdio_output@@AEAAXI@Z 000000018005a214 f i libucrt:output.obj
 0001:00059218       ?set_flag@?$output_processor@_WV?$stream_output_adapter@_W@__crt_stdio_output@@V?$standard_base@_WV?$stream_output_adapter@_W@__crt_stdio_output@@@2@@__crt_stdio_output@@AEAAXI@Z 000000018005a218 f i libucrt:output.obj
 0001:0005921c       ?set_flag@?$output_processor@_WV?$string_output_adapter@_W@__crt_stdio_output@@V?$format_validation_base@_WV?$string_output_adapter@_W@__crt_stdio_output@@@2@@__crt_stdio_output@@AEAAXI@Z 000000018005a21c f i libucrt:output.obj
 0001:00059220       ?set_flag@?$output_processor@_WV?$string_output_adapter@_W@__crt_stdio_output@@V?$positional_parameter_base@_WV?$string_output_adapter@_W@__crt_stdio_output@@@2@@__crt_stdio_output@@AEAAXI@Z 000000018005a220 f i libucrt:output.obj
 0001:00059224       ?set_flag@?$output_processor@_WV?$string_output_adapter@_W@__crt_stdio_output@@V?$standard_base@_WV?$string_output_adapter@_W@__crt_stdio_output@@@2@@__crt_stdio_output@@AEAAXI@Z 000000018005a224 f i libucrt:output.obj
 0001:00059228       ?should_format@?$positional_parameter_base@DV?$stream_output_adapter@D@__crt_stdio_output@@@__crt_stdio_output@@IEAA_NXZ 000000018005a228 f i libucrt:output.obj
 0001:00059240       ?should_format@?$positional_parameter_base@DV?$string_output_adapter@D@__crt_stdio_output@@@__crt_stdio_output@@IEAA_NXZ 000000018005a240 f i libucrt:output.obj
 0001:00059258       ?should_format@?$positional_parameter_base@_WV?$stream_output_adapter@_W@__crt_stdio_output@@@__crt_stdio_output@@IEAA_NXZ 000000018005a258 f i libucrt:output.obj
 0001:00059270       ?should_format@?$positional_parameter_base@_WV?$string_output_adapter@_W@__crt_stdio_output@@@__crt_stdio_output@@IEAA_NXZ 000000018005a270 f i libucrt:output.obj
 0001:00059288       ?should_format@?$standard_base@DV?$stream_output_adapter@D@__crt_stdio_output@@@__crt_stdio_output@@IEAA_NXZ 000000018005a288 f i libucrt:output.obj
 0001:0005928c       ?should_format@?$standard_base@DV?$string_output_adapter@D@__crt_stdio_output@@@__crt_stdio_output@@IEAA_NXZ 000000018005a28c f i libucrt:output.obj
 0001:00059290       ?should_format@?$standard_base@_WV?$stream_output_adapter@_W@__crt_stdio_output@@@__crt_stdio_output@@IEAA_NXZ 000000018005a290 f i libucrt:output.obj
 0001:00059294       ?should_format@?$standard_base@_WV?$string_output_adapter@_W@__crt_stdio_output@@@__crt_stdio_output@@IEAA_NXZ 000000018005a294 f i libucrt:output.obj
 0001:00059298       ?should_skip_normal_state_processing@?$positional_parameter_base@DV?$stream_output_adapter@D@__crt_stdio_output@@@__crt_stdio_output@@IEAA_NXZ 000000018005a298 f i libucrt:output.obj
 0001:000592c0       ?should_skip_normal_state_processing@?$positional_parameter_base@DV?$string_output_adapter@D@__crt_stdio_output@@@__crt_stdio_output@@IEAA_NXZ 000000018005a2c0 f i libucrt:output.obj
 0001:000592e8       ?should_skip_normal_state_processing@?$positional_parameter_base@_WV?$stream_output_adapter@_W@__crt_stdio_output@@@__crt_stdio_output@@IEAA_NXZ 000000018005a2e8 f i libucrt:output.obj
 0001:00059310       ?should_skip_normal_state_processing@?$positional_parameter_base@_WV?$string_output_adapter@_W@__crt_stdio_output@@@__crt_stdio_output@@IEAA_NXZ 000000018005a310 f i libucrt:output.obj
 0001:00059338       ?should_skip_normal_state_processing@?$standard_base@DV?$stream_output_adapter@D@__crt_stdio_output@@@__crt_stdio_output@@IEAA_NXZ 000000018005a338 f i libucrt:output.obj
 0001:0005933c       ?should_skip_normal_state_processing@?$standard_base@DV?$string_output_adapter@D@__crt_stdio_output@@@__crt_stdio_output@@IEAA_NXZ 000000018005a33c f i libucrt:output.obj
 0001:00059340       ?should_skip_normal_state_processing@?$standard_base@_WV?$stream_output_adapter@_W@__crt_stdio_output@@@__crt_stdio_output@@IEAA_NXZ 000000018005a340 f i libucrt:output.obj
 0001:00059344       ?should_skip_normal_state_processing@?$standard_base@_WV?$string_output_adapter@_W@__crt_stdio_output@@@__crt_stdio_output@@IEAA_NXZ 000000018005a344 f i libucrt:output.obj
 0001:00059348       ?should_skip_type_state_output@?$positional_parameter_base@DV?$stream_output_adapter@D@__crt_stdio_output@@@__crt_stdio_output@@IEBA_NXZ 000000018005a348 f i libucrt:output.obj
 0001:00059364       ?should_skip_type_state_output@?$positional_parameter_base@DV?$string_output_adapter@D@__crt_stdio_output@@@__crt_stdio_output@@IEBA_NXZ 000000018005a364 f i libucrt:output.obj
 0001:00059380       ?should_skip_type_state_output@?$positional_parameter_base@_WV?$stream_output_adapter@_W@__crt_stdio_output@@@__crt_stdio_output@@IEBA_NXZ 000000018005a380 f i libucrt:output.obj
 0001:0005939c       ?should_skip_type_state_output@?$positional_parameter_base@_WV?$string_output_adapter@_W@__crt_stdio_output@@@__crt_stdio_output@@IEBA_NXZ 000000018005a39c f i libucrt:output.obj
 0001:000593b8       ?should_skip_type_state_output@?$standard_base@DV?$stream_output_adapter@D@__crt_stdio_output@@@__crt_stdio_output@@IEBA_NXZ 000000018005a3b8 f i libucrt:output.obj
 0001:000593bc       ?should_skip_type_state_output@?$standard_base@DV?$string_output_adapter@D@__crt_stdio_output@@@__crt_stdio_output@@IEBA_NXZ 000000018005a3bc f i libucrt:output.obj
 0001:000593c0       ?should_skip_type_state_output@?$standard_base@_WV?$stream_output_adapter@_W@__crt_stdio_output@@@__crt_stdio_output@@IEBA_NXZ 000000018005a3c0 f i libucrt:output.obj
 0001:000593c4       ?should_skip_type_state_output@?$standard_base@_WV?$string_output_adapter@_W@__crt_stdio_output@@@__crt_stdio_output@@IEBA_NXZ 000000018005a3c4 f i libucrt:output.obj
 0001:000593c8       ?state_case_dot@?$output_processor@DV?$stream_output_adapter@D@__crt_stdio_output@@V?$format_validation_base@DV?$stream_output_adapter@D@__crt_stdio_output@@@2@@__crt_stdio_output@@AEAA_NXZ 000000018005a3c8 f i libucrt:output.obj
 0001:000593d0       ?state_case_dot@?$output_processor@DV?$stream_output_adapter@D@__crt_stdio_output@@V?$positional_parameter_base@DV?$stream_output_adapter@D@__crt_stdio_output@@@2@@__crt_stdio_output@@AEAA_NXZ 000000018005a3d0 f i libucrt:output.obj
 0001:000593d8       ?state_case_dot@?$output_processor@DV?$stream_output_adapter@D@__crt_stdio_output@@V?$standard_base@DV?$stream_output_adapter@D@__crt_stdio_output@@@2@@__crt_stdio_output@@AEAA_NXZ 000000018005a3d8 f i libucrt:output.obj
 0001:000593e0       ?state_case_dot@?$output_processor@DV?$string_output_adapter@D@__crt_stdio_output@@V?$format_validation_base@DV?$string_output_adapter@D@__crt_stdio_output@@@2@@__crt_stdio_output@@AEAA_NXZ 000000018005a3e0 f i libucrt:output.obj
 0001:000593e8       ?state_case_dot@?$output_processor@DV?$string_output_adapter@D@__crt_stdio_output@@V?$positional_parameter_base@DV?$string_output_adapter@D@__crt_stdio_output@@@2@@__crt_stdio_output@@AEAA_NXZ 000000018005a3e8 f i libucrt:output.obj
 0001:000593f0       ?state_case_dot@?$output_processor@DV?$string_output_adapter@D@__crt_stdio_output@@V?$standard_base@DV?$string_output_adapter@D@__crt_stdio_output@@@2@@__crt_stdio_output@@AEAA_NXZ 000000018005a3f0 f i libucrt:output.obj
 0001:000593f8       ?state_case_dot@?$output_processor@_WV?$stream_output_adapter@_W@__crt_stdio_output@@V?$format_validation_base@_WV?$stream_output_adapter@_W@__crt_stdio_output@@@2@@__crt_stdio_output@@AEAA_NXZ 000000018005a3f8 f i libucrt:output.obj
 0001:00059400       ?state_case_dot@?$output_processor@_WV?$stream_output_adapter@_W@__crt_stdio_output@@V?$positional_parameter_base@_WV?$stream_output_adapter@_W@__crt_stdio_output@@@2@@__crt_stdio_output@@AEAA_NXZ 000000018005a400 f i libucrt:output.obj
 0001:00059408       ?state_case_dot@?$output_processor@_WV?$stream_output_adapter@_W@__crt_stdio_output@@V?$standard_base@_WV?$stream_output_adapter@_W@__crt_stdio_output@@@2@@__crt_stdio_output@@AEAA_NXZ 000000018005a408 f i libucrt:output.obj
 0001:00059410       ?state_case_dot@?$output_processor@_WV?$string_output_adapter@_W@__crt_stdio_output@@V?$format_validation_base@_WV?$string_output_adapter@_W@__crt_stdio_output@@@2@@__crt_stdio_output@@AEAA_NXZ 000000018005a410 f i libucrt:output.obj
 0001:00059418       ?state_case_dot@?$output_processor@_WV?$string_output_adapter@_W@__crt_stdio_output@@V?$positional_parameter_base@_WV?$string_output_adapter@_W@__crt_stdio_output@@@2@@__crt_stdio_output@@AEAA_NXZ 000000018005a418 f i libucrt:output.obj
 0001:00059420       ?state_case_dot@?$output_processor@_WV?$string_output_adapter@_W@__crt_stdio_output@@V?$standard_base@_WV?$string_output_adapter@_W@__crt_stdio_output@@@2@@__crt_stdio_output@@AEAA_NXZ 000000018005a420 f i libucrt:output.obj
 0001:00059428       ?state_case_flag@?$output_processor@DV?$stream_output_adapter@D@__crt_stdio_output@@V?$format_validation_base@DV?$stream_output_adapter@D@__crt_stdio_output@@@2@@__crt_stdio_output@@AEAA_NXZ 000000018005a428 f i libucrt:output.obj
 0001:00059460       ?state_case_flag@?$output_processor@DV?$stream_output_adapter@D@__crt_stdio_output@@V?$positional_parameter_base@DV?$stream_output_adapter@D@__crt_stdio_output@@@2@@__crt_stdio_output@@AEAA_NXZ 000000018005a460 f i libucrt:output.obj
 0001:00059498       ?state_case_flag@?$output_processor@DV?$stream_output_adapter@D@__crt_stdio_output@@V?$standard_base@DV?$stream_output_adapter@D@__crt_stdio_output@@@2@@__crt_stdio_output@@AEAA_NXZ 000000018005a498 f i libucrt:output.obj
 0001:000594d0       ?state_case_flag@?$output_processor@DV?$string_output_adapter@D@__crt_stdio_output@@V?$format_validation_base@DV?$string_output_adapter@D@__crt_stdio_output@@@2@@__crt_stdio_output@@AEAA_NXZ 000000018005a4d0 f i libucrt:output.obj
 0001:00059508       ?state_case_flag@?$output_processor@DV?$string_output_adapter@D@__crt_stdio_output@@V?$positional_parameter_base@DV?$string_output_adapter@D@__crt_stdio_output@@@2@@__crt_stdio_output@@AEAA_NXZ 000000018005a508 f i libucrt:output.obj
 0001:00059540       ?state_case_flag@?$output_processor@DV?$string_output_adapter@D@__crt_stdio_output@@V?$standard_base@DV?$string_output_adapter@D@__crt_stdio_output@@@2@@__crt_stdio_output@@AEAA_NXZ 000000018005a540 f i libucrt:output.obj
 0001:00059578       ?state_case_flag@?$output_processor@_WV?$stream_output_adapter@_W@__crt_stdio_output@@V?$format_validation_base@_WV?$stream_output_adapter@_W@__crt_stdio_output@@@2@@__crt_stdio_output@@AEAA_NXZ 000000018005a578 f i libucrt:output.obj
 0001:000595bc       ?state_case_flag@?$output_processor@_WV?$stream_output_adapter@_W@__crt_stdio_output@@V?$positional_parameter_base@_WV?$stream_output_adapter@_W@__crt_stdio_output@@@2@@__crt_stdio_output@@AEAA_NXZ 000000018005a5bc f i libucrt:output.obj
 0001:00059600       ?state_case_flag@?$output_processor@_WV?$stream_output_adapter@_W@__crt_stdio_output@@V?$standard_base@_WV?$stream_output_adapter@_W@__crt_stdio_output@@@2@@__crt_stdio_output@@AEAA_NXZ 000000018005a600 f i libucrt:output.obj
 0001:00059644       ?state_case_flag@?$output_processor@_WV?$string_output_adapter@_W@__crt_stdio_output@@V?$format_validation_base@_WV?$string_output_adapter@_W@__crt_stdio_output@@@2@@__crt_stdio_output@@AEAA_NXZ 000000018005a644 f i libucrt:output.obj
 0001:00059688       ?state_case_flag@?$output_processor@_WV?$string_output_adapter@_W@__crt_stdio_output@@V?$positional_parameter_base@_WV?$string_output_adapter@_W@__crt_stdio_output@@@2@@__crt_stdio_output@@AEAA_NXZ 000000018005a688 f i libucrt:output.obj
 0001:000596cc       ?state_case_flag@?$output_processor@_WV?$string_output_adapter@_W@__crt_stdio_output@@V?$standard_base@_WV?$string_output_adapter@_W@__crt_stdio_output@@@2@@__crt_stdio_output@@AEAA_NXZ 000000018005a6cc f i libucrt:output.obj
 0001:00059710       ?state_case_normal@?$output_processor@DV?$stream_output_adapter@D@__crt_stdio_output@@V?$format_validation_base@DV?$stream_output_adapter@D@__crt_stdio_output@@@2@@__crt_stdio_output@@AEAA_NXZ 000000018005a710 f i libucrt:output.obj
 0001:00059864       ?state_case_normal@?$output_processor@DV?$stream_output_adapter@D@__crt_stdio_output@@V?$positional_parameter_base@DV?$stream_output_adapter@D@__crt_stdio_output@@@2@@__crt_stdio_output@@AEAA_NXZ 000000018005a864 f i libucrt:output.obj
 0001:000599e0       ?state_case_normal@?$output_processor@DV?$stream_output_adapter@D@__crt_stdio_output@@V?$standard_base@DV?$stream_output_adapter@D@__crt_stdio_output@@@2@@__crt_stdio_output@@AEAA_NXZ 000000018005a9e0 f i libucrt:output.obj
 0001:00059b34       ?state_case_normal@?$output_processor@DV?$string_output_adapter@D@__crt_stdio_output@@V?$format_validation_base@DV?$string_output_adapter@D@__crt_stdio_output@@@2@@__crt_stdio_output@@AEAA_NXZ 000000018005ab34 f i libucrt:output.obj
 0001:00059c80       ?state_case_normal@?$output_processor@DV?$string_output_adapter@D@__crt_stdio_output@@V?$positional_parameter_base@DV?$string_output_adapter@D@__crt_stdio_output@@@2@@__crt_stdio_output@@AEAA_NXZ 000000018005ac80 f i libucrt:output.obj
 0001:00059df8       ?state_case_normal@?$output_processor@DV?$string_output_adapter@D@__crt_stdio_output@@V?$standard_base@DV?$string_output_adapter@D@__crt_stdio_output@@@2@@__crt_stdio_output@@AEAA_NXZ 000000018005adf8 f i libucrt:output.obj
 0001:00059f44       ?state_case_normal@?$output_processor@_WV?$stream_output_adapter@_W@__crt_stdio_output@@V?$format_validation_base@_WV?$stream_output_adapter@_W@__crt_stdio_output@@@2@@__crt_stdio_output@@AEAA_NXZ 000000018005af44 f i libucrt:output.obj
 0001:00059fa0       ?state_case_normal@?$output_processor@_WV?$stream_output_adapter@_W@__crt_stdio_output@@V?$positional_parameter_base@_WV?$stream_output_adapter@_W@__crt_stdio_output@@@2@@__crt_stdio_output@@AEAA_NXZ 000000018005afa0 f i libucrt:output.obj
 0001:0005a020       ?state_case_normal@?$output_processor@_WV?$stream_output_adapter@_W@__crt_stdio_output@@V?$standard_base@_WV?$stream_output_adapter@_W@__crt_stdio_output@@@2@@__crt_stdio_output@@AEAA_NXZ 000000018005b020 f i libucrt:output.obj
 0001:0005a07c       ?state_case_normal@?$output_processor@_WV?$string_output_adapter@_W@__crt_stdio_output@@V?$format_validation_base@_WV?$string_output_adapter@_W@__crt_stdio_output@@@2@@__crt_stdio_output@@AEAA_NXZ 000000018005b07c f i libucrt:output.obj
 0001:0005a0d0       ?state_case_normal@?$output_processor@_WV?$string_output_adapter@_W@__crt_stdio_output@@V?$positional_parameter_base@_WV?$string_output_adapter@_W@__crt_stdio_output@@@2@@__crt_stdio_output@@AEAA_NXZ 000000018005b0d0 f i libucrt:output.obj
 0001:0005a148       ?state_case_normal@?$output_processor@_WV?$string_output_adapter@_W@__crt_stdio_output@@V?$standard_base@_WV?$string_output_adapter@_W@__crt_stdio_output@@@2@@__crt_stdio_output@@AEAA_NXZ 000000018005b148 f i libucrt:output.obj
 0001:0005a19c       ?state_case_normal_common@?$output_processor@DV?$stream_output_adapter@D@__crt_stdio_output@@V?$format_validation_base@DV?$stream_output_adapter@D@__crt_stdio_output@@@2@@__crt_stdio_output@@AEAA_NXZ 000000018005b19c f i libucrt:output.obj
 0001:0005a2c4       ?state_case_normal_common@?$output_processor@DV?$stream_output_adapter@D@__crt_stdio_output@@V?$positional_parameter_base@DV?$stream_output_adapter@D@__crt_stdio_output@@@2@@__crt_stdio_output@@AEAA_NXZ 000000018005b2c4 f i libucrt:output.obj
 0001:0005a3ec       ?state_case_normal_common@?$output_processor@DV?$stream_output_adapter@D@__crt_stdio_output@@V?$standard_base@DV?$stream_output_adapter@D@__crt_stdio_output@@@2@@__crt_stdio_output@@AEAA_NXZ 000000018005b3ec f i libucrt:output.obj
 0001:0005a514       ?state_case_normal_common@?$output_processor@DV?$string_output_adapter@D@__crt_stdio_output@@V?$format_validation_base@DV?$string_output_adapter@D@__crt_stdio_output@@@2@@__crt_stdio_output@@AEAA_NXZ 000000018005b514 f i libucrt:output.obj
 0001:0005a638       ?state_case_normal_common@?$output_processor@DV?$string_output_adapter@D@__crt_stdio_output@@V?$positional_parameter_base@DV?$string_output_adapter@D@__crt_stdio_output@@@2@@__crt_stdio_output@@AEAA_NXZ 000000018005b638 f i libucrt:output.obj
 0001:0005a75c       ?state_case_normal_common@?$output_processor@DV?$string_output_adapter@D@__crt_stdio_output@@V?$standard_base@DV?$string_output_adapter@D@__crt_stdio_output@@@2@@__crt_stdio_output@@AEAA_NXZ 000000018005b75c f i libucrt:output.obj
 0001:0005a880       ?state_case_normal_common@?$output_processor@_WV?$stream_output_adapter@_W@__crt_stdio_output@@V?$format_validation_base@_WV?$stream_output_adapter@_W@__crt_stdio_output@@@2@@__crt_stdio_output@@AEAA_NXZ 000000018005b880 f i libucrt:output.obj
 0001:0005a8dc       ?state_case_normal_common@?$output_processor@_WV?$stream_output_adapter@_W@__crt_stdio_output@@V?$positional_parameter_base@_WV?$stream_output_adapter@_W@__crt_stdio_output@@@2@@__crt_stdio_output@@AEAA_NXZ 000000018005b8dc f i libucrt:output.obj
 0001:0005a938       ?state_case_normal_common@?$output_processor@_WV?$stream_output_adapter@_W@__crt_stdio_output@@V?$standard_base@_WV?$stream_output_adapter@_W@__crt_stdio_output@@@2@@__crt_stdio_output@@AEAA_NXZ 000000018005b938 f i libucrt:output.obj
 0001:0005a994       ?state_case_normal_common@?$output_processor@_WV?$string_output_adapter@_W@__crt_stdio_output@@V?$format_validation_base@_WV?$string_output_adapter@_W@__crt_stdio_output@@@2@@__crt_stdio_output@@AEAA_NXZ 000000018005b994 f i libucrt:output.obj
 0001:0005a9e8       ?state_case_normal_common@?$output_processor@_WV?$string_output_adapter@_W@__crt_stdio_output@@V?$positional_parameter_base@_WV?$string_output_adapter@_W@__crt_stdio_output@@@2@@__crt_stdio_output@@AEAA_NXZ 000000018005b9e8 f i libucrt:output.obj
 0001:0005aa3c       ?state_case_normal_common@?$output_processor@_WV?$string_output_adapter@_W@__crt_stdio_output@@V?$standard_base@_WV?$string_output_adapter@_W@__crt_stdio_output@@@2@@__crt_stdio_output@@AEAA_NXZ 000000018005ba3c f i libucrt:output.obj
 0001:0005aa90       ?state_case_normal_tchar@?$output_processor@DV?$stream_output_adapter@D@__crt_stdio_output@@V?$format_validation_base@DV?$stream_output_adapter@D@__crt_stdio_output@@@2@@__crt_stdio_output@@AEAA_ND@Z 000000018005ba90 f i libucrt:output.obj
 0001:0005ab6c       ?state_case_normal_tchar@?$output_processor@DV?$stream_output_adapter@D@__crt_stdio_output@@V?$positional_parameter_base@DV?$stream_output_adapter@D@__crt_stdio_output@@@2@@__crt_stdio_output@@AEAA_ND@Z 000000018005bb6c f i libucrt:output.obj
 0001:0005ac48       ?state_case_normal_tchar@?$output_processor@DV?$stream_output_adapter@D@__crt_stdio_output@@V?$standard_base@DV?$stream_output_adapter@D@__crt_stdio_output@@@2@@__crt_stdio_output@@AEAA_ND@Z 000000018005bc48 f i libucrt:output.obj
 0001:0005ad24       ?state_case_normal_tchar@?$output_processor@DV?$string_output_adapter@D@__crt_stdio_output@@V?$format_validation_base@DV?$string_output_adapter@D@__crt_stdio_output@@@2@@__crt_stdio_output@@AEAA_ND@Z 000000018005bd24 f i libucrt:output.obj
 0001:0005ae00       ?state_case_normal_tchar@?$output_processor@DV?$string_output_adapter@D@__crt_stdio_output@@V?$positional_parameter_base@DV?$string_output_adapter@D@__crt_stdio_output@@@2@@__crt_stdio_output@@AEAA_ND@Z 000000018005be00 f i libucrt:output.obj
 0001:0005aedc       ?state_case_normal_tchar@?$output_processor@DV?$string_output_adapter@D@__crt_stdio_output@@V?$standard_base@DV?$string_output_adapter@D@__crt_stdio_output@@@2@@__crt_stdio_output@@AEAA_ND@Z 000000018005bedc f i libucrt:output.obj
 0001:0005afb8       ?state_case_normal_tchar@?$output_processor@_WV?$stream_output_adapter@_W@__crt_stdio_output@@V?$format_validation_base@_WV?$stream_output_adapter@_W@__crt_stdio_output@@@2@@__crt_stdio_output@@AEAA_N_W@Z 000000018005bfb8 f i libucrt:output.obj
 0001:0005afc0       ?state_case_normal_tchar@?$output_processor@_WV?$stream_output_adapter@_W@__crt_stdio_output@@V?$positional_parameter_base@_WV?$stream_output_adapter@_W@__crt_stdio_output@@@2@@__crt_stdio_output@@AEAA_N_W@Z 000000018005bfc0 f i libucrt:output.obj
 0001:0005afc8       ?state_case_normal_tchar@?$output_processor@_WV?$stream_output_adapter@_W@__crt_stdio_output@@V?$standard_base@_WV?$stream_output_adapter@_W@__crt_stdio_output@@@2@@__crt_stdio_output@@AEAA_N_W@Z 000000018005bfc8 f i libucrt:output.obj
 0001:0005afd0       ?state_case_normal_tchar@?$output_processor@_WV?$string_output_adapter@_W@__crt_stdio_output@@V?$format_validation_base@_WV?$string_output_adapter@_W@__crt_stdio_output@@@2@@__crt_stdio_output@@AEAA_N_W@Z 000000018005bfd0 f i libucrt:output.obj
 0001:0005afd8       ?state_case_normal_tchar@?$output_processor@_WV?$string_output_adapter@_W@__crt_stdio_output@@V?$positional_parameter_base@_WV?$string_output_adapter@_W@__crt_stdio_output@@@2@@__crt_stdio_output@@AEAA_N_W@Z 000000018005bfd8 f i libucrt:output.obj
 0001:0005afe0       ?state_case_normal_tchar@?$output_processor@_WV?$string_output_adapter@_W@__crt_stdio_output@@V?$standard_base@_WV?$string_output_adapter@_W@__crt_stdio_output@@@2@@__crt_stdio_output@@AEAA_N_W@Z 000000018005bfe0 f i libucrt:output.obj
 0001:0005afe8       ?state_case_percent@?$output_processor@DV?$stream_output_adapter@D@__crt_stdio_output@@V?$format_validation_base@DV?$stream_output_adapter@D@__crt_stdio_output@@@2@@__crt_stdio_output@@AEAA_NXZ 000000018005bfe8 f i libucrt:output.obj
 0001:0005b000       ?state_case_percent@?$output_processor@DV?$stream_output_adapter@D@__crt_stdio_output@@V?$positional_parameter_base@DV?$stream_output_adapter@D@__crt_stdio_output@@@2@@__crt_stdio_output@@AEAA_NXZ 000000018005c000 f i libucrt:output.obj
 0001:0005b018       ?state_case_percent@?$output_processor@DV?$stream_output_adapter@D@__crt_stdio_output@@V?$standard_base@DV?$stream_output_adapter@D@__crt_stdio_output@@@2@@__crt_stdio_output@@AEAA_NXZ 000000018005c018 f i libucrt:output.obj
 0001:0005b030       ?state_case_percent@?$output_processor@DV?$string_output_adapter@D@__crt_stdio_output@@V?$format_validation_base@DV?$string_output_adapter@D@__crt_stdio_output@@@2@@__crt_stdio_output@@AEAA_NXZ 000000018005c030 f i libucrt:output.obj
 0001:0005b048       ?state_case_percent@?$output_processor@DV?$string_output_adapter@D@__crt_stdio_output@@V?$positional_parameter_base@DV?$string_output_adapter@D@__crt_stdio_output@@@2@@__crt_stdio_output@@AEAA_NXZ 000000018005c048 f i libucrt:output.obj
 0001:0005b060       ?state_case_percent@?$output_processor@DV?$string_output_adapter@D@__crt_stdio_output@@V?$standard_base@DV?$string_output_adapter@D@__crt_stdio_output@@@2@@__crt_stdio_output@@AEAA_NXZ 000000018005c060 f i libucrt:output.obj
 0001:0005b078       ?state_case_percent@?$output_processor@_WV?$stream_output_adapter@_W@__crt_stdio_output@@V?$format_validation_base@_WV?$stream_output_adapter@_W@__crt_stdio_output@@@2@@__crt_stdio_output@@AEAA_NXZ 000000018005c078 f i libucrt:output.obj
 0001:0005b090       ?state_case_percent@?$output_processor@_WV?$stream_output_adapter@_W@__crt_stdio_output@@V?$positional_parameter_base@_WV?$stream_output_adapter@_W@__crt_stdio_output@@@2@@__crt_stdio_output@@AEAA_NXZ 000000018005c090 f i libucrt:output.obj
 0001:0005b0a8       ?state_case_percent@?$output_processor@_WV?$stream_output_adapter@_W@__crt_stdio_output@@V?$standard_base@_WV?$stream_output_adapter@_W@__crt_stdio_output@@@2@@__crt_stdio_output@@AEAA_NXZ 000000018005c0a8 f i libucrt:output.obj
 0001:0005b0c0       ?state_case_percent@?$output_processor@_WV?$string_output_adapter@_W@__crt_stdio_output@@V?$format_validation_base@_WV?$string_output_adapter@_W@__crt_stdio_output@@@2@@__crt_stdio_output@@AEAA_NXZ 000000018005c0c0 f i libucrt:output.obj
 0001:0005b0d8       ?state_case_percent@?$output_processor@_WV?$string_output_adapter@_W@__crt_stdio_output@@V?$positional_parameter_base@_WV?$string_output_adapter@_W@__crt_stdio_output@@@2@@__crt_stdio_output@@AEAA_NXZ 000000018005c0d8 f i libucrt:output.obj
 0001:0005b0f0       ?state_case_percent@?$output_processor@_WV?$string_output_adapter@_W@__crt_stdio_output@@V?$standard_base@_WV?$string_output_adapter@_W@__crt_stdio_output@@@2@@__crt_stdio_output@@AEAA_NXZ 000000018005c0f0 f i libucrt:output.obj
 0001:0005b108       ?state_case_precision@?$output_processor@DV?$stream_output_adapter@D@__crt_stdio_output@@V?$format_validation_base@DV?$stream_output_adapter@D@__crt_stdio_output@@@2@@__crt_stdio_output@@AEAA_NXZ 000000018005c108 f i libucrt:output.obj
 0001:0005b130       ?state_case_precision@?$output_processor@DV?$stream_output_adapter@D@__crt_stdio_output@@V?$positional_parameter_base@DV?$stream_output_adapter@D@__crt_stdio_output@@@2@@__crt_stdio_output@@AEAA_NXZ 000000018005c130 f i libucrt:output.obj
 0001:0005b17c       ?state_case_precision@?$output_processor@DV?$stream_output_adapter@D@__crt_stdio_output@@V?$standard_base@DV?$stream_output_adapter@D@__crt_stdio_output@@@2@@__crt_stdio_output@@AEAA_NXZ 000000018005c17c f i libucrt:output.obj
 0001:0005b1a4       ?state_case_precision@?$output_processor@DV?$string_output_adapter@D@__crt_stdio_output@@V?$format_validation_base@DV?$string_output_adapter@D@__crt_stdio_output@@@2@@__crt_stdio_output@@AEAA_NXZ 000000018005c1a4 f i libucrt:output.obj
 0001:0005b1cc       ?state_case_precision@?$output_processor@DV?$string_output_adapter@D@__crt_stdio_output@@V?$positional_parameter_base@DV?$string_output_adapter@D@__crt_stdio_output@@@2@@__crt_stdio_output@@AEAA_NXZ 000000018005c1cc f i libucrt:output.obj
 0001:0005b218       ?state_case_precision@?$output_processor@DV?$string_output_adapter@D@__crt_stdio_output@@V?$standard_base@DV?$string_output_adapter@D@__crt_stdio_output@@@2@@__crt_stdio_output@@AEAA_NXZ 000000018005c218 f i libucrt:output.obj
 0001:0005b240       ?state_case_precision@?$output_processor@_WV?$stream_output_adapter@_W@__crt_stdio_output@@V?$format_validation_base@_WV?$stream_output_adapter@_W@__crt_stdio_output@@@2@@__crt_stdio_output@@AEAA_NXZ 000000018005c240 f i libucrt:output.obj
 0001:0005b268       ?state_case_precision@?$output_processor@_WV?$stream_output_adapter@_W@__crt_stdio_output@@V?$positional_parameter_base@_WV?$stream_output_adapter@_W@__crt_stdio_output@@@2@@__crt_stdio_output@@AEAA_NXZ 000000018005c268 f i libucrt:output.obj
 0001:0005b2b4       ?state_case_precision@?$output_processor@_WV?$stream_output_adapter@_W@__crt_stdio_output@@V?$standard_base@_WV?$stream_output_adapter@_W@__crt_stdio_output@@@2@@__crt_stdio_output@@AEAA_NXZ 000000018005c2b4 f i libucrt:output.obj
 0001:0005b2dc       ?state_case_precision@?$output_processor@_WV?$string_output_adapter@_W@__crt_stdio_output@@V?$format_validation_base@_WV?$string_output_adapter@_W@__crt_stdio_output@@@2@@__crt_stdio_output@@AEAA_NXZ 000000018005c2dc f i libucrt:output.obj
 0001:0005b304       ?state_case_precision@?$output_processor@_WV?$string_output_adapter@_W@__crt_stdio_output@@V?$positional_parameter_base@_WV?$string_output_adapter@_W@__crt_stdio_output@@@2@@__crt_stdio_output@@AEAA_NXZ 000000018005c304 f i libucrt:output.obj
 0001:0005b350       ?state_case_precision@?$output_processor@_WV?$string_output_adapter@_W@__crt_stdio_output@@V?$standard_base@_WV?$string_output_adapter@_W@__crt_stdio_output@@@2@@__crt_stdio_output@@AEAA_NXZ 000000018005c350 f i libucrt:output.obj
 0001:0005b378       ?state_case_size@?$output_processor@DV?$stream_output_adapter@D@__crt_stdio_output@@V?$format_validation_base@DV?$stream_output_adapter@D@__crt_stdio_output@@@2@@__crt_stdio_output@@AEAA_NXZ 000000018005c378 f i libucrt:output.obj
 0001:0005b4fc       ?state_case_size@?$output_processor@DV?$stream_output_adapter@D@__crt_stdio_output@@V?$positional_parameter_base@DV?$stream_output_adapter@D@__crt_stdio_output@@@2@@__crt_stdio_output@@AEAA_NXZ 000000018005c4fc f i libucrt:output.obj
 0001:0005b680       ?state_case_size@?$output_processor@DV?$stream_output_adapter@D@__crt_stdio_output@@V?$standard_base@DV?$stream_output_adapter@D@__crt_stdio_output@@@2@@__crt_stdio_output@@AEAA_NXZ 000000018005c680 f i libucrt:output.obj
 0001:0005b804       ?state_case_size@?$output_processor@DV?$string_output_adapter@D@__crt_stdio_output@@V?$format_validation_base@DV?$string_output_adapter@D@__crt_stdio_output@@@2@@__crt_stdio_output@@AEAA_NXZ 000000018005c804 f i libucrt:output.obj
 0001:0005b988       ?state_case_size@?$output_processor@DV?$string_output_adapter@D@__crt_stdio_output@@V?$positional_parameter_base@DV?$string_output_adapter@D@__crt_stdio_output@@@2@@__crt_stdio_output@@AEAA_NXZ 000000018005c988 f i libucrt:output.obj
 0001:0005bb0c       ?state_case_size@?$output_processor@DV?$string_output_adapter@D@__crt_stdio_output@@V?$standard_base@DV?$string_output_adapter@D@__crt_stdio_output@@@2@@__crt_stdio_output@@AEAA_NXZ 000000018005cb0c f i libucrt:output.obj
 0001:0005bc90       ?state_case_size@?$output_processor@_WV?$stream_output_adapter@_W@__crt_stdio_output@@V?$format_validation_base@_WV?$stream_output_adapter@_W@__crt_stdio_output@@@2@@__crt_stdio_output@@AEAA_NXZ 000000018005cc90 f i libucrt:output.obj
 0001:0005be3c       ?state_case_size@?$output_processor@_WV?$stream_output_adapter@_W@__crt_stdio_output@@V?$positional_parameter_base@_WV?$stream_output_adapter@_W@__crt_stdio_output@@@2@@__crt_stdio_output@@AEAA_NXZ 000000018005ce3c f i libucrt:output.obj
 0001:0005bfe8       ?state_case_size@?$output_processor@_WV?$stream_output_adapter@_W@__crt_stdio_output@@V?$standard_base@_WV?$stream_output_adapter@_W@__crt_stdio_output@@@2@@__crt_stdio_output@@AEAA_NXZ 000000018005cfe8 f i libucrt:output.obj
 0001:0005c194       ?state_case_size@?$output_processor@_WV?$string_output_adapter@_W@__crt_stdio_output@@V?$format_validation_base@_WV?$string_output_adapter@_W@__crt_stdio_output@@@2@@__crt_stdio_output@@AEAA_NXZ 000000018005d194 f i libucrt:output.obj
 0001:0005c340       ?state_case_size@?$output_processor@_WV?$string_output_adapter@_W@__crt_stdio_output@@V?$positional_parameter_base@_WV?$string_output_adapter@_W@__crt_stdio_output@@@2@@__crt_stdio_output@@AEAA_NXZ 000000018005d340 f i libucrt:output.obj
 0001:0005c4ec       ?state_case_size@?$output_processor@_WV?$string_output_adapter@_W@__crt_stdio_output@@V?$standard_base@_WV?$string_output_adapter@_W@__crt_stdio_output@@@2@@__crt_stdio_output@@AEAA_NXZ 000000018005d4ec f i libucrt:output.obj
 0001:0005c698       ?state_case_type@?$output_processor@DV?$stream_output_adapter@D@__crt_stdio_output@@V?$format_validation_base@DV?$stream_output_adapter@D@__crt_stdio_output@@@2@@__crt_stdio_output@@AEAA_NXZ 000000018005d698 f i libucrt:output.obj
 0001:0005cacc       ?state_case_type@?$output_processor@DV?$stream_output_adapter@D@__crt_stdio_output@@V?$positional_parameter_base@DV?$stream_output_adapter@D@__crt_stdio_output@@@2@@__crt_stdio_output@@AEAA_NXZ 000000018005dacc f i libucrt:output.obj
 0001:0005cf18       ?state_case_type@?$output_processor@DV?$stream_output_adapter@D@__crt_stdio_output@@V?$standard_base@DV?$stream_output_adapter@D@__crt_stdio_output@@@2@@__crt_stdio_output@@AEAA_NXZ 000000018005df18 f i libucrt:output.obj
 0001:0005d34c       ?state_case_type@?$output_processor@DV?$string_output_adapter@D@__crt_stdio_output@@V?$format_validation_base@DV?$string_output_adapter@D@__crt_stdio_output@@@2@@__crt_stdio_output@@AEAA_NXZ 000000018005e34c f i libucrt:output.obj
 0001:0005d718       ?state_case_type@?$output_processor@DV?$string_output_adapter@D@__crt_stdio_output@@V?$positional_parameter_base@DV?$string_output_adapter@D@__crt_stdio_output@@@2@@__crt_stdio_output@@AEAA_NXZ 000000018005e718 f i libucrt:output.obj
 0001:0005dafc       ?state_case_type@?$output_processor@DV?$string_output_adapter@D@__crt_stdio_output@@V?$standard_base@DV?$string_output_adapter@D@__crt_stdio_output@@@2@@__crt_stdio_output@@AEAA_NXZ 000000018005eafc f i libucrt:output.obj
 0001:0005dec8       ?state_case_type@?$output_processor@_WV?$stream_output_adapter@_W@__crt_stdio_output@@V?$format_validation_base@_WV?$stream_output_adapter@_W@__crt_stdio_output@@@2@@__crt_stdio_output@@AEAA_NXZ 000000018005eec8 f i libucrt:output.obj
 0001:0005e398       ?state_case_type@?$output_processor@_WV?$stream_output_adapter@_W@__crt_stdio_output@@V?$positional_parameter_base@_WV?$stream_output_adapter@_W@__crt_stdio_output@@@2@@__crt_stdio_output@@AEAA_NXZ 000000018005f398 f i libucrt:output.obj
 0001:0005e87c       ?state_case_type@?$output_processor@_WV?$stream_output_adapter@_W@__crt_stdio_output@@V?$standard_base@_WV?$stream_output_adapter@_W@__crt_stdio_output@@@2@@__crt_stdio_output@@AEAA_NXZ 000000018005f87c f i libucrt:output.obj
 0001:0005ed4c       ?state_case_type@?$output_processor@_WV?$string_output_adapter@_W@__crt_stdio_output@@V?$format_validation_base@_WV?$string_output_adapter@_W@__crt_stdio_output@@@2@@__crt_stdio_output@@AEAA_NXZ 000000018005fd4c f i libucrt:output.obj
 0001:0005f1a8       ?state_case_type@?$output_processor@_WV?$string_output_adapter@_W@__crt_stdio_output@@V?$positional_parameter_base@_WV?$string_output_adapter@_W@__crt_stdio_output@@@2@@__crt_stdio_output@@AEAA_NXZ 00000001800601a8 f i libucrt:output.obj
 0001:0005f61c       ?state_case_type@?$output_processor@_WV?$string_output_adapter@_W@__crt_stdio_output@@V?$standard_base@_WV?$string_output_adapter@_W@__crt_stdio_output@@@2@@__crt_stdio_output@@AEAA_NXZ 000000018006061c f i libucrt:output.obj
 0001:0005fa78       ?state_case_width@?$output_processor@DV?$stream_output_adapter@D@__crt_stdio_output@@V?$format_validation_base@DV?$stream_output_adapter@D@__crt_stdio_output@@@2@@__crt_stdio_output@@AEAA_NXZ 0000000180060a78 f i libucrt:output.obj
 0001:0005faac       ?state_case_width@?$output_processor@DV?$stream_output_adapter@D@__crt_stdio_output@@V?$positional_parameter_base@DV?$stream_output_adapter@D@__crt_stdio_output@@@2@@__crt_stdio_output@@AEAA_NXZ 0000000180060aac f i libucrt:output.obj
 0001:0005fafc       ?state_case_width@?$output_processor@DV?$stream_output_adapter@D@__crt_stdio_output@@V?$standard_base@DV?$stream_output_adapter@D@__crt_stdio_output@@@2@@__crt_stdio_output@@AEAA_NXZ 0000000180060afc f i libucrt:output.obj
 0001:0005fb30       ?state_case_width@?$output_processor@DV?$string_output_adapter@D@__crt_stdio_output@@V?$format_validation_base@DV?$string_output_adapter@D@__crt_stdio_output@@@2@@__crt_stdio_output@@AEAA_NXZ 0000000180060b30 f i libucrt:output.obj
 0001:0005fb64       ?state_case_width@?$output_processor@DV?$string_output_adapter@D@__crt_stdio_output@@V?$positional_parameter_base@DV?$string_output_adapter@D@__crt_stdio_output@@@2@@__crt_stdio_output@@AEAA_NXZ 0000000180060b64 f i libucrt:output.obj
 0001:0005fbb4       ?state_case_width@?$output_processor@DV?$string_output_adapter@D@__crt_stdio_output@@V?$standard_base@DV?$string_output_adapter@D@__crt_stdio_output@@@2@@__crt_stdio_output@@AEAA_NXZ 0000000180060bb4 f i libucrt:output.obj
 0001:0005fbe8       ?state_case_width@?$output_processor@_WV?$stream_output_adapter@_W@__crt_stdio_output@@V?$format_validation_base@_WV?$stream_output_adapter@_W@__crt_stdio_output@@@2@@__crt_stdio_output@@AEAA_NXZ 0000000180060be8 f i libucrt:output.obj
 0001:0005fc1c       ?state_case_width@?$output_processor@_WV?$stream_output_adapter@_W@__crt_stdio_output@@V?$positional_parameter_base@_WV?$stream_output_adapter@_W@__crt_stdio_output@@@2@@__crt_stdio_output@@AEAA_NXZ 0000000180060c1c f i libucrt:output.obj
 0001:0005fc70       ?state_case_width@?$output_processor@_WV?$stream_output_adapter@_W@__crt_stdio_output@@V?$standard_base@_WV?$stream_output_adapter@_W@__crt_stdio_output@@@2@@__crt_stdio_output@@AEAA_NXZ 0000000180060c70 f i libucrt:output.obj
 0001:0005fca4       ?state_case_width@?$output_processor@_WV?$string_output_adapter@_W@__crt_stdio_output@@V?$format_validation_base@_WV?$string_output_adapter@_W@__crt_stdio_output@@@2@@__crt_stdio_output@@AEAA_NXZ 0000000180060ca4 f i libucrt:output.obj
 0001:0005fcd8       ?state_case_width@?$output_processor@_WV?$string_output_adapter@_W@__crt_stdio_output@@V?$positional_parameter_base@_WV?$string_output_adapter@_W@__crt_stdio_output@@@2@@__crt_stdio_output@@AEAA_NXZ 0000000180060cd8 f i libucrt:output.obj
 0001:0005fd2c       ?state_case_width@?$output_processor@_WV?$string_output_adapter@_W@__crt_stdio_output@@V?$standard_base@_WV?$string_output_adapter@_W@__crt_stdio_output@@@2@@__crt_stdio_output@@AEAA_NXZ 0000000180060d2c f i libucrt:output.obj
 0001:0005fd60       ?state_count@?$format_validation_base@DV?$stream_output_adapter@D@__crt_stdio_output@@@__crt_stdio_output@@KAIXZ 0000000180060d60 f i libucrt:output.obj
 0001:0005fd68       ?state_count@?$format_validation_base@DV?$string_output_adapter@D@__crt_stdio_output@@@__crt_stdio_output@@KAIXZ 0000000180060d68 f i libucrt:output.obj
 0001:0005fd70       ?state_count@?$format_validation_base@_WV?$stream_output_adapter@_W@__crt_stdio_output@@@__crt_stdio_output@@KAIXZ 0000000180060d70 f i libucrt:output.obj
 0001:0005fd78       ?state_count@?$format_validation_base@_WV?$string_output_adapter@_W@__crt_stdio_output@@@__crt_stdio_output@@KAIXZ 0000000180060d78 f i libucrt:output.obj
 0001:0005fd80       ?state_count@?$standard_base@DV?$stream_output_adapter@D@__crt_stdio_output@@@__crt_stdio_output@@KAIXZ 0000000180060d80 f i libucrt:output.obj
 0001:0005fd88       ?state_count@?$standard_base@DV?$string_output_adapter@D@__crt_stdio_output@@@__crt_stdio_output@@KAIXZ 0000000180060d88 f i libucrt:output.obj
 0001:0005fd90       ?state_count@?$standard_base@_WV?$stream_output_adapter@_W@__crt_stdio_output@@@__crt_stdio_output@@KAIXZ 0000000180060d90 f i libucrt:output.obj
 0001:0005fd98       ?state_count@?$standard_base@_WV?$string_output_adapter@_W@__crt_stdio_output@@@__crt_stdio_output@@KAIXZ 0000000180060d98 f i libucrt:output.obj
 0001:0005fda0       ?state_transition_table@?$format_validation_base@DV?$stream_output_adapter@D@__crt_stdio_output@@@__crt_stdio_output@@KAAEBV?$spectre_mitigated_lookup_table@Ustate_transition_pair@__crt_stdio_output@@$0IA@@2@XZ 0000000180060da0 f i libucrt:output.obj
 0001:0005fda8       ?state_transition_table@?$format_validation_base@DV?$string_output_adapter@D@__crt_stdio_output@@@__crt_stdio_output@@KAAEBV?$spectre_mitigated_lookup_table@Ustate_transition_pair@__crt_stdio_output@@$0IA@@2@XZ 0000000180060da8 f i libucrt:output.obj
 0001:0005fdb0       ?state_transition_table@?$format_validation_base@_WV?$stream_output_adapter@_W@__crt_stdio_output@@@__crt_stdio_output@@KAAEBV?$spectre_mitigated_lookup_table@Ustate_transition_pair@__crt_stdio_output@@$0IA@@2@XZ 0000000180060db0 f i libucrt:output.obj
 0001:0005fdb8       ?state_transition_table@?$format_validation_base@_WV?$string_output_adapter@_W@__crt_stdio_output@@@__crt_stdio_output@@KAAEBV?$spectre_mitigated_lookup_table@Ustate_transition_pair@__crt_stdio_output@@$0IA@@2@XZ 0000000180060db8 f i libucrt:output.obj
 0001:0005fdc0       ?state_transition_table@?$standard_base@DV?$stream_output_adapter@D@__crt_stdio_output@@@__crt_stdio_output@@KAAEBV?$spectre_mitigated_lookup_table@Ustate_transition_pair@__crt_stdio_output@@$0IA@@2@XZ 0000000180060dc0 f i libucrt:output.obj
 0001:0005fdc8       ?state_transition_table@?$standard_base@DV?$string_output_adapter@D@__crt_stdio_output@@@__crt_stdio_output@@KAAEBV?$spectre_mitigated_lookup_table@Ustate_transition_pair@__crt_stdio_output@@$0IA@@2@XZ 0000000180060dc8 f i libucrt:output.obj
 0001:0005fdd0       ?state_transition_table@?$standard_base@_WV?$stream_output_adapter@_W@__crt_stdio_output@@@__crt_stdio_output@@KAAEBV?$spectre_mitigated_lookup_table@Ustate_transition_pair@__crt_stdio_output@@$0IA@@2@XZ 0000000180060dd0 f i libucrt:output.obj
 0001:0005fdd8       ?state_transition_table@?$standard_base@_WV?$string_output_adapter@_W@__crt_stdio_output@@@__crt_stdio_output@@KAAEBV?$spectre_mitigated_lookup_table@Ustate_transition_pair@__crt_stdio_output@@$0IA@@2@XZ 0000000180060dd8 f i libucrt:output.obj
 0001:0005fde0       ?tchar_string@?$common_data@D@__crt_stdio_output@@IEAAAEAPEADD@Z 0000000180060de0 f i libucrt:output.obj
 0001:0005fde8       ?tchar_string@?$common_data@D@__crt_stdio_output@@IEAAAEAPEADXZ 0000000180060de8 f i libucrt:output.obj
 0001:0005fdf0       ?tchar_string@?$common_data@_W@__crt_stdio_output@@IEAAAEAPEA_WXZ 0000000180060df0 f i libucrt:output.obj
 0001:0005fdf8       ?tchar_string@?$common_data@_W@__crt_stdio_output@@IEAAAEAPEA_W_W@Z 0000000180060df8 f i libucrt:output.obj
 0001:0005fe00       ?to_integer_size@__crt_stdio_output@@YA_KW4length_modifier@1@@Z 0000000180060e00 f i libucrt:output.obj
 0001:0005fe48       ?type_case_X@?$output_processor@DV?$stream_output_adapter@D@__crt_stdio_output@@V?$format_validation_base@DV?$stream_output_adapter@D@__crt_stdio_output@@@2@@__crt_stdio_output@@AEAA_NXZ 0000000180060e48 f i libucrt:output.obj
 0001:0005fe50       ?type_case_X@?$output_processor@DV?$stream_output_adapter@D@__crt_stdio_output@@V?$positional_parameter_base@DV?$stream_output_adapter@D@__crt_stdio_output@@@2@@__crt_stdio_output@@AEAA_NXZ 0000000180060e50 f i libucrt:output.obj
 0001:0005fe58       ?type_case_X@?$output_processor@DV?$stream_output_adapter@D@__crt_stdio_output@@V?$standard_base@DV?$stream_output_adapter@D@__crt_stdio_output@@@2@@__crt_stdio_output@@AEAA_NXZ 0000000180060e58 f i libucrt:output.obj
 0001:0005fe60       ?type_case_X@?$output_processor@DV?$string_output_adapter@D@__crt_stdio_output@@V?$format_validation_base@DV?$string_output_adapter@D@__crt_stdio_output@@@2@@__crt_stdio_output@@AEAA_NXZ 0000000180060e60 f i libucrt:output.obj
 0001:0005fe68       ?type_case_X@?$output_processor@DV?$string_output_adapter@D@__crt_stdio_output@@V?$positional_parameter_base@DV?$string_output_adapter@D@__crt_stdio_output@@@2@@__crt_stdio_output@@AEAA_NXZ 0000000180060e68 f i libucrt:output.obj
 0001:0005fe70       ?type_case_X@?$output_processor@DV?$string_output_adapter@D@__crt_stdio_output@@V?$standard_base@DV?$string_output_adapter@D@__crt_stdio_output@@@2@@__crt_stdio_output@@AEAA_NXZ 0000000180060e70 f i libucrt:output.obj
 0001:0005fe78       ?type_case_X@?$output_processor@_WV?$stream_output_adapter@_W@__crt_stdio_output@@V?$format_validation_base@_WV?$stream_output_adapter@_W@__crt_stdio_output@@@2@@__crt_stdio_output@@AEAA_NXZ 0000000180060e78 f i libucrt:output.obj
 0001:0005fe80       ?type_case_X@?$output_processor@_WV?$stream_output_adapter@_W@__crt_stdio_output@@V?$positional_parameter_base@_WV?$stream_output_adapter@_W@__crt_stdio_output@@@2@@__crt_stdio_output@@AEAA_NXZ 0000000180060e80 f i libucrt:output.obj
 0001:0005fe88       ?type_case_X@?$output_processor@_WV?$stream_output_adapter@_W@__crt_stdio_output@@V?$standard_base@_WV?$stream_output_adapter@_W@__crt_stdio_output@@@2@@__crt_stdio_output@@AEAA_NXZ 0000000180060e88 f i libucrt:output.obj
 0001:0005fe90       ?type_case_X@?$output_processor@_WV?$string_output_adapter@_W@__crt_stdio_output@@V?$format_validation_base@_WV?$string_output_adapter@_W@__crt_stdio_output@@@2@@__crt_stdio_output@@AEAA_NXZ 0000000180060e90 f i libucrt:output.obj
 0001:0005fe98       ?type_case_X@?$output_processor@_WV?$string_output_adapter@_W@__crt_stdio_output@@V?$positional_parameter_base@_WV?$string_output_adapter@_W@__crt_stdio_output@@@2@@__crt_stdio_output@@AEAA_NXZ 0000000180060e98 f i libucrt:output.obj
 0001:0005fea0       ?type_case_X@?$output_processor@_WV?$string_output_adapter@_W@__crt_stdio_output@@V?$standard_base@_WV?$string_output_adapter@_W@__crt_stdio_output@@@2@@__crt_stdio_output@@AEAA_NXZ 0000000180060ea0 f i libucrt:output.obj
 0001:0005fea8       ?type_case_Z@?$output_processor@DV?$stream_output_adapter@D@__crt_stdio_output@@V?$format_validation_base@DV?$stream_output_adapter@D@__crt_stdio_output@@@2@@__crt_stdio_output@@AEAA_NXZ 0000000180060ea8 f i libucrt:output.obj
 0001:0005ff20       ?type_case_Z@?$output_processor@DV?$stream_output_adapter@D@__crt_stdio_output@@V?$positional_parameter_base@DV?$stream_output_adapter@D@__crt_stdio_output@@@2@@__crt_stdio_output@@AEAA_NXZ 0000000180060f20 f i libucrt:output.obj
 0001:0005ffc8       ?type_case_Z@?$output_processor@DV?$stream_output_adapter@D@__crt_stdio_output@@V?$standard_base@DV?$stream_output_adapter@D@__crt_stdio_output@@@2@@__crt_stdio_output@@AEAA_NXZ 0000000180060fc8 f i libucrt:output.obj
 0001:00060040       ?type_case_Z@?$output_processor@DV?$string_output_adapter@D@__crt_stdio_output@@V?$format_validation_base@DV?$string_output_adapter@D@__crt_stdio_output@@@2@@__crt_stdio_output@@AEAA_NXZ 0000000180061040 f i libucrt:output.obj
 0001:000600b8       ?type_case_Z@?$output_processor@DV?$string_output_adapter@D@__crt_stdio_output@@V?$positional_parameter_base@DV?$string_output_adapter@D@__crt_stdio_output@@@2@@__crt_stdio_output@@AEAA_NXZ 00000001800610b8 f i libucrt:output.obj
 0001:00060160       ?type_case_Z@?$output_processor@DV?$string_output_adapter@D@__crt_stdio_output@@V?$standard_base@DV?$string_output_adapter@D@__crt_stdio_output@@@2@@__crt_stdio_output@@AEAA_NXZ 0000000180061160 f i libucrt:output.obj
 0001:000601d8       ?type_case_Z@?$output_processor@_WV?$stream_output_adapter@_W@__crt_stdio_output@@V?$format_validation_base@_WV?$stream_output_adapter@_W@__crt_stdio_output@@@2@@__crt_stdio_output@@AEAA_NXZ 00000001800611d8 f i libucrt:output.obj
 0001:00060254       ?type_case_Z@?$output_processor@_WV?$stream_output_adapter@_W@__crt_stdio_output@@V?$positional_parameter_base@_WV?$stream_output_adapter@_W@__crt_stdio_output@@@2@@__crt_stdio_output@@AEAA_NXZ 0000000180061254 f i libucrt:output.obj
 0001:000602ec       ?type_case_Z@?$output_processor@_WV?$stream_output_adapter@_W@__crt_stdio_output@@V?$standard_base@_WV?$stream_output_adapter@_W@__crt_stdio_output@@@2@@__crt_stdio_output@@AEAA_NXZ 00000001800612ec f i libucrt:output.obj
 0001:00060368       ?type_case_Z@?$output_processor@_WV?$string_output_adapter@_W@__crt_stdio_output@@V?$format_validation_base@_WV?$string_output_adapter@_W@__crt_stdio_output@@@2@@__crt_stdio_output@@AEAA_NXZ 0000000180061368 f i libucrt:output.obj
 0001:000603e4       ?type_case_Z@?$output_processor@_WV?$string_output_adapter@_W@__crt_stdio_output@@V?$positional_parameter_base@_WV?$string_output_adapter@_W@__crt_stdio_output@@@2@@__crt_stdio_output@@AEAA_NXZ 00000001800613e4 f i libucrt:output.obj
 0001:0006047c       ?type_case_Z@?$output_processor@_WV?$string_output_adapter@_W@__crt_stdio_output@@V?$standard_base@_WV?$string_output_adapter@_W@__crt_stdio_output@@@2@@__crt_stdio_output@@AEAA_NXZ 000000018006147c f i libucrt:output.obj
 0001:000604f8       ?type_case_a@?$output_processor@DV?$stream_output_adapter@D@__crt_stdio_output@@V?$format_validation_base@DV?$stream_output_adapter@D@__crt_stdio_output@@@2@@__crt_stdio_output@@AEAA_NXZ 00000001800614f8 f i libucrt:output.obj
 0001:00060744       ?type_case_a@?$output_processor@DV?$stream_output_adapter@D@__crt_stdio_output@@V?$positional_parameter_base@DV?$stream_output_adapter@D@__crt_stdio_output@@@2@@__crt_stdio_output@@AEAA_NXZ 0000000180061744 f i libucrt:output.obj
 0001:000609c0       ?type_case_a@?$output_processor@DV?$stream_output_adapter@D@__crt_stdio_output@@V?$standard_base@DV?$stream_output_adapter@D@__crt_stdio_output@@@2@@__crt_stdio_output@@AEAA_NXZ 00000001800619c0 f i libucrt:output.obj
 0001:00060c0c       ?type_case_a@?$output_processor@DV?$string_output_adapter@D@__crt_stdio_output@@V?$format_validation_base@DV?$string_output_adapter@D@__crt_stdio_output@@@2@@__crt_stdio_output@@AEAA_NXZ 0000000180061c0c f i libucrt:output.obj
 0001:00060e58       ?type_case_a@?$output_processor@DV?$string_output_adapter@D@__crt_stdio_output@@V?$positional_parameter_base@DV?$string_output_adapter@D@__crt_stdio_output@@@2@@__crt_stdio_output@@AEAA_NXZ 0000000180061e58 f i libucrt:output.obj
 0001:000610d4       ?type_case_a@?$output_processor@DV?$string_output_adapter@D@__crt_stdio_output@@V?$standard_base@DV?$string_output_adapter@D@__crt_stdio_output@@@2@@__crt_stdio_output@@AEAA_NXZ 00000001800620d4 f i libucrt:output.obj
 0001:00061320       ?type_case_a@?$output_processor@_WV?$stream_output_adapter@_W@__crt_stdio_output@@V?$format_validation_base@_WV?$stream_output_adapter@_W@__crt_stdio_output@@@2@@__crt_stdio_output@@AEAA_NXZ 0000000180062320 f i libucrt:output.obj
 0001:00061580       ?type_case_a@?$output_processor@_WV?$stream_output_adapter@_W@__crt_stdio_output@@V?$positional_parameter_base@_WV?$stream_output_adapter@_W@__crt_stdio_output@@@2@@__crt_stdio_output@@AEAA_NXZ 0000000180062580 f i libucrt:output.obj
 0001:00061814       ?type_case_a@?$output_processor@_WV?$stream_output_adapter@_W@__crt_stdio_output@@V?$standard_base@_WV?$stream_output_adapter@_W@__crt_stdio_output@@@2@@__crt_stdio_output@@AEAA_NXZ 0000000180062814 f i libucrt:output.obj
 0001:00061a74       ?type_case_a@?$output_processor@_WV?$string_output_adapter@_W@__crt_stdio_output@@V?$format_validation_base@_WV?$string_output_adapter@_W@__crt_stdio_output@@@2@@__crt_stdio_output@@AEAA_NXZ 0000000180062a74 f i libucrt:output.obj
 0001:00061cd4       ?type_case_a@?$output_processor@_WV?$string_output_adapter@_W@__crt_stdio_output@@V?$positional_parameter_base@_WV?$string_output_adapter@_W@__crt_stdio_output@@@2@@__crt_stdio_output@@AEAA_NXZ 0000000180062cd4 f i libucrt:output.obj
 0001:00061f68       ?type_case_a@?$output_processor@_WV?$string_output_adapter@_W@__crt_stdio_output@@V?$standard_base@_WV?$string_output_adapter@_W@__crt_stdio_output@@@2@@__crt_stdio_output@@AEAA_NXZ 0000000180062f68 f i libucrt:output.obj
 0001:000621c8       ?type_case_c@?$output_processor@DV?$stream_output_adapter@D@__crt_stdio_output@@V?$format_validation_base@DV?$stream_output_adapter@D@__crt_stdio_output@@@2@@__crt_stdio_output@@AEAA_NXZ 00000001800631c8 f i libucrt:output.obj
 0001:000621d0       ?type_case_c@?$output_processor@DV?$stream_output_adapter@D@__crt_stdio_output@@V?$positional_parameter_base@DV?$stream_output_adapter@D@__crt_stdio_output@@@2@@__crt_stdio_output@@AEAA_NXZ 00000001800631d0 f i libucrt:output.obj
 0001:000621d8       ?type_case_c@?$output_processor@DV?$stream_output_adapter@D@__crt_stdio_output@@V?$standard_base@DV?$stream_output_adapter@D@__crt_stdio_output@@@2@@__crt_stdio_output@@AEAA_NXZ 00000001800631d8 f i libucrt:output.obj
 0001:000621e0       ?type_case_c@?$output_processor@DV?$string_output_adapter@D@__crt_stdio_output@@V?$format_validation_base@DV?$string_output_adapter@D@__crt_stdio_output@@@2@@__crt_stdio_output@@AEAA_NXZ 00000001800631e0 f i libucrt:output.obj
 0001:000621e8       ?type_case_c@?$output_processor@DV?$string_output_adapter@D@__crt_stdio_output@@V?$positional_parameter_base@DV?$string_output_adapter@D@__crt_stdio_output@@@2@@__crt_stdio_output@@AEAA_NXZ 00000001800631e8 f i libucrt:output.obj
 0001:000621f0       ?type_case_c@?$output_processor@DV?$string_output_adapter@D@__crt_stdio_output@@V?$standard_base@DV?$string_output_adapter@D@__crt_stdio_output@@@2@@__crt_stdio_output@@AEAA_NXZ 00000001800631f0 f i libucrt:output.obj
 0001:000621f8       ?type_case_c@?$output_processor@_WV?$stream_output_adapter@_W@__crt_stdio_output@@V?$format_validation_base@_WV?$stream_output_adapter@_W@__crt_stdio_output@@@2@@__crt_stdio_output@@AEAA_NXZ 00000001800631f8 f i libucrt:output.obj
 0001:00062200       ?type_case_c@?$output_processor@_WV?$stream_output_adapter@_W@__crt_stdio_output@@V?$positional_parameter_base@_WV?$stream_output_adapter@_W@__crt_stdio_output@@@2@@__crt_stdio_output@@AEAA_NXZ 0000000180063200 f i libucrt:output.obj
 0001:00062208       ?type_case_c@?$output_processor@_WV?$stream_output_adapter@_W@__crt_stdio_output@@V?$standard_base@_WV?$stream_output_adapter@_W@__crt_stdio_output@@@2@@__crt_stdio_output@@AEAA_NXZ 0000000180063208 f i libucrt:output.obj
 0001:00062210       ?type_case_c@?$output_processor@_WV?$string_output_adapter@_W@__crt_stdio_output@@V?$format_validation_base@_WV?$string_output_adapter@_W@__crt_stdio_output@@@2@@__crt_stdio_output@@AEAA_NXZ 0000000180063210 f i libucrt:output.obj
 0001:00062218       ?type_case_c@?$output_processor@_WV?$string_output_adapter@_W@__crt_stdio_output@@V?$positional_parameter_base@_WV?$string_output_adapter@_W@__crt_stdio_output@@@2@@__crt_stdio_output@@AEAA_NXZ 0000000180063218 f i libucrt:output.obj
 0001:00062220       ?type_case_c@?$output_processor@_WV?$string_output_adapter@_W@__crt_stdio_output@@V?$standard_base@_WV?$string_output_adapter@_W@__crt_stdio_output@@@2@@__crt_stdio_output@@AEAA_NXZ 0000000180063220 f i libucrt:output.obj
 0001:00062228       ?type_case_c_tchar@?$output_processor@DV?$stream_output_adapter@D@__crt_stdio_output@@V?$format_validation_base@DV?$stream_output_adapter@D@__crt_stdio_output@@@2@@__crt_stdio_output@@AEAA_ND@Z 0000000180063228 f i libucrt:output.obj
 0001:000622ec       ?type_case_c_tchar@?$output_processor@DV?$stream_output_adapter@D@__crt_stdio_output@@V?$positional_parameter_base@DV?$stream_output_adapter@D@__crt_stdio_output@@@2@@__crt_stdio_output@@AEAA_ND@Z 00000001800632ec f i libucrt:output.obj
 0001:000623f8       ?type_case_c_tchar@?$output_processor@DV?$stream_output_adapter@D@__crt_stdio_output@@V?$standard_base@DV?$stream_output_adapter@D@__crt_stdio_output@@@2@@__crt_stdio_output@@AEAA_ND@Z 00000001800633f8 f i libucrt:output.obj
 0001:000624bc       ?type_case_c_tchar@?$output_processor@DV?$string_output_adapter@D@__crt_stdio_output@@V?$format_validation_base@DV?$string_output_adapter@D@__crt_stdio_output@@@2@@__crt_stdio_output@@AEAA_ND@Z 00000001800634bc f i libucrt:output.obj
 0001:00062580       ?type_case_c_tchar@?$output_processor@DV?$string_output_adapter@D@__crt_stdio_output@@V?$positional_parameter_base@DV?$string_output_adapter@D@__crt_stdio_output@@@2@@__crt_stdio_output@@AEAA_ND@Z 0000000180063580 f i libucrt:output.obj
 0001:0006268c       ?type_case_c_tchar@?$output_processor@DV?$string_output_adapter@D@__crt_stdio_output@@V?$standard_base@DV?$string_output_adapter@D@__crt_stdio_output@@@2@@__crt_stdio_output@@AEAA_ND@Z 000000018006368c f i libucrt:output.obj
 0001:00062750       ?type_case_c_tchar@?$output_processor@_WV?$stream_output_adapter@_W@__crt_stdio_output@@V?$format_validation_base@_WV?$stream_output_adapter@_W@__crt_stdio_output@@@2@@__crt_stdio_output@@AEAA_N_W@Z 0000000180063750 f i libucrt:output.obj
 0001:00062814       ?type_case_c_tchar@?$output_processor@_WV?$stream_output_adapter@_W@__crt_stdio_output@@V?$positional_parameter_base@_WV?$stream_output_adapter@_W@__crt_stdio_output@@@2@@__crt_stdio_output@@AEAA_N_W@Z 0000000180063814 f i libucrt:output.obj
 0001:0006290c       ?type_case_c_tchar@?$output_processor@_WV?$stream_output_adapter@_W@__crt_stdio_output@@V?$standard_base@_WV?$stream_output_adapter@_W@__crt_stdio_output@@@2@@__crt_stdio_output@@AEAA_N_W@Z 000000018006390c f i libucrt:output.obj
 0001:000629d0       ?type_case_c_tchar@?$output_processor@_WV?$string_output_adapter@_W@__crt_stdio_output@@V?$format_validation_base@_WV?$string_output_adapter@_W@__crt_stdio_output@@@2@@__crt_stdio_output@@AEAA_N_W@Z 00000001800639d0 f i libucrt:output.obj
 0001:00062a94       ?type_case_c_tchar@?$output_processor@_WV?$string_output_adapter@_W@__crt_stdio_output@@V?$positional_parameter_base@_WV?$string_output_adapter@_W@__crt_stdio_output@@@2@@__crt_stdio_output@@AEAA_N_W@Z 0000000180063a94 f i libucrt:output.obj
 0001:00062b8c       ?type_case_c_tchar@?$output_processor@_WV?$string_output_adapter@_W@__crt_stdio_output@@V?$standard_base@_WV?$string_output_adapter@_W@__crt_stdio_output@@@2@@__crt_stdio_output@@AEAA_N_W@Z 0000000180063b8c f i libucrt:output.obj
 0001:00062c50       ?type_case_d@?$output_processor@DV?$stream_output_adapter@D@__crt_stdio_output@@V?$format_validation_base@DV?$stream_output_adapter@D@__crt_stdio_output@@@2@@__crt_stdio_output@@AEAA_NXZ 0000000180063c50 f i libucrt:output.obj
 0001:00062c5c       ?type_case_d@?$output_processor@DV?$stream_output_adapter@D@__crt_stdio_output@@V?$positional_parameter_base@DV?$stream_output_adapter@D@__crt_stdio_output@@@2@@__crt_stdio_output@@AEAA_NXZ 0000000180063c5c f i libucrt:output.obj
 0001:00062c68       ?type_case_d@?$output_processor@DV?$stream_output_adapter@D@__crt_stdio_output@@V?$standard_base@DV?$stream_output_adapter@D@__crt_stdio_output@@@2@@__crt_stdio_output@@AEAA_NXZ 0000000180063c68 f i libucrt:output.obj
 0001:00062c74       ?type_case_d@?$output_processor@DV?$string_output_adapter@D@__crt_stdio_output@@V?$format_validation_base@DV?$string_output_adapter@D@__crt_stdio_output@@@2@@__crt_stdio_output@@AEAA_NXZ 0000000180063c74 f i libucrt:output.obj
 0001:00062c80       ?type_case_d@?$output_processor@DV?$string_output_adapter@D@__crt_stdio_output@@V?$positional_parameter_base@DV?$string_output_adapter@D@__crt_stdio_output@@@2@@__crt_stdio_output@@AEAA_NXZ 0000000180063c80 f i libucrt:output.obj
 0001:00062c8c       ?type_case_d@?$output_processor@DV?$string_output_adapter@D@__crt_stdio_output@@V?$standard_base@DV?$string_output_adapter@D@__crt_stdio_output@@@2@@__crt_stdio_output@@AEAA_NXZ 0000000180063c8c f i libucrt:output.obj
 0001:00062c98       ?type_case_d@?$output_processor@_WV?$stream_output_adapter@_W@__crt_stdio_output@@V?$format_validation_base@_WV?$stream_output_adapter@_W@__crt_stdio_output@@@2@@__crt_stdio_output@@AEAA_NXZ 0000000180063c98 f i libucrt:output.obj
 0001:00062ca4       ?type_case_d@?$output_processor@_WV?$stream_output_adapter@_W@__crt_stdio_output@@V?$positional_parameter_base@_WV?$stream_output_adapter@_W@__crt_stdio_output@@@2@@__crt_stdio_output@@AEAA_NXZ 0000000180063ca4 f i libucrt:output.obj
 0001:00062cb0       ?type_case_d@?$output_processor@_WV?$stream_output_adapter@_W@__crt_stdio_output@@V?$standard_base@_WV?$stream_output_adapter@_W@__crt_stdio_output@@@2@@__crt_stdio_output@@AEAA_NXZ 0000000180063cb0 f i libucrt:output.obj
 0001:00062cbc       ?type_case_d@?$output_processor@_WV?$string_output_adapter@_W@__crt_stdio_output@@V?$format_validation_base@_WV?$string_output_adapter@_W@__crt_stdio_output@@@2@@__crt_stdio_output@@AEAA_NXZ 0000000180063cbc f i libucrt:output.obj
 0001:00062cc8       ?type_case_d@?$output_processor@_WV?$string_output_adapter@_W@__crt_stdio_output@@V?$positional_parameter_base@_WV?$string_output_adapter@_W@__crt_stdio_output@@@2@@__crt_stdio_output@@AEAA_NXZ 0000000180063cc8 f i libucrt:output.obj
 0001:00062cd4       ?type_case_d@?$output_processor@_WV?$string_output_adapter@_W@__crt_stdio_output@@V?$standard_base@_WV?$string_output_adapter@_W@__crt_stdio_output@@@2@@__crt_stdio_output@@AEAA_NXZ 0000000180063cd4 f i libucrt:output.obj
 0001:00062ce0       ?type_case_n@?$output_processor@DV?$stream_output_adapter@D@__crt_stdio_output@@V?$format_validation_base@DV?$stream_output_adapter@D@__crt_stdio_output@@@2@@__crt_stdio_output@@AEAA_NXZ 0000000180063ce0 f i libucrt:output.obj
 0001:00062d94       ?type_case_n@?$output_processor@DV?$stream_output_adapter@D@__crt_stdio_output@@V?$positional_parameter_base@DV?$stream_output_adapter@D@__crt_stdio_output@@@2@@__crt_stdio_output@@AEAA_NXZ 0000000180063d94 f i libucrt:output.obj
 0001:00062e78       ?type_case_n@?$output_processor@DV?$stream_output_adapter@D@__crt_stdio_output@@V?$standard_base@DV?$stream_output_adapter@D@__crt_stdio_output@@@2@@__crt_stdio_output@@AEAA_NXZ 0000000180063e78 f i libucrt:output.obj
 0001:00062f2c       ?type_case_n@?$output_processor@DV?$string_output_adapter@D@__crt_stdio_output@@V?$format_validation_base@DV?$string_output_adapter@D@__crt_stdio_output@@@2@@__crt_stdio_output@@AEAA_NXZ 0000000180063f2c f i libucrt:output.obj
 0001:00062fe0       ?type_case_n@?$output_processor@DV?$string_output_adapter@D@__crt_stdio_output@@V?$positional_parameter_base@DV?$string_output_adapter@D@__crt_stdio_output@@@2@@__crt_stdio_output@@AEAA_NXZ 0000000180063fe0 f i libucrt:output.obj
 0001:000630c4       ?type_case_n@?$output_processor@DV?$string_output_adapter@D@__crt_stdio_output@@V?$standard_base@DV?$string_output_adapter@D@__crt_stdio_output@@@2@@__crt_stdio_output@@AEAA_NXZ 00000001800640c4 f i libucrt:output.obj
 0001:00063178       ?type_case_n@?$output_processor@_WV?$stream_output_adapter@_W@__crt_stdio_output@@V?$format_validation_base@_WV?$stream_output_adapter@_W@__crt_stdio_output@@@2@@__crt_stdio_output@@AEAA_NXZ 0000000180064178 f i libucrt:output.obj
 0001:0006322c       ?type_case_n@?$output_processor@_WV?$stream_output_adapter@_W@__crt_stdio_output@@V?$positional_parameter_base@_WV?$stream_output_adapter@_W@__crt_stdio_output@@@2@@__crt_stdio_output@@AEAA_NXZ 000000018006422c f i libucrt:output.obj
 0001:00063310       ?type_case_n@?$output_processor@_WV?$stream_output_adapter@_W@__crt_stdio_output@@V?$standard_base@_WV?$stream_output_adapter@_W@__crt_stdio_output@@@2@@__crt_stdio_output@@AEAA_NXZ 0000000180064310 f i libucrt:output.obj
 0001:000633c4       ?type_case_n@?$output_processor@_WV?$string_output_adapter@_W@__crt_stdio_output@@V?$format_validation_base@_WV?$string_output_adapter@_W@__crt_stdio_output@@@2@@__crt_stdio_output@@AEAA_NXZ 00000001800643c4 f i libucrt:output.obj
 0001:00063478       ?type_case_n@?$output_processor@_WV?$string_output_adapter@_W@__crt_stdio_output@@V?$positional_parameter_base@_WV?$string_output_adapter@_W@__crt_stdio_output@@@2@@__crt_stdio_output@@AEAA_NXZ 0000000180064478 f i libucrt:output.obj
 0001:0006355c       ?type_case_n@?$output_processor@_WV?$string_output_adapter@_W@__crt_stdio_output@@V?$standard_base@_WV?$string_output_adapter@_W@__crt_stdio_output@@@2@@__crt_stdio_output@@AEAA_NXZ 000000018006455c f i libucrt:output.obj
 0001:00063610       ?type_case_o@?$output_processor@DV?$stream_output_adapter@D@__crt_stdio_output@@V?$format_validation_base@DV?$stream_output_adapter@D@__crt_stdio_output@@@2@@__crt_stdio_output@@AEAA_NXZ 0000000180064610 f i libucrt:output.obj
 0001:0006362c       ?type_case_o@?$output_processor@DV?$stream_output_adapter@D@__crt_stdio_output@@V?$positional_parameter_base@DV?$stream_output_adapter@D@__crt_stdio_output@@@2@@__crt_stdio_output@@AEAA_NXZ 000000018006462c f i libucrt:output.obj
 0001:00063648       ?type_case_o@?$output_processor@DV?$stream_output_adapter@D@__crt_stdio_output@@V?$standard_base@DV?$stream_output_adapter@D@__crt_stdio_output@@@2@@__crt_stdio_output@@AEAA_NXZ 0000000180064648 f i libucrt:output.obj
 0001:00063664       ?type_case_o@?$output_processor@DV?$string_output_adapter@D@__crt_stdio_output@@V?$format_validation_base@DV?$string_output_adapter@D@__crt_stdio_output@@@2@@__crt_stdio_output@@AEAA_NXZ 0000000180064664 f i libucrt:output.obj
 0001:00063680       ?type_case_o@?$output_processor@DV?$string_output_adapter@D@__crt_stdio_output@@V?$positional_parameter_base@DV?$string_output_adapter@D@__crt_stdio_output@@@2@@__crt_stdio_output@@AEAA_NXZ 0000000180064680 f i libucrt:output.obj
 0001:0006369c       ?type_case_o@?$output_processor@DV?$string_output_adapter@D@__crt_stdio_output@@V?$standard_base@DV?$string_output_adapter@D@__crt_stdio_output@@@2@@__crt_stdio_output@@AEAA_NXZ 000000018006469c f i libucrt:output.obj
 0001:000636b8       ?type_case_o@?$output_processor@_WV?$stream_output_adapter@_W@__crt_stdio_output@@V?$format_validation_base@_WV?$stream_output_adapter@_W@__crt_stdio_output@@@2@@__crt_stdio_output@@AEAA_NXZ 00000001800646b8 f i libucrt:output.obj
 0001:000636d4       ?type_case_o@?$output_processor@_WV?$stream_output_adapter@_W@__crt_stdio_output@@V?$positional_parameter_base@_WV?$stream_output_adapter@_W@__crt_stdio_output@@@2@@__crt_stdio_output@@AEAA_NXZ 00000001800646d4 f i libucrt:output.obj
 0001:000636f0       ?type_case_o@?$output_processor@_WV?$stream_output_adapter@_W@__crt_stdio_output@@V?$standard_base@_WV?$stream_output_adapter@_W@__crt_stdio_output@@@2@@__crt_stdio_output@@AEAA_NXZ 00000001800646f0 f i libucrt:output.obj
 0001:0006370c       ?type_case_o@?$output_processor@_WV?$string_output_adapter@_W@__crt_stdio_output@@V?$format_validation_base@_WV?$string_output_adapter@_W@__crt_stdio_output@@@2@@__crt_stdio_output@@AEAA_NXZ 000000018006470c f i libucrt:output.obj
 0001:00063728       ?type_case_o@?$output_processor@_WV?$string_output_adapter@_W@__crt_stdio_output@@V?$positional_parameter_base@_WV?$string_output_adapter@_W@__crt_stdio_output@@@2@@__crt_stdio_output@@AEAA_NXZ 0000000180064728 f i libucrt:output.obj
 0001:00063744       ?type_case_o@?$output_processor@_WV?$string_output_adapter@_W@__crt_stdio_output@@V?$standard_base@_WV?$string_output_adapter@_W@__crt_stdio_output@@@2@@__crt_stdio_output@@AEAA_NXZ 0000000180064744 f i libucrt:output.obj
 0001:00063760       ?type_case_p@?$output_processor@DV?$stream_output_adapter@D@__crt_stdio_output@@V?$format_validation_base@DV?$stream_output_adapter@D@__crt_stdio_output@@@2@@__crt_stdio_output@@AEAA_NXZ 0000000180064760 f i libucrt:output.obj
 0001:00063778       ?type_case_p@?$output_processor@DV?$stream_output_adapter@D@__crt_stdio_output@@V?$positional_parameter_base@DV?$stream_output_adapter@D@__crt_stdio_output@@@2@@__crt_stdio_output@@AEAA_NXZ 0000000180064778 f i libucrt:output.obj
 0001:00063790       ?type_case_p@?$output_processor@DV?$stream_output_adapter@D@__crt_stdio_output@@V?$standard_base@DV?$stream_output_adapter@D@__crt_stdio_output@@@2@@__crt_stdio_output@@AEAA_NXZ 0000000180064790 f i libucrt:output.obj
 0001:000637a8       ?type_case_p@?$output_processor@DV?$string_output_adapter@D@__crt_stdio_output@@V?$format_validation_base@DV?$string_output_adapter@D@__crt_stdio_output@@@2@@__crt_stdio_output@@AEAA_NXZ 00000001800647a8 f i libucrt:output.obj
 0001:000637c0       ?type_case_p@?$output_processor@DV?$string_output_adapter@D@__crt_stdio_output@@V?$positional_parameter_base@DV?$string_output_adapter@D@__crt_stdio_output@@@2@@__crt_stdio_output@@AEAA_NXZ 00000001800647c0 f i libucrt:output.obj
 0001:000637d8       ?type_case_p@?$output_processor@DV?$string_output_adapter@D@__crt_stdio_output@@V?$standard_base@DV?$string_output_adapter@D@__crt_stdio_output@@@2@@__crt_stdio_output@@AEAA_NXZ 00000001800647d8 f i libucrt:output.obj
 0001:000637f0       ?type_case_p@?$output_processor@_WV?$stream_output_adapter@_W@__crt_stdio_output@@V?$format_validation_base@_WV?$stream_output_adapter@_W@__crt_stdio_output@@@2@@__crt_stdio_output@@AEAA_NXZ 00000001800647f0 f i libucrt:output.obj
 0001:00063808       ?type_case_p@?$output_processor@_WV?$stream_output_adapter@_W@__crt_stdio_output@@V?$positional_parameter_base@_WV?$stream_output_adapter@_W@__crt_stdio_output@@@2@@__crt_stdio_output@@AEAA_NXZ 0000000180064808 f i libucrt:output.obj
 0001:00063820       ?type_case_p@?$output_processor@_WV?$stream_output_adapter@_W@__crt_stdio_output@@V?$standard_base@_WV?$stream_output_adapter@_W@__crt_stdio_output@@@2@@__crt_stdio_output@@AEAA_NXZ 0000000180064820 f i libucrt:output.obj
 0001:00063838       ?type_case_p@?$output_processor@_WV?$string_output_adapter@_W@__crt_stdio_output@@V?$format_validation_base@_WV?$string_output_adapter@_W@__crt_stdio_output@@@2@@__crt_stdio_output@@AEAA_NXZ 0000000180064838 f i libucrt:output.obj
 0001:00063850       ?type_case_p@?$output_processor@_WV?$string_output_adapter@_W@__crt_stdio_output@@V?$positional_parameter_base@_WV?$string_output_adapter@_W@__crt_stdio_output@@@2@@__crt_stdio_output@@AEAA_NXZ 0000000180064850 f i libucrt:output.obj
 0001:00063868       ?type_case_p@?$output_processor@_WV?$string_output_adapter@_W@__crt_stdio_output@@V?$standard_base@_WV?$string_output_adapter@_W@__crt_stdio_output@@@2@@__crt_stdio_output@@AEAA_NXZ 0000000180064868 f i libucrt:output.obj
 0001:00063880       ?type_case_s@?$output_processor@DV?$stream_output_adapter@D@__crt_stdio_output@@V?$format_validation_base@DV?$stream_output_adapter@D@__crt_stdio_output@@@2@@__crt_stdio_output@@AEAA_NXZ 0000000180064880 f i libucrt:output.obj
 0001:00063918       ?type_case_s@?$output_processor@DV?$stream_output_adapter@D@__crt_stdio_output@@V?$positional_parameter_base@DV?$stream_output_adapter@D@__crt_stdio_output@@@2@@__crt_stdio_output@@AEAA_NXZ 0000000180064918 f i libucrt:output.obj
 0001:000639d0       ?type_case_s@?$output_processor@DV?$stream_output_adapter@D@__crt_stdio_output@@V?$standard_base@DV?$stream_output_adapter@D@__crt_stdio_output@@@2@@__crt_stdio_output@@AEAA_NXZ 00000001800649d0 f i libucrt:output.obj
 0001:00063a68       ?type_case_s@?$output_processor@DV?$string_output_adapter@D@__crt_stdio_output@@V?$format_validation_base@DV?$string_output_adapter@D@__crt_stdio_output@@@2@@__crt_stdio_output@@AEAA_NXZ 0000000180064a68 f i libucrt:output.obj
 0001:00063b00       ?type_case_s@?$output_processor@DV?$string_output_adapter@D@__crt_stdio_output@@V?$positional_parameter_base@DV?$string_output_adapter@D@__crt_stdio_output@@@2@@__crt_stdio_output@@AEAA_NXZ 0000000180064b00 f i libucrt:output.obj
 0001:00063bb8       ?type_case_s@?$output_processor@DV?$string_output_adapter@D@__crt_stdio_output@@V?$standard_base@DV?$string_output_adapter@D@__crt_stdio_output@@@2@@__crt_stdio_output@@AEAA_NXZ 0000000180064bb8 f i libucrt:output.obj
 0001:00063c50       ?type_case_s@?$output_processor@_WV?$stream_output_adapter@_W@__crt_stdio_output@@V?$format_validation_base@_WV?$stream_output_adapter@_W@__crt_stdio_output@@@2@@__crt_stdio_output@@AEAA_NXZ 0000000180064c50 f i libucrt:output.obj
 0001:00063ce8       ?type_case_s@?$output_processor@_WV?$stream_output_adapter@_W@__crt_stdio_output@@V?$positional_parameter_base@_WV?$stream_output_adapter@_W@__crt_stdio_output@@@2@@__crt_stdio_output@@AEAA_NXZ 0000000180064ce8 f i libucrt:output.obj
 0001:00063d9c       ?type_case_s@?$output_processor@_WV?$stream_output_adapter@_W@__crt_stdio_output@@V?$standard_base@_WV?$stream_output_adapter@_W@__crt_stdio_output@@@2@@__crt_stdio_output@@AEAA_NXZ 0000000180064d9c f i libucrt:output.obj
 0001:00063e34       ?type_case_s@?$output_processor@_WV?$string_output_adapter@_W@__crt_stdio_output@@V?$format_validation_base@_WV?$string_output_adapter@_W@__crt_stdio_output@@@2@@__crt_stdio_output@@AEAA_NXZ 0000000180064e34 f i libucrt:output.obj
 0001:00063ecc       ?type_case_s@?$output_processor@_WV?$string_output_adapter@_W@__crt_stdio_output@@V?$positional_parameter_base@_WV?$string_output_adapter@_W@__crt_stdio_output@@@2@@__crt_stdio_output@@AEAA_NXZ 0000000180064ecc f i libucrt:output.obj
 0001:00063f80       ?type_case_s@?$output_processor@_WV?$string_output_adapter@_W@__crt_stdio_output@@V?$standard_base@_WV?$string_output_adapter@_W@__crt_stdio_output@@@2@@__crt_stdio_output@@AEAA_NXZ 0000000180064f80 f i libucrt:output.obj
 0001:00064018       ?type_case_s_compute_narrow_string_length@?$output_processor@DV?$stream_output_adapter@D@__crt_stdio_output@@V?$format_validation_base@DV?$stream_output_adapter@D@__crt_stdio_output@@@2@@__crt_stdio_output@@AEAAHHD@Z 0000000180065018 f i libucrt:output.obj
 0001:00064024       ?type_case_s_compute_narrow_string_length@?$output_processor@DV?$stream_output_adapter@D@__crt_stdio_output@@V?$positional_parameter_base@DV?$stream_output_adapter@D@__crt_stdio_output@@@2@@__crt_stdio_output@@AEAAHHD@Z 0000000180065024 f i libucrt:output.obj
 0001:00064030       ?type_case_s_compute_narrow_string_length@?$output_processor@DV?$stream_output_adapter@D@__crt_stdio_output@@V?$standard_base@DV?$stream_output_adapter@D@__crt_stdio_output@@@2@@__crt_stdio_output@@AEAAHHD@Z 0000000180065030 f i libucrt:output.obj
 0001:0006403c       ?type_case_s_compute_narrow_string_length@?$output_processor@DV?$string_output_adapter@D@__crt_stdio_output@@V?$format_validation_base@DV?$string_output_adapter@D@__crt_stdio_output@@@2@@__crt_stdio_output@@AEAAHHD@Z 000000018006503c f i libucrt:output.obj
 0001:00064048       ?type_case_s_compute_narrow_string_length@?$output_processor@DV?$string_output_adapter@D@__crt_stdio_output@@V?$positional_parameter_base@DV?$string_output_adapter@D@__crt_stdio_output@@@2@@__crt_stdio_output@@AEAAHHD@Z 0000000180065048 f i libucrt:output.obj
 0001:00064054       ?type_case_s_compute_narrow_string_length@?$output_processor@DV?$string_output_adapter@D@__crt_stdio_output@@V?$standard_base@DV?$string_output_adapter@D@__crt_stdio_output@@@2@@__crt_stdio_output@@AEAAHHD@Z 0000000180065054 f i libucrt:output.obj
 0001:00064060       ?type_case_s_compute_narrow_string_length@?$output_processor@_WV?$stream_output_adapter@_W@__crt_stdio_output@@V?$format_validation_base@_WV?$stream_output_adapter@_W@__crt_stdio_output@@@2@@__crt_stdio_output@@AEAAHH_W@Z 0000000180065060 f i libucrt:output.obj
 0001:000640d8       ?type_case_s_compute_narrow_string_length@?$output_processor@_WV?$stream_output_adapter@_W@__crt_stdio_output@@V?$positional_parameter_base@_WV?$stream_output_adapter@_W@__crt_stdio_output@@@2@@__crt_stdio_output@@AEAAHH_W@Z 00000001800650d8 f i libucrt:output.obj
 0001:00064150       ?type_case_s_compute_narrow_string_length@?$output_processor@_WV?$stream_output_adapter@_W@__crt_stdio_output@@V?$standard_base@_WV?$stream_output_adapter@_W@__crt_stdio_output@@@2@@__crt_stdio_output@@AEAAHH_W@Z 0000000180065150 f i libucrt:output.obj
 0001:000641c8       ?type_case_s_compute_narrow_string_length@?$output_processor@_WV?$string_output_adapter@_W@__crt_stdio_output@@V?$format_validation_base@_WV?$string_output_adapter@_W@__crt_stdio_output@@@2@@__crt_stdio_output@@AEAAHH_W@Z 00000001800651c8 f i libucrt:output.obj
 0001:00064240       ?type_case_s_compute_narrow_string_length@?$output_processor@_WV?$string_output_adapter@_W@__crt_stdio_output@@V?$positional_parameter_base@_WV?$string_output_adapter@_W@__crt_stdio_output@@@2@@__crt_stdio_output@@AEAAHH_W@Z 0000000180065240 f i libucrt:output.obj
 0001:000642b8       ?type_case_s_compute_narrow_string_length@?$output_processor@_WV?$string_output_adapter@_W@__crt_stdio_output@@V?$standard_base@_WV?$string_output_adapter@_W@__crt_stdio_output@@@2@@__crt_stdio_output@@AEAAHH_W@Z 00000001800652b8 f i libucrt:output.obj
 0001:00064330       ?type_case_u@?$output_processor@DV?$stream_output_adapter@D@__crt_stdio_output@@V?$format_validation_base@DV?$stream_output_adapter@D@__crt_stdio_output@@@2@@__crt_stdio_output@@AEAA_NXZ 0000000180065330 f i libucrt:output.obj
 0001:00064338       ?type_case_u@?$output_processor@DV?$stream_output_adapter@D@__crt_stdio_output@@V?$positional_parameter_base@DV?$stream_output_adapter@D@__crt_stdio_output@@@2@@__crt_stdio_output@@AEAA_NXZ 0000000180065338 f i libucrt:output.obj
 0001:00064340       ?type_case_u@?$output_processor@DV?$stream_output_adapter@D@__crt_stdio_output@@V?$standard_base@DV?$stream_output_adapter@D@__crt_stdio_output@@@2@@__crt_stdio_output@@AEAA_NXZ 0000000180065340 f i libucrt:output.obj
 0001:00064348       ?type_case_u@?$output_processor@DV?$string_output_adapter@D@__crt_stdio_output@@V?$format_validation_base@DV?$string_output_adapter@D@__crt_stdio_output@@@2@@__crt_stdio_output@@AEAA_NXZ 0000000180065348 f i libucrt:output.obj
 0001:00064350       ?type_case_u@?$output_processor@DV?$string_output_adapter@D@__crt_stdio_output@@V?$positional_parameter_base@DV?$string_output_adapter@D@__crt_stdio_output@@@2@@__crt_stdio_output@@AEAA_NXZ 0000000180065350 f i libucrt:output.obj
 0001:00064358       ?type_case_u@?$output_processor@DV?$string_output_adapter@D@__crt_stdio_output@@V?$standard_base@DV?$string_output_adapter@D@__crt_stdio_output@@@2@@__crt_stdio_output@@AEAA_NXZ 0000000180065358 f i libucrt:output.obj
 0001:00064360       ?type_case_u@?$output_processor@_WV?$stream_output_adapter@_W@__crt_stdio_output@@V?$format_validation_base@_WV?$stream_output_adapter@_W@__crt_stdio_output@@@2@@__crt_stdio_output@@AEAA_NXZ 0000000180065360 f i libucrt:output.obj
 0001:00064368       ?type_case_u@?$output_processor@_WV?$stream_output_adapter@_W@__crt_stdio_output@@V?$positional_parameter_base@_WV?$stream_output_adapter@_W@__crt_stdio_output@@@2@@__crt_stdio_output@@AEAA_NXZ 0000000180065368 f i libucrt:output.obj
 0001:00064370       ?type_case_u@?$output_processor@_WV?$stream_output_adapter@_W@__crt_stdio_output@@V?$standard_base@_WV?$stream_output_adapter@_W@__crt_stdio_output@@@2@@__crt_stdio_output@@AEAA_NXZ 0000000180065370 f i libucrt:output.obj
 0001:00064378       ?type_case_u@?$output_processor@_WV?$string_output_adapter@_W@__crt_stdio_output@@V?$format_validation_base@_WV?$string_output_adapter@_W@__crt_stdio_output@@@2@@__crt_stdio_output@@AEAA_NXZ 0000000180065378 f i libucrt:output.obj
 0001:00064380       ?type_case_u@?$output_processor@_WV?$string_output_adapter@_W@__crt_stdio_output@@V?$positional_parameter_base@_WV?$string_output_adapter@_W@__crt_stdio_output@@@2@@__crt_stdio_output@@AEAA_NXZ 0000000180065380 f i libucrt:output.obj
 0001:00064388       ?type_case_u@?$output_processor@_WV?$string_output_adapter@_W@__crt_stdio_output@@V?$standard_base@_WV?$string_output_adapter@_W@__crt_stdio_output@@@2@@__crt_stdio_output@@AEAA_NXZ 0000000180065388 f i libucrt:output.obj
 0001:00064390       ?type_case_x@?$output_processor@DV?$stream_output_adapter@D@__crt_stdio_output@@V?$format_validation_base@DV?$stream_output_adapter@D@__crt_stdio_output@@@2@@__crt_stdio_output@@AEAA_NXZ 0000000180065390 f i libucrt:output.obj
 0001:00064398       ?type_case_x@?$output_processor@DV?$stream_output_adapter@D@__crt_stdio_output@@V?$positional_parameter_base@DV?$stream_output_adapter@D@__crt_stdio_output@@@2@@__crt_stdio_output@@AEAA_NXZ 0000000180065398 f i libucrt:output.obj
 0001:000643a0       ?type_case_x@?$output_processor@DV?$stream_output_adapter@D@__crt_stdio_output@@V?$standard_base@DV?$stream_output_adapter@D@__crt_stdio_output@@@2@@__crt_stdio_output@@AEAA_NXZ 00000001800653a0 f i libucrt:output.obj
 0001:000643a8       ?type_case_x@?$output_processor@DV?$string_output_adapter@D@__crt_stdio_output@@V?$format_validation_base@DV?$string_output_adapter@D@__crt_stdio_output@@@2@@__crt_stdio_output@@AEAA_NXZ 00000001800653a8 f i libucrt:output.obj
 0001:000643b0       ?type_case_x@?$output_processor@DV?$string_output_adapter@D@__crt_stdio_output@@V?$positional_parameter_base@DV?$string_output_adapter@D@__crt_stdio_output@@@2@@__crt_stdio_output@@AEAA_NXZ 00000001800653b0 f i libucrt:output.obj
 0001:000643b8       ?type_case_x@?$output_processor@DV?$string_output_adapter@D@__crt_stdio_output@@V?$standard_base@DV?$string_output_adapter@D@__crt_stdio_output@@@2@@__crt_stdio_output@@AEAA_NXZ 00000001800653b8 f i libucrt:output.obj
 0001:000643c0       ?type_case_x@?$output_processor@_WV?$stream_output_adapter@_W@__crt_stdio_output@@V?$format_validation_base@_WV?$stream_output_adapter@_W@__crt_stdio_output@@@2@@__crt_stdio_output@@AEAA_NXZ 00000001800653c0 f i libucrt:output.obj
 0001:000643c8       ?type_case_x@?$output_processor@_WV?$stream_output_adapter@_W@__crt_stdio_output@@V?$positional_parameter_base@_WV?$stream_output_adapter@_W@__crt_stdio_output@@@2@@__crt_stdio_output@@AEAA_NXZ 00000001800653c8 f i libucrt:output.obj
 0001:000643d0       ?type_case_x@?$output_processor@_WV?$stream_output_adapter@_W@__crt_stdio_output@@V?$standard_base@_WV?$stream_output_adapter@_W@__crt_stdio_output@@@2@@__crt_stdio_output@@AEAA_NXZ 00000001800653d0 f i libucrt:output.obj
 0001:000643d8       ?type_case_x@?$output_processor@_WV?$string_output_adapter@_W@__crt_stdio_output@@V?$format_validation_base@_WV?$string_output_adapter@_W@__crt_stdio_output@@@2@@__crt_stdio_output@@AEAA_NXZ 00000001800653d8 f i libucrt:output.obj
 0001:000643e0       ?type_case_x@?$output_processor@_WV?$string_output_adapter@_W@__crt_stdio_output@@V?$positional_parameter_base@_WV?$string_output_adapter@_W@__crt_stdio_output@@@2@@__crt_stdio_output@@AEAA_NXZ 00000001800653e0 f i libucrt:output.obj
 0001:000643e8       ?type_case_x@?$output_processor@_WV?$string_output_adapter@_W@__crt_stdio_output@@V?$standard_base@_WV?$string_output_adapter@_W@__crt_stdio_output@@@2@@__crt_stdio_output@@AEAA_NXZ 00000001800653e8 f i libucrt:output.obj
 0001:000643f0       ?unget@?$c_string_character_source@D@__crt_strtox@@QEAAXD@Z 00000001800653f0 f i libucrt:output.obj
 0001:0006441c       ?unget@?$c_string_character_source@_W@__crt_strtox@@QEAAX_W@Z 000000018006541c f i libucrt:output.obj
 0001:0006444c       ?unsafe_value@?$cached@H@__crt_cached_ptd_host@@QEAAHXZ 000000018006544c f i libucrt:output.obj
 0001:00064450       ?unsafe_value@?$cached@K@__crt_cached_ptd_host@@QEAAKXZ 0000000180065450 f i libucrt:output.obj
 0001:00064454       ?unset_flag@?$output_processor@DV?$stream_output_adapter@D@__crt_stdio_output@@V?$format_validation_base@DV?$stream_output_adapter@D@__crt_stdio_output@@@2@@__crt_stdio_output@@AEAAXI@Z 0000000180065454 f i libucrt:output.obj
 0001:0006445c       ?unset_flag@?$output_processor@DV?$stream_output_adapter@D@__crt_stdio_output@@V?$positional_parameter_base@DV?$stream_output_adapter@D@__crt_stdio_output@@@2@@__crt_stdio_output@@AEAAXI@Z 000000018006545c f i libucrt:output.obj
 0001:00064464       ?unset_flag@?$output_processor@DV?$stream_output_adapter@D@__crt_stdio_output@@V?$standard_base@DV?$stream_output_adapter@D@__crt_stdio_output@@@2@@__crt_stdio_output@@AEAAXI@Z 0000000180065464 f i libucrt:output.obj
 0001:0006446c       ?unset_flag@?$output_processor@DV?$string_output_adapter@D@__crt_stdio_output@@V?$format_validation_base@DV?$string_output_adapter@D@__crt_stdio_output@@@2@@__crt_stdio_output@@AEAAXI@Z 000000018006546c f i libucrt:output.obj
 0001:00064474       ?unset_flag@?$output_processor@DV?$string_output_adapter@D@__crt_stdio_output@@V?$positional_parameter_base@DV?$string_output_adapter@D@__crt_stdio_output@@@2@@__crt_stdio_output@@AEAAXI@Z 0000000180065474 f i libucrt:output.obj
 0001:0006447c       ?unset_flag@?$output_processor@DV?$string_output_adapter@D@__crt_stdio_output@@V?$standard_base@DV?$string_output_adapter@D@__crt_stdio_output@@@2@@__crt_stdio_output@@AEAAXI@Z 000000018006547c f i libucrt:output.obj
 0001:00064484       ?unset_flag@?$output_processor@_WV?$stream_output_adapter@_W@__crt_stdio_output@@V?$format_validation_base@_WV?$stream_output_adapter@_W@__crt_stdio_output@@@2@@__crt_stdio_output@@AEAAXI@Z 0000000180065484 f i libucrt:output.obj
 0001:0006448c       ?unset_flag@?$output_processor@_WV?$stream_output_adapter@_W@__crt_stdio_output@@V?$positional_parameter_base@_WV?$stream_output_adapter@_W@__crt_stdio_output@@@2@@__crt_stdio_output@@AEAAXI@Z 000000018006548c f i libucrt:output.obj
 0001:00064494       ?unset_flag@?$output_processor@_WV?$stream_output_adapter@_W@__crt_stdio_output@@V?$standard_base@_WV?$stream_output_adapter@_W@__crt_stdio_output@@@2@@__crt_stdio_output@@AEAAXI@Z 0000000180065494 f i libucrt:output.obj
 0001:0006449c       ?unset_flag@?$output_processor@_WV?$string_output_adapter@_W@__crt_stdio_output@@V?$format_validation_base@_WV?$string_output_adapter@_W@__crt_stdio_output@@@2@@__crt_stdio_output@@AEAAXI@Z 000000018006549c f i libucrt:output.obj
 0001:000644a4       ?unset_flag@?$output_processor@_WV?$string_output_adapter@_W@__crt_stdio_output@@V?$positional_parameter_base@_WV?$string_output_adapter@_W@__crt_stdio_output@@@2@@__crt_stdio_output@@AEAAXI@Z 00000001800654a4 f i libucrt:output.obj
 0001:000644ac       ?unset_flag@?$output_processor@_WV?$string_output_adapter@_W@__crt_stdio_output@@V?$standard_base@_WV?$string_output_adapter@_W@__crt_stdio_output@@@2@@__crt_stdio_output@@AEAAXI@Z 00000001800654ac f i libucrt:output.obj
 0001:000644b4       ?update_field_width@?$positional_parameter_base@DV?$stream_output_adapter@D@__crt_stdio_output@@@__crt_stdio_output@@IEAA_NXZ 00000001800654b4 f i libucrt:output.obj
 0001:00064624       ?update_field_width@?$positional_parameter_base@DV?$string_output_adapter@D@__crt_stdio_output@@@__crt_stdio_output@@IEAA_NXZ 0000000180065624 f i libucrt:output.obj
 0001:00064794       ?update_field_width@?$positional_parameter_base@_WV?$stream_output_adapter@_W@__crt_stdio_output@@@__crt_stdio_output@@IEAA_NXZ 0000000180065794 f i libucrt:output.obj
 0001:00064908       ?update_field_width@?$positional_parameter_base@_WV?$string_output_adapter@_W@__crt_stdio_output@@@__crt_stdio_output@@IEAA_NXZ 0000000180065908 f i libucrt:output.obj
 0001:00064a7c       ?update_field_width@?$standard_base@DV?$stream_output_adapter@D@__crt_stdio_output@@@__crt_stdio_output@@IEAA_NXZ 0000000180065a7c f i libucrt:output.obj
 0001:00064a90       ?update_field_width@?$standard_base@DV?$string_output_adapter@D@__crt_stdio_output@@@__crt_stdio_output@@IEAA_NXZ 0000000180065a90 f i libucrt:output.obj
 0001:00064aa4       ?update_field_width@?$standard_base@_WV?$stream_output_adapter@_W@__crt_stdio_output@@@__crt_stdio_output@@IEAA_NXZ 0000000180065aa4 f i libucrt:output.obj
 0001:00064ab8       ?update_field_width@?$standard_base@_WV?$string_output_adapter@_W@__crt_stdio_output@@@__crt_stdio_output@@IEAA_NXZ 0000000180065ab8 f i libucrt:output.obj
 0001:00064ad0       ?update_locale@__crt_cached_ptd_host@@AEAAXXZ 0000000180065ad0 f i libucrt:output.obj
 0001:00064ae0       ?update_locale_slow@__crt_cached_ptd_host@@AEAAXXZ 0000000180065ae0 f i libucrt:output.obj
 0001:00064b58       ?update_precision@?$positional_parameter_base@DV?$stream_output_adapter@D@__crt_stdio_output@@@__crt_stdio_output@@IEAA_NXZ 0000000180065b58 f i libucrt:output.obj
 0001:00064cc8       ?update_precision@?$positional_parameter_base@DV?$string_output_adapter@D@__crt_stdio_output@@@__crt_stdio_output@@IEAA_NXZ 0000000180065cc8 f i libucrt:output.obj
 0001:00064e38       ?update_precision@?$positional_parameter_base@_WV?$stream_output_adapter@_W@__crt_stdio_output@@@__crt_stdio_output@@IEAA_NXZ 0000000180065e38 f i libucrt:output.obj
 0001:00064fac       ?update_precision@?$positional_parameter_base@_WV?$string_output_adapter@_W@__crt_stdio_output@@@__crt_stdio_output@@IEAA_NXZ 0000000180065fac f i libucrt:output.obj
 0001:00065120       ?update_precision@?$standard_base@DV?$stream_output_adapter@D@__crt_stdio_output@@@__crt_stdio_output@@IEAA_NXZ 0000000180066120 f i libucrt:output.obj
 0001:00065134       ?update_precision@?$standard_base@DV?$string_output_adapter@D@__crt_stdio_output@@@__crt_stdio_output@@IEAA_NXZ 0000000180066134 f i libucrt:output.obj
 0001:00065148       ?update_precision@?$standard_base@_WV?$stream_output_adapter@_W@__crt_stdio_output@@@__crt_stdio_output@@IEAA_NXZ 0000000180066148 f i libucrt:output.obj
 0001:0006515c       ?update_precision@?$standard_base@_WV?$string_output_adapter@_W@__crt_stdio_output@@@__crt_stdio_output@@IEAA_NXZ 000000018006615c f i libucrt:output.obj
 0001:00065170       ?valid@?$cached@H@__crt_cached_ptd_host@@QEBA_NXZ 0000000180066170 f i libucrt:output.obj
 0001:00065174       ?valid@?$cached@K@__crt_cached_ptd_host@@QEBA_NXZ 0000000180066174 f i libucrt:output.obj
 0001:00065178       ?valid@__crt_stdio_stream@@QEBA_NXZ 0000000180066178 f i libucrt:output.obj
 0001:00065180       ?validate@?$c_string_character_source@D@__crt_strtox@@QEBA_NXZ 0000000180066180 f i libucrt:output.obj
 0001:000651a8       ?validate@?$c_string_character_source@_W@__crt_strtox@@QEBA_NXZ 00000001800661a8 f i libucrt:output.obj
 0001:000651d0       ?validate@?$stream_output_adapter@D@__crt_stdio_output@@QEBA_NAEAV__crt_cached_ptd_host@@@Z 00000001800661d0 f i libucrt:output.obj
 0001:00065210       ?validate@?$stream_output_adapter@_W@__crt_stdio_output@@QEBA_NAEAV__crt_cached_ptd_host@@@Z 0000000180066210 f i libucrt:output.obj
 0001:0006524c       ?validate@?$string_output_adapter@D@__crt_stdio_output@@QEBA_NAEAV__crt_cached_ptd_host@@@Z 000000018006624c f i libucrt:output.obj
 0001:00065288       ?validate@?$string_output_adapter@_W@__crt_stdio_output@@QEBA_NAEAV__crt_cached_ptd_host@@@Z 0000000180066288 f i libucrt:output.obj
 0001:000652c4       ?validate_and_store_parameter_data@?$positional_parameter_base@DV?$stream_output_adapter@D@__crt_stdio_output@@@__crt_stdio_output@@AEAA_NAEAUparameter_data@12@W4parameter_type@12@DW4length_modifier@2@@Z 00000001800662c4 f i libucrt:output.obj
 0001:00065328       ?validate_and_store_parameter_data@?$positional_parameter_base@DV?$string_output_adapter@D@__crt_stdio_output@@@__crt_stdio_output@@AEAA_NAEAUparameter_data@12@W4parameter_type@12@DW4length_modifier@2@@Z 0000000180066328 f i libucrt:output.obj
 0001:0006538c       ?validate_and_store_parameter_data@?$positional_parameter_base@_WV?$stream_output_adapter@_W@__crt_stdio_output@@@__crt_stdio_output@@AEAA_NAEAUparameter_data@12@W4parameter_type@12@_WW4length_modifier@2@@Z 000000018006638c f i libucrt:output.obj
 0001:000653f0       ?validate_and_store_parameter_data@?$positional_parameter_base@_WV?$string_output_adapter@_W@__crt_stdio_output@@@__crt_stdio_output@@AEAA_NAEAUparameter_data@12@W4parameter_type@12@_WW4length_modifier@2@@Z 00000001800663f0 f i libucrt:output.obj
 0001:00065454       ?validate_and_update_state_at_beginning_of_format_character@?$positional_parameter_base@DV?$stream_output_adapter@D@__crt_stdio_output@@@__crt_stdio_output@@IEAA_NXZ 0000000180066454 f i libucrt:output.obj
 0001:0006559c       ?validate_and_update_state_at_beginning_of_format_character@?$positional_parameter_base@DV?$string_output_adapter@D@__crt_stdio_output@@@__crt_stdio_output@@IEAA_NXZ 000000018006659c f i libucrt:output.obj
 0001:000656e4       ?validate_and_update_state_at_beginning_of_format_character@?$positional_parameter_base@_WV?$stream_output_adapter@_W@__crt_stdio_output@@@__crt_stdio_output@@IEAA_NXZ 00000001800666e4 f i libucrt:output.obj
 0001:0006583c       ?validate_and_update_state_at_beginning_of_format_character@?$positional_parameter_base@_WV?$string_output_adapter@_W@__crt_stdio_output@@@__crt_stdio_output@@IEAA_NXZ 000000018006683c f i libucrt:output.obj
 0001:00065994       ?validate_and_update_state_at_beginning_of_format_character@?$standard_base@DV?$stream_output_adapter@D@__crt_stdio_output@@@__crt_stdio_output@@IEAA_NXZ 0000000180066994 f i libucrt:output.obj
 0001:00065998       ?validate_and_update_state_at_beginning_of_format_character@?$standard_base@DV?$string_output_adapter@D@__crt_stdio_output@@@__crt_stdio_output@@IEAA_NXZ 0000000180066998 f i libucrt:output.obj
 0001:0006599c       ?validate_and_update_state_at_beginning_of_format_character@?$standard_base@_WV?$stream_output_adapter@_W@__crt_stdio_output@@@__crt_stdio_output@@IEAA_NXZ 000000018006699c f i libucrt:output.obj
 0001:000659a0       ?validate_and_update_state_at_beginning_of_format_character@?$standard_base@_WV?$string_output_adapter@_W@__crt_stdio_output@@@__crt_stdio_output@@IEAA_NXZ 00000001800669a0 f i libucrt:output.obj
 0001:000659a4       ?validate_and_update_state_at_end_of_format_string@?$format_validation_base@DV?$stream_output_adapter@D@__crt_stdio_output@@@__crt_stdio_output@@IEAA_NXZ 00000001800669a4 f i libucrt:output.obj
 0001:000659ec       ?validate_and_update_state_at_end_of_format_string@?$format_validation_base@DV?$string_output_adapter@D@__crt_stdio_output@@@__crt_stdio_output@@IEAA_NXZ 00000001800669ec f i libucrt:output.obj
 0001:00065a34       ?validate_and_update_state_at_end_of_format_string@?$format_validation_base@_WV?$stream_output_adapter@_W@__crt_stdio_output@@@__crt_stdio_output@@IEAA_NXZ 0000000180066a34 f i libucrt:output.obj
 0001:00065a7c       ?validate_and_update_state_at_end_of_format_string@?$format_validation_base@_WV?$string_output_adapter@_W@__crt_stdio_output@@@__crt_stdio_output@@IEAA_NXZ 0000000180066a7c f i libucrt:output.obj
 0001:00065ac4       ?validate_and_update_state_at_end_of_format_string@?$positional_parameter_base@DV?$stream_output_adapter@D@__crt_stdio_output@@@__crt_stdio_output@@IEAA_NXZ 0000000180066ac4 f i libucrt:output.obj
 0001:00065b80       ?validate_and_update_state_at_end_of_format_string@?$positional_parameter_base@DV?$string_output_adapter@D@__crt_stdio_output@@@__crt_stdio_output@@IEAA_NXZ 0000000180066b80 f i libucrt:output.obj
 0001:00065c3c       ?validate_and_update_state_at_end_of_format_string@?$positional_parameter_base@_WV?$stream_output_adapter@_W@__crt_stdio_output@@@__crt_stdio_output@@IEAA_NXZ 0000000180066c3c f i libucrt:output.obj
 0001:00065cf8       ?validate_and_update_state_at_end_of_format_string@?$positional_parameter_base@_WV?$string_output_adapter@_W@__crt_stdio_output@@@__crt_stdio_output@@IEAA_NXZ 0000000180066cf8 f i libucrt:output.obj
 0001:00065db4       ?validate_and_update_state_at_end_of_format_string@?$standard_base@DV?$stream_output_adapter@D@__crt_stdio_output@@@__crt_stdio_output@@IEBA_NXZ 0000000180066db4 f i libucrt:output.obj
 0001:00065db8       ?validate_and_update_state_at_end_of_format_string@?$standard_base@DV?$string_output_adapter@D@__crt_stdio_output@@@__crt_stdio_output@@IEBA_NXZ 0000000180066db8 f i libucrt:output.obj
 0001:00065dbc       ?validate_and_update_state_at_end_of_format_string@?$standard_base@_WV?$stream_output_adapter@_W@__crt_stdio_output@@@__crt_stdio_output@@IEBA_NXZ 0000000180066dbc f i libucrt:output.obj
 0001:00065dc0       ?validate_and_update_state_at_end_of_format_string@?$standard_base@_WV?$string_output_adapter@_W@__crt_stdio_output@@@__crt_stdio_output@@IEBA_NXZ 0000000180066dc0 f i libucrt:output.obj
 0001:00065dc4       ?validate_state_for_type_case_a@?$positional_parameter_base@DV?$stream_output_adapter@D@__crt_stdio_output@@@__crt_stdio_output@@IEAA_NXZ 0000000180066dc4 f i libucrt:output.obj
 0001:00065ea8       ?validate_state_for_type_case_a@?$positional_parameter_base@DV?$string_output_adapter@D@__crt_stdio_output@@@__crt_stdio_output@@IEAA_NXZ 0000000180066ea8 f i libucrt:output.obj
 0001:00065f8c       ?validate_state_for_type_case_a@?$positional_parameter_base@_WV?$stream_output_adapter@_W@__crt_stdio_output@@@__crt_stdio_output@@IEAA_NXZ 0000000180066f8c f i libucrt:output.obj
 0001:00066070       ?validate_state_for_type_case_a@?$positional_parameter_base@_WV?$string_output_adapter@_W@__crt_stdio_output@@@__crt_stdio_output@@IEAA_NXZ 0000000180067070 f i libucrt:output.obj
 0001:00066154       ?validate_state_for_type_case_a@?$standard_base@DV?$stream_output_adapter@D@__crt_stdio_output@@@__crt_stdio_output@@IEBA_NXZ 0000000180067154 f i libucrt:output.obj
 0001:00066158       ?validate_state_for_type_case_a@?$standard_base@DV?$string_output_adapter@D@__crt_stdio_output@@@__crt_stdio_output@@IEBA_NXZ 0000000180067158 f i libucrt:output.obj
 0001:0006615c       ?validate_state_for_type_case_a@?$standard_base@_WV?$stream_output_adapter@_W@__crt_stdio_output@@@__crt_stdio_output@@IEBA_NXZ 000000018006715c f i libucrt:output.obj
 0001:00066160       ?validate_state_for_type_case_a@?$standard_base@_WV?$string_output_adapter@_W@__crt_stdio_output@@@__crt_stdio_output@@IEBA_NXZ 0000000180067160 f i libucrt:output.obj
 0001:00066164       ?validate_stream_is_ansi_if_required@?$__acrt_stdio_char_traits@D@@SA_NQEAU_iobuf@@@Z 0000000180067164 f i libucrt:output.obj
 0001:00066200       ?validate_stream_is_ansi_if_required@?$__acrt_stdio_char_traits@_W@@SA_NQEAU_iobuf@@@Z 0000000180067200 f i libucrt:output.obj
 0001:00066204       ?wide_character_to_digit@__crt_strtox@@YAH_W@Z 0000000180067204 f i libucrt:output.obj
 0001:000663a4       ?wide_null_string@?$output_processor@DV?$stream_output_adapter@D@__crt_stdio_output@@V?$format_validation_base@DV?$stream_output_adapter@D@__crt_stdio_output@@@2@@__crt_stdio_output@@CAPEA_WXZ 00000001800673a4 f i libucrt:output.obj
 0001:000663ac       ?wide_null_string@?$output_processor@DV?$stream_output_adapter@D@__crt_stdio_output@@V?$positional_parameter_base@DV?$stream_output_adapter@D@__crt_stdio_output@@@2@@__crt_stdio_output@@CAPEA_WXZ 00000001800673ac f i libucrt:output.obj
 0001:000663b4       ?wide_null_string@?$output_processor@DV?$stream_output_adapter@D@__crt_stdio_output@@V?$standard_base@DV?$stream_output_adapter@D@__crt_stdio_output@@@2@@__crt_stdio_output@@CAPEA_WXZ 00000001800673b4 f i libucrt:output.obj
 0001:000663bc       ?wide_null_string@?$output_processor@DV?$string_output_adapter@D@__crt_stdio_output@@V?$format_validation_base@DV?$string_output_adapter@D@__crt_stdio_output@@@2@@__crt_stdio_output@@CAPEA_WXZ 00000001800673bc f i libucrt:output.obj
 0001:000663c4       ?wide_null_string@?$output_processor@DV?$string_output_adapter@D@__crt_stdio_output@@V?$positional_parameter_base@DV?$string_output_adapter@D@__crt_stdio_output@@@2@@__crt_stdio_output@@CAPEA_WXZ 00000001800673c4 f i libucrt:output.obj
 0001:000663cc       ?wide_null_string@?$output_processor@DV?$string_output_adapter@D@__crt_stdio_output@@V?$standard_base@DV?$string_output_adapter@D@__crt_stdio_output@@@2@@__crt_stdio_output@@CAPEA_WXZ 00000001800673cc f i libucrt:output.obj
 0001:000663d4       ?wide_null_string@?$output_processor@_WV?$stream_output_adapter@_W@__crt_stdio_output@@V?$format_validation_base@_WV?$stream_output_adapter@_W@__crt_stdio_output@@@2@@__crt_stdio_output@@CAPEA_WXZ 00000001800673d4 f i libucrt:output.obj
 0001:000663dc       ?wide_null_string@?$output_processor@_WV?$stream_output_adapter@_W@__crt_stdio_output@@V?$positional_parameter_base@_WV?$stream_output_adapter@_W@__crt_stdio_output@@@2@@__crt_stdio_output@@CAPEA_WXZ 00000001800673dc f i libucrt:output.obj
 0001:000663e4       ?wide_null_string@?$output_processor@_WV?$stream_output_adapter@_W@__crt_stdio_output@@V?$standard_base@_WV?$stream_output_adapter@_W@__crt_stdio_output@@@2@@__crt_stdio_output@@CAPEA_WXZ 00000001800673e4 f i libucrt:output.obj
 0001:000663ec       ?wide_null_string@?$output_processor@_WV?$string_output_adapter@_W@__crt_stdio_output@@V?$format_validation_base@_WV?$string_output_adapter@_W@__crt_stdio_output@@@2@@__crt_stdio_output@@CAPEA_WXZ 00000001800673ec f i libucrt:output.obj
 0001:000663f4       ?wide_null_string@?$output_processor@_WV?$string_output_adapter@_W@__crt_stdio_output@@V?$positional_parameter_base@_WV?$string_output_adapter@_W@__crt_stdio_output@@@2@@__crt_stdio_output@@CAPEA_WXZ 00000001800673f4 f i libucrt:output.obj
 0001:000663fc       ?wide_null_string@?$output_processor@_WV?$string_output_adapter@_W@__crt_stdio_output@@V?$standard_base@_WV?$string_output_adapter@_W@__crt_stdio_output@@@2@@__crt_stdio_output@@CAPEA_WXZ 00000001800673fc f i libucrt:output.obj
 0001:00066404       ?write_character@?$output_adapter_common@DV?$stream_output_adapter@D@__crt_stdio_output@@@__crt_stdio_output@@QEBAXDQEAHAEAV__crt_cached_ptd_host@@@Z 0000000180067404 f i libucrt:output.obj
 0001:00066450       ?write_character@?$output_adapter_common@_WV?$stream_output_adapter@_W@__crt_stdio_output@@@__crt_stdio_output@@QEBAX_WQEAHAEAV__crt_cached_ptd_host@@@Z 0000000180067450 f i libucrt:output.obj
 0001:000664a0       ?write_character@?$string_output_adapter@D@__crt_stdio_output@@QEBA_NDQEAHAEAV__crt_cached_ptd_host@@@Z 00000001800674a0 f i libucrt:output.obj
 0001:000664e8       ?write_character@?$string_output_adapter@_W@__crt_stdio_output@@QEBA_N_WQEAHAEAV__crt_cached_ptd_host@@@Z 00000001800674e8 f i libucrt:output.obj
 0001:00066530       ?write_character_without_count_update@?$stream_output_adapter@D@__crt_stdio_output@@QEBA_NDAEAV__crt_cached_ptd_host@@@Z 0000000180067530 f i libucrt:output.obj
 0001:00066570       ?write_character_without_count_update@?$stream_output_adapter@_W@__crt_stdio_output@@QEBA_N_WAEAV__crt_cached_ptd_host@@@Z 0000000180067570 f i libucrt:output.obj
 0001:000665b0       ?write_stored_string_tchar@?$output_processor@DV?$stream_output_adapter@D@__crt_stdio_output@@V?$format_validation_base@DV?$stream_output_adapter@D@__crt_stdio_output@@@2@@__crt_stdio_output@@AEAA_ND@Z 00000001800675b0 f i libucrt:output.obj
 0001:000666d4       ?write_stored_string_tchar@?$output_processor@DV?$stream_output_adapter@D@__crt_stdio_output@@V?$positional_parameter_base@DV?$stream_output_adapter@D@__crt_stdio_output@@@2@@__crt_stdio_output@@AEAA_ND@Z 00000001800676d4 f i libucrt:output.obj
 0001:000667f8       ?write_stored_string_tchar@?$output_processor@DV?$stream_output_adapter@D@__crt_stdio_output@@V?$standard_base@DV?$stream_output_adapter@D@__crt_stdio_output@@@2@@__crt_stdio_output@@AEAA_ND@Z 00000001800677f8 f i libucrt:output.obj
 0001:0006691c       ?write_stored_string_tchar@?$output_processor@DV?$string_output_adapter@D@__crt_stdio_output@@V?$format_validation_base@DV?$string_output_adapter@D@__crt_stdio_output@@@2@@__crt_stdio_output@@AEAA_ND@Z 000000018006791c f i libucrt:output.obj
 0001:000669f8       ?write_stored_string_tchar@?$output_processor@DV?$string_output_adapter@D@__crt_stdio_output@@V?$positional_parameter_base@DV?$string_output_adapter@D@__crt_stdio_output@@@2@@__crt_stdio_output@@AEAA_ND@Z 00000001800679f8 f i libucrt:output.obj
 0001:00066ad4       ?write_stored_string_tchar@?$output_processor@DV?$string_output_adapter@D@__crt_stdio_output@@V?$standard_base@DV?$string_output_adapter@D@__crt_stdio_output@@@2@@__crt_stdio_output@@AEAA_ND@Z 0000000180067ad4 f i libucrt:output.obj
 0001:00066bb0       ?write_stored_string_tchar@?$output_processor@_WV?$stream_output_adapter@_W@__crt_stdio_output@@V?$format_validation_base@_WV?$stream_output_adapter@_W@__crt_stdio_output@@@2@@__crt_stdio_output@@AEAA_N_W@Z 0000000180067bb0 f i libucrt:output.obj
 0001:00066ce4       ?write_stored_string_tchar@?$output_processor@_WV?$stream_output_adapter@_W@__crt_stdio_output@@V?$positional_parameter_base@_WV?$stream_output_adapter@_W@__crt_stdio_output@@@2@@__crt_stdio_output@@AEAA_N_W@Z 0000000180067ce4 f i libucrt:output.obj
 0001:00066e18       ?write_stored_string_tchar@?$output_processor@_WV?$stream_output_adapter@_W@__crt_stdio_output@@V?$standard_base@_WV?$stream_output_adapter@_W@__crt_stdio_output@@@2@@__crt_stdio_output@@AEAA_N_W@Z 0000000180067e18 f i libucrt:output.obj
 0001:00066f4c       ?write_stored_string_tchar@?$output_processor@_WV?$string_output_adapter@_W@__crt_stdio_output@@V?$format_validation_base@_WV?$string_output_adapter@_W@__crt_stdio_output@@@2@@__crt_stdio_output@@AEAA_N_W@Z 0000000180067f4c f i libucrt:output.obj
 0001:00067054       ?write_stored_string_tchar@?$output_processor@_WV?$string_output_adapter@_W@__crt_stdio_output@@V?$positional_parameter_base@_WV?$string_output_adapter@_W@__crt_stdio_output@@@2@@__crt_stdio_output@@AEAA_N_W@Z 0000000180068054 f i libucrt:output.obj
 0001:0006715c       ?write_stored_string_tchar@?$output_processor@_WV?$string_output_adapter@_W@__crt_stdio_output@@V?$standard_base@_WV?$string_output_adapter@_W@__crt_stdio_output@@@2@@__crt_stdio_output@@AEAA_N_W@Z 000000018006815c f i libucrt:output.obj
 0001:00067264       ?write_string@?$stream_output_adapter@D@__crt_stdio_output@@QEBAXQEBDHQEAHAEAV__crt_cached_ptd_host@@@Z 0000000180068264 f i libucrt:output.obj
 0001:00067288       ?write_string@?$stream_output_adapter@_W@__crt_stdio_output@@QEBAXQEB_WHQEAHAEAV__crt_cached_ptd_host@@@Z 0000000180068288 f i libucrt:output.obj
 0001:000672ac       ?write_string@?$string_output_adapter@D@__crt_stdio_output@@QEBAXQEBDHQEAHAEAV__crt_cached_ptd_host@@@Z 00000001800682ac f i libucrt:output.obj
 0001:00067350       ?write_string@?$string_output_adapter@_W@__crt_stdio_output@@QEBAXQEB_WHQEAHAEAV__crt_cached_ptd_host@@@Z 0000000180068350 f i libucrt:output.obj
 0001:000673f8       ?write_string_impl@?$output_adapter_common@DV?$stream_output_adapter@D@__crt_stdio_output@@@__crt_stdio_output@@IEBAXQEBDHQEAHAEAV__crt_cached_ptd_host@@@Z 00000001800683f8 f i libucrt:output.obj
 0001:000674c4       ?write_string_impl@?$output_adapter_common@_WV?$stream_output_adapter@_W@__crt_stdio_output@@@__crt_stdio_output@@IEBAXQEB_WHQEAHAEAV__crt_cached_ptd_host@@@Z 00000001800684c4 f i libucrt:output.obj
 0001:000675a0       __acrt_disable_global_locale_sync 00000001800685a0 f i libucrt:output.obj
 0001:000675a8       __acrt_enable_global_locale_sync 00000001800685a8 f i libucrt:output.obj
 0001:000675b4       __acrt_isleadbyte_l_noupdate 00000001800685b4 f i libucrt:output.obj
 0001:000675d8       __acrt_locale_changed      00000001800685d8 f i libucrt:output.obj
 0001:000675e4       __acrt_locale_get_ctype_array_value 00000001800685e4 f i libucrt:output.obj
 0001:000675fc       __ascii_iswalpha           00000001800685fc f i libucrt:output.obj
 0001:00067618       __ascii_toupper            0000000180068618 f i libucrt:output.obj
 0001:00067628       __ascii_towupper           0000000180068628 f i libucrt:output.obj
 0001:00067638       __stdio_common_vfprintf    0000000180068638 f   libucrt:output.obj
 0001:0006775c       __stdio_common_vfprintf_p  000000018006875c f   libucrt:output.obj
 0001:00067880       __stdio_common_vfprintf_s  0000000180068880 f   libucrt:output.obj
 0001:000679a4       __stdio_common_vfwprintf   00000001800689a4 f   libucrt:output.obj
 0001:00067ac8       __stdio_common_vfwprintf_p 0000000180068ac8 f   libucrt:output.obj
 0001:00067bec       __stdio_common_vfwprintf_s 0000000180068bec f   libucrt:output.obj
 0001:00067d10       __stdio_common_vsnprintf_s 0000000180068d10 f   libucrt:output.obj
 0001:00067ee8       __stdio_common_vsnwprintf_s 0000000180068ee8 f   libucrt:output.obj
 0001:000680c4       __stdio_common_vsprintf    00000001800690c4 f   libucrt:output.obj
 0001:00068318       __stdio_common_vsprintf_p  0000000180069318 f   libucrt:output.obj
 0001:000683d0       __stdio_common_vsprintf_s  00000001800693d0 f   libucrt:output.obj
 0001:000684e4       __stdio_common_vswprintf   00000001800694e4 f   libucrt:output.obj
 0001:00068740       __stdio_common_vswprintf_p 0000000180069740 f   libucrt:output.obj
 0001:000687f8       __stdio_common_vswprintf_s 00000001800697f8 f   libucrt:output.obj
 0001:0006890c       _ctype_fast_check_internal 000000018006990c f i libucrt:output.obj
 0001:00068920       _isdigit_fast_internal     0000000180069920 f i libucrt:output.obj
 0001:00068934       _tolower_fast_internal     0000000180069934 f i libucrt:output.obj
 0001:00068948       ??$is_overflow_condition@_K@__crt_strtox@@YA_NI_K@Z 0000000180069948 f i libucrt:atox.obj
 0001:00068978       ??$make_c_string_character_source@D$$T@__crt_strtox@@YA?AV?$c_string_character_source@D@0@QEBD$$T@Z 0000000180069978 f i libucrt:atox.obj
 0001:0006898c       ??$make_c_string_character_source@_W$$T@__crt_strtox@@YA?AV?$c_string_character_source@_W@0@QEB_W$$T@Z 000000018006998c f i libucrt:atox.obj
 0001:000689a0       ??$parse_integer@KV?$c_string_character_source@D@__crt_strtox@@$00@__crt_strtox@@YAKAEAV__crt_cached_ptd_host@@V?$c_string_character_source@D@0@H_N@Z 00000001800699a0 f i libucrt:atox.obj
 0001:00068c80       ??$parse_integer@KV?$c_string_character_source@_W@__crt_strtox@@$00@__crt_strtox@@YAKAEAV__crt_cached_ptd_host@@V?$c_string_character_source@_W@0@H_N@Z 0000000180069c80 f i libucrt:atox.obj
 0001:00069408       ??$parse_integer@_KV?$c_string_character_source@D@__crt_strtox@@$00@__crt_strtox@@YA_KAEAV__crt_cached_ptd_host@@V?$c_string_character_source@D@0@H_N@Z 000000018006a408 f i libucrt:atox.obj
 0001:000696e4       ??$parse_integer@_KV?$c_string_character_source@_W@__crt_strtox@@$00@__crt_strtox@@YA_KAEAV__crt_cached_ptd_host@@V?$c_string_character_source@_W@0@H_N@Z 000000018006a6e4 f i libucrt:atox.obj
 0001:00069e5c       ??$parse_integer_from_string@JD$$T@__crt_strtox@@YAJQEBD$$THQEAU__crt_locale_pointers@@@Z 000000018006ae5c f i libucrt:atox.obj
 0001:00069f18       ??$parse_integer_from_string@J_W$$T@__crt_strtox@@YAJQEB_W$$THQEAU__crt_locale_pointers@@@Z 000000018006af18 f i libucrt:atox.obj
 0001:00069fd4       ??$parse_integer_from_string@_JD$$T@__crt_strtox@@YA_JQEBD$$THQEAU__crt_locale_pointers@@@Z 000000018006afd4 f i libucrt:atox.obj
 0001:0006a094       ??$parse_integer_from_string@_J_W$$T@__crt_strtox@@YA_JQEB_W$$THQEAU__crt_locale_pointers@@@Z 000000018006b094 f i libucrt:atox.obj
 0001:0006a154       ?is_space@__crt_strtox@@YA_NDQEAU__crt_locale_pointers@@@Z 000000018006b154 f i libucrt:atox.obj
 0001:0006a174       ?is_space@__crt_strtox@@YA_N_WPEAU__crt_locale_pointers@@@Z 000000018006b174 f i libucrt:atox.obj
 0001:0006a18c       ?maximum_signed_value@__crt_strtox@@YA_J_K@Z 000000018006b18c f i libucrt:atox.obj
 0001:0006a198       ?minimum_signed_value@__crt_strtox@@YA_J_K@Z 000000018006b198 f i libucrt:atox.obj
 0001:0006a1a4       __acrt_get_locale_data_prefix 000000018006b1a4 f i libucrt:atox.obj
 0001:0006a1a8       _atoi64                    000000018006b1a8 f   libucrt:atox.obj
 0001:0006a25c       _atoi64_l                  000000018006b25c f   libucrt:atox.obj
 0001:0006a318       _atoi_l                    000000018006b318 f   libucrt:atox.obj
 0001:0006a3d4       _atol_l                    000000018006b3d4 f   libucrt:atox.obj
 0001:0006a490       _atoll_l                   000000018006b490 f   libucrt:atox.obj
 0001:0006a54c       _chvalidchk_l              000000018006b54c f i libucrt:atox.obj
 0001:0006a5b0       _ischartype_l              000000018006b5b0 f i libucrt:atox.obj
 0001:0006a628       _wtoi                      000000018006b628 f   libucrt:atox.obj
 0001:0006a6d8       _wtoi64                    000000018006b6d8 f   libucrt:atox.obj
 0001:0006a78c       _wtoi64_l                  000000018006b78c f   libucrt:atox.obj
 0001:0006a848       _wtoi_l                    000000018006b848 f   libucrt:atox.obj
 0001:0006a904       _wtol                      000000018006b904 f   libucrt:atox.obj
 0001:0006a9b4       _wtol_l                    000000018006b9b4 f   libucrt:atox.obj
 0001:0006aa70       _wtoll                     000000018006ba70 f   libucrt:atox.obj
 0001:0006ab24       _wtoll_l                   000000018006bb24 f   libucrt:atox.obj
 0001:0006abe0       atoi                       000000018006bbe0 f   libucrt:atox.obj
 0001:0006ac90       atol                       000000018006bc90 f   libucrt:atox.obj
 0001:0006ad40       atoll                      000000018006bd40 f   libucrt:atox.obj
 0001:0006ae10       strncmp                    000000018006be10 f   libucrt:strncmp.obj
 0001:0006ae90       calloc                     000000018006be90 f   libucrt:calloc.obj
 0001:0006ae98       wcsncmp                    000000018006be98 f   libucrt:wcsncmp.obj
 0001:0006aed0       __remainder_piby2d2f_forAsm 000000018006bed0 f   libucrt:remainder_piby2f_forasm.obj
 0001:0006b020       __remainder_piby2_fma3     000000018006c020 f   libucrt:remainder_piby2_forfma3.obj
 0001:0006b210       __remainder_piby2_fma3_bdl 000000018006c210 f   libucrt:remainder_piby2_forfma3.obj
 0001:0006b288       _cos_special               000000018006c288 f   libucrt:sincos_special.obj
 0001:0006b29c       _cosf_special              000000018006c29c f   libucrt:sincos_special.obj
 0001:0006b2b0       _sin_special               000000018006c2b0 f   libucrt:sincos_special.obj
 0001:0006b3f4       _sinf_special              000000018006c3f4 f   libucrt:sincos_special.obj
 0001:0006b408       _tan_special               000000018006c408 f   libucrt:sincos_special.obj
 0001:0006b41c       _tanf_special              000000018006c41c f   libucrt:sincos_special.obj
 0001:0006b430       _clrfp                     000000018006c430 f   libucrt:fpctrl.obj
 0001:0006b450       _ctrlfp                    000000018006c450 f   libucrt:fpctrl.obj
 0001:0006b4cc       _set_statfp                000000018006c4cc f   libucrt:fpctrl.obj
 0001:0006b4ec       _statfp                    000000018006c4ec f   libucrt:fpctrl.obj
 0001:0006b500       __acrt_initialize_fma3     000000018006c500 f   libucrt:fma3_available.obj
 0001:0006b570       _get_FMA3_enable           000000018006c570 f   libucrt:fma3_available.obj
 0001:0006b578       _set_FMA3_enable           000000018006c578 f   libucrt:fma3_available.obj
 0001:0006b590       __remainder_piby2d2f_forC  000000018006c590 f   libucrt:remainder_piby2f_forc.obj
 0001:0006b71c       nextafter                  000000018006c71c f   libucrt:nextafter.obj
 0001:0006b724       nextafterf                 000000018006c724 f   libucrt:nextafterf.obj
 0001:0006b854       _handle_error              000000018006c854 f   libucrt:libm_error.obj
 0001:0006b97c       _handle_errorf             000000018006c97c f   libucrt:libm_error.obj
 0001:0006bab0       _handle_nan                000000018006cab0 f   libucrt:libm_error.obj
 0001:0006bacc       _handle_nanf               000000018006cacc f   libucrt:libm_error.obj
 0001:0006bae4       _free_base                 000000018006cae4 f   libucrt:free_base.obj
 0001:0006bb20       ??$?RU__acrt_ptd@@@__crt_internal_free_policy@@QEBAXQEBU__acrt_ptd@@@Z 000000018006cb20 f i libucrt:per_thread_data.obj
 0001:0006bd54       ??0?$__crt_unique_heap_ptr@U__acrt_ptd@@U__crt_internal_free_policy@@@@QEAA@QEAU__acrt_ptd@@@Z 000000018006cd54 f i libucrt:per_thread_data.obj
 0001:0006bd5c       ??1?$__crt_unique_heap_ptr@U__acrt_ptd@@U__crt_internal_free_policy@@@@QEAA@XZ 000000018006cd5c f i libucrt:per_thread_data.obj
 0001:0006bd78       ??B?$__crt_unique_heap_ptr@U__acrt_ptd@@U__crt_internal_free_policy@@@@QEBA_NXZ 000000018006cd78 f i libucrt:per_thread_data.obj
 0001:0006bfcc       ?dangerous_get_state_array@?$dual_state_global@PEAU__crt_locale_data@@@__crt_state_management@@QEAAPEAPEAU__crt_locale_data@@XZ 000000018006cfcc f i libucrt:per_thread_data.obj
 0001:0006c1e0       ?detach@?$__crt_unique_heap_ptr@U__acrt_ptd@@U__crt_internal_free_policy@@@@QEAAPEAU__acrt_ptd@@XZ 000000018006d1e0 f i libucrt:per_thread_data.obj
 0001:0006c1e8       ?get@?$__crt_unique_heap_ptr@U__acrt_ptd@@U__crt_internal_free_policy@@@@QEBAPEAU__acrt_ptd@@XZ 000000018006d1e8 f i libucrt:per_thread_data.obj
 0001:0006c408       ?is_valid@?$__crt_unique_heap_ptr@U__acrt_ptd@@U__crt_internal_free_policy@@@@QEBA_NXZ 000000018006d408 f i libucrt:per_thread_data.obj
 0001:0006c410       ?release@?$__crt_unique_heap_ptr@U__acrt_ptd@@U__crt_internal_free_policy@@@@QEAAXXZ 000000018006d410 f i libucrt:per_thread_data.obj
 0001:0006c4b4       ?value@?$dual_state_global@PEAU__crt_locale_data@@@__crt_state_management@@QEAAAEAPEAU__crt_locale_data@@XZ 000000018006d4b4 f i libucrt:per_thread_data.obj
 0001:0006c4b8       __acrt_freeptd             000000018006d4b8 f   libucrt:per_thread_data.obj
 0001:0006c4fc       __acrt_getptd              000000018006d4fc f   libucrt:per_thread_data.obj
 0001:0006c5d0       __acrt_getptd_head         000000018006d5d0 f   libucrt:per_thread_data.obj
 0001:0006c674       __acrt_getptd_noexit       000000018006d674 f   libucrt:per_thread_data.obj
 0001:0006c73c       __acrt_getptd_noexit_explicit 000000018006d73c f   libucrt:per_thread_data.obj
 0001:0006c7fc       __acrt_initialize_ptd      000000018006d7fc f   libucrt:per_thread_data.obj
 0001:0006c838       __acrt_uninitialize_ptd    000000018006d838 f   libucrt:per_thread_data.obj
 0001:0006c85c       __threadhandle             000000018006d85c f   libucrt:per_thread_data.obj
 0001:0006c864       __threadid                 000000018006d864 f   libucrt:per_thread_data.obj
 0001:0006c86c       __acrt_initialize_locks    000000018006d86c f   libucrt:locks.obj
 0001:0006c8b4       __acrt_lock                000000018006d8b4 f   libucrt:locks.obj
 0001:0006c8d0       __acrt_uninitialize_locks  000000018006d8d0 f   libucrt:locks.obj
 0001:0006c908       __acrt_unlock              000000018006d908 f   libucrt:locks.obj
 0001:0006c924       _lock_locales              000000018006d924 f   libucrt:locks.obj
 0001:0006c940       _unlock_locales            000000018006d940 f   libucrt:locks.obj
 0001:0006caf8       __acrt_get_begin_thread_init_policy 000000018006daf8 f   libucrt:win_policies.obj
 0001:0006cb4c       __acrt_get_developer_information_policy 000000018006db4c f   libucrt:win_policies.obj
 0001:0006cba0       __acrt_get_process_end_policy 000000018006dba0 f   libucrt:win_policies.obj
 0001:0006cbdc       __acrt_get_windowing_model_policy 000000018006dbdc f   libucrt:win_policies.obj
 0001:0006cc48       ??$__crt_fast_decode_pointer@P6AXPEB_W00I_K@Z@@YAP6AXPEB_W00I_K@ZQ6AX000I1@Z@Z 000000018006dc48 f i libucrt:invalid_parameter.obj
 0001:0006cc60       ??$__crt_fast_encode_pointer@P6AXPEB_W00I_K@Z@@YAP6AXPEB_W00I_K@ZQ6AX000I1@Z@Z 000000018006dc60 f i libucrt:invalid_parameter.obj
 0001:0006cc80       ??$initialize_from_array@$$BY00Q6AXPEB_W00I_K@Z@?$dual_state_global@P6AXPEB_W00I_K@Z@__crt_state_management@@QEAAXAEAY00Q6AXPEB_W00I_K@Z@Z 000000018006dc80 f i libucrt:invalid_parameter.obj
 0001:0006ccf8       ?check_synchronize_global_state_index@__crt_cached_ptd_host@@AEAA_KXZ 000000018006dcf8 f i libucrt:invalid_parameter.obj
 0001:0006cd2c       ?dangerous_get_state_array@?$dual_state_global@P6AXPEB_W00I_K@Z@__crt_state_management@@QEAAPEAP6AXPEB_W00I_K@ZXZ 000000018006dd2c f i libucrt:invalid_parameter.obj
 0001:0006cd30       ?get_current_global_state_index@__crt_cached_ptd_host@@QEAA_KXZ 000000018006dd30 f i libucrt:invalid_parameter.obj
 0001:0006cd70       ?get_raw_ptd_noexit@__crt_cached_ptd_host@@QEAAPEAU__acrt_ptd@@XZ 000000018006dd70 f i libucrt:invalid_parameter.obj
 0001:0006cddc       ?try_synchronize_per_thread_data@__crt_cached_ptd_host@@AEAAPEAU__acrt_ptd@@XZ 000000018006dddc f i libucrt:invalid_parameter.obj
 0001:0006ce40       ?value@?$dual_state_global@P6AXPEB_W00I_K@Z@__crt_state_management@@QEAAAEAP6AXPEB_W00I_K@ZAEAV__crt_cached_ptd_host@@@Z 000000018006de40 f i libucrt:invalid_parameter.obj
 0001:0006ce8c       ?value@?$dual_state_global@P6AXPEB_W00I_K@Z@__crt_state_management@@QEAAAEAP6AXPEB_W00I_K@ZXZ 000000018006de8c f i libucrt:invalid_parameter.obj
 0001:0006ce90       __acrt_call_reportfault    000000018006de90 f   libucrt:invalid_parameter.obj
 0001:0006cfec       __acrt_initialize_invalid_parameter_handler 000000018006dfec f   libucrt:invalid_parameter.obj
 0001:0006cff4       _get_invalid_parameter_handler 000000018006dff4 f   libucrt:invalid_parameter.obj
 0001:0006d00c       _get_thread_local_invalid_parameter_handler 000000018006e00c f   libucrt:invalid_parameter.obj
 0001:0006d028       _invalid_parameter         000000018006e028 f   libucrt:invalid_parameter.obj
 0001:0006d0c4       _invalid_parameter_internal 000000018006e0c4 f   libucrt:invalid_parameter.obj
 0001:0006d194       _invalid_parameter_noinfo  000000018006e194 f   libucrt:invalid_parameter.obj
 0001:0006d1b4       _invalid_parameter_noinfo_noreturn 000000018006e1b4 f   libucrt:invalid_parameter.obj
 0001:0006d1e4       _invoke_watson             000000018006e1e4 f   libucrt:invalid_parameter.obj
 0001:0006d22c       _set_invalid_parameter_handler 000000018006e22c f   libucrt:invalid_parameter.obj
 0001:0006d260       _set_thread_local_invalid_parameter_handler 000000018006e260 f   libucrt:invalid_parameter.obj
 0001:0006d288       ?get_doserrno@__crt_cached_ptd_host@@QEAAAEAU?$cached@K@1@XZ 000000018006e288 f i libucrt:errno.obj
 0001:0006d290       ?set@?$cached@K@__crt_cached_ptd_host@@QEAAKK@Z 000000018006e290 f i libucrt:errno.obj
 0001:0006d29c       __acrt_errno_from_os_error 000000018006e29c f   libucrt:errno.obj
 0001:0006d2e4       __acrt_errno_map_os_error  000000018006e2e4 f   libucrt:errno.obj
 0001:0006d32c       __acrt_errno_map_os_error_ptd 000000018006e32c f   libucrt:errno.obj
 0001:0006d350       __doserrno                 000000018006e350 f   libucrt:errno.obj
 0001:0006d370       _errno                     000000018006e370 f   libucrt:errno.obj
 0001:0006d390       _get_doserrno              000000018006e390 f   libucrt:errno.obj
 0001:0006d3cc       _get_errno                 000000018006e3cc f   libucrt:errno.obj
 0001:0006d408       _set_doserrno              000000018006e408 f   libucrt:errno.obj
 0001:0006d444       _set_errno                 000000018006e444 f   libucrt:errno.obj
 0001:0006d480       _calloc_base               000000018006e480 f   libucrt:calloc_base.obj
 0001:0006d520       ??$__acrt_convert_wcs_mbs_cp@D_WV<lambda_7c9dea7b4ca7285d2cdb541a38da6275>@@U__crt_win32_buffer_internal_dynamic_resizing@@@@YAHQEBDAEAV?$__crt_win32_buffer@_WU__crt_win32_buffer_internal_dynamic_resizing@@@@AEBV<lambda_7c9dea7b4ca7285d2cdb541a38da6275>@@I@Z 000000018006e520 f i libucrt:argv_wildcards.obj
 0001:0006d69c       ??$__acrt_convert_wcs_mbs_cp@_WDV<lambda_d8593a27d1aa8c02be35c86a17d324c4>@@U__crt_win32_buffer_internal_dynamic_resizing@@@@YAHQEB_WAEAV?$__crt_win32_buffer@DU__crt_win32_buffer_internal_dynamic_resizing@@@@AEBV<lambda_d8593a27d1aa8c02be35c86a17d324c4>@@I@Z 000000018006e69c f i libucrt:argv_wildcards.obj
 0001:0006d828       ??$__acrt_mbs_to_wcs_cp@U__crt_win32_buffer_internal_dynamic_resizing@@@@YAHQEBDAEAV?$__crt_win32_buffer@_WU__crt_win32_buffer_internal_dynamic_resizing@@@@I@Z 000000018006e828 f i libucrt:argv_wildcards.obj
 0001:0006d838       ??$__acrt_wcs_to_mbs_cp@U__crt_win32_buffer_internal_dynamic_resizing@@@@YAHQEB_WAEAV?$__crt_win32_buffer@DU__crt_win32_buffer_internal_dynamic_resizing@@@@I@Z 000000018006e838 f i libucrt:argv_wildcards.obj
 0001:0006e670       ??$tcslen@AEBQEBD@?$__crt_char_traits@D@@SA_KAEBQEBD@Z 000000018006f670 f i libucrt:argv_wildcards.obj
 0001:0006e684       ??$tcslen@AEBQEB_W@?$__crt_char_traits@_W@@SA_KAEBQEB_W@Z 000000018006f684 f i libucrt:argv_wildcards.obj
 0001:0006e698       ??$tcsncpy_s@AEAPEAD_KAEAPEADAEB_K@?$__crt_char_traits@D@@SAHAEAPEAD$$QEA_K0AEB_K@Z 000000018006f698 f i libucrt:argv_wildcards.obj
 0001:0006e6ac       ??$tcsncpy_s@AEAPEA_W_KAEAPEA_WAEB_K@?$__crt_char_traits@_W@@SAHAEAPEA_W$$QEA_K0AEB_K@Z 000000018006f6ac f i libucrt:argv_wildcards.obj
 0001:0006e6c0       ??$tcsncpy_s@PEADAEB_KAEBQEBDAEB_K@?$__crt_char_traits@D@@SAH$$QEAPEADAEB_KAEBQEBD1@Z 000000018006f6c0 f i libucrt:argv_wildcards.obj
 0001:0006e6d4       ??$tcsncpy_s@PEAD_KAEBQEBDAEB_K@?$__crt_char_traits@D@@SAH$$QEAPEAD$$QEA_KAEBQEBDAEB_K@Z 000000018006f6d4 f i libucrt:argv_wildcards.obj
 0001:0006e6e8       ??$tcsncpy_s@PEA_WAEB_KAEBQEB_WAEB_K@?$__crt_char_traits@_W@@SAH$$QEAPEA_WAEB_KAEBQEB_W1@Z 000000018006f6e8 f i libucrt:argv_wildcards.obj
 0001:0006e6fc       ??$tcsncpy_s@PEA_W_KAEBQEB_WAEB_K@?$__crt_char_traits@_W@@SAH$$QEAPEA_W$$QEA_KAEBQEB_WAEB_K@Z 000000018006f6fc f i libucrt:argv_wildcards.obj
 0001:0006e710       ??$tcspbrk@AEAPEADAEAY02$$CBD@?$__crt_char_traits@D@@SAPEADAEAPEADAEAY02$$CBD@Z 000000018006f710 f i libucrt:argv_wildcards.obj
 0001:0006e718       ??$tcspbrk@AEAPEA_WAEAY02$$CB_W@?$__crt_char_traits@_W@@SAPEA_WAEAPEA_WAEAY02$$CB_W@Z 000000018006f718 f i libucrt:argv_wildcards.obj
 0001:0006e720       ??0?$__crt_unique_handle_t@U__crt_findfile_traits@@@@QEAA@QEAX@Z 000000018006f720 f i libucrt:argv_wildcards.obj
 0001:0006e728       ??0?$__crt_win32_buffer@DU__crt_win32_buffer_internal_dynamic_resizing@@@@QEAA@XZ 000000018006f728 f i libucrt:argv_wildcards.obj
 0001:0006e744       ??0?$__crt_win32_buffer@_WU__crt_win32_buffer_internal_dynamic_resizing@@@@QEAA@XZ 000000018006f744 f i libucrt:argv_wildcards.obj
 0001:0006e788       ??0_LocaleUpdate@@QEAA@QEAU__crt_locale_pointers@@@Z 000000018006f788 f i libucrt:argv_wildcards.obj
 0001:0006e824       ??1?$__crt_unique_handle_t@U__crt_findfile_traits@@@@QEAA@XZ 000000018006f824 f i libucrt:argv_wildcards.obj
 0001:0006e848       ??1?$__crt_win32_buffer@DU__crt_win32_buffer_internal_dynamic_resizing@@@@QEAA@XZ 000000018006f848 f i libucrt:argv_wildcards.obj
 0001:0006e86c       ??1?$__crt_win32_buffer@_WU__crt_win32_buffer_internal_dynamic_resizing@@@@QEAA@XZ 000000018006f86c f i libucrt:argv_wildcards.obj
 0001:0006e910       ??1_LocaleUpdate@@QEAA@XZ  000000018006f910 f i libucrt:argv_wildcards.obj
 0001:0006e934       ??R<lambda_7c9dea7b4ca7285d2cdb541a38da6275>@@QEBAHIQEBDQEA_W_K@Z 000000018006f934 f i libucrt:argv_wildcards.obj
 0001:0006e9c4       ??R<lambda_d8593a27d1aa8c02be35c86a17d324c4>@@QEBAHIQEB_WQEAD_K@Z 000000018006f9c4 f i libucrt:argv_wildcards.obj
 0001:0006e9f4       ?GetLocaleT@_LocaleUpdate@@QEAAPEAU__crt_locale_pointers@@XZ 000000018006f9f4 f i libucrt:argv_wildcards.obj
 0001:0006e9fc       ?__acrt_get_utf8_acp_compatibility_codepage@@YAIXZ 000000018006f9fc f i libucrt:argv_wildcards.obj
 0001:0006ea48       ?_deallocate@?$__crt_win32_buffer@DU__crt_win32_buffer_internal_dynamic_resizing@@@@AEAAXXZ 000000018006fa48 f i libucrt:argv_wildcards.obj
 0001:0006ea6c       ?_deallocate@?$__crt_win32_buffer@_WU__crt_win32_buffer_internal_dynamic_resizing@@@@AEAAXXZ 000000018006fa6c f i libucrt:argv_wildcards.obj
 0001:0006ea90       ?allocate@?$__crt_win32_buffer@DU__crt_win32_buffer_internal_dynamic_resizing@@@@QEAAH_K@Z 000000018006fa90 f i libucrt:argv_wildcards.obj
 0001:0006eae8       ?allocate@?$__crt_win32_buffer@_WU__crt_win32_buffer_internal_dynamic_resizing@@@@QEAAH_K@Z 000000018006fae8 f i libucrt:argv_wildcards.obj
 0001:0006eb40       ?allocate@__crt_win32_buffer_internal_dynamic_resizing@@SAHQEAPEAX_KAEBV__crt_win32_buffer_empty_debug_info@@@Z 000000018006fb40 f i libucrt:argv_wildcards.obj
 0001:0006ed2c       ?capacity@?$__crt_win32_buffer@DU__crt_win32_buffer_internal_dynamic_resizing@@@@QEBA_KXZ 000000018006fd2c f i libucrt:argv_wildcards.obj
 0001:0006ed34       ?capacity@?$__crt_win32_buffer@_WU__crt_win32_buffer_internal_dynamic_resizing@@@@QEBA_KXZ 000000018006fd34 f i libucrt:argv_wildcards.obj
 0001:0006ed3c       ?close@?$__crt_unique_handle_t@U__crt_findfile_traits@@@@QEAAXXZ 000000018006fd3c f i libucrt:argv_wildcards.obj
 0001:0006ed60       ?close@__crt_findfile_traits@@SA_NPEAX@Z 000000018006fd60 f i libucrt:argv_wildcards.obj
 0001:0006ed74       ?data@?$__crt_win32_buffer@DU__crt_win32_buffer_internal_dynamic_resizing@@@@QEAAPEADXZ 000000018006fd74 f i libucrt:argv_wildcards.obj
 0001:0006ed7c       ?data@?$__crt_win32_buffer@_WU__crt_win32_buffer_internal_dynamic_resizing@@@@QEAAPEA_WXZ 000000018006fd7c f i libucrt:argv_wildcards.obj
 0001:0006ed84       ?deallocate@__crt_win32_buffer_internal_dynamic_resizing@@SAXQEAXAEBV__crt_win32_buffer_empty_debug_info@@@Z 000000018006fd84 f i libucrt:argv_wildcards.obj
 0001:0006ed8c       ?debug_info@?$__crt_win32_buffer@DU__crt_win32_buffer_internal_dynamic_resizing@@@@QEBAAEBV__crt_win32_buffer_empty_debug_info@@XZ 000000018006fd8c f i libucrt:argv_wildcards.obj
 0001:0006ed90       ?debug_info@?$__crt_win32_buffer@_WU__crt_win32_buffer_internal_dynamic_resizing@@@@QEBAAEBV__crt_win32_buffer_empty_debug_info@@XZ 000000018006fd90 f i libucrt:argv_wildcards.obj
 0001:0006ef34       ?get@?$__crt_unique_handle_t@U__crt_findfile_traits@@@@QEBAPEAXXZ 000000018006ff34 f i libucrt:argv_wildcards.obj
 0001:0006efe0       ?get_invalid_value@__crt_findfile_traits@@SAPEAXXZ 000000018006ffe0 f i libucrt:argv_wildcards.obj
 0001:0006f0a0       ?set_to_nullptr@?$__crt_win32_buffer@DU__crt_win32_buffer_internal_dynamic_resizing@@@@QEAAXXZ 00000001800700a0 f i libucrt:argv_wildcards.obj
 0001:0006f0d4       ?set_to_nullptr@?$__crt_win32_buffer@_WU__crt_win32_buffer_internal_dynamic_resizing@@@@QEAAXXZ 00000001800700d4 f i libucrt:argv_wildcards.obj
 0001:0006f108       ?size@?$__crt_win32_buffer@DU__crt_win32_buffer_internal_dynamic_resizing@@@@QEAAX_K@Z 0000000180070108 f i libucrt:argv_wildcards.obj
 0001:0006f110       ?size@?$__crt_win32_buffer@_WU__crt_win32_buffer_internal_dynamic_resizing@@@@QEAAX_K@Z 0000000180070110 f i libucrt:argv_wildcards.obj
 0001:0006f130       ?strpbrk@@YAPEADQEADQEBD@Z 0000000180070130 f i libucrt:argv_wildcards.obj
 0001:0006f138       ?wcspbrk@@YAPEA_WPEA_WPEB_W@Z 0000000180070138 f i libucrt:argv_wildcards.obj
 0001:0006f140       __acrt_expand_narrow_argv_wildcards 0000000180070140 f   libucrt:argv_wildcards.obj
 0001:0006f148       __acrt_expand_wide_argv_wildcards 0000000180070148 f   libucrt:argv_wildcards.obj
 0001:0006f150       ??$__acrt_convert_wcs_mbs_cp@_WDV<lambda_f788ae46380686e8b737efdd8c720d07>@@U__crt_win32_buffer_no_resizing@@@@YAHQEB_WAEAV?$__crt_win32_buffer@DU__crt_win32_buffer_no_resizing@@@@AEBV<lambda_f788ae46380686e8b737efdd8c720d07>@@I@Z 0000000180070150 f i libucrt:getmodulefilenamea.obj
 0001:0006f26c       ??$__acrt_wcs_to_mbs_cp@U__crt_win32_buffer_no_resizing@@@@YAHQEB_WAEAV?$__crt_win32_buffer@DU__crt_win32_buffer_no_resizing@@@@I@Z 000000018007026c f i libucrt:getmodulefilenamea.obj
 0001:0006f27c       ??0?$__crt_win32_buffer@DU__crt_win32_buffer_no_resizing@@@@QEAA@QEAD_K@Z 000000018007027c f i libucrt:getmodulefilenamea.obj
 0001:0006f298       ??1?$__crt_win32_buffer@DU__crt_win32_buffer_no_resizing@@@@QEAA@XZ 0000000180070298 f i libucrt:getmodulefilenamea.obj
 0001:0006f2a4       ??R<lambda_f788ae46380686e8b737efdd8c720d07>@@QEBAHIQEB_WQEAD_K@Z 00000001800702a4 f i libucrt:getmodulefilenamea.obj
 0001:0006f2d4       ?_deallocate@?$__crt_win32_buffer@DU__crt_win32_buffer_no_resizing@@@@AEAAXXZ 00000001800702d4 f i libucrt:getmodulefilenamea.obj
 0001:0006f2e0       ?allocate@?$__crt_win32_buffer@DU__crt_win32_buffer_no_resizing@@@@QEAAH_K@Z 00000001800702e0 f i libucrt:getmodulefilenamea.obj
 0001:0006f310       ?allocate@__crt_win32_buffer_no_resizing@@SAHQEAPEAX_KAEBV__crt_win32_buffer_empty_debug_info@@@Z 0000000180070310 f i libucrt:getmodulefilenamea.obj
 0001:0006f328       ?capacity@?$__crt_win32_buffer@DU__crt_win32_buffer_no_resizing@@@@QEBA_KXZ 0000000180070328 f i libucrt:getmodulefilenamea.obj
 0001:0006f330       ?data@?$__crt_win32_buffer@DU__crt_win32_buffer_no_resizing@@@@QEAAPEADXZ 0000000180070330 f i libucrt:getmodulefilenamea.obj
 0001:0006f338       ?deallocate@__crt_win32_buffer_no_resizing@@SAXQEAXAEBV__crt_win32_buffer_empty_debug_info@@@Z 0000000180070338 f i libucrt:getmodulefilenamea.obj
 0001:0006f33c       ?debug_info@?$__crt_win32_buffer@DU__crt_win32_buffer_no_resizing@@@@QEBAAEBV__crt_win32_buffer_empty_debug_info@@XZ 000000018007033c f i libucrt:getmodulefilenamea.obj
 0001:0006f340       ?set_to_nullptr@?$__crt_win32_buffer@DU__crt_win32_buffer_no_resizing@@@@QEAAXXZ 0000000180070340 f i libucrt:getmodulefilenamea.obj
 0001:0006f358       ?size@?$__crt_win32_buffer@DU__crt_win32_buffer_no_resizing@@@@QEAAX_K@Z 0000000180070358 f i libucrt:getmodulefilenamea.obj
 0001:0006f360       ?size@?$__crt_win32_buffer@DU__crt_win32_buffer_no_resizing@@@@QEBA_KXZ 0000000180070360 f i libucrt:getmodulefilenamea.obj
 0001:0006f368       __acrt_GetModuleFileNameA  0000000180070368 f   libucrt:getmodulefilenamea.obj
 0001:0006f48c       ??$?RU__crt_multibyte_data@@@__crt_internal_free_policy@@QEBAXQEBU__crt_multibyte_data@@@Z 000000018007048c f i libucrt:mbctype.obj
 0001:0006f68c       ??$initialize_from_array@$$BY10BAA@E@?$dual_state_global@PEAE@__crt_state_management@@QEAAXAEAY10BAA@E@Z 000000018007068c f i libucrt:mbctype.obj
 0001:0006f690       ??$initialize_from_array@$$BY10BAB@E@?$dual_state_global@PEAE@__crt_state_management@@QEAAXAEAY10BAB@E@Z 0000000180070690 f i libucrt:mbctype.obj
 0001:0006f6b0       ??0?$__crt_unique_heap_ptr@U__crt_multibyte_data@@U__crt_internal_free_policy@@@@QEAA@QEAU__crt_multibyte_data@@@Z 00000001800706b0 f i libucrt:mbctype.obj
 0001:0006f6b8       ??1?$__crt_unique_heap_ptr@U__crt_multibyte_data@@U__crt_internal_free_policy@@@@QEAA@XZ 00000001800706b8 f i libucrt:mbctype.obj
 0001:0006f6d4       ??B?$__crt_unique_heap_ptr@U__crt_multibyte_data@@U__crt_internal_free_policy@@@@QEBA_NXZ 00000001800706d4 f i libucrt:mbctype.obj
 0001:0006f8c8       ?dangerous_get_state_array@?$dual_state_global@PEAE@__crt_state_management@@QEAAPEAPEAEXZ 00000001800708c8 f i libucrt:mbctype.obj
 0001:0006f8cc       ?dangerous_get_state_array@?$dual_state_global@PEAU__crt_multibyte_data@@@__crt_state_management@@QEAAPEAPEAU__crt_multibyte_data@@XZ 00000001800708cc f i libucrt:mbctype.obj
 0001:0006f8d0       ?detach@?$__crt_unique_heap_ptr@U__crt_multibyte_data@@U__crt_internal_free_policy@@@@QEAAPEAU__crt_multibyte_data@@XZ 00000001800708d0 f i libucrt:mbctype.obj
 0001:0006f8d8       ?get@?$__crt_unique_heap_ptr@U__crt_multibyte_data@@U__crt_internal_free_policy@@@@QEBAPEAU__crt_multibyte_data@@XZ 00000001800708d8 f i libucrt:mbctype.obj
 0001:0006f95c       ?initialize@?$dual_state_global@PEAU__crt_multibyte_data@@@__crt_state_management@@QEAAXQEAU__crt_multibyte_data@@@Z 000000018007095c f i libucrt:mbctype.obj
 0001:0006f96c       ?is_valid@?$__crt_unique_heap_ptr@U__crt_multibyte_data@@U__crt_internal_free_policy@@@@QEBA_NXZ 000000018007096c f i libucrt:mbctype.obj
 0001:0006f974       ?release@?$__crt_unique_heap_ptr@U__crt_multibyte_data@@U__crt_internal_free_policy@@@@QEAAXXZ 0000000180070974 f i libucrt:mbctype.obj
 0001:0006ff38       ?value@?$dual_state_global@PEAE@__crt_state_management@@QEAAAEAPEAEXZ 0000000180070f38 f i libucrt:mbctype.obj
 0001:0006ff3c       ?value@?$dual_state_global@PEAU__crt_multibyte_data@@@__crt_state_management@@QEAAAEAPEAU__crt_multibyte_data@@XZ 0000000180070f3c f i libucrt:mbctype.obj
 0001:0006ff40       __acrt_initialize_multibyte 0000000180070f40 f   libucrt:mbctype.obj
 0001:0006ffa0       __acrt_should_sync_with_global_locale 0000000180070fa0 f i libucrt:mbctype.obj
 0001:0006ffb0       __acrt_update_thread_multibyte_data 0000000180070fb0 f   libucrt:mbctype.obj
 0001:0006ffcc       __p__mbcasemap             0000000180070fcc f   libucrt:mbctype.obj
 0001:0006ffd4       __p__mbctype               0000000180070fd4 f   libucrt:mbctype.obj
 0001:0006ffdc       _getmbcp                   0000000180070fdc f   libucrt:mbctype.obj
 0001:00070018       _setmbcp                   0000000180071018 f   libucrt:mbctype.obj
 0001:00070040       _setmbcp_nolock            0000000180071040 f   libucrt:mbctype.obj
 0001:000703fc       _ismbbalnum                00000001800713fc f   libucrt:ismbbyte.obj
 0001:00070414       _ismbbalnum_l              0000000180071414 f   libucrt:ismbbyte.obj
 0001:00070430       _ismbbalpha                0000000180071430 f   libucrt:ismbbyte.obj
 0001:00070448       _ismbbalpha_l              0000000180071448 f   libucrt:ismbbyte.obj
 0001:00070464       _ismbbblank                0000000180071464 f   libucrt:ismbbyte.obj
 0001:00070480       _ismbbblank_l              0000000180071480 f   libucrt:ismbbyte.obj
 0001:000704a0       _ismbbgraph                00000001800714a0 f   libucrt:ismbbyte.obj
 0001:000704b8       _ismbbgraph_l              00000001800714b8 f   libucrt:ismbbyte.obj
 0001:000704d4       _ismbbkalnum               00000001800714d4 f   libucrt:ismbbyte.obj
 0001:000704e8       _ismbbkalnum_l             00000001800714e8 f   libucrt:ismbbyte.obj
 0001:00070500       _ismbbkana                 0000000180071500 f   libucrt:ismbbyte.obj
 0001:00070508       _ismbbkana_l               0000000180071508 f   libucrt:ismbbyte.obj
 0001:00070570       _ismbbkprint               0000000180071570 f   libucrt:ismbbyte.obj
 0001:00070584       _ismbbkprint_l             0000000180071584 f   libucrt:ismbbyte.obj
 0001:0007059c       _ismbbkpunct               000000018007159c f   libucrt:ismbbyte.obj
 0001:000705b0       _ismbbkpunct_l             00000001800715b0 f   libucrt:ismbbyte.obj
 0001:000705c8       _ismbblead                 00000001800715c8 f   libucrt:ismbbyte.obj
 0001:000705dc       _ismbblead_l               00000001800715dc f   libucrt:ismbbyte.obj
 0001:000705f4       _ismbbprint                00000001800715f4 f   libucrt:ismbbyte.obj
 0001:0007060c       _ismbbprint_l              000000018007160c f   libucrt:ismbbyte.obj
 0001:00070628       _ismbbpunct                0000000180071628 f   libucrt:ismbbyte.obj
 0001:0007063c       _ismbbpunct_l              000000018007163c f   libucrt:ismbbyte.obj
 0001:00070654       _ismbbtrail                0000000180071654 f   libucrt:ismbbyte.obj
 0001:00070668       _ismbbtrail_l              0000000180071668 f   libucrt:ismbbyte.obj
 0001:00070680       __acrt_initialize_command_line 0000000180071680 f   libucrt:argv_data.obj
 0001:000706a8       __acrt_uninitialize_command_line 00000001800716a8 f   libucrt:argv_data.obj
 0001:000706ac       __p___argc                 00000001800716ac f   libucrt:argv_data.obj
 0001:000706b4       __p___argv                 00000001800716b4 f   libucrt:argv_data.obj
 0001:000706bc       __p___wargv                00000001800716bc f   libucrt:argv_data.obj
 0001:000706c4       __p__acmdln                00000001800716c4 f   libucrt:argv_data.obj
 0001:000706cc       __p__pgmptr                00000001800716cc f   libucrt:argv_data.obj
 0001:000706d4       __p__wcmdln                00000001800716d4 f   libucrt:argv_data.obj
 0001:000706dc       __p__wpgmptr               00000001800716dc f   libucrt:argv_data.obj
 0001:000706e4       _get_pgmptr                00000001800716e4 f   libucrt:argv_data.obj
 0001:0007071c       _get_wpgmptr               000000018007171c f   libucrt:argv_data.obj
 0001:000707c0       wcscpy_s                   00000001800717c0 f   libucrt:wcscpy_s.obj
 0001:00070880       __acrt_MultiByteToWideChar 0000000180071880 f   libucrt:multibytetowidechar.obj
 0001:00070920       __acrt_WideCharToMultiByte 0000000180071920 f   libucrt:widechartomultibyte.obj
 0001:00070a70       __dcrt_get_narrow_environment_from_os 0000000180071a70 f   libucrt:get_environment_from_os.obj
 0001:00070b80       __dcrt_get_wide_environment_from_os 0000000180071b80 f   libucrt:get_environment_from_os.obj
 0001:00071618       ??$get_or_create_environment_nolock@$$V@?$__crt_char_traits@D@@SAPEAPEADXZ 0000000180072618 f i libucrt:setenv.obj
 0001:00071620       ??$get_or_create_environment_nolock@$$V@?$__crt_char_traits@_W@@SAPEAPEA_WXZ 0000000180072620 f i libucrt:setenv.obj
 0001:00071628       ??$set_environment_variable@AEBQEADQEAD@?$__crt_char_traits@D@@SAHAEBQEAD$$QEBQEAD@Z 0000000180072628 f i libucrt:setenv.obj
 0001:00071634       ??$set_environment_variable@AEBQEA_WQEA_W@?$__crt_char_traits@_W@@SAHAEBQEA_W$$QEBQEA_W@Z 0000000180072634 f i libucrt:setenv.obj
 0001:00071644       ??$tcschr@AEBQEADD@?$__crt_char_traits@D@@SAPEADAEBQEAD$$QEAD@Z 0000000180072644 f i libucrt:setenv.obj
 0001:00071650       ??$tcschr@AEBQEA_WD@?$__crt_char_traits@_W@@SAPEA_WAEBQEA_W$$QEAD@Z 0000000180072650 f i libucrt:setenv.obj
 0001:0007165c       ??$tcscpy_s@AEAPEADAEB_KAEAPEAD@?$__crt_char_traits@D@@SAHAEAPEADAEB_K0@Z 000000018007265c f i libucrt:setenv.obj
 0001:0007166c       ??$tcscpy_s@AEAPEA_WAEB_KAEAPEA_W@?$__crt_char_traits@_W@@SAHAEAPEA_WAEB_K0@Z 000000018007266c f i libucrt:setenv.obj
 0001:0007167c       ??$tcscpy_s@AEBQEADAEB_KAEBQEAD@?$__crt_char_traits@D@@SAHAEBQEADAEB_K0@Z 000000018007267c f i libucrt:setenv.obj
 0001:0007168c       ??$tcscpy_s@AEBQEA_WAEB_KAEBQEA_W@?$__crt_char_traits@_W@@SAHAEBQEA_WAEB_K0@Z 000000018007268c f i libucrt:setenv.obj
 0001:0007169c       ??$tcslen@AEBQEAD@?$__crt_char_traits@D@@SA_KAEBQEAD@Z 000000018007269c f i libucrt:setenv.obj
 0001:000716b0       ??$tcslen@AEBQEA_W@?$__crt_char_traits@_W@@SA_KAEBQEA_W@Z 00000001800726b0 f i libucrt:setenv.obj
 0001:000716c4       ??$tcsnicoll@AEBQEBDAEAPEADAEB_K@?$__crt_char_traits@D@@SAHAEBQEBDAEAPEADAEB_K@Z 00000001800726c4 f i libucrt:setenv.obj
 0001:000716d4       ??$tcsnicoll@AEBQEB_WAEAPEA_WAEB_K@?$__crt_char_traits@_W@@SAHAEBQEB_WAEAPEA_WAEB_K@Z 00000001800726d4 f i libucrt:setenv.obj
 0001:00071714       ?strchr@@YAPEADQEADH@Z     0000000180072714 f i libucrt:setenv.obj
 0001:0007171c       ?wcschr@@YAPEA_WPEA_W_W@Z  000000018007271c f i libucrt:setenv.obj
 0001:00071724       __dcrt_set_variable_in_narrow_environment_nolock 0000000180072724 f   libucrt:setenv.obj
 0001:0007172c       __dcrt_set_variable_in_wide_environment_nolock 000000018007272c f   libucrt:setenv.obj
 0001:00071734       _recalloc                  0000000180072734 f   libucrt:recalloc.obj
 0001:0007173c       _recalloc_base             000000018007273c f   libucrt:recalloc.obj
 0001:00071808       ??$?B$$A6AHPEA_WK_J@Z@__crt_fast_encoded_nullptr_t@@QEBAP6AHPEA_WK_J@ZXZ 0000000180072808 f i libucrt:winapi_thunks.obj
 0001:000718b4       ??$__crt_fast_decode_pointer@P6AHPEA_WK_J@Z@@YAP6AHPEA_WK_J@ZQ6AH0K1@Z@Z 00000001800728b4 f i libucrt:winapi_thunks.obj
 0001:000718cc       ??$__crt_fast_decode_pointer@PEAX@@YAPEAXQEAX@Z 00000001800728cc f i libucrt:winapi_thunks.obj
 0001:000718e4       ??$__crt_fast_encode_pointer@P6AHPEA_WK_J@Z@@YAP6AHPEA_WK_J@ZQ6AH0K1@Z@Z 00000001800728e4 f i libucrt:winapi_thunks.obj
 0001:00072340       GetCurrentThreadEffectiveToken 0000000180073340 f i libucrt:winapi_thunks.obj
 0001:00072348       __acrt_AppPolicyGetProcessTerminationMethodInternal 0000000180073348 f   libucrt:winapi_thunks.obj
 0001:000723a0       __acrt_AppPolicyGetShowDeveloperDiagnosticInternal 00000001800733a0 f   libucrt:winapi_thunks.obj
 0001:000723f8       __acrt_AppPolicyGetThreadInitializationTypeInternal 00000001800733f8 f   libucrt:winapi_thunks.obj
 0001:00072450       __acrt_AppPolicyGetWindowingModelInternal 0000000180073450 f   libucrt:winapi_thunks.obj
 0001:000724a8       __acrt_AreFileApisANSI     00000001800734a8 f   libucrt:winapi_thunks.obj
 0001:000724ec       __acrt_CompareStringEx     00000001800734ec f   libucrt:winapi_thunks.obj
 0001:000725d8       __acrt_EnumSystemLocalesEx 00000001800735d8 f   libucrt:winapi_thunks.obj
 0001:00072678       __acrt_FlsAlloc            0000000180073678 f   libucrt:winapi_thunks.obj
 0001:00072680       __acrt_FlsFree             0000000180073680 f   libucrt:winapi_thunks.obj
 0001:00072688       __acrt_FlsGetValue         0000000180073688 f   libucrt:winapi_thunks.obj
 0001:00072690       __acrt_FlsSetValue         0000000180073690 f   libucrt:winapi_thunks.obj
 0001:00072698       __acrt_GetDateFormatEx     0000000180073698 f   libucrt:winapi_thunks.obj
 0001:00072758       __acrt_GetEnabledXStateFeatures 0000000180073758 f   libucrt:winapi_thunks.obj
 0001:0007279c       __acrt_GetLocaleInfoEx     000000018007379c f   libucrt:winapi_thunks.obj
 0001:0007282c       __acrt_GetSystemTimePreciseAsFileTime 000000018007382c f   libucrt:winapi_thunks.obj
 0001:00072884       __acrt_GetTimeFormatEx     0000000180073884 f   libucrt:winapi_thunks.obj
 0001:00072938       __acrt_GetUserDefaultLocaleName 0000000180073938 f   libucrt:winapi_thunks.obj
 0001:000729a4       __acrt_GetXStateFeaturesMask 00000001800739a4 f   libucrt:winapi_thunks.obj
 0001:00072a00       __acrt_InitializeCriticalSectionEx 0000000180073a00 f   libucrt:winapi_thunks.obj
 0001:00072a70       __acrt_IsValidLocaleName   0000000180073a70 f   libucrt:winapi_thunks.obj
 0001:00072ad4       __acrt_LCIDToLocaleName    0000000180073ad4 f   libucrt:winapi_thunks.obj
 0001:00072b58       __acrt_LCMapStringEx       0000000180073b58 f   libucrt:winapi_thunks.obj
 0001:00072c44       __acrt_LocaleNameToLCID    0000000180073c44 f   libucrt:winapi_thunks.obj
 0001:00072ca4       __acrt_LocateXStateFeature 0000000180073ca4 f   libucrt:winapi_thunks.obj
 0001:00072d10       __acrt_MessageBoxA         0000000180073d10 f   libucrt:winapi_thunks.obj
 0001:00072d8c       __acrt_MessageBoxW         0000000180073d8c f   libucrt:winapi_thunks.obj
 0001:00072e08       __acrt_RoInitialize        0000000180073e08 f   libucrt:winapi_thunks.obj
 0001:00072e54       __acrt_RoUninitialize      0000000180073e54 f   libucrt:winapi_thunks.obj
 0001:00072e94       __acrt_RtlGenRandom        0000000180073e94 f   libucrt:winapi_thunks.obj
 0001:00072ef0       __acrt_SetThreadStackGuarantee 0000000180073ef0 f   libucrt:winapi_thunks.obj
 0001:00072f3c       __acrt_can_show_message_box 0000000180073f3c f   libucrt:winapi_thunks.obj
 0001:00072fac       __acrt_can_use_vista_locale_apis 0000000180073fac f   libucrt:winapi_thunks.obj
 0001:00072fdc       __acrt_can_use_xstate_apis 0000000180073fdc f   libucrt:winapi_thunks.obj
 0001:0007300c       __acrt_eagerly_load_locale_apis 000000018007400c f   libucrt:winapi_thunks.obj
 0001:00073168       __acrt_get_parent_window   0000000180074168 f   libucrt:winapi_thunks.obj
 0001:000731f4       __acrt_initialize_winapi_thunks 00000001800741f4 f   libucrt:winapi_thunks.obj
 0001:00073218       __acrt_is_interactive      0000000180074218 f   libucrt:winapi_thunks.obj
 0001:000732f8       __acrt_uninitialize_winapi_thunks 00000001800742f8 f   libucrt:winapi_thunks.obj
 0001:0007333c       __acrt_getheap             000000018007433c f   libucrt:heap_handle.obj
 0001:00073344       __acrt_initialize_heap     0000000180074344 f   libucrt:heap_handle.obj
 0001:00073360       __acrt_uninitialize_heap   0000000180074360 f   libucrt:heap_handle.obj
 0001:0007336c       _get_heap_handle           000000018007436c f   libucrt:heap_handle.obj
 0001:00073588       __acrt_initialize_lowio    0000000180074588 f   libucrt:ioinit.obj
 0001:000735c4       __acrt_uninitialize_lowio  00000001800745c4 f   libucrt:ioinit.obj
 0001:00073604       __acrt_execute_initializers 0000000180074604 f   libucrt:shared_initialization.obj
 0001:00073698       __acrt_execute_uninitializers 0000000180074698 f   libucrt:shared_initialization.obj
 0001:000736e0       ??$?B$$A6AH_K@Z@__crt_fast_encoded_nullptr_t@@QEBAP6AH_K@ZXZ 00000001800746e0 f i libucrt:new_handler.obj
 0001:000736e8       ??$__crt_fast_decode_pointer@P6AH_K@Z@@YAP6AH_K@ZQ6AH0@Z@Z 00000001800746e8 f i libucrt:new_handler.obj
 0001:00073700       ??$__crt_fast_encode_pointer@P6AH_K@Z@@YAP6AH_K@ZQ6AH0@Z@Z 0000000180074700 f i libucrt:new_handler.obj
 0001:00073720       ?_set_new_handler@@YAP6AH_K@ZH@Z 0000000180074720 f   libucrt:new_handler.obj
 0001:0007372c       ?initialize@?$dual_state_global@P6AH_K@Z@__crt_state_management@@QEAAXQ6AH_K@Z@Z 000000018007472c f i libucrt:new_handler.obj
 0001:0007373c       ?value@?$dual_state_global@P6AH_K@Z@__crt_state_management@@QEAAAEAP6AH_K@ZXZ 000000018007473c f i libucrt:new_handler.obj
 0001:00073740       __acrt_initialize_new_handler 0000000180074740 f   libucrt:new_handler.obj
 0001:00073748       _callnewh                  0000000180074748 f   libucrt:new_handler.obj
 0001:00073784       _query_new_handler         0000000180074784 f   libucrt:new_handler.obj
 0001:000737b8       _set_new_handler           00000001800747b8 f   libucrt:new_handler.obj
 0001:00073814       ??$?B$$A6AXH@Z@__crt_fast_encoded_nullptr_t@@QEBAP6AXH@ZXZ 0000000180074814 f i libucrt:signal.obj
 0001:0007388c       ??$__crt_fast_decode_pointer@P6AXH@Z@@YAP6AXH@ZQ6AXH@Z@Z 000000018007488c f i libucrt:signal.obj
 0001:000738a4       ??$__crt_fast_encode_pointer@P6AXH@Z@@YAP6AXH@ZQ6AXH@Z@Z 00000001800748a4 f i libucrt:signal.obj
 0001:000739d4       ?initialize@?$dual_state_global@P6AXH@Z@__crt_state_management@@QEAAXQ6AXH@Z@Z 00000001800749d4 f i libucrt:signal.obj
 0001:00073a58       ?value@?$dual_state_global@P6AXH@Z@__crt_state_management@@QEAAAEAP6AXH@ZXZ 0000000180074a58 f i libucrt:signal.obj
 0001:00073a5c       __acrt_get_sigabrt_handler 0000000180074a5c f   libucrt:signal.obj
 0001:00073a8c       __acrt_initialize_signal_handlers 0000000180074a8c f   libucrt:signal.obj
 0001:00073aac       __fpecode                  0000000180074aac f   libucrt:signal.obj
 0001:00073ac0       __pxcptinfoptrs            0000000180074ac0 f   libucrt:signal.obj
 0001:00073ad4       raise                      0000000180074ad4 f   libucrt:signal.obj
 0001:00073d54       signal                     0000000180074d54 f   libucrt:signal.obj
 0001:00073f30       ??$__crt_fast_decode_pointer@P6AHPEAU_exception@@@Z@@YAP6AHPEAU_exception@@@ZQ6AH0@Z@Z 0000000180074f30 f i libucrt:matherr.obj
 0001:00073f48       ??$__crt_fast_encode_pointer@P6AHPEAU_exception@@@Z@@YAP6AHPEAU_exception@@@ZQ6AH0@Z@Z 0000000180074f48 f i libucrt:matherr.obj
 0001:00073f68       ?initialize@?$dual_state_global@P6AHPEAU_exception@@@Z@__crt_state_management@@QEAAXQ6AHPEAU_exception@@@Z@Z 0000000180074f68 f i libucrt:matherr.obj
 0001:00073f78       ?value@?$dual_state_global@P6AHPEAU_exception@@@Z@__crt_state_management@@QEAAAEAP6AHPEAU_exception@@@ZXZ 0000000180074f78 f i libucrt:matherr.obj
 0001:00073f7c       __acrt_has_user_matherr    0000000180074f7c f   libucrt:matherr.obj
 0001:00073f9c       __acrt_initialize_user_matherr 0000000180074f9c f   libucrt:matherr.obj
 0001:00073fa4       __acrt_invoke_user_matherr 0000000180074fa4 f   libucrt:matherr.obj
 0001:00073fdc       __setusermatherr           0000000180074fdc f   libucrt:matherr.obj
 0001:000742a8       ??0__crt_stdio_stream@@QEAA@QEAU__crt_stdio_stream_data@@@Z 00000001800752a8 f i libucrt:fflush.obj
 0001:00074414       ?__acrt_stdio_reset_buffer@@YAXV__crt_stdio_stream@@@Z 0000000180075414 f i libucrt:fflush.obj
 0001:00074500       ?has_all_of@__crt_stdio_stream@@QEBA_NJ@Z 0000000180075500 f i libucrt:fflush.obj
 0001:0007454c       ?set_flags@__crt_stdio_stream@@QEBA_NJ@Z 000000018007554c f i libucrt:fflush.obj
 0001:0007456c       ?unset_flags@__crt_stdio_stream@@QEBA_NJ@Z 000000018007556c f i libucrt:fflush.obj
 0001:00074594       __acrt_stdio_flush_nolock  0000000180075594 f   libucrt:fflush.obj
 0001:00074620       _fflush_nolock             0000000180075620 f   libucrt:fflush.obj
 0001:000746f4       _flushall                  00000001800756f4 f   libucrt:fflush.obj
 0001:000746fc       fflush                     00000001800756fc f   libucrt:fflush.obj
 0001:00074764       __p___mb_cur_max           0000000180075764 f   libucrt:nlsdata.obj
 0001:00074794       ??$?RPEAU__crt_stdio_stream_data@@@__crt_internal_free_policy@@QEBAXQEBQEAU__crt_stdio_stream_data@@@Z 0000000180075794 f i libucrt:_file.obj
 0001:0007479c       ??0?$__crt_unique_heap_ptr@PEAU__crt_stdio_stream_data@@U__crt_internal_free_policy@@@@QEAA@QEAPEAU__crt_stdio_stream_data@@@Z 000000018007579c f i libucrt:_file.obj
 0001:000747a4       ??1?$__crt_unique_heap_ptr@PEAU__crt_stdio_stream_data@@U__crt_internal_free_policy@@@@QEAA@XZ 00000001800757a4 f i libucrt:_file.obj
 0001:000747c0       ?detach@?$__crt_unique_heap_ptr@PEAU__crt_stdio_stream_data@@U__crt_internal_free_policy@@@@QEAAPEAPEAU__crt_stdio_stream_data@@XZ 00000001800757c0 f i libucrt:_file.obj
 0001:000747c8       ?release@?$__crt_unique_heap_ptr@PEAU__crt_stdio_stream_data@@U__crt_internal_free_policy@@@@QEAAXXZ 00000001800757c8 f i libucrt:_file.obj
 0001:000747e4       __acrt_initialize_stdio    00000001800757e4 f   libucrt:_file.obj
 0001:00074904       __acrt_iob_func            0000000180075904 f   libucrt:_file.obj
 0001:00074918       __acrt_uninitialize_stdio  0000000180075918 f   libucrt:_file.obj
 0001:00074974       _get_stream_buffer_pointers 0000000180075974 f   libucrt:_file.obj
 0001:000749bc       _lock_file                 00000001800759bc f   libucrt:_file.obj
 0001:000749c8       _unlock_file               00000001800759c8 f   libucrt:_file.obj
 0001:000749d4       ?has_any_buffer@__crt_stdio_stream@@QEBA_NXZ 00000001800759d4 f i libucrt:_sftbuf.obj
 0001:000749e4       ?has_any_of@__crt_stdio_stream@@QEBA_NJ@Z 00000001800759e4 f i libucrt:_sftbuf.obj
 0001:000749f0       ?has_temporary_buffer@__crt_stdio_stream@@QEBA_NXZ 00000001800759f0 f i libucrt:_sftbuf.obj
 0001:000749fc       __acrt_should_use_temporary_buffer 00000001800759fc f   libucrt:_sftbuf.obj
 0001:00074a44       __acrt_stdio_begin_temporary_buffering_nolock 0000000180075a44 f   libucrt:_sftbuf.obj
 0001:00074b0c       __acrt_stdio_end_temporary_buffering_nolock 0000000180075b0c f   libucrt:_sftbuf.obj
 0001:00074b48       _malloc_base               0000000180075b48 f   libucrt:malloc_base.obj
 0001:0007545c       ??1?$__crt_simd_cleanup_guard@$00@@QEAA@XZ 000000018007645c f i libucrt:strnlen.obj
 0001:00075460       ??1?$__crt_simd_cleanup_guard@$0A@@@QEAA@XZ 0000000180076460 f i libucrt:strnlen.obj
 0001:00075464       ?compare_equals@?$__crt_simd_traits@$00E@@SA?AT__m256i@@T2@0@Z 0000000180076464 f i libucrt:strnlen.obj
 0001:00075470       ?compare_equals@?$__crt_simd_traits@$00G@@SA?AT__m256i@@T2@0@Z 0000000180076470 f i libucrt:strnlen.obj
 0001:0007547c       ?compare_equals@?$__crt_simd_traits@$0A@E@@SA?AT__m128i@@T2@0@Z 000000018007647c f i libucrt:strnlen.obj
 0001:00075488       ?compare_equals@?$__crt_simd_traits@$0A@G@@SA?AT__m128i@@T2@0@Z 0000000180076488 f i libucrt:strnlen.obj
 0001:00075494       ?compute_byte_mask@?$__crt_simd_pack_traits@$00@@SAHT__m256i@@@Z 0000000180076494 f i libucrt:strnlen.obj
 0001:000754a0       ?compute_byte_mask@?$__crt_simd_pack_traits@$0A@@@SAHT__m128i@@@Z 00000001800764a0 f i libucrt:strnlen.obj
 0001:000754ac       ?get_zero_pack@?$__crt_simd_pack_traits@$00@@SA?AT__m256i@@XZ 00000001800764ac f i libucrt:strnlen.obj
 0001:000754b4       ?get_zero_pack@?$__crt_simd_pack_traits@$0A@@@SA?AT__m128i@@XZ 00000001800764b4 f i libucrt:strnlen.obj
 0001:000754b8       strnlen                    00000001800764b8 f   libucrt:strnlen.obj
 0001:00075608       wcslen                     0000000180076608 f   libucrt:strnlen.obj
 0001:00075734       wcsnlen                    0000000180076734 f   libucrt:strnlen.obj
 0001:0007590c       ?value_explicit@?$dual_state_global@PEAU__crt_locale_data@@@__crt_state_management@@QEAAAEAPEAU__crt_locale_data@@_K@Z 000000018007690c f i libucrt:locale_update.obj
 0001:00075914       ?value_explicit@?$dual_state_global@PEAU__crt_multibyte_data@@@__crt_state_management@@QEAAAEAPEAU__crt_multibyte_data@@_K@Z 0000000180076914 f i libucrt:locale_update.obj
 0001:0007591c       __acrt_update_locale_info  000000018007691c f   libucrt:locale_update.obj
 0001:00075950       __acrt_update_locale_info_explicit 0000000180076950 f   libucrt:locale_update.obj
 0001:00075988       __acrt_update_multibyte_info 0000000180076988 f   libucrt:locale_update.obj
 0001:000759bc       __acrt_update_multibyte_info_explicit 00000001800769bc f   libucrt:locale_update.obj
 0001:000759f4       ?__acrt_fp_classify@@YA?AW4__acrt_fp_class@@AEBN@Z 00000001800769f4 f i libucrt:cvt.obj
 0001:00075a50       ?__acrt_fp_is_negative@@YA_NAEBN@Z 0000000180076a50 f i libucrt:cvt.obj
 0001:000766d8       ?strrchr@@YAPEADQEADH@Z    00000001800776d8 f i libucrt:cvt.obj
 0001:000766e0       __acrt_fp_format           00000001800776e0 f   libucrt:cvt.obj
 0001:000769c8       ?value_or@?$cached@H@__crt_cached_ptd_host@@QEBAHH@Z 00000001800779c8 f i libucrt:wctomb.obj
 0001:000769d4       _wctomb_internal           00000001800779d4 f   libucrt:wctomb.obj
 0001:00076b84       _wctomb_l                  0000000180077b84 f   libucrt:wctomb.obj
 0001:00076c70       _wctomb_s_l                0000000180077c70 f   libucrt:wctomb.obj
 0001:00076d20       wctomb                     0000000180077d20 f   libucrt:wctomb.obj
 0001:00076de8       wctomb_s                   0000000180077de8 f   libucrt:wctomb.obj
 0001:00076e88       _isleadbyte_fast_internal  0000000180077e88 f i libucrt:mbtowc.obj
 0001:00076ea0       _mbtowc_internal           0000000180077ea0 f   libucrt:mbtowc.obj
 0001:00077018       _mbtowc_l                  0000000180078018 f   libucrt:mbtowc.obj
 0001:000770bc       mbtowc                     00000001800780bc f   libucrt:mbtowc.obj
 0001:00077154       ?lowio_handle@__crt_stdio_stream@@QEBAHXZ 0000000180078154 f i libucrt:fileno.obj
 0001:0007715c       _fileno                    000000018007815c f   libucrt:fileno.obj
 0001:00077184       _get_printf_count_output   0000000180078184 f   libucrt:printf_count_output.obj
 0001:0007719c       _set_printf_count_output   000000018007819c f   libucrt:printf_count_output.obj
 0001:00077260       _fputwc_nolock             0000000180078260 f   libucrt:fputwc.obj
 0001:000772fc       _fputwc_nolock_internal    00000001800782fc f   libucrt:fputwc.obj
 0001:00077488       _fputwchar                 0000000180078488 f   libucrt:fputwc.obj
 0001:000774ac       _putwc_nolock              00000001800784ac f   libucrt:fputwc.obj
 0001:000774b4       fputwc                     00000001800784b4 f   libucrt:fputwc.obj
 0001:00077550       putwc                      0000000180078550 f   libucrt:fputwc.obj
 0001:00077558       putwchar                   0000000180078558 f   libucrt:fputwc.obj
 0001:000776bc       _fputc_nolock              00000001800786bc f   libucrt:fputc.obj
 0001:00077768       _fputc_nolock_internal     0000000180078768 f   libucrt:fputc.obj
 0001:00077780       _fputchar                  0000000180078780 f   libucrt:fputc.obj
 0001:000777a4       _putc_nolock               00000001800787a4 f   libucrt:fputc.obj
 0001:000777ac       fputc                      00000001800787ac f   libucrt:fputc.obj
 0001:00077844       putc                       0000000180078844 f   libucrt:fputc.obj
 0001:0007784c       putchar                    000000018007884c f   libucrt:fputc.obj
 0001:00077858       ??$?RU__crt_locale_data@@@__crt_internal_free_policy@@QEBAXQEBU__crt_locale_data@@@Z 0000000180078858 f i libucrt:wsetlocale.obj
 0001:00077860       ??$?RU__crt_locale_pointers@@@__crt_internal_free_policy@@QEBAXQEBU__crt_locale_pointers@@@Z 0000000180078860 f i libucrt:wsetlocale.obj
 0001:00077c64       ??0?$__crt_unique_heap_ptr@U__crt_locale_data@@U__crt_internal_free_policy@@@@QEAA@QEAU__crt_locale_data@@@Z 0000000180078c64 f i libucrt:wsetlocale.obj
 0001:00077c6c       ??0?$__crt_unique_heap_ptr@U__crt_locale_pointers@@U__crt_internal_free_policy@@@@QEAA@QEAU__crt_locale_pointers@@@Z 0000000180078c6c f i libucrt:wsetlocale.obj
 0001:00077c74       ??0_expandlocale_locale_name_cache@@QEAA@QEA_W_KQEAU__crt_qualified_locale_data@@@Z 0000000180078c74 f i libucrt:wsetlocale.obj
 0001:00077cd0       ??1?$__crt_unique_heap_ptr@U__crt_locale_data@@U__crt_internal_free_policy@@@@QEAA@XZ 0000000180078cd0 f i libucrt:wsetlocale.obj
 0001:00077cec       ??1?$__crt_unique_heap_ptr@U__crt_locale_pointers@@U__crt_internal_free_policy@@@@QEAA@XZ 0000000180078cec f i libucrt:wsetlocale.obj
 0001:00077d08       ??1_expandlocale_locale_name_cache@@QEAA@XZ 0000000180078d08 f i libucrt:wsetlocale.obj
 0001:00077d50       ??B?$__crt_unique_heap_ptr@U__crt_locale_data@@U__crt_internal_free_policy@@@@QEBA_NXZ 0000000180078d50 f i libucrt:wsetlocale.obj
 0001:00077d58       ??B?$__crt_unique_heap_ptr@U__crt_locale_pointers@@U__crt_internal_free_policy@@@@QEBA_NXZ 0000000180078d58 f i libucrt:wsetlocale.obj
 0001:00077fd8       ?commit_locale_name@_expandlocale_locale_name_cache@@QEAAXQEB_W_K@Z 0000000180078fd8 f i libucrt:wsetlocale.obj
 0001:00078050       ?commit_locale_name_cache_already_updated@_expandlocale_locale_name_cache@@QEAAXQEB_W_K@Z 0000000180079050 f i libucrt:wsetlocale.obj
 0001:00078090       ?detach@?$__crt_unique_heap_ptr@U__crt_locale_data@@U__crt_internal_free_policy@@@@QEAAPEAU__crt_locale_data@@XZ 0000000180079090 f i libucrt:wsetlocale.obj
 0001:00078098       ?detach@?$__crt_unique_heap_ptr@U__crt_locale_pointers@@U__crt_internal_free_policy@@@@QEAAPEAU__crt_locale_pointers@@XZ 0000000180079098 f i libucrt:wsetlocale.obj
 0001:000780a0       ?get@?$__crt_unique_heap_ptr@U__crt_locale_data@@U__crt_internal_free_policy@@@@QEBAPEAU__crt_locale_data@@XZ 00000001800790a0 f i libucrt:wsetlocale.obj
 0001:000780a4       ?get@?$__crt_unique_heap_ptr@U__crt_locale_pointers@@U__crt_internal_free_policy@@@@QEBAPEAU__crt_locale_pointers@@XZ 00000001800790a4 f i libucrt:wsetlocale.obj
 0001:000780a8       ?is_valid@?$__crt_unique_heap_ptr@U__crt_locale_data@@U__crt_internal_free_policy@@@@QEBA_NXZ 00000001800790a8 f i libucrt:wsetlocale.obj
 0001:000780b0       ?is_valid@?$__crt_unique_heap_ptr@U__crt_locale_pointers@@U__crt_internal_free_policy@@@@QEBA_NXZ 00000001800790b0 f i libucrt:wsetlocale.obj
 0001:000780b8       ?release@?$__crt_unique_heap_ptr@U__crt_locale_data@@U__crt_internal_free_policy@@@@QEAAXXZ 00000001800790b8 f i libucrt:wsetlocale.obj
 0001:000780d4       ?release@?$__crt_unique_heap_ptr@U__crt_locale_pointers@@U__crt_internal_free_policy@@@@QEAAXXZ 00000001800790d4 f i libucrt:wsetlocale.obj
 0001:000780f0       __acrt_copy_locale_name    00000001800790f0 f   libucrt:wsetlocale.obj
 0001:00078174       __acrt_set_locale_changed  0000000180079174 f   libucrt:wsetlocale.obj
 0001:00078180       __acrt_uninitialize_locale 0000000180079180 f   libucrt:wsetlocale.obj
 0001:000781b0       __ascii_tolower            00000001800791b0 f i libucrt:wsetlocale.obj
 0001:000781c0       __ascii_towlower           00000001800791c0 f i libucrt:wsetlocale.obj
 0001:000781d0       __lc_lctowcs               00000001800791d0 f   libucrt:wsetlocale.obj
 0001:00078274       __lc_wcstolc               0000000180079274 f   libucrt:wsetlocale.obj
 0001:000783dc       _configthreadlocale        00000001800793dc f   libucrt:wsetlocale.obj
 0001:00078508       _create_locale             0000000180079508 f   libucrt:wsetlocale.obj
 0001:00078a00       _free_locale               0000000180079a00 f   libucrt:wsetlocale.obj
 0001:00078aa4       _get_current_locale        0000000180079aa4 f   libucrt:wsetlocale.obj
 0001:00078b60       _wcreate_locale            0000000180079b60 f   libucrt:wsetlocale.obj
 0001:00078ca8       _wcscats                   0000000180079ca8 f   libucrt:wsetlocale.obj
 0001:00078d10       _wsetlocale                0000000180079d10 f   libucrt:wsetlocale.obj
 0001:00079b38       __pctype_func              000000018007ab38 f   libucrt:ctype.obj
 0001:00079b68       __pwctype_func             000000018007ab68 f   libucrt:ctype.obj
 0001:00079b70       _iswctype_l                000000018007ab70 f   libucrt:iswctype.obj
 0001:00079b78       iswctype                   000000018007ab78 f   libucrt:iswctype.obj
 0001:00079be4       _isctype                   000000018007abe4 f   libucrt:isctype.obj
 0001:00079c14       _isctype_l                 000000018007ac14 f   libucrt:isctype.obj
 0001:00079d30       _get_fpsr                  000000018007ad30 f   libucrt:fpsr.obj
 0001:00079d40       _set_fpsr                  000000018007ad40 f   libucrt:fpsr.obj
 0001:00079d4a       _fclrf                     000000018007ad4a f   libucrt:fpsr.obj
 0001:00079d5e       _frnd                      000000018007ad5e f   libucrt:fpsr.obj
 0001:00079d80       nexttoward                 000000018007ad80 f   libucrt:nexttoward.obj
 0001:00079ef0       nexttowardf                000000018007aef0 f   libucrt:nexttowardf.obj
 0001:0007a02c       ?should_round_up@__crt_strtox@@YA_N_N000@Z 000000018007b02c f i libucrt:fpexcept.obj
 0001:0007a0b4       _errcode                   000000018007b0b4 f   libucrt:fpexcept.obj
 0001:0007a0f8       _except1                   000000018007b0f8 f   libucrt:fpexcept.obj
 0001:0007a1ec       _except2                   000000018007b1ec f   libucrt:fpexcept.obj
 0001:0007a328       _handle_exc                000000018007b328 f   libucrt:fpexcept.obj
 0001:0007a620       _handle_qnan2              000000018007b620 f   libucrt:fpexcept.obj
 0001:0007a628       _raise_exc                 000000018007b628 f   libucrt:fpexcept.obj
 0001:0007a650       _raise_exc_ex              000000018007b650 f   libucrt:fpexcept.obj
 0001:0007a960       _raise_excf                000000018007b960 f   libucrt:fpexcept.obj
 0001:0007a98c       _set_errno_from_matherr    000000018007b98c f   libucrt:fpexcept.obj
 0001:0007a9bc       _umatherr                  000000018007b9bc f   libucrt:fpexcept.obj
 0001:0007aa8c       __acrt_add_locale_ref      000000018007ba8c f   libucrt:locale_refcounting.obj
 0001:0007ab18       __acrt_free_locale         000000018007bb18 f   libucrt:locale_refcounting.obj
 0001:0007ac90       __acrt_locale_add_lc_time_reference 000000018007bc90 f   libucrt:locale_refcounting.obj
 0001:0007acb8       __acrt_locale_free_lc_time_if_unreferenced 000000018007bcb8 f   libucrt:locale_refcounting.obj
 0001:0007acf0       __acrt_locale_release_lc_time_reference 000000018007bcf0 f   libucrt:locale_refcounting.obj
 0001:0007ad18       __acrt_release_locale_ref  000000018007bd18 f   libucrt:locale_refcounting.obj
 0001:0007adc0       __acrt_update_thread_locale_data 000000018007bdc0 f   libucrt:locale_refcounting.obj
 0001:0007ae30       _updatetlocinfoEx_nolock   000000018007be30 f   libucrt:locale_refcounting.obj
 0001:0007ae98       ?value@?$dual_state_global@J@__crt_state_management@@QEAAAEAJXZ 000000018007be98 f i libucrt:new_mode.obj
 0001:0007ae9c       _query_new_mode            000000018007be9c f   libucrt:new_mode.obj
 0001:0007aea4       _set_new_mode              000000018007bea4 f   libucrt:new_mode.obj
 0001:0007afd0       qsort                      000000018007bfd0 f   libucrt:qsort.obj
 0001:0007b4d4       wcsncpy_s                  000000018007c4d4 f   libucrt:wcsncpy_s.obj
 0001:0007b5d0       wcspbrk                    000000018007c5d0 f   libucrt:wcspbrk.obj
 0001:0007b6e4       strncpy_s                  000000018007c6e4 f   libucrt:strncpy_s.obj
 0001:0007b880       strpbrk                    000000018007c880 f   libucrt:strpbrk.obj
 0001:0007bc48       _mbsdec                    000000018007cc48 f   libucrt:mbsdec.obj
 0001:0007bc50       _mbsdec_l                  000000018007cc50 f   libucrt:mbsdec.obj
 0001:0007bce4       ??0?$__crt_scoped_stack_ptr@_W@@QEAA@U?$__crt_scoped_stack_ptr_tag@_W@@@Z 000000018007cce4 f i libucrt:getstringtypea.obj
 0001:0007bcec       ??0?$__crt_scoped_stack_ptr_tag@_W@@QEAA@QEA_W@Z 000000018007ccec f i libucrt:getstringtypea.obj
 0001:0007bcf4       ??1?$__crt_scoped_stack_ptr@_W@@QEAA@XZ 000000018007ccf4 f i libucrt:getstringtypea.obj
 0001:0007bd18       ?get@?$__crt_scoped_stack_ptr@_W@@QEBAPEA_WXZ 000000018007cd18 f i libucrt:getstringtypea.obj
 0001:0007bd1c       _MallocaComputeSize        000000018007cd1c f i libucrt:getstringtypea.obj
 0001:0007bd2c       _MarkAllocaS               000000018007cd2c f i libucrt:getstringtypea.obj
 0001:0007bd3c       __acrt_GetStringTypeA      000000018007cd3c f   libucrt:getstringtypea.obj
 0001:0007bed8       _freea_crt                 000000018007ced8 f i libucrt:getstringtypea.obj
 0001:0007bef8       ??B?$__crt_scoped_stack_ptr@_W@@QEBA_NXZ 000000018007cef8 f i libucrt:lcmapstringa.obj
 0001:0007c220       __acrt_LCMapStringA        000000018007d220 f   libucrt:lcmapstringa.obj
 0001:0007c2d0       _wcsnicoll                 000000018007d2d0 f   libucrt:wcsnicol.obj
 0001:0007c320       _wcsnicoll_l               000000018007d320 f   libucrt:wcsnicol.obj
 0001:0007c410       _strnicoll                 000000018007d410 f   libucrt:strnicol.obj
 0001:0007c428       _strnicoll_l               000000018007d428 f   libucrt:strnicol.obj
 0001:0007c528       __acrt_SetEnvironmentVariableA 000000018007d528 f   libucrt:setenvironmentvariablea.obj
 0001:0007c6c8       _msize                     000000018007d6c8 f   libucrt:msize.obj
 0001:0007c6d0       _msize_base                000000018007d6d0 f   libucrt:msize.obj
 0001:0007c70c       _realloc_base              000000018007d70c f   libucrt:realloc_base.obj
 0001:0007c85c       __acrt_DownlevelLCIDToLocaleName 000000018007d85c f   libucrt:lcidtoname_downlevel.obj
 0001:0007c944       __acrt_DownlevelLocaleNameToLCID 000000018007d944 f   libucrt:lcidtoname_downlevel.obj
 0001:0007c9ec       ??$?RU__crt_lowio_handle_data@@@__crt_internal_free_policy@@QEBAXQEBU__crt_lowio_handle_data@@@Z 000000018007d9ec f i libucrt:osfinfo.obj
 0001:0007c9f4       ??0?$__crt_unique_heap_ptr@U__crt_lowio_handle_data@@U__crt_internal_free_policy@@@@QEAA@QEAU__crt_lowio_handle_data@@@Z 000000018007d9f4 f i libucrt:osfinfo.obj
 0001:0007c9fc       ??1?$__crt_unique_heap_ptr@U__crt_lowio_handle_data@@U__crt_internal_free_policy@@@@QEAA@XZ 000000018007d9fc f i libucrt:osfinfo.obj
 0001:0007ca18       ??B?$__crt_unique_heap_ptr@U__crt_lowio_handle_data@@U__crt_internal_free_policy@@@@QEBA_NXZ 000000018007da18 f i libucrt:osfinfo.obj
 0001:0007ca20       ?detach@?$__crt_unique_heap_ptr@U__crt_lowio_handle_data@@U__crt_internal_free_policy@@@@QEAAPEAU__crt_lowio_handle_data@@XZ 000000018007da20 f i libucrt:osfinfo.obj
 0001:0007ca28       ?get@?$__crt_unique_heap_ptr@U__crt_lowio_handle_data@@U__crt_internal_free_policy@@@@QEBAPEAU__crt_lowio_handle_data@@XZ 000000018007da28 f i libucrt:osfinfo.obj
 0001:0007ca2c       ?is_valid@?$__crt_unique_heap_ptr@U__crt_lowio_handle_data@@U__crt_internal_free_policy@@@@QEBA_NXZ 000000018007da2c f i libucrt:osfinfo.obj
 0001:0007ca34       ?release@?$__crt_unique_heap_ptr@U__crt_lowio_handle_data@@U__crt_internal_free_policy@@@@QEAAXXZ 000000018007da34 f i libucrt:osfinfo.obj
 0001:0007ca50       __acrt_lowio_create_handle_array 000000018007da50 f   libucrt:osfinfo.obj
 0001:0007caf8       __acrt_lowio_destroy_handle_array 000000018007daf8 f   libucrt:osfinfo.obj
 0001:0007cb48       __acrt_lowio_ensure_fh_exists 000000018007db48 f   libucrt:osfinfo.obj
 0001:0007cbf0       __acrt_lowio_lock_fh       000000018007dbf0 f   libucrt:osfinfo.obj
 0001:0007cc18       __acrt_lowio_set_os_handle 000000018007dc18 f   libucrt:osfinfo.obj
 0001:0007ccd8       __acrt_lowio_unlock_fh     000000018007dcd8 f   libucrt:osfinfo.obj
 0001:0007cd00       _alloc_osfhnd              000000018007dd00 f   libucrt:osfinfo.obj
 0001:0007ce40       _free_osfhnd               000000018007de40 f   libucrt:osfinfo.obj
 0001:0007cefc       _get_osfhandle             000000018007defc f   libucrt:osfinfo.obj
 0001:0007cf74       _open_osfhandle            000000018007df74 f   libucrt:osfinfo.obj
 0001:0007d1bc       _commit                    000000018007e1bc f   libucrt:commit.obj
 0001:0007dc14       _utf8_no_of_trailbytes     000000018007ec14 f i libucrt:write.obj
 0001:0007dc24       _write                     000000018007ec24 f   libucrt:write.obj
 0001:0007dcbc       _write_internal            000000018007ecbc f   libucrt:write.obj
 0001:0007dde4       _write_nolock              000000018007ede4 f   libucrt:write.obj
 0001:0007e0f4       localeconv                 000000018007f0f4 f   libucrt:localeconv.obj
 0001:0007e128       ?is_in_use@__crt_stdio_stream@@QEBA_NXZ 000000018007f128 f i libucrt:closeall.obj
 0001:0007e134       _fcloseall                 000000018007f134 f   libucrt:closeall.obj
 0001:0007e1e8       ?has_crt_buffer@__crt_stdio_stream@@QEBA_NXZ 000000018007f1e8 f i libucrt:_freebuf.obj
 0001:0007e1f4       __acrt_stdio_free_buffer_nolock 000000018007f1f4 f   libucrt:_freebuf.obj
 0001:0007e234       _isatty                    000000018007f234 f   libucrt:isatty.obj
 0001:0007e35c       __acrt_fp_strflt_to_string 000000018007f35c f   libucrt:_fptostr.obj
 0001:0007f620       ??0big_integer@__crt_strtox@@QEAA@AEBU01@@Z 0000000180080620 f i libucrt:cfout.obj
 0001:0007f650       ??0big_integer@__crt_strtox@@QEAA@XZ 0000000180080650 f i libucrt:cfout.obj
 0001:0007f6b0       ??4big_integer@__crt_strtox@@QEAAAEAU01@AEBU01@@Z 00000001800806b0 f i libucrt:cfout.obj
 0001:0007f6e0       ??8__crt_strtox@@YA_NAEBUbig_integer@0@0@Z 00000001800806e0 f i libucrt:cfout.obj
 0001:0007f710       ??9__crt_strtox@@YA_NAEBUbig_integer@0@0@Z 0000000180080710 f i libucrt:cfout.obj
 0001:0007f750       ?add_carry@__crt_strtox@@YAIAEAIII@Z 0000000180080750 f i libucrt:cfout.obj
 0001:0007f770       ?add_multiply_carry@__crt_strtox@@YAIAEAIIII@Z 0000000180080770 f i libucrt:cfout.obj
 0001:0007f790       ?bit_scan_reverse@__crt_strtox@@YAII@Z 0000000180080790 f i libucrt:cfout.obj
 0001:0007f7b0       ?count_sequential_high_zeroes@__crt_strtox@@YAII@Z 00000001800807b0 f i libucrt:cfout.obj
 0001:0007f7d0       ?divide@__crt_strtox@@YA_KAEAUbig_integer@1@AEBU21@@Z 00000001800807d0 f i libucrt:cfout.obj
 0001:0007fc60       ?is_zero@__crt_strtox@@YA_NAEBUbig_integer@1@@Z 0000000180080c60 f i libucrt:cfout.obj
 0001:0007fc70       ?make_big_integer@__crt_strtox@@YA?AUbig_integer@1@_K@Z 0000000180080c70 f i libucrt:cfout.obj
 0001:0007fc90       ?make_big_integer_power_of_two@__crt_strtox@@YA?AUbig_integer@1@I@Z 0000000180080c90 f i libucrt:cfout.obj
 0001:0007fd00       ?multiply@__crt_strtox@@YA_NAEAUbig_integer@1@AEBU21@@Z 0000000180080d00 f i libucrt:cfout.obj
 0001:000800b0       ?multiply@__crt_strtox@@YA_NAEAUbig_integer@1@I@Z 00000001800810b0 f i libucrt:cfout.obj
 0001:000801a0       ?multiply_64_32@__crt_strtox@@YA_K_KI@Z 00000001800811a0 f i libucrt:cfout.obj
 0001:000801b0       ?multiply_by_power_of_ten@__crt_strtox@@YA_NAEAUbig_integer@1@I@Z 00000001800811b0 f i libucrt:cfout.obj
 0001:00080740       ?multiply_core@__crt_strtox@@YAIQEAIII@Z 0000000180081740 f i libucrt:cfout.obj
 0001:00080790       ?shift_left@__crt_strtox@@YA_NAEAUbig_integer@1@I@Z 0000000180081790 f i libucrt:cfout.obj
 0001:0008090c       __acrt_fltout              000000018008190c f   libucrt:cfout.obj
 0001:00081bd4       __fpe_flt_rounds           0000000180082bd4 f   libucrt:fegetround.obj
 0001:00081c1c       fegetround                 0000000180082c1c f   libucrt:fegetround.obj
 0001:00081c30       ??$?RG@__crt_internal_free_policy@@QEBAXQEBG@Z 0000000180082c30 f i libucrt:initctype.obj
 0001:00081c38       ??$?RJ@__crt_internal_free_policy@@QEBAXQEBJ@Z 0000000180082c38 f i libucrt:initctype.obj
 0001:00081c40       ??0?$__crt_unique_heap_ptr@GU__crt_internal_free_policy@@@@QEAA@QEAG@Z 0000000180082c40 f i libucrt:initctype.obj
 0001:00081c48       ??0?$__crt_unique_heap_ptr@JU__crt_internal_free_policy@@@@QEAA@QEAJ@Z 0000000180082c48 f i libucrt:initctype.obj
 0001:00081c50       ??1?$__crt_unique_heap_ptr@GU__crt_internal_free_policy@@@@QEAA@XZ 0000000180082c50 f i libucrt:initctype.obj
 0001:00081c6c       ??1?$__crt_unique_heap_ptr@JU__crt_internal_free_policy@@@@QEAA@XZ 0000000180082c6c f i libucrt:initctype.obj
 0001:00081c88       ?detach@?$__crt_unique_heap_ptr@GU__crt_internal_free_policy@@@@QEAAPEAGXZ 0000000180082c88 f i libucrt:initctype.obj
 0001:00081c90       ?detach@?$__crt_unique_heap_ptr@JU__crt_internal_free_policy@@@@QEAAPEAJXZ 0000000180082c90 f i libucrt:initctype.obj
 0001:00081c98       ?release@?$__crt_unique_heap_ptr@GU__crt_internal_free_policy@@@@QEAAXXZ 0000000180082c98 f i libucrt:initctype.obj
 0001:00081cb4       ?release@?$__crt_unique_heap_ptr@JU__crt_internal_free_policy@@@@QEAAXXZ 0000000180082cb4 f i libucrt:initctype.obj
 0001:00081cd0       ___lc_codepage_func        0000000180082cd0 f   libucrt:initctype.obj
 0001:00081d00       ___lc_collate_cp_func      0000000180082d00 f   libucrt:initctype.obj
 0001:00081d30       ___lc_locale_name_func     0000000180082d30 f   libucrt:initctype.obj
 0001:00081d64       ___mb_cur_max_func         0000000180082d64 f   libucrt:initctype.obj
 0001:00081d94       ___mb_cur_max_l_func       0000000180082d94 f   libucrt:initctype.obj
 0001:00081da4       __acrt_locale_initialize_ctype 0000000180082da4 f   libucrt:initctype.obj
 0001:00082408       ?__c32rtomb_utf8@__crt_mbstring@@YA_KPEAD_UPEAU_Mbstatet@@AEAV__crt_cached_ptd_host@@@Z 0000000180083408 f   libucrt:c32rtomb.obj
 0001:000824ac       c32rtomb                   00000001800834ac f   libucrt:c32rtomb.obj
 0001:00082570       ?__mbrtowc_utf8@__crt_mbstring@@YA_KPEA_WPEBD_KPEAU_Mbstatet@@AEAV__crt_cached_ptd_host@@@Z 0000000180083570 f   libucrt:mbrtowc.obj
 0001:000825b4       ?__mbsrtowcs_utf8@__crt_mbstring@@YA_KPEA_WPEAPEBD_KPEAU_Mbstatet@@AEAV__crt_cached_ptd_host@@@Z 00000001800835b4 f   libucrt:mbrtowc.obj
 0001:00082be8       btowc                      0000000180083be8 f   libucrt:mbrtowc.obj
 0001:00082cc0       mbrlen                     0000000180083cc0 f   libucrt:mbrtowc.obj
 0001:00082d88       mbrtowc                    0000000180083d88 f   libucrt:mbrtowc.obj
 0001:00082e70       mbsrtowcs                  0000000180083e70 f   libucrt:mbrtowc.obj
 0001:00082f14       mbsrtowcs_s                0000000180083f14 f   libucrt:mbrtowc.obj
 0001:000833f4       ?has_big_buffer@__crt_stdio_stream@@QEBA_NXZ 00000001800843f4 f i libucrt:_flsbuf.obj
 0001:00083480       __acrt_stdio_flush_and_write_narrow_nolock 0000000180084480 f   libucrt:_flsbuf.obj
 0001:00083544       __acrt_stdio_flush_and_write_wide_nolock 0000000180084544 f   libucrt:_flsbuf.obj
 0001:00083608       ??$?RUlconv@@@__crt_internal_free_policy@@QEBAXQEBUlconv@@@Z 0000000180084608 f i libucrt:initmon.obj
 0001:00083610       ??0?$__crt_unique_heap_ptr@Ulconv@@U__crt_internal_free_policy@@@@QEAA@QEAUlconv@@@Z 0000000180084610 f i libucrt:initmon.obj
 0001:00083618       ??1?$__crt_unique_heap_ptr@Ulconv@@U__crt_internal_free_policy@@@@QEAA@XZ 0000000180084618 f i libucrt:initmon.obj
 0001:00083634       ?detach@?$__crt_unique_heap_ptr@Ulconv@@U__crt_internal_free_policy@@@@QEAAPEAUlconv@@XZ 0000000180084634 f i libucrt:initmon.obj
 0001:0008363c       ?release@?$__crt_unique_heap_ptr@Ulconv@@U__crt_internal_free_policy@@@@QEAAXXZ 000000018008463c f i libucrt:initmon.obj
 0001:00083658       __acrt_locale_free_monetary 0000000180084658 f   libucrt:initmon.obj
 0001:00083764       __acrt_locale_initialize_monetary 0000000180084764 f   libucrt:initmon.obj
 0001:00083ccc       __acrt_locale_free_numeric 0000000180084ccc f   libucrt:initnum.obj
 0001:00083d38       __acrt_locale_initialize_numeric 0000000180084d38 f   libucrt:initnum.obj
 0001:00084050       ??$?RU__crt_lc_time_data@@@__crt_internal_free_policy@@QEBAXQEBU__crt_lc_time_data@@@Z 0000000180085050 f i libucrt:inittime.obj
 0001:000840a0       ??0?$__crt_unique_heap_ptr@U__crt_lc_time_data@@U__crt_internal_free_policy@@@@QEAA@QEAU__crt_lc_time_data@@@Z 00000001800850a0 f i libucrt:inittime.obj
 0001:000840a8       ??1?$__crt_unique_heap_ptr@U__crt_lc_time_data@@U__crt_internal_free_policy@@@@QEAA@XZ 00000001800850a8 f i libucrt:inittime.obj
 0001:000840c4       ??B?$__crt_unique_heap_ptr@U__crt_lc_time_data@@U__crt_internal_free_policy@@@@QEBA_NXZ 00000001800850c4 f i libucrt:inittime.obj
 0001:000840cc       ?detach@?$__crt_unique_heap_ptr@U__crt_lc_time_data@@U__crt_internal_free_policy@@@@QEAAPEAU__crt_lc_time_data@@XZ 00000001800850cc f i libucrt:inittime.obj
 0001:00084108       ?get@?$__crt_unique_heap_ptr@U__crt_lc_time_data@@U__crt_internal_free_policy@@@@QEBAPEAU__crt_lc_time_data@@XZ 0000000180085108 f i libucrt:inittime.obj
 0001:000844cc       ?is_valid@?$__crt_unique_heap_ptr@U__crt_lc_time_data@@U__crt_internal_free_policy@@@@QEBA_NXZ 00000001800854cc f i libucrt:inittime.obj
 0001:000844d4       ?release@?$__crt_unique_heap_ptr@U__crt_lc_time_data@@U__crt_internal_free_policy@@@@QEAAXXZ 00000001800854d4 f i libucrt:inittime.obj
 0001:000844f0       __acrt_locale_free_time    00000001800854f0 f   libucrt:inittime.obj
 0001:000845f8       __acrt_locale_initialize_time 00000001800855f8 f   libucrt:inittime.obj
 0001:00084720       wcscat_s                   0000000180085720 f   libucrt:wcscat_s.obj
 0001:000848a4       wcsncat_s                  00000001800858a4 f   libucrt:wcsncat_s.obj
 0001:000849a8       wcscspn                    00000001800859a8 f   libucrt:wcscspn.obj
 0001:00085244       __acrt_get_qualified_locale 0000000180086244 f   libucrt:get_qualified_locale.obj
 0001:00085d48       __acrt_get_qualified_locale_downlevel 0000000180086d48 f   libucrt:getqloc_downlevel.obj
 0001:00085fc8       __acrt_GetStringTypeW      0000000180086fc8 f   libucrt:getstringtypew.obj
 0001:00086060       _d_int                     0000000180087060 f   libucrt:_test.obj
 0001:00086178       _dtest                     0000000180087178 f   libucrt:_test.obj
 0001:000861dc       _fd_int                    00000001800871dc f   libucrt:_test.obj
 0001:000862b4       _fdtest                    00000001800872b4 f   libucrt:_test.obj
 0001:00086300       _fperrraise                0000000180087300 f   libucrt:_test.obj
 0001:000863b4       _ld_int                    00000001800873b4 f   libucrt:_test.obj
 0001:000863bc       _ldtest                    00000001800873bc f   libucrt:_test.obj
 0001:000863c4       _dclass                    00000001800873c4 f   libucrt:nan.obj
 0001:000863e0       _dpcomp                    00000001800873e0 f   libucrt:nan.obj
 0001:00086444       _dsign                     0000000180087444 f   libucrt:nan.obj
 0001:0008645c       nan                        000000018008745c f   libucrt:nan.obj
 0001:00086468       _fdclass                   0000000180087468 f   libucrt:nanf.obj
 0001:00086484       _fdpcomp                   0000000180087484 f   libucrt:nanf.obj
 0001:000864e8       _fdsign                    00000001800874e8 f   libucrt:nanf.obj
 0001:000864fc       nanf                       00000001800874fc f   libucrt:nanf.obj
 0001:00086508       _add_exp                   0000000180087508 f   libucrt:util.obj
 0001:00086558       _decomp                    0000000180087558 f   libucrt:util.obj
 0001:00086688       _get_exp                   0000000180087688 f   libucrt:util.obj
 0001:000866a8       _set_bexp                  00000001800876a8 f   libucrt:util.obj
 0001:000866d8       _set_exp                   00000001800876d8 f   libucrt:util.obj
 0001:00086710       _sptype                    0000000180087710 f   libucrt:util.obj
 0001:00086784       __strncnt                  0000000180087784 f   libucrt:strncnt.obj
 0001:0008679c       __acrt_CompareStringW      000000018008779c f   libucrt:comparestringw.obj
 0001:0008685c       __ascii_wcsnicmp           000000018008785c f   libucrt:wcsnicmp.obj
 0001:000868a8       _towlower_fast_internal    00000001800878a8 f i libucrt:wcsnicmp.obj
 0001:000868d0       _towlower_internal         00000001800878d0 f i libucrt:wcsnicmp.obj
 0001:00086904       _wcsnicmp                  0000000180087904 f   libucrt:wcsnicmp.obj
 0001:0008694c       _wcsnicmp_l                000000018008794c f   libucrt:wcsnicmp.obj
 0001:00086a9c       __ascii_strnicmp           0000000180087a9c f   libucrt:strnicmp.obj
 0001:00086ae8       _strnicmp                  0000000180087ae8 f   libucrt:strnicmp.obj
 0001:00086b38       _strnicmp_l                0000000180087b38 f   libucrt:strnicmp.obj
 0001:00086f68       __acrt_CompareStringA      0000000180087f68 f   libucrt:comparestringa.obj
 0001:000870cc       __acrt_report_runtime_error 00000001800880cc f   libucrt:report_runtime_error.obj
 0001:0008722c       _query_app_type            000000018008822c f   libucrt:report_runtime_error.obj
 0001:00087234       _set_app_type              0000000180088234 f   libucrt:report_runtime_error.obj
 0001:00087720       _lseek                     0000000180088720 f   libucrt:lseek.obj
 0001:000877b8       _lseek_internal            00000001800887b8 f   libucrt:lseek.obj
 0001:000877c0       _lseek_nolock              00000001800887c0 f   libucrt:lseek.obj
 0001:00087858       _lseek_nolock_internal     0000000180088858 f   libucrt:lseek.obj
 0001:00087860       _lseeki64                  0000000180088860 f   libucrt:lseek.obj
 0001:000878fc       _lseeki64_internal         00000001800888fc f   libucrt:lseek.obj
 0001:00087904       _lseeki64_nolock           0000000180088904 f   libucrt:lseek.obj
 0001:000879a0       _lseeki64_nolock_internal  00000001800889a0 f   libucrt:lseek.obj
 0001:00087a44       _putwch                    0000000180088a44 f   libucrt:putwch.obj
 0001:00087a80       _putwch_nolock             0000000180088a80 f   libucrt:putwch.obj
 0001:00087abc       _putwch_nolock_internal    0000000180088abc f   libucrt:putwch.obj
 0001:000881dc       _read                      00000001800891dc f   libucrt:read.obj
 0001:000882f8       _read_nolock               00000001800892f8 f   libucrt:read.obj
 0001:00088864       _fclose_nolock             0000000180089864 f   libucrt:fclose.obj
 0001:000888fc       fclose                     00000001800898fc f   libucrt:fclose.obj
 0001:00088994       _controlfp_s               0000000180089994 f   libucrt:contrlfp.obj
 0001:000889f8       fegetenv                   00000001800899f8 f   libucrt:fegetenv.obj
 0001:00088a18       fesetenv                   0000000180089a18 f   libucrt:fesetenv.obj
 0001:00088a64       feholdexcept               0000000180089a64 f   libucrt:feholdexcept.obj
 0001:00088ab4       ceil                       0000000180089ab4 f   libucrt:ceil.obj
 0001:00088b80       log10                      0000000180089b80 f   libucrt:log10.obj
 0001:0008912c       ??$__acrt_fenv_shift_bits@W4__acrt_fenv_abstract_control@@@@YA?AW4__acrt_fenv_abstract_control@@W40@0I@Z 000000018008a12c f i libucrt:_fenvutils.obj
 0001:00089138       ??$__acrt_fenv_shift_bits@W4__acrt_fenv_abstract_status@@@@YA?AW4__acrt_fenv_abstract_status@@W40@0I@Z 000000018008a138 f i libucrt:_fenvutils.obj
 0001:00089144       ??$__acrt_fenv_translate_bit@W4__acrt_fenv_abstract_control@@W4__acrt_fenv_machine_sse_control@@@@YA?AW4__acrt_fenv_abstract_control@@W4__acrt_fenv_machine_sse_control@@0W40@1@Z 000000018008a144 f i libucrt:_fenvutils.obj
 0001:00089150       ??$__acrt_fenv_translate_bit@W4__acrt_fenv_abstract_status@@W4__acrt_fenv_machine_sse_status@@@@YA?AW4__acrt_fenv_abstract_status@@W4__acrt_fenv_machine_sse_status@@0W40@1@Z 000000018008a150 f i libucrt:_fenvutils.obj
 0001:0008915c       ??$__acrt_fenv_translate_bit@W4__acrt_fenv_machine_sse_control@@W4__acrt_fenv_abstract_control@@@@YA?AW4__acrt_fenv_machine_sse_control@@W4__acrt_fenv_abstract_control@@0W40@1@Z 000000018008a15c f i libucrt:_fenvutils.obj
 0001:00089168       ??$__acrt_fenv_translate_bit@W4__acrt_fenv_machine_sse_status@@W4__acrt_fenv_abstract_status@@@@YA?AW4__acrt_fenv_machine_sse_status@@W4__acrt_fenv_abstract_status@@0W40@1@Z 000000018008a168 f i libucrt:_fenvutils.obj
 0001:00089174       ??$__acrt_fenv_unshift_bits@W4__acrt_fenv_abstract_control@@@@YA?AW4__acrt_fenv_abstract_control@@W40@0I@Z 000000018008a174 f i libucrt:_fenvutils.obj
 0001:00089180       ??$__acrt_fenv_unshift_bits@W4__acrt_fenv_abstract_status@@@@YA?AW4__acrt_fenv_abstract_status@@W40@0I@Z 000000018008a180 f i libucrt:_fenvutils.obj
 0001:00089344       ??I@YA?AW4__acrt_fenv_abstract_control@@W40@0@Z 000000018008a344 f i libucrt:_fenvutils.obj
 0001:0008934c       ??I@YA?AW4__acrt_fenv_abstract_status@@W40@0@Z 000000018008a34c f i libucrt:_fenvutils.obj
 0001:00089354       ??I@YA?AW4__acrt_fenv_machine_sse_control@@W40@0@Z 000000018008a354 f i libucrt:_fenvutils.obj
 0001:0008935c       ??I@YA?AW4__acrt_fenv_machine_sse_status@@W40@0@Z 000000018008a35c f i libucrt:_fenvutils.obj
 0001:00089364       ??U@YA?AW4__acrt_fenv_abstract_control@@W40@0@Z 000000018008a364 f i libucrt:_fenvutils.obj
 0001:0008936c       ??U@YA?AW4__acrt_fenv_abstract_status@@W40@0@Z 000000018008a36c f i libucrt:_fenvutils.obj
 0001:00089374       ??U@YA?AW4__acrt_fenv_machine_sse_control@@W40@0@Z 000000018008a374 f i libucrt:_fenvutils.obj
 0001:0008937c       ??_5@YAAEAW4__acrt_fenv_abstract_control@@AEAW40@W40@@Z 000000018008a37c f i libucrt:_fenvutils.obj
 0001:00089384       ??_5@YAAEAW4__acrt_fenv_abstract_status@@AEAW40@W40@@Z 000000018008a384 f i libucrt:_fenvutils.obj
 0001:0008938c       ??_5@YAAEAW4__acrt_fenv_machine_sse_control@@AEAW40@W40@@Z 000000018008a38c f i libucrt:_fenvutils.obj
 0001:00089394       ??_5@YAAEAW4__acrt_fenv_machine_sse_status@@AEAW40@W40@@Z 000000018008a394 f i libucrt:_fenvutils.obj
 0001:0008939c       ?__acrt_fenv_shift_abstract_sse_control@@YA?AW4__acrt_fenv_abstract_control@@W41@@Z 000000018008a39c f i libucrt:_fenvutils.obj
 0001:000893b0       ?__acrt_fenv_shift_abstract_sse_status@@YA?AW4__acrt_fenv_abstract_status@@W41@@Z 000000018008a3b0 f i libucrt:_fenvutils.obj
 0001:000893bc       ?__acrt_fenv_unshift_abstract_sse_control@@YA?AW4__acrt_fenv_abstract_control@@W41@@Z 000000018008a3bc f i libucrt:_fenvutils.obj
 0001:000893d4       ?__acrt_fenv_unshift_abstract_sse_status@@YA?AW4__acrt_fenv_abstract_status@@W41@@Z 000000018008a3d4 f i libucrt:_fenvutils.obj
 0001:00089690       __acrt_fenv_expand_round_control 000000018008a690 f   libucrt:_fenvutils.obj
 0001:000896a8       __acrt_fenv_get_common_round_control 000000018008a6a8 f   libucrt:_fenvutils.obj
 0001:000896b4       __acrt_fenv_get_control    000000018008a6b4 f   libucrt:_fenvutils.obj
 0001:00089798       __acrt_fenv_get_fp_status_word_from_exception_mask 000000018008a798 f   libucrt:_fenvutils.obj
 0001:000897a4       __acrt_fenv_get_status     000000018008a7a4 f   libucrt:_fenvutils.obj
 0001:000897fc       __acrt_fenv_set_control    000000018008a7fc f   libucrt:_fenvutils.obj
 0001:00089938       __acrt_fenv_set_status     000000018008a938 f   libucrt:_fenvutils.obj
 0001:00089b30       __acrt_GetLocaleInfoA      000000018008ab30 f   libucrt:getlocaleinfoa.obj
 0001:00089cf8       ?reset_and_return@__crt_mbstring@@YA_K_KPEAU_Mbstatet@@@Z 000000018008acf8 f   libucrt:common_utf8.obj
 0001:00089d00       ?return_illegal_sequence@__crt_mbstring@@YA_KPEAU_Mbstatet@@AEAV__crt_cached_ptd_host@@@Z 000000018008ad00 f   libucrt:common_utf8.obj
 0001:00089d14       ?__mbrtoc32_utf8@__crt_mbstring@@YA_KPEA_UPEBD_KPEAU_Mbstatet@@AEAV__crt_cached_ptd_host@@@Z 000000018008ad14 f   libucrt:mbrtoc32.obj
 0001:00089ef0       mbrtoc32                   000000018008aef0 f   libucrt:mbrtoc32.obj
 0001:00089f94       __acrt_stdio_allocate_buffer_nolock 000000018008af94 f   libucrt:_getbuf.obj
 0001:0008a4ec       _i64toa                    000000018008b4ec f   libucrt:xtoa.obj
 0001:0008a520       _i64toa_s                  000000018008b520 f   libucrt:xtoa.obj
 0001:0008a544       _i64tow                    000000018008b544 f   libucrt:xtoa.obj
 0001:0008a578       _i64tow_s                  000000018008b578 f   libucrt:xtoa.obj
 0001:0008a59c       _itoa                      000000018008b59c f   libucrt:xtoa.obj
 0001:0008a5cc       _itoa_s                    000000018008b5cc f   libucrt:xtoa.obj
 0001:0008a5ec       _itow                      000000018008b5ec f   libucrt:xtoa.obj
 0001:0008a61c       _itow_s                    000000018008b61c f   libucrt:xtoa.obj
 0001:0008a63c       _ltoa                      000000018008b63c f   libucrt:xtoa.obj
 0001:0008a66c       _ltoa_s                    000000018008b66c f   libucrt:xtoa.obj
 0001:0008a68c       _ltow                      000000018008b68c f   libucrt:xtoa.obj
 0001:0008a6bc       _ltow_s                    000000018008b6bc f   libucrt:xtoa.obj
 0001:0008a6dc       _ui64toa                   000000018008b6dc f   libucrt:xtoa.obj
 0001:0008a700       _ui64toa_s                 000000018008b700 f   libucrt:xtoa.obj
 0001:0008a714       _ui64tow                   000000018008b714 f   libucrt:xtoa.obj
 0001:0008a738       _ui64tow_s                 000000018008b738 f   libucrt:xtoa.obj
 0001:0008a74c       _ultoa                     000000018008b74c f   libucrt:xtoa.obj
 0001:0008a770       _ultoa_s                   000000018008b770 f   libucrt:xtoa.obj
 0001:0008a784       _ultow                     000000018008b784 f   libucrt:xtoa.obj
 0001:0008a7a8       _ultow_s                   000000018008b7a8 f   libucrt:xtoa.obj
 0001:0008a7bc       __ascii_wcsicmp            000000018008b7bc f   libucrt:wcsicmp.obj
 0001:0008a7fc       _wcsicmp                   000000018008b7fc f   libucrt:wcsicmp.obj
 0001:0008a844       _wcsicmp_l                 000000018008b844 f   libucrt:wcsicmp.obj
 0001:0008a96c       wcscmp                     000000018008b96c f   libucrt:wcscmp.obj
 0001:0008a9a4       ??_4@YAAEAW4__acrt_fenv_abstract_status@@AEAW40@W40@@Z 000000018008b9a4 f i libucrt:fegetexceptflag.obj
 0001:0008a9ac       fegetexceptflag            000000018008b9ac f   libucrt:fegetexceptflag.obj
 0001:0008a9f0       ??S@YA?AW4__acrt_fenv_abstract_status@@W40@@Z 000000018008b9f0 f i libucrt:fesetexceptflag.obj
 0001:0008a9f8       fesetexceptflag            000000018008b9f8 f   libucrt:fesetexceptflag.obj
 0001:0008aa74       _towlower_l                000000018008ba74 f   libucrt:towlower.obj
 0001:0008ab6c       towlower                   000000018008bb6c f   libucrt:towlower.obj
 0001:0008ab74       _set_error_mode            000000018008bb74 f   libucrt:set_error_mode.obj
 0001:0008acfc       ??$message_box@$$TAEBQEBDAEBQEBDK@?$__crt_char_traits@D@@SAH$$QEA$$TAEBQEBD1$$QEAK@Z 000000018008bcfc f i libucrt:crtmbox.obj
 0001:0008ad10       ??$message_box@$$TAEBQEB_WAEBQEB_WK@?$__crt_char_traits@_W@@SAH$$QEA$$TAEBQEB_W1$$QEAK@Z 000000018008bd10 f i libucrt:crtmbox.obj
 0001:0008ad24       ??$message_box@PEAUHWND__@@AEBQEBDAEBQEBDAEBI@?$__crt_char_traits@D@@SAH$$QEAPEAUHWND__@@AEBQEBD1AEBI@Z 000000018008bd24 f i libucrt:crtmbox.obj
 0001:0008ad38       ??$message_box@PEAUHWND__@@AEBQEB_WAEBQEB_WAEBI@?$__crt_char_traits@_W@@SAH$$QEAPEAUHWND__@@AEBQEB_W1AEBI@Z 000000018008bd38 f i libucrt:crtmbox.obj
 0001:0008ad4c       ??$output_debug_string@AEBQEBD@?$__crt_char_traits@D@@SAXAEBQEBD@Z 000000018008bd4c f i libucrt:crtmbox.obj
 0001:0008ad54       ??$output_debug_string@AEBQEB_W@?$__crt_char_traits@_W@@SAXAEBQEB_W@Z 000000018008bd54 f i libucrt:crtmbox.obj
 0001:0008ad60       __acrt_show_narrow_message_box 000000018008bd60 f   libucrt:crtmbox.obj
 0001:0008ae04       __acrt_show_wide_message_box 000000018008be04 f   libucrt:crtmbox.obj
 0001:0008afd0       __dcrt_lowio_ensure_console_output_initialized 000000018008bfd0 f   libucrt:initcon.obj
 0001:0008b024       __dcrt_terminate_console_output 000000018008c024 f   libucrt:initcon.obj
 0001:0008b040       __dcrt_write_console       000000018008c040 f   libucrt:initcon.obj
 0001:0008b294       _close                     000000018008c294 f   libucrt:close.obj
 0001:0008b32c       _close_internal            000000018008c32c f   libucrt:close.obj
 0001:0008b3f0       _close_nolock              000000018008c3f0 f   libucrt:close.obj
 0001:0008b488       _close_nolock_internal     000000018008c488 f   libucrt:close.obj
 0001:0008b558       ??$?RU__crt_stdio_stream_data@@@__crt_internal_free_policy@@QEBAXQEBU__crt_stdio_stream_data@@@Z 000000018008c558 f i libucrt:stream.obj
 0001:0008b560       ??0?$__crt_unique_heap_ptr@U__crt_stdio_stream_data@@U__crt_internal_free_policy@@@@QEAA@QEAU__crt_stdio_stream_data@@@Z 000000018008c560 f i libucrt:stream.obj
 0001:0008b568       ??0__crt_stdio_stream@@QEAA@XZ 000000018008c568 f i libucrt:stream.obj
 0001:0008b570       ??1?$__crt_unique_heap_ptr@U__crt_stdio_stream_data@@U__crt_internal_free_policy@@@@QEAA@XZ 000000018008c570 f i libucrt:stream.obj
 0001:0008b58c       ?__acrt_stdio_allocate_stream@@YA?AV__crt_stdio_stream@@XZ 000000018008c58c f   libucrt:stream.obj
 0001:0008b5e4       ?__acrt_stdio_free_stream@@YAXV__crt_stdio_stream@@@Z 000000018008c5e4 f   libucrt:stream.obj
 0001:0008b600       ?deallocate@__crt_stdio_stream@@QEAAXXZ 000000018008c600 f i libucrt:stream.obj
 0001:0008b60c       ?detach@?$__crt_unique_heap_ptr@U__crt_stdio_stream_data@@U__crt_internal_free_policy@@@@QEAAPEAU__crt_stdio_stream_data@@XZ 000000018008c60c f i libucrt:stream.obj
 0001:0008b700       ?lock@__crt_stdio_stream@@QEBAXXZ 000000018008c700 f i libucrt:stream.obj
 0001:0008b708       ?release@?$__crt_unique_heap_ptr@U__crt_stdio_stream_data@@U__crt_internal_free_policy@@@@QEAAXXZ 000000018008c708 f i libucrt:stream.obj
 0001:0008b724       ?try_allocate@__crt_stdio_stream@@QEAA_NXZ 000000018008c724 f i libucrt:stream.obj
 0001:0008b744       ?unlock@__crt_stdio_stream@@QEBAXXZ 000000018008c744 f i libucrt:stream.obj
 0001:0008b870       _clearfp                   000000018008c870 f   libucrt:ieee.obj
 0001:0008b8e0       _control87                 000000018008c8e0 f   libucrt:ieee.obj
 0001:0008b8e8       _controlfp                 000000018008c8e8 f   libucrt:ieee.obj
 0001:0008b8f4       _fpreset                   000000018008c8f4 f   libucrt:ieee.obj
 0001:0008b9c0       _set_controlfp             000000018008c9c0 f   libucrt:ieee.obj
 0001:0008b9f4       _statusfp                  000000018008c9f4 f   libucrt:ieee.obj
 0001:0008bd20       _log10_special             000000018008cd20 f   libucrt:log_special.obj
 0001:0008bd40       _log10f_special            000000018008cd40 f   libucrt:log_special.obj
 0001:0008bd60       _log_special               000000018008cd60 f   libucrt:log_special.obj
 0001:0008be18       _logf_special              000000018008ce18 f   libucrt:log_special.obj
 0001:0008bed4       fetestexcept               000000018008ced4 f   libucrt:fetestexcept.obj
 0001:0008bef8       __acrt_LCMapStringW        000000018008cef8 f   libucrt:lcmapstringw.obj
 0001:0008bf80       __acrt_OutputDebugStringA  000000018008cf80 f   libucrt:outputdebugstringa.obj
 0001:0008c33c       _mbstowcs_l                000000018008d33c f   libucrt:mbstowcs.obj
 0001:0008c3e4       _mbstowcs_s_l              000000018008d3e4 f   libucrt:mbstowcs.obj
 0001:0008c49c       mbstowcs                   000000018008d49c f   libucrt:mbstowcs.obj
 0001:0008c538       mbstowcs_s                 000000018008d538 f   libucrt:mbstowcs.obj
 0001:0008c5e0       RaiseException             000000018008d5e0 f   kernel32:KERNEL32.dll
 0001:0008c5e6       GetLastError               000000018008d5e6 f   kernel32:KERNEL32.dll
 0001:0008c5ec       GetSystemInfo              000000018008d5ec f   kernel32:KERNEL32.dll
 0001:0008c5f2       VirtualProtect             000000018008d5f2 f   kernel32:KERNEL32.dll
 0001:0008c5f8       VirtualQuery               000000018008d5f8 f   kernel32:KERNEL32.dll
 0001:0008c5fe       FreeLibrary                000000018008d5fe f   kernel32:KERNEL32.dll
 0001:0008c604       GetModuleHandleW           000000018008d604 f   kernel32:KERNEL32.dll
 0001:0008c60a       GetProcAddress             000000018008d60a f   kernel32:KERNEL32.dll
 0001:0008c610       LoadLibraryExA             000000018008d610 f   kernel32:KERNEL32.dll
 0001:0008c616       InitializeSListHead        000000018008d616 f   kernel32:KERNEL32.dll
 0001:0008c61c       QueryPerformanceCounter    000000018008d61c f   kernel32:KERNEL32.dll
 0001:0008c622       GetCurrentProcessId        000000018008d622 f   kernel32:KERNEL32.dll
 0001:0008c628       GetCurrentThreadId         000000018008d628 f   kernel32:KERNEL32.dll
 0001:0008c62e       GetSystemTimeAsFileTime    000000018008d62e f   kernel32:KERNEL32.dll
 0001:0008c634       RtlCaptureContext          000000018008d634 f   kernel32:KERNEL32.dll
 0001:0008c63a       RtlLookupFunctionEntry     000000018008d63a f   kernel32:KERNEL32.dll
 0001:0008c640       RtlVirtualUnwind           000000018008d640 f   kernel32:KERNEL32.dll
 0001:0008c646       IsDebuggerPresent          000000018008d646 f   kernel32:KERNEL32.dll
 0001:0008c64c       UnhandledExceptionFilter   000000018008d64c f   kernel32:KERNEL32.dll
 0001:0008c652       SetUnhandledExceptionFilter 000000018008d652 f   kernel32:KERNEL32.dll
 0001:0008c658       GetStartupInfoW            000000018008d658 f   kernel32:KERNEL32.dll
 0001:0008c65e       IsProcessorFeaturePresent  000000018008d65e f   kernel32:KERNEL32.dll
 0001:0008c664       InterlockedPushEntrySList  000000018008d664 f   kernel32:KERNEL32.dll
 0001:0008c66a       InterlockedFlushSList      000000018008d66a f   kernel32:KERNEL32.dll
 0001:0008c670       RtlUnwindEx                000000018008d670 f   kernel32:KERNEL32.dll
 0001:0008c676       SetLastError               000000018008d676 f   kernel32:KERNEL32.dll
 0001:0008c67c       EnterCriticalSection       000000018008d67c f   kernel32:KERNEL32.dll
 0001:0008c682       LeaveCriticalSection       000000018008d682 f   kernel32:KERNEL32.dll
 0001:0008c688       DeleteCriticalSection      000000018008d688 f   kernel32:KERNEL32.dll
 0001:0008c68e       InitializeCriticalSectionAndSpinCount 000000018008d68e f   kernel32:KERNEL32.dll
 0001:0008c694       TlsAlloc                   000000018008d694 f   kernel32:KERNEL32.dll
 0001:0008c69a       TlsGetValue                000000018008d69a f   kernel32:KERNEL32.dll
 0001:0008c6a0       TlsSetValue                000000018008d6a0 f   kernel32:KERNEL32.dll
 0001:0008c6a6       TlsFree                    000000018008d6a6 f   kernel32:KERNEL32.dll
 0001:0008c6ac       LoadLibraryExW             000000018008d6ac f   kernel32:KERNEL32.dll
 0001:0008c6b2       EncodePointer              000000018008d6b2 f   kernel32:KERNEL32.dll
 0001:0008c6b8       RtlPcToFileHeader          000000018008d6b8 f   kernel32:KERNEL32.dll
 0001:0008c6be       RtlUnwind                  000000018008d6be f   kernel32:KERNEL32.dll
 0001:0008c6c4       GetCurrentProcess          000000018008d6c4 f   kernel32:KERNEL32.dll
 0001:0008c6ca       ExitProcess                000000018008d6ca f   kernel32:KERNEL32.dll
 0001:0008c6d0       TerminateProcess           000000018008d6d0 f   kernel32:KERNEL32.dll
 0001:0008c6d6       GetModuleHandleExW         000000018008d6d6 f   kernel32:KERNEL32.dll
 0001:0008c6dc       GetModuleFileNameW         000000018008d6dc f   kernel32:KERNEL32.dll
 0001:0008c6e2       HeapFree                   000000018008d6e2 f   kernel32:KERNEL32.dll
 0001:0008c6e8       GetCurrentThread           000000018008d6e8 f   kernel32:KERNEL32.dll
 0001:0008c6ee       HeapAlloc                  000000018008d6ee f   kernel32:KERNEL32.dll
 0001:0008c6f4       FindClose                  000000018008d6f4 f   kernel32:KERNEL32.dll
 0001:0008c6fa       FindFirstFileExW           000000018008d6fa f   kernel32:KERNEL32.dll
 0001:0008c700       FindNextFileW              000000018008d700 f   kernel32:KERNEL32.dll
 0001:0008c706       IsValidCodePage            000000018008d706 f   kernel32:KERNEL32.dll
 0001:0008c70c       GetACP                     000000018008d70c f   kernel32:KERNEL32.dll
 0001:0008c712       GetOEMCP                   000000018008d712 f   kernel32:KERNEL32.dll
 0001:0008c718       GetCPInfo                  000000018008d718 f   kernel32:KERNEL32.dll
 0001:0008c71e       GetCommandLineA            000000018008d71e f   kernel32:KERNEL32.dll
 0001:0008c724       GetCommandLineW            000000018008d724 f   kernel32:KERNEL32.dll
 0001:0008c72a       MultiByteToWideChar        000000018008d72a f   kernel32:KERNEL32.dll
 0001:0008c730       WideCharToMultiByte        000000018008d730 f   kernel32:KERNEL32.dll
 0001:0008c736       GetEnvironmentStringsW     000000018008d736 f   kernel32:KERNEL32.dll
 0001:0008c73c       FreeEnvironmentStringsW    000000018008d73c f   kernel32:KERNEL32.dll
 0001:0008c742       SetEnvironmentVariableW    000000018008d742 f   kernel32:KERNEL32.dll
 0001:0008c748       FlsAlloc                   000000018008d748 f   kernel32:KERNEL32.dll
 0001:0008c74e       FlsGetValue                000000018008d74e f   kernel32:KERNEL32.dll
 0001:0008c754       FlsSetValue                000000018008d754 f   kernel32:KERNEL32.dll
 0001:0008c75a       FlsFree                    000000018008d75a f   kernel32:KERNEL32.dll
 0001:0008c760       GetDateFormatW             000000018008d760 f   kernel32:KERNEL32.dll
 0001:0008c766       GetTimeFormatW             000000018008d766 f   kernel32:KERNEL32.dll
 0001:0008c76c       CompareStringW             000000018008d76c f   kernel32:KERNEL32.dll
 0001:0008c772       LCMapStringW               000000018008d772 f   kernel32:KERNEL32.dll
 0001:0008c778       GetLocaleInfoW             000000018008d778 f   kernel32:KERNEL32.dll
 0001:0008c77e       IsValidLocale              000000018008d77e f   kernel32:KERNEL32.dll
 0001:0008c784       GetUserDefaultLCID         000000018008d784 f   kernel32:KERNEL32.dll
 0001:0008c78a       EnumSystemLocalesW         000000018008d78a f   kernel32:KERNEL32.dll
 0001:0008c790       GetProcessHeap             000000018008d790 f   kernel32:KERNEL32.dll
 0001:0008c796       GetStdHandle               000000018008d796 f   kernel32:KERNEL32.dll
 0001:0008c79c       GetFileType                000000018008d79c f   kernel32:KERNEL32.dll
 0001:0008c7a2       SetConsoleCtrlHandler      000000018008d7a2 f   kernel32:KERNEL32.dll
 0001:0008c7a8       GetStringTypeW             000000018008d7a8 f   kernel32:KERNEL32.dll
 0001:0008c7ae       HeapSize                   000000018008d7ae f   kernel32:KERNEL32.dll
 0001:0008c7b4       HeapReAlloc                000000018008d7b4 f   kernel32:KERNEL32.dll
 0001:0008c7ba       SetStdHandle               000000018008d7ba f   kernel32:KERNEL32.dll
 0001:0008c7c0       FlushFileBuffers           000000018008d7c0 f   kernel32:KERNEL32.dll
 0001:0008c7c6       WriteFile                  000000018008d7c6 f   kernel32:KERNEL32.dll
 0001:0008c7cc       GetConsoleOutputCP         000000018008d7cc f   kernel32:KERNEL32.dll
 0001:0008c7d2       GetConsoleMode             000000018008d7d2 f   kernel32:KERNEL32.dll
 0001:0008c7d8       GetFileSizeEx              000000018008d7d8 f   kernel32:KERNEL32.dll
 0001:0008c7de       SetFilePointerEx           000000018008d7de f   kernel32:KERNEL32.dll
 0001:0008c7e4       ReadFile                   000000018008d7e4 f   kernel32:KERNEL32.dll
 0001:0008c7ea       ReadConsoleW               000000018008d7ea f   kernel32:KERNEL32.dll
 0001:0008c7f0       OutputDebugStringW         000000018008d7f0 f   kernel32:KERNEL32.dll
 0001:0008c7f6       CreateFileW                000000018008d7f6 f   kernel32:KERNEL32.dll
 0001:0008c7fc       CloseHandle                000000018008d7fc f   kernel32:KERNEL32.dll
 0001:0008c802       WriteConsoleW              000000018008d802 f   kernel32:KERNEL32.dll
 0001:0008c810       _FindPESection             000000018008d810 f   LIBCMT:pesect.obj
 0001:0008c860       _IsNonwritableInCurrentImage 000000018008d860 f   LIBCMT:pesect.obj
 0001:0008c8b0       _ValidateImageBase         000000018008d8b0 f   LIBCMT:pesect.obj
 0001:0008c8dc       __GSHandlerCheck           000000018008d8dc f   LIBCMT:gshandler.obj
 0001:0008c8fc       __GSHandlerCheckCommon     000000018008d8fc f   LIBCMT:gshandler.obj
 0001:0008c970       __security_check_cookie    000000018008d970 f   LIBCMT:amdsecgs.obj
 0001:0008c990       __GSHandlerCheck_SEH       000000018008d990 f   LIBCMT:gshandlerseh.obj
 0001:0008ca18       __raise_securityfailure    000000018008da18 f   LIBCMT:gs_report.obj
 0001:0008ca4c       __report_gsfailure         000000018008da4c f   LIBCMT:gs_report.obj
 0001:0008cb20       __report_rangecheckfailure 000000018008db20 f   LIBCMT:gs_report.obj
 0001:0008cb34       __report_securityfailure   000000018008db34 f   LIBCMT:gs_report.obj
 0001:0008cbd0       __report_securityfailureEx 000000018008dbd0 f   LIBCMT:gs_report.obj
 0001:0008cdc4       __GSHandlerCheck_EH        000000018008ddc4 f   LIBCMT:gshandlereh.obj
 0001:0008ce44       __C_specific_handler_noexcept 000000018008de44 f   libvcruntime:chandler_noexcept.obj
 0001:0008ce90       strchr                     000000018008de90 f   libvcruntime:strchr.obj
 0001:0008cf10       wcschr                     000000018008df10 f   libvcruntime:wcschr.obj
 0001:0008cf8c       strrchr                    000000018008df8c f   libvcruntime:strrchr.obj
 0001:0008d0e0       memcmp                     000000018008e0e0 f   libvcruntime:memcmp.obj
 0001:0008d1c0       _guard_dispatch_icall_nop  000000018008e1c0 f   LIBCMT:guard_dispatch.obj
 0001:0008d1e0       _guard_xfg_dispatch_icall_nop 000000018008e1e0 f   LIBCMT:guard_xfg_dispatch.obj
 0002:00000000       __imp_LoadLibraryA         000000018008f000     kernel32:KERNEL32.dll
 0002:00000008       __imp_CloseHandle          000000018008f008     kernel32:KERNEL32.dll
 0002:00000010       __imp_RaiseException       000000018008f010     kernel32:KERNEL32.dll
 0002:00000018       __imp_GetLastError         000000018008f018     kernel32:KERNEL32.dll
 0002:00000020       __imp_GetSystemInfo        000000018008f020     kernel32:KERNEL32.dll
 0002:00000028       __imp_VirtualProtect       000000018008f028     kernel32:KERNEL32.dll
 0002:00000030       __imp_VirtualQuery         000000018008f030     kernel32:KERNEL32.dll
 0002:00000038       __imp_FreeLibrary          000000018008f038     kernel32:KERNEL32.dll
 0002:00000040       __imp_GetModuleHandleW     000000018008f040     kernel32:KERNEL32.dll
 0002:00000048       __imp_GetProcAddress       000000018008f048     kernel32:KERNEL32.dll
 0002:00000050       __imp_LoadLibraryExA       000000018008f050     kernel32:KERNEL32.dll
 0002:00000058       __imp_InitializeSListHead  000000018008f058     kernel32:KERNEL32.dll
 0002:00000060       __imp_QueryPerformanceCounter 000000018008f060     kernel32:KERNEL32.dll
 0002:00000068       __imp_GetCurrentProcessId  000000018008f068     kernel32:KERNEL32.dll
 0002:00000070       __imp_GetCurrentThreadId   000000018008f070     kernel32:KERNEL32.dll
 0002:00000078       __imp_GetSystemTimeAsFileTime 000000018008f078     kernel32:KERNEL32.dll
 0002:00000080       __imp_RtlCaptureContext    000000018008f080     kernel32:KERNEL32.dll
 0002:00000088       __imp_RtlLookupFunctionEntry 000000018008f088     kernel32:KERNEL32.dll
 0002:00000090       __imp_RtlVirtualUnwind     000000018008f090     kernel32:KERNEL32.dll
 0002:00000098       __imp_IsDebuggerPresent    000000018008f098     kernel32:KERNEL32.dll
 0002:000000a0       __imp_UnhandledExceptionFilter 000000018008f0a0     kernel32:KERNEL32.dll
 0002:000000a8       __imp_SetUnhandledExceptionFilter 000000018008f0a8     kernel32:KERNEL32.dll
 0002:000000b0       __imp_GetStartupInfoW      000000018008f0b0     kernel32:KERNEL32.dll
 0002:000000b8       __imp_IsProcessorFeaturePresent 000000018008f0b8     kernel32:KERNEL32.dll
 0002:000000c0       __imp_InterlockedPushEntrySList 000000018008f0c0     kernel32:KERNEL32.dll
 0002:000000c8       __imp_InterlockedFlushSList 000000018008f0c8     kernel32:KERNEL32.dll
 0002:000000d0       __imp_RtlUnwindEx          000000018008f0d0     kernel32:KERNEL32.dll
 0002:000000d8       __imp_SetLastError         000000018008f0d8     kernel32:KERNEL32.dll
 0002:000000e0       __imp_EnterCriticalSection 000000018008f0e0     kernel32:KERNEL32.dll
 0002:000000e8       __imp_LeaveCriticalSection 000000018008f0e8     kernel32:KERNEL32.dll
 0002:000000f0       __imp_DeleteCriticalSection 000000018008f0f0     kernel32:KERNEL32.dll
 0002:000000f8       __imp_InitializeCriticalSectionAndSpinCount 000000018008f0f8     kernel32:KERNEL32.dll
 0002:00000100       __imp_TlsAlloc             000000018008f100     kernel32:KERNEL32.dll
 0002:00000108       __imp_TlsGetValue          000000018008f108     kernel32:KERNEL32.dll
 0002:00000110       __imp_TlsSetValue          000000018008f110     kernel32:KERNEL32.dll
 0002:00000118       __imp_TlsFree              000000018008f118     kernel32:KERNEL32.dll
 0002:00000120       __imp_LoadLibraryExW       000000018008f120     kernel32:KERNEL32.dll
 0002:00000128       __imp_EncodePointer        000000018008f128     kernel32:KERNEL32.dll
 0002:00000130       __imp_RtlPcToFileHeader    000000018008f130     kernel32:KERNEL32.dll
 0002:00000138       __imp_RtlUnwind            000000018008f138     kernel32:KERNEL32.dll
 0002:00000140       __imp_GetCurrentProcess    000000018008f140     kernel32:KERNEL32.dll
 0002:00000148       __imp_ExitProcess          000000018008f148     kernel32:KERNEL32.dll
 0002:00000150       __imp_TerminateProcess     000000018008f150     kernel32:KERNEL32.dll
 0002:00000158       __imp_GetModuleHandleExW   000000018008f158     kernel32:KERNEL32.dll
 0002:00000160       __imp_GetModuleFileNameW   000000018008f160     kernel32:KERNEL32.dll
 0002:00000168       __imp_HeapFree             000000018008f168     kernel32:KERNEL32.dll
 0002:00000170       __imp_GetCurrentThread     000000018008f170     kernel32:KERNEL32.dll
 0002:00000178       __imp_HeapAlloc            000000018008f178     kernel32:KERNEL32.dll
 0002:00000180       __imp_FindClose            000000018008f180     kernel32:KERNEL32.dll
 0002:00000188       __imp_FindFirstFileExW     000000018008f188     kernel32:KERNEL32.dll
 0002:00000190       __imp_FindNextFileW        000000018008f190     kernel32:KERNEL32.dll
 0002:00000198       __imp_IsValidCodePage      000000018008f198     kernel32:KERNEL32.dll
 0002:000001a0       __imp_GetACP               000000018008f1a0     kernel32:KERNEL32.dll
 0002:000001a8       __imp_GetOEMCP             000000018008f1a8     kernel32:KERNEL32.dll
 0002:000001b0       __imp_GetCPInfo            000000018008f1b0     kernel32:KERNEL32.dll
 0002:000001b8       __imp_GetCommandLineA      000000018008f1b8     kernel32:KERNEL32.dll
 0002:000001c0       __imp_GetCommandLineW      000000018008f1c0     kernel32:KERNEL32.dll
 0002:000001c8       __imp_MultiByteToWideChar  000000018008f1c8     kernel32:KERNEL32.dll
 0002:000001d0       __imp_WideCharToMultiByte  000000018008f1d0     kernel32:KERNEL32.dll
 0002:000001d8       __imp_GetEnvironmentStringsW 000000018008f1d8     kernel32:KERNEL32.dll
 0002:000001e0       __imp_FreeEnvironmentStringsW 000000018008f1e0     kernel32:KERNEL32.dll
 0002:000001e8       __imp_SetEnvironmentVariableW 000000018008f1e8     kernel32:KERNEL32.dll
 0002:000001f0       __imp_FlsAlloc             000000018008f1f0     kernel32:KERNEL32.dll
 0002:000001f8       __imp_FlsGetValue          000000018008f1f8     kernel32:KERNEL32.dll
 0002:00000200       __imp_FlsSetValue          000000018008f200     kernel32:KERNEL32.dll
 0002:00000208       __imp_FlsFree              000000018008f208     kernel32:KERNEL32.dll
 0002:00000210       __imp_GetDateFormatW       000000018008f210     kernel32:KERNEL32.dll
 0002:00000218       __imp_GetTimeFormatW       000000018008f218     kernel32:KERNEL32.dll
 0002:00000220       __imp_CompareStringW       000000018008f220     kernel32:KERNEL32.dll
 0002:00000228       __imp_LCMapStringW         000000018008f228     kernel32:KERNEL32.dll
 0002:00000230       __imp_GetLocaleInfoW       000000018008f230     kernel32:KERNEL32.dll
 0002:00000238       __imp_IsValidLocale        000000018008f238     kernel32:KERNEL32.dll
 0002:00000240       __imp_GetUserDefaultLCID   000000018008f240     kernel32:KERNEL32.dll
 0002:00000248       __imp_EnumSystemLocalesW   000000018008f248     kernel32:KERNEL32.dll
 0002:00000250       __imp_GetProcessHeap       000000018008f250     kernel32:KERNEL32.dll
 0002:00000258       __imp_GetStdHandle         000000018008f258     kernel32:KERNEL32.dll
 0002:00000260       __imp_GetFileType          000000018008f260     kernel32:KERNEL32.dll
 0002:00000268       __imp_SetConsoleCtrlHandler 000000018008f268     kernel32:KERNEL32.dll
 0002:00000270       __imp_GetStringTypeW       000000018008f270     kernel32:KERNEL32.dll
 0002:00000278       __imp_HeapSize             000000018008f278     kernel32:KERNEL32.dll
 0002:00000280       __imp_HeapReAlloc          000000018008f280     kernel32:KERNEL32.dll
 0002:00000288       __imp_SetStdHandle         000000018008f288     kernel32:KERNEL32.dll
 0002:00000290       __imp_FlushFileBuffers     000000018008f290     kernel32:KERNEL32.dll
 0002:00000298       __imp_WriteFile            000000018008f298     kernel32:KERNEL32.dll
 0002:000002a0       __imp_GetConsoleOutputCP   000000018008f2a0     kernel32:KERNEL32.dll
 0002:000002a8       __imp_GetConsoleMode       000000018008f2a8     kernel32:KERNEL32.dll
 0002:000002b0       __imp_GetFileSizeEx        000000018008f2b0     kernel32:KERNEL32.dll
 0002:000002b8       __imp_SetFilePointerEx     000000018008f2b8     kernel32:KERNEL32.dll
 0002:000002c0       __imp_ReadFile             000000018008f2c0     kernel32:KERNEL32.dll
 0002:000002c8       __imp_ReadConsoleW         000000018008f2c8     kernel32:KERNEL32.dll
 0002:000002d0       __imp_OutputDebugStringW   000000018008f2d0     kernel32:KERNEL32.dll
 0002:000002d8       __imp_CreateFileW          000000018008f2d8     kernel32:KERNEL32.dll
 0002:000002e0       __imp_WriteConsoleW        000000018008f2e0     kernel32:KERNEL32.dll
 0002:000002e8       \177KERNEL32_NULL_THUNK_DATA 000000018008f2e8     kernel32:KERNEL32.dll
 0002:000002f0       __guard_check_icall_fptr   000000018008f2f0     LIBCMT:guard_support.obj
 0002:000002f8       __guard_xfg_check_icall_fptr 000000018008f2f8     LIBCMT:guard_support.obj
 0002:00000300       __guard_dispatch_icall_fptr 000000018008f300     LIBCMT:guard_support.obj
 0002:00000308       __guard_xfg_dispatch_icall_fptr 000000018008f308     LIBCMT:guard_support.obj
 0002:00000310       __guard_xfg_table_dispatch_icall_fptr 000000018008f310     LIBCMT:guard_support.obj
 0002:00000318       __castguard_check_failure_os_handled_fptr 000000018008f318     LIBCMT:guard_support.obj
 0002:00000320       __guard_memcpy_fptr        000000018008f320     libvcruntime:softmemtag.obj
 0002:00000328       __xc_a                     000000018008f328     LIBCMT:initializers.obj
 0002:000004b0       __xc_z                     000000018008f4b0     LIBCMT:initializers.obj
 0002:000004b8       __xi_a                     000000018008f4b8     LIBCMT:initializers.obj
 0002:000004c0       __acrt_tran_fma3_initializer 000000018008f4c0     libucrt:fma3_initializer.obj
 0002:000004c8       __acrt_multibyte_initializer 000000018008f4c8     libucrt:multibyte_initializer.obj
 0002:000004d0       __acrt_stdio_initializer   000000018008f4d0     libucrt:stdio_initializer.obj
 0002:000004d8       __xi_z                     000000018008f4d8     LIBCMT:initializers.obj
 0002:000004e0       __xp_a                     000000018008f4e0     LIBCMT:initializers.obj
