 PhysX3Common_x64

 Timestamp is 64a62f33 (Thu Jul  6 11:04:19 2023)

 Preferred load address is 0000000180000000

 Start         Length     Name                   Class
 0001:00000000 00002a40H .text$di                CODE
 0001:00002a40 001aff90H .text$mn                CODE
 0001:001b29d0 00000040H .text$mn$00             CODE
 0001:001b2a10 00000a60H .text$x                 CODE
 0002:00000000 000002f0H .idata$5                DATA
 0002:000002f0 00000038H .00cfg                  DATA
 0002:00000328 00000008H .CRT$XCA                DATA
 0002:00000330 00001458H .CRT$XCU                DATA
 0002:00001788 00000008H .CRT$XCZ                DATA
 0002:00001790 00000008H .CRT$XIA                DATA
 0002:00001798 00000018H .CRT$XIC                DATA
 0002:000017b0 00000008H .CRT$XIZ                DATA
 0002:000017b8 00000008H .CRT$XPA                DATA
 0002:000017c0 00000010H .CRT$XPX                DATA
 0002:000017d0 00000008H .CRT$XPXA               DATA
 0002:000017d8 00000008H .CRT$XPZ                DATA
 0002:000017e0 00000008H .CRT$XTA                DATA
 0002:000017e8 00000008H .CRT$XTZ                DATA
 0002:000017f0 00000000H .gehcont$y              DATA
 0002:000017f0 00000000H .gfids$y                DATA
 0002:000017f0 0000f110H .rdata                  DATA
 0002:00010900 00000080H .rdata$CastGuardVftablesA DATA
 0002:00010980 00000080H .rdata$CastGuardVftablesC DATA
 0002:00010a00 00000464H .rdata$r                DATA
 0002:00010e64 0000029cH .rdata$voltmd           DATA
 0002:00011100 00000450H .rdata$zzzdbg           DATA
 0002:00011550 00000008H .rtc$IAA                DATA
 0002:00011558 00000008H .rtc$IZZ                DATA
 0002:00011560 00000008H .rtc$TAA                DATA
 0002:00011568 00000008H .rtc$TZZ                DATA
 0002:00011570 00014058H .xdata                  DATA
 0002:000255c8 00000084H .xdata$x                DATA
 0002:0002564c 00000020H .didat$2                DATA
 0002:0002566c 00000024H .didat$3                DATA
 0002:00025690 00000088H .didat$4                DATA
 0002:00025718 00000308H .didat$6                DATA
 0002:00025a20 00000090H .didat$7                DATA
 0002:00025ab0 0000a424H .edata                  DATA
 0002:0002fed4 00000014H .idata$2                DATA
 0002:0002fee8 00000018H .idata$3                DATA
 0002:0002ff00 000002f0H .idata$4                DATA
 0002:000301f0 000006c6H .idata$6                DATA
 0003:00000000 000014b0H .data                   DATA
 0003:000014b0 00000500H .data$r                 DATA
 0003:000019b0 000000f0H .data$rs                DATA
 0003:00001aa0 00000090H .didat$5                DATA
 0003:00001b30 000043c0H .bss                    DATA
 0004:00000000 0000acecH .pdata                  DATA
 0005:00000000 0000236cH _RDATA                  DATA
 0006:00000000 000000a0H .rsrc$01                DATA
 0006:000000a0 000004b8H .rsrc$02                DATA

  Address         Publics by Value              Rva+Base               Lib:Object

 0000:00000000       __AbsoluteZero             0000000000000000     <absolute>
 0000:00000000       ___safe_se_handler_count   0000000000000000     <absolute>
 0000:00000000       ___safe_se_handler_table   0000000000000000     <absolute>
 0000:00000000       __arm64x_extra_rfe_table   0000000000000000     <absolute>
 0000:00000000       __arm64x_extra_rfe_table_size 0000000000000000     <absolute>
 0000:00000000       __arm64x_native_entrypoint 0000000000000000     <absolute>
 0000:00000000       __arm64x_redirection_metadata 0000000000000000     <absolute>
 0000:00000000       __arm64x_redirection_metadata_count 0000000000000000     <absolute>
 0000:00000000       __dynamic_value_reloc_table 0000000000000000     <absolute>
 0000:00000000       __enclave_config           0000000000000000     <absolute>
 0000:00000000       __guard_check_icall_a64n_fptr 0000000000000000     <absolute>
 0000:00000000       __guard_eh_cont_count      0000000000000000     <absolute>
 0000:00000000       __guard_eh_cont_table      0000000000000000     <absolute>
 0000:00000000       __guard_fids_count         0000000000000000     <absolute>
 0000:00000000       __guard_fids_table         0000000000000000     <absolute>
 0000:00000000       __guard_iat_count          0000000000000000     <absolute>
 0000:00000000       __guard_iat_table          0000000000000000     <absolute>
 0000:00000000       __guard_longjmp_count      0000000000000000     <absolute>
 0000:00000000       __guard_longjmp_table      0000000000000000     <absolute>
 0000:00000000       __hybrid_auxiliary_delayload_iat 0000000000000000     <absolute>
 0000:00000000       __hybrid_auxiliary_delayload_iat_copy 0000000000000000     <absolute>
 0000:00000000       __hybrid_auxiliary_iat     0000000000000000     <absolute>
 0000:00000000       __hybrid_auxiliary_iat_copy 0000000000000000     <absolute>
 0000:00000000       __hybrid_code_map          0000000000000000     <absolute>
 0000:00000000       __hybrid_code_map_count    0000000000000000     <absolute>
 0000:00000000       __x64_code_ranges_to_entry_points 0000000000000000     <absolute>
 0000:00000000       __x64_code_ranges_to_entry_points_count 0000000000000000     <absolute>
 0000:00000100       __guard_flags              0000000000000100     <absolute>
 0000:00000000       __ImageBase                0000000180000000     <linker-defined>
 0001:00002a40       PxSetPhysXCommonDelayLoadHook 0000000180003a40 f   CmWindowsDelayLoadHook.obj
 0001:00002a50       ?delayHook@@YAP6A_JXZIPEAUDelayLoadInfo@@@Z 0000000180003a50 f   CmWindowsDelayLoadHook.obj
 0001:00002aa0       ?physXCommonDliNotePreLoadLibrary@Cm@physx@@YAP6A_JXZPEBDPEBVPxDelayLoadHook@2@@Z 0000000180003aa0 f i CmWindowsDelayLoadHook.obj
 0001:00002d20       ??0CmModuleUpdateLoader@Cm@physx@@QEAA@PEBD@Z 0000000180003d20 f   CmWindowsModuleUpdateLoader.obj
 0001:00002d70       ??1CmModuleUpdateLoader@Cm@physx@@QEAA@XZ 0000000180003d70 f   CmWindowsModuleUpdateLoader.obj
 0001:00002da0       ?LoadModule@CmModuleUpdateLoader@Cm@physx@@QEAAPEAUHINSTANCE__@@PEBD0@Z 0000000180003da0 f   CmWindowsModuleUpdateLoader.obj
 0001:00002dc0       ??0Allocator@shdfnd@physx@@QEAA@PEBD@Z 0000000180003dc0 f i CmWindowsModuleUpdateLoader.obj
 0001:00002dd0       ??0PxFoundation@physx@@QEAA@AEBV01@@Z 0000000180003dd0 f i CmWindowsModuleUpdateLoader.obj
 0001:00002de0       ??0PxFoundation@physx@@QEAA@XZ 0000000180003de0 f i CmWindowsModuleUpdateLoader.obj
 0001:00002df0       ??1PxFoundation@physx@@MEAA@XZ 0000000180003df0 f i CmWindowsModuleUpdateLoader.obj
 0001:00002e00       ??4Allocator@shdfnd@physx@@QEAAAEAV012@$$QEAV012@@Z 0000000180003e00 f i CmWindowsModuleUpdateLoader.obj
 0001:00002e10       ??4Allocator@shdfnd@physx@@QEAAAEAV012@AEBV012@@Z 0000000180003e10 f i CmWindowsModuleUpdateLoader.obj
 0001:00002e20       ??4CmModuleUpdateLoader@Cm@physx@@QEAAAEAV012@AEBV012@@Z 0000000180003e20 f i CmWindowsModuleUpdateLoader.obj
 0001:00002e30       ??4MutexImpl@shdfnd@physx@@QEAAAEAV012@AEBV012@@Z 0000000180003e30 f i CmWindowsModuleUpdateLoader.obj
 0001:00002e40       ??4PxFoundation@physx@@QEAAAEAV01@AEBV01@@Z 0000000180003e40 f i CmWindowsModuleUpdateLoader.obj
 0001:00002e50       ??_EPxFoundation@physx@@MEAAPEAXI@Z 0000000180003e50 f i CmWindowsModuleUpdateLoader.obj
 0001:00002ee0       ??_FAllocator@shdfnd@physx@@QEAAXXZ 0000000180003ee0 f i CmWindowsModuleUpdateLoader.obj
 0001:00002ef0       ??_GPxFoundation@physx@@MEAAPEAXI@Z 0000000180003ef0 f i CmWindowsModuleUpdateLoader.obj
 0001:00002f20       ??_I@YAXPEAX_K1P6AX0@Z@Z   0000000180003f20 f i CmWindowsModuleUpdateLoader.obj
 0001:00002f80       ?__empty_global_delete@@YAXPEAX@Z 0000000180003f80 f i CmWindowsModuleUpdateLoader.obj
 0001:00002f90       ?__empty_global_delete@@YAXPEAX_K@Z 0000000180003f90 f i CmWindowsModuleUpdateLoader.obj
 0001:00002fa0       ?getAllocator@Foundation@shdfnd@physx@@QEAAAEAVPxAllocatorCallback@3@XZ 0000000180003fa0 f i CmWindowsModuleUpdateLoader.obj
 0001:00002fb0       ?getAllocatorCallback@Foundation@shdfnd@physx@@UEAAAEAVPxAllocatorCallback@3@XZ 0000000180003fb0 f i CmWindowsModuleUpdateLoader.obj
 0001:00002fc0       ?getErrorCallback@Foundation@shdfnd@physx@@UEAAAEAVPxErrorCallback@3@XZ 0000000180003fc0 f i CmWindowsModuleUpdateLoader.obj
 0001:00002fd0       ?getErrorLevel@Foundation@shdfnd@physx@@UEBA?AW4Enum@PxErrorCode@3@XZ 0000000180003fd0 f i CmWindowsModuleUpdateLoader.obj
 0001:00002fe0       ?getInternalErrorCallback@Foundation@shdfnd@physx@@QEAAAEAVPxErrorCallback@3@XZ 0000000180003fe0 f i CmWindowsModuleUpdateLoader.obj
 0001:00002ff0       ?getNamedAllocMap@Foundation@shdfnd@physx@@QEAAAEAV?$HashMap@PEBVNamedAllocator@shdfnd@physx@@PEBDU?$Hash@PEBVNamedAllocator@shdfnd@physx@@@23@VNonTrackingAllocator@23@@23@XZ 0000000180003ff0 f i CmWindowsModuleUpdateLoader.obj
 0001:00003000       ?getNamedAllocMutex@Foundation@shdfnd@physx@@QEAAAEAV?$MutexT@VAllocator@shdfnd@physx@@@23@XZ 0000000180004000 f i CmWindowsModuleUpdateLoader.obj
 0001:00003010       ?getReportAllocationNames@Foundation@shdfnd@physx@@UEBA_NXZ 0000000180004010 f i CmWindowsModuleUpdateLoader.obj
 0001:00003020       ?getTempAllocFreeTable@Foundation@shdfnd@physx@@QEAAAEAV?$Array@PEATTempAllocatorChunk@shdfnd@physx@@VAllocator@23@@23@XZ 0000000180004020 f i CmWindowsModuleUpdateLoader.obj
 0001:00003030       ?getTempAllocMutex@Foundation@shdfnd@physx@@QEAAAEAV?$MutexT@VAllocator@shdfnd@physx@@@23@XZ 0000000180004030 f i CmWindowsModuleUpdateLoader.obj
 0001:00003040       ?setErrorLevel@Foundation@shdfnd@physx@@UEAAXW4Enum@PxErrorCode@3@@Z 0000000180004040 f i CmWindowsModuleUpdateLoader.obj
 0001:00003050       ?setReportAllocationNames@Foundation@shdfnd@physx@@UEAAX_N@Z 0000000180004050 f i CmWindowsModuleUpdateLoader.obj
 0001:00003060       ?CompleteBoxPruning@Cm@physx@@YA_NPEBVPxBounds3@2@IAEAV?$Array@IV?$ReflectionAllocator@I@shdfnd@physx@@@shdfnd@2@AEBVAxes@Gu@2@@Z 0000000180004060 f   CmBoxPruning.obj
 0001:00003370       ?BipartiteBoxPruning@Cm@physx@@YA_NPEBVPxBounds3@2@I0IAEAV?$Array@IV?$ReflectionAllocator@I@shdfnd@physx@@@shdfnd@2@AEBVAxes@Gu@2@@Z 0000000180004370 f   CmBoxPruning.obj
 0001:00003990       ?GetNbHits@RadixSort@Cm@physx@@QEBAIXZ 0000000180004990 f i CmBoxPruning.obj
 0001:000039a0       ?GetNbTotalCalls@RadixSort@Cm@physx@@QEBAIXZ 00000001800049a0 f i CmBoxPruning.obj
 0001:000039b0       ?GetRanks@RadixSort@Cm@physx@@QEBAPEBIXZ 00000001800049b0 f i CmBoxPruning.obj
 0001:000039c0       ?GetRecyclable@RadixSort@Cm@physx@@QEBAPEAIXZ 00000001800049c0 f i CmBoxPruning.obj
 0001:000039d0       ?growAndPushBack@?$Array@IV?$ReflectionAllocator@I@shdfnd@physx@@@shdfnd@physx@@IEAAAEAIAEBI@Z 00000001800049d0 f i CmBoxPruning.obj
 0001:00003af0       ?invalidateRanks@RadixSort@Cm@physx@@QEAAXXZ 0000000180004af0 f i CmBoxPruning.obj
 0001:00003b00       ?PxCreateCollection@@YAPEAVPxCollection@physx@@XZ 0000000180004b00 f   CmCollection.obj
 0001:00003c00       ?add@Collection@Cm@physx@@UEAAXAEAVPxBase@3@_K@Z 0000000180004c00 f   CmCollection.obj
 0001:00003cf0       ?remove@Collection@Cm@physx@@UEAAXAEAVPxBase@3@@Z 0000000180004cf0 f   CmCollection.obj
 0001:00003de0       ?contains@Collection@Cm@physx@@UEBA_NAEAVPxBase@3@@Z 0000000180004de0 f   CmCollection.obj
 0001:00003e90       ?addId@Collection@Cm@physx@@UEAAXAEAVPxBase@3@_K@Z 0000000180004e90 f   CmCollection.obj
 0001:00003fc0       ?removeId@Collection@Cm@physx@@UEAAX_K@Z 0000000180004fc0 f   CmCollection.obj
 0001:00004040       ?find@Collection@Cm@physx@@UEBAPEAVPxBase@3@_K@Z 0000000180005040 f   CmCollection.obj
 0001:00004070       ?add@Collection@Cm@physx@@UEAAXAEAVPxCollection@3@@Z 0000000180005070 f   CmCollection.obj
 0001:00004210       ?remove@Collection@Cm@physx@@UEAAXAEAVPxCollection@3@@Z 0000000180005210 f   CmCollection.obj
 0001:00004330       ?getNbObjects@Collection@Cm@physx@@UEBAIXZ 0000000180005330 f   CmCollection.obj
 0001:00004340       ?getObject@Collection@Cm@physx@@UEBAAEAVPxBase@3@I@Z 0000000180005340 f   CmCollection.obj
 0001:00004360       ?getObjects@Collection@Cm@physx@@UEBAIPEAPEAVPxBase@3@II@Z 0000000180005360 f   CmCollection.obj
 0001:000043a0       ?getNbIds@Collection@Cm@physx@@UEBAIXZ 00000001800053a0 f   CmCollection.obj
 0001:000043b0       ?getId@Collection@Cm@physx@@UEBA_KAEBVPxBase@3@@Z 00000001800053b0 f   CmCollection.obj
 0001:00004460       ?getIds@Collection@Cm@physx@@UEBAIPEA_KII@Z 0000000180005460 f   CmCollection.obj
 0001:00004530       ??1PxCollection@physx@@MEAA@XZ 0000000180005530 f i CmCollection.obj
 0001:00004540       ??_ECollection@Cm@physx@@UEAAPEAXI@Z 0000000180005540 f i CmCollection.obj
 0001:00004540       ??_GCollection@Cm@physx@@UEAAPEAXI@Z 0000000180005540 f i CmCollection.obj
 0001:000045f0       ??_EPxCollection@physx@@MEAAPEAXI@Z 00000001800055f0 f i CmCollection.obj
 0001:000045f0       ??_GPxCollection@physx@@MEAAPEAXI@Z 00000001800055f0 f i CmCollection.obj
 0001:00004620       ?create@?$HashBase@V?$Pair@$$CB_KPEAVPxBase@physx@@@shdfnd@physx@@_KU?$Hash@_K@23@UGetKey@?$HashMapBase@_KPEAVPxBase@physx@@U?$Hash@_K@shdfnd@2@VNonTrackingAllocator@42@@internal@23@VNonTrackingAllocator@23@$00@internal@shdfnd@physx@@QEAAPEAV?$Pair@$$CB_KPEAVPxBase@physx@@@34@AEB_KAEA_N@Z 0000000180005620 f i CmCollection.obj
 0001:000047b0       ?create@?$HashBase@V?$Pair@QEAVPxBase@physx@@_K@shdfnd@physx@@PEAVPxBase@3@U?$Hash@PEAVPxBase@physx@@@23@UGetKey@?$HashMapBase@PEAVPxBase@physx@@_KU?$Hash@PEAVPxBase@physx@@@shdfnd@2@VNonTrackingAllocator@42@@internal@23@VNonTrackingAllocator@23@$00@internal@shdfnd@physx@@QEAAPEAV?$Pair@QEAVPxBase@physx@@_K@34@AEBQEAVPxBase@4@AEA_N@Z 00000001800057b0 f i CmCollection.obj
 0001:00004940       ?erase@?$HashBase@V?$Pair@$$CB_KPEAVPxBase@physx@@@shdfnd@physx@@_KU?$Hash@_K@23@UGetKey@?$HashMapBase@_KPEAVPxBase@physx@@U?$Hash@_K@shdfnd@2@VNonTrackingAllocator@42@@internal@23@VNonTrackingAllocator@23@$00@internal@shdfnd@physx@@QEAA_NAEB_K@Z 0000000180005940 f i CmCollection.obj
 0001:00004af0       ?erase@?$HashBase@V?$Pair@QEAVPxBase@physx@@_K@shdfnd@physx@@PEAVPxBase@3@U?$Hash@PEAVPxBase@physx@@@23@UGetKey@?$HashMapBase@PEAVPxBase@physx@@_KU?$Hash@PEAVPxBase@physx@@@shdfnd@2@VNonTrackingAllocator@42@@internal@23@VNonTrackingAllocator@23@$00@internal@shdfnd@physx@@QEAA_NAEBQEAVPxBase@4@@Z 0000000180005af0 f i CmCollection.obj
 0001:00004ca0       ?find@?$HashMapBase@_KPEAVPxBase@physx@@U?$Hash@_K@shdfnd@2@VNonTrackingAllocator@42@@internal@shdfnd@physx@@QEBAPEBV?$Pair@$$CB_KPEAVPxBase@physx@@@34@AEB_K@Z 0000000180005ca0 f i CmCollection.obj
 0001:00004d40       ?release@Collection@Cm@physx@@UEAAXXZ 0000000180005d40 f i CmCollection.obj
 0001:00004d60       ?reserveInternal@?$HashBase@V?$Pair@$$CB_KPEAVPxBase@physx@@@shdfnd@physx@@_KU?$Hash@_K@23@UGetKey@?$HashMapBase@_KPEAVPxBase@physx@@U?$Hash@_K@shdfnd@2@VNonTrackingAllocator@42@@internal@23@VNonTrackingAllocator@23@$00@internal@shdfnd@physx@@AEAAXI@Z 0000000180005d60 f i CmCollection.obj
 0001:00004f40       ?reserveInternal@?$HashBase@V?$Pair@QEAVPxBase@physx@@_K@shdfnd@physx@@PEAVPxBase@3@U?$Hash@PEAVPxBase@physx@@@23@UGetKey@?$HashMapBase@PEAVPxBase@physx@@_KU?$Hash@PEAVPxBase@physx@@@shdfnd@2@VNonTrackingAllocator@42@@internal@23@VNonTrackingAllocator@23@$00@internal@shdfnd@physx@@AEAAXI@Z 0000000180005f40 f i CmCollection.obj
 0001:00005120       ?PxTransformFromPlaneEquation@physx@@YA?AVPxTransform@1@AEBVPxPlane@1@@Z 0000000180006120 f   CmMathUtils.obj
 0001:000052f0       ?PxTransformFromSegment@physx@@YA?AVPxTransform@1@AEBVPxVec3@1@0PEAM@Z 00000001800062f0 f   CmMathUtils.obj
 0001:00005460       ??0PtrTable@Cm@physx@@QEAA@XZ 0000000180006460 f   CmPtrTable.obj
 0001:00005480       ??1PtrTable@Cm@physx@@QEAA@XZ 0000000180006480 f   CmPtrTable.obj
 0001:00005490       ?add@PtrTable@Cm@physx@@QEAAXPEAXAEAVPtrTableStorageManager@23@@Z 0000000180006490 f   CmPtrTable.obj
 0001:00005560       ?replaceWithLast@PtrTable@Cm@physx@@QEAAXIAEAVPtrTableStorageManager@23@@Z 0000000180006560 f   CmPtrTable.obj
 0001:00005660       ?clear@PtrTable@Cm@physx@@QEAAXAEAVPtrTableStorageManager@23@@Z 0000000180006660 f   CmPtrTable.obj
 0001:000056e0       ?find@PtrTable@Cm@physx@@QEBAIPEBX@Z 00000001800066e0 f   CmPtrTable.obj
 0001:00005720       ?exportExtraData@PtrTable@Cm@physx@@QEAAXAEAVPxSerializationContext@3@@Z 0000000180006720 f   CmPtrTable.obj
 0001:00005770       ?importExtraData@PtrTable@Cm@physx@@QEAAXAEAVPxDeserializationContext@3@@Z 0000000180006770 f   CmPtrTable.obj
 0001:000057a0       ?getBinaryMetaData@PtrTable@Cm@physx@@SAXAEAVPxOutputStream@3@@Z 00000001800067a0 f   CmPtrTable.obj
 0001:00005960       ?realloc@PtrTable@Cm@physx@@AEAAXIIAEAVPtrTableStorageManager@23@@Z 0000000180006960 f   CmPtrTable.obj
 0001:000059f0       ??0PtrTable@Cm@physx@@QEAA@W4PxEMPTY@2@@Z 00000001800069f0 f i CmPtrTable.obj
 0001:00005a10       ??4PtrTable@Cm@physx@@QEAAAEAU012@AEBU012@@Z 0000000180006a10 f i CmPtrTable.obj
 0001:00005a20       ?getCount@PtrTable@Cm@physx@@QEBAIXZ 0000000180006a20 f i CmPtrTable.obj
 0001:00005a30       ?getPtrs@PtrTable@Cm@physx@@QEAAPEAPEAXXZ 0000000180006a30 f i CmPtrTable.obj
 0001:00005a40       ?getPtrs@PtrTable@Cm@physx@@QEBAPEBQEAXXZ 0000000180006a40 f i CmPtrTable.obj
 0001:00005a50       ??0RadixSort@Cm@physx@@QEAA@XZ 0000000180006a50 f   CmRadixSort.obj
 0001:00005a90       ??1RadixSort@Cm@physx@@UEAA@XZ 0000000180006a90 f   CmRadixSort.obj
 0001:00005ab0       ?Sort@RadixSort@Cm@physx@@QEAAAEAV123@PEBIIW4RadixHint@23@@Z 0000000180006ab0 f   CmRadixSort.obj
 0001:00006160       ?Sort@RadixSort@Cm@physx@@QEAAAEAV123@PEBMI@Z 0000000180007160 f   CmRadixSort.obj
 0001:00006900       ?SetBuffers@RadixSort@Cm@physx@@QEAA_NPEAI00PEAPEAI@Z 0000000180007900 f   CmRadixSort.obj
 0001:00006940       ??_ERadixSort@Cm@physx@@UEAAPEAXI@Z 0000000180007940 f i CmRadixSort.obj
 0001:000069d0       ??_GRadixSort@Cm@physx@@UEAAPEAXI@Z 00000001800079d0 f i CmRadixSort.obj
 0001:00006a00       ??0RadixSortBuffered@Cm@physx@@QEAA@XZ 0000000180007a00 f   CmRadixSortBuffered.obj
 0001:00006a30       ??1RadixSortBuffered@Cm@physx@@UEAA@XZ 0000000180007a30 f   CmRadixSortBuffered.obj
 0001:00006ab0       ?Sort@RadixSortBuffered@Cm@physx@@QEAAAEAV123@PEBIIW4RadixHint@23@@Z 0000000180007ab0 f   CmRadixSortBuffered.obj
 0001:00006b50       ?Sort@RadixSortBuffered@Cm@physx@@QEAAAEAV123@PEBMI@Z 0000000180007b50 f   CmRadixSortBuffered.obj
 0001:00006be0       ?Resize@RadixSortBuffered@Cm@physx@@AEAA_NI@Z 0000000180007be0 f   CmRadixSortBuffered.obj
 0001:00006cd0       ??_ERadixSortBuffered@Cm@physx@@UEAAPEAXI@Z 0000000180007cd0 f i CmRadixSortBuffered.obj
 0001:00006de0       ??_GRadixSortBuffered@Cm@physx@@UEAAPEAXI@Z 0000000180007de0 f i CmRadixSortBuffered.obj
 0001:00006e20       ?CheckResize@RadixSortBuffered@Cm@physx@@AEAAXI@Z 0000000180007e20 f i CmRadixSortBuffered.obj
 0001:00006e60       ??6RenderOutput@Cm@physx@@QEAAAEAV012@W4Primitive@012@@Z 0000000180007e60 f   CmRenderOutput.obj
 0001:00006e80       ??6RenderOutput@Cm@physx@@QEAAAEAV012@I@Z 0000000180007e80 f   CmRenderOutput.obj
 0001:00006e90       ??6RenderOutput@Cm@physx@@QEAAAEAV012@AEBVPxMat44@2@@Z 0000000180007e90 f   CmRenderOutput.obj
 0001:00006f00       ??6RenderOutput@Cm@physx@@QEAAAEAV012@AEBVPxTransform@2@@Z 0000000180007f00 f   CmRenderOutput.obj
 0001:00007090       ??6RenderOutput@Cm@physx@@QEAAAEAV012@VPxVec3@2@@Z 0000000180008090 f   CmRenderOutput.obj
 0001:000075e0       ??6RenderOutput@Cm@physx@@QEAAAEAV012@AEBUDebugText@12@@Z 00000001800085e0 f   CmRenderOutput.obj
 0001:000077f0       ?outputCapsule@RenderOutput@Cm@physx@@QEAAAEAV123@MMAEBVPxMat44@3@@Z 00000001800087f0 f   CmRenderOutput.obj
 0001:000082b0       ??0DebugText@Cm@physx@@QEAA@AEBVPxVec3@2@MPEBDZZ 00000001800092b0 f   CmRenderOutput.obj
 0001:00008310       ??6Cm@physx@@YAAEAVRenderOutput@01@AEAV201@AEBUDebugBox@01@@Z 0000000180009310 f   CmRenderOutput.obj
 0001:00008810       ??6Cm@physx@@YAAEAVRenderOutput@01@AEAV201@AEBUDebugArrow@01@@Z 0000000180009810 f   CmRenderOutput.obj
 0001:00008c10       ??6Cm@physx@@YAAEAVRenderOutput@01@AEAV201@AEBUDebugBasis@01@@Z 0000000180009c10 f   CmRenderOutput.obj
 0001:00008d10       ??6Cm@physx@@YAAEAVRenderOutput@01@AEAV201@AEBUDebugCircle@01@@Z 0000000180009d10 f   CmRenderOutput.obj
 0001:00008e00       ??6Cm@physx@@YAAEAVRenderOutput@01@AEAV201@AEBUDebugArc@01@@Z 0000000180009e00 f   CmRenderOutput.obj
 0001:00008f00       ??0DebugText@Cm@physx@@QEAA@$$QEAU012@@Z 0000000180009f00 f i CmRenderOutput.obj
 0001:00008fe0       ??0DebugText@Cm@physx@@QEAA@AEBU012@@Z 0000000180009fe0 f i CmRenderOutput.obj
 0001:000090c0       ??0RenderOutput@Cm@physx@@QEAA@AEAVRenderBuffer@12@@Z 000000018000a0c0 f i CmRenderOutput.obj
 0001:00009110       ??0RenderOutput@Cm@physx@@QEAA@AEBV012@@Z 000000018000a110 f i CmRenderOutput.obj
 0001:000091b0       ??4DebugText@Cm@physx@@QEAAAEAU012@$$QEAU012@@Z 000000018000a1b0 f i CmRenderOutput.obj
 0001:000092e0       ??4DebugText@Cm@physx@@QEAAAEAU012@AEBU012@@Z 000000018000a2e0 f i CmRenderOutput.obj
 0001:00009410       ?allocate@?$Array@DV?$ReflectionAllocator@D@shdfnd@physx@@@shdfnd@physx@@IEAAPEADI@Z 000000018000a410 f i CmRenderOutput.obj
 0001:00009490       ?allocate@?$Array@UPxDebugLine@physx@@V?$ReflectionAllocator@UPxDebugLine@physx@@@shdfnd@2@@shdfnd@physx@@IEAAPEAUPxDebugLine@3@I@Z 000000018000a490 f i CmRenderOutput.obj
 0001:00009530       ?allocate@?$Array@UPxDebugPoint@physx@@V?$ReflectionAllocator@UPxDebugPoint@physx@@@shdfnd@2@@shdfnd@physx@@IEAAPEAUPxDebugPoint@3@I@Z 000000018000a530 f i CmRenderOutput.obj
 0001:000095d0       ?allocate@?$Array@UPxDebugText@physx@@V?$ReflectionAllocator@UPxDebugText@physx@@@shdfnd@2@@shdfnd@physx@@IEAAPEAUPxDebugText@3@I@Z 000000018000a5d0 f i CmRenderOutput.obj
 0001:00009670       ?allocate@?$Array@UPxDebugTriangle@physx@@V?$ReflectionAllocator@UPxDebugTriangle@physx@@@shdfnd@2@@shdfnd@physx@@IEAAPEAUPxDebugTriangle@3@I@Z 000000018000a670 f i CmRenderOutput.obj
 0001:00009710       ?copy@?$Array@UPxDebugLine@physx@@V?$ReflectionAllocator@UPxDebugLine@physx@@@shdfnd@2@@shdfnd@physx@@KAXPEAUPxDebugLine@3@0PEBU43@@Z 000000018000a710 f i CmRenderOutput.obj
 0001:000098c0       ?copy@?$Array@UPxDebugPoint@physx@@V?$ReflectionAllocator@UPxDebugPoint@physx@@@shdfnd@2@@shdfnd@physx@@KAXPEAUPxDebugPoint@3@0PEBU43@@Z 000000018000a8c0 f i CmRenderOutput.obj
 0001:000099c0       ?copy@?$Array@UPxDebugText@physx@@V?$ReflectionAllocator@UPxDebugText@physx@@@shdfnd@2@@shdfnd@physx@@KAXPEAUPxDebugText@3@0PEBU43@@Z 000000018000a9c0 f i CmRenderOutput.obj
 0001:00009b30       ?copy@?$Array@UPxDebugTriangle@physx@@V?$ReflectionAllocator@UPxDebugTriangle@physx@@@shdfnd@2@@shdfnd@physx@@KAXPEAUPxDebugTriangle@3@0PEBU43@@Z 000000018000ab30 f i CmRenderOutput.obj
 0001:00009d30       ?growAndPushBack@?$Array@DV?$ReflectionAllocator@D@shdfnd@physx@@@shdfnd@physx@@IEAAAEADAEBD@Z 000000018000ad30 f i CmRenderOutput.obj
 0001:00009df0       ?growAndPushBack@?$Array@UPxDebugLine@physx@@V?$ReflectionAllocator@UPxDebugLine@physx@@@shdfnd@2@@shdfnd@physx@@IEAAAEAUPxDebugLine@3@AEBU43@@Z 000000018000adf0 f i CmRenderOutput.obj
 0001:00009ec0       ?growAndPushBack@?$Array@UPxDebugPoint@physx@@V?$ReflectionAllocator@UPxDebugPoint@physx@@@shdfnd@2@@shdfnd@physx@@IEAAAEAUPxDebugPoint@3@AEBU43@@Z 000000018000aec0 f i CmRenderOutput.obj
 0001:00009f80       ?growAndPushBack@?$Array@UPxDebugText@physx@@V?$ReflectionAllocator@UPxDebugText@physx@@@shdfnd@2@@shdfnd@physx@@IEAAAEAUPxDebugText@3@AEBU43@@Z 000000018000af80 f i CmRenderOutput.obj
 0001:0000a050       ?growAndPushBack@?$Array@UPxDebugTriangle@physx@@V?$ReflectionAllocator@UPxDebugTriangle@physx@@@shdfnd@2@@shdfnd@physx@@IEAAAEAUPxDebugTriangle@3@AEBU43@@Z 000000018000b050 f i CmRenderOutput.obj
 0001:0000a150       ?outputSegment@RenderOutput@Cm@physx@@QEAAXAEBVPxVec3@3@0@Z 000000018000b150 f i CmRenderOutput.obj
 0001:0000a210       ?recreate@?$Array@DV?$ReflectionAllocator@D@shdfnd@physx@@@shdfnd@physx@@IEAAXI@Z 000000018000b210 f i CmRenderOutput.obj
 0001:0000a2b0       ?recreate@?$Array@UPxDebugLine@physx@@V?$ReflectionAllocator@UPxDebugLine@physx@@@shdfnd@2@@shdfnd@physx@@IEAAXI@Z 000000018000b2b0 f i CmRenderOutput.obj
 0001:0000a340       ?reserveSegments@RenderOutput@Cm@physx@@QEAAPEAUPxDebugLine@3@I@Z 000000018000b340 f i CmRenderOutput.obj
 0001:0000a3a0       ?visualizeJointFrames@Cm@physx@@YAXAEAVRenderOutput@12@MAEBVPxTransform@2@1@Z 000000018000b3a0 f   CmVisualization.obj
 0001:0000a470       ?visualizeLinearLimit@Cm@physx@@YAXAEAVRenderOutput@12@MAEBVPxTransform@2@1M_N@Z 000000018000b470 f   CmVisualization.obj
 0001:0000a700       ?visualizeAngularLimit@Cm@physx@@YAXAEAVRenderOutput@12@MAEBVPxTransform@2@MM_N@Z 000000018000b700 f   CmVisualization.obj
 0001:0000a8d0       ?visualizeLimitCone@Cm@physx@@YAXAEAVRenderOutput@12@MAEBVPxTransform@2@MM_N@Z 000000018000b8d0 f   CmVisualization.obj
 0001:0000ab60       ?visualizeDoubleCone@Cm@physx@@YAXAEAVRenderOutput@12@MAEBVPxTransform@2@M_N@Z 000000018000bb60 f   CmVisualization.obj
 0001:0000adc0       ??DPxQuat@physx@@QEBA?AV01@AEBV01@@Z 000000018000bdc0 f i CmVisualization.obj
 0001:0000af00       ?contactBoxBox@Gu@physx@@YA_NAEBVGeometryUnion@12@0AEBVPxTransform@2@1AEBUNarrowPhaseParams@12@AEAUCache@12@AEAVContactBuffer@12@PEAVRenderOutput@Cm@2@@Z 000000018000bf00 f   GuContactBoxBox.obj
 0001:0000b1f0       ??0Box@Gu@physx@@QEAA@AEBV012@@Z 000000018000c1f0 f i GuContactBoxBox.obj
 0001:0000b250       ??0Box@Gu@physx@@QEAA@AEBVPxVec3@2@0AEBVPxMat33@2@@Z 000000018000c250 f i GuContactBoxBox.obj
 0001:0000b2c0       ??0Box@Gu@physx@@QEAA@XZ   000000018000c2c0 f i GuContactBoxBox.obj
 0001:0000b2d0       ??0GeometryUnion@Gu@physx@@QEAA@AEBVPxGeometry@2@@Z 000000018000c2d0 f i GuContactBoxBox.obj
 0001:0000b2f0       ??0GeometryUnion@Gu@physx@@QEAA@W4PxEMPTY@2@@Z 000000018000c2f0 f i GuContactBoxBox.obj
 0001:0000b300       ??0GeometryUnion@Gu@physx@@QEAA@XZ 000000018000c300 f i GuContactBoxBox.obj
 0001:0000b310       ??0MaterialIndicesStruct@physx@@QEAA@W4PxEMPTY@1@@Z 000000018000c310 f i GuContactBoxBox.obj
 0001:0000b320       ??0MaterialIndicesStruct@physx@@QEAA@XZ 000000018000c320 f i GuContactBoxBox.obj
 0001:0000b330       ??0PxQuat@physx@@QEAA@AEBVPxMat33@1@@Z 000000018000c330 f i GuContactBoxBox.obj
 0001:0000b530       ??0PxVec3@physx@@QEAA@XZ   000000018000c530 f i GuContactBoxBox.obj
 0001:0000b540       ??0VertexInfo@@QEAA@XZ     000000018000c540 f i GuContactBoxBox.obj
 0001:0000b550       ??1Box@Gu@physx@@QEAA@XZ   000000018000c550 f i GuContactBoxBox.obj
 0001:0000b560       ??1MaterialIndicesStruct@physx@@QEAA@XZ 000000018000c560 f i GuContactBoxBox.obj
 0001:0000b570       ??1PxBase@physx@@MEAA@XZ   000000018000c570 f i GuContactBoxBox.obj
 0001:0000b580       ??1PxConvexMesh@physx@@MEAA@XZ 000000018000c580 f i GuContactBoxBox.obj
 0001:0000b590       ??4Box@Gu@physx@@QEAAAEBV012@AEBV012@@Z 000000018000c590 f i GuContactBoxBox.obj
 0001:0000b5f0       ??4GeometryUnion@Gu@physx@@QEAAAEAV012@$$QEAV012@@Z 000000018000c5f0 f i GuContactBoxBox.obj
 0001:0000b620       ??4GeometryUnion@Gu@physx@@QEAAAEAV012@AEBV012@@Z 000000018000c620 f i GuContactBoxBox.obj
 0001:0000b650       ??4MaterialIndicesStruct@physx@@QEAAAEAU01@AEBU01@@Z 000000018000c650 f i GuContactBoxBox.obj
 0001:0000b660       ??_EPxBase@physx@@MEAAPEAXI@Z 000000018000c660 f i GuContactBoxBox.obj
 0001:0000b660       ??_GPxBase@physx@@MEAAPEAXI@Z 000000018000c660 f i GuContactBoxBox.obj
 0001:0000b690       ??_H@YAXPEAX_K1P6APEAX0@Z@Z 000000018000c690 f i GuContactBoxBox.obj
 0001:0000b6e0       ?allocate@MaterialIndicesStruct@physx@@QEAAXG@Z 000000018000c6e0 f i GuContactBoxBox.obj
 0001:0000b760       ?computeAABBExtent@Box@Gu@physx@@QEBA?AVPxVec3@3@XZ 000000018000c760 f i GuContactBoxBox.obj
 0001:0000b820       ?computeBoxPoints@Box@Gu@physx@@QEBAXPEIAVPxVec3@3@@Z 000000018000c820 f i GuContactBoxBox.obj
 0001:0000b860       ?deallocate@MaterialIndicesStruct@physx@@QEAAXXZ 000000018000c860 f i GuContactBoxBox.obj
 0001:0000e200       ?getConcreteTypeName@PxConvexMesh@physx@@UEBAPEBDXZ 000000018000f200 f i GuContactBoxBox.obj
 0001:0000e210       ?getGeometry@GeometryUnion@Gu@physx@@QEBAAEBVPxGeometry@3@XZ 000000018000f210 f i GuContactBoxBox.obj
 0001:0000e220       ?getTransform@Box@Gu@physx@@QEBA?AVPxTransform@3@XZ 000000018000f220 f i GuContactBoxBox.obj
 0001:0000e280       ?getType@GeometryUnion@Gu@physx@@QEBA?AW4Enum@PxGeometryType@3@XZ 000000018000f280 f i GuContactBoxBox.obj
 0001:0000e290       ?isKindOf@PxBase@physx@@MEBA_NPEBD@Z 000000018000f290 f i GuContactBoxBox.obj
 0001:0000e2c0       ?isKindOf@PxConvexMesh@physx@@MEBA_NPEBD@Z 000000018000f2c0 f i GuContactBoxBox.obj
 0001:0000e310       ?isReleasable@PxBase@physx@@UEBA_NXZ 000000018000f310 f i GuContactBoxBox.obj
 0001:0000e320       ?isValid@Box@Gu@physx@@QEBA_NXZ 000000018000f320 f i GuContactBoxBox.obj
 0001:0000e340       ?rotate@Box@Gu@physx@@QEBA?AVPxVec3@3@AEBV43@@Z 000000018000f340 f i GuContactBoxBox.obj
 0001:0000e3d0       ?rotateInv@Box@Gu@physx@@QEBA?AVPxVec3@3@AEBV43@@Z 000000018000f3d0 f i GuContactBoxBox.obj
 0001:0000e460       ?setAxes@Box@Gu@physx@@QEAAXAEBVPxVec3@3@00@Z 000000018000f460 f i GuContactBoxBox.obj
 0001:0000e4a0       ?setEmpty@Box@Gu@physx@@QEAAXXZ 000000018000f4a0 f i GuContactBoxBox.obj
 0001:0000e4e0       ?transform@Box@Gu@physx@@QEBA?AVPxVec3@3@AEBV43@@Z 000000018000f4e0 f i GuContactBoxBox.obj
 0001:0000e580       ?contactCapsuleBox@Gu@physx@@YA_NAEBVGeometryUnion@12@0AEBVPxTransform@2@1AEBUNarrowPhaseParams@12@AEAUCache@12@AEAVContactBuffer@12@PEAVRenderOutput@Cm@2@@Z 000000018000f580 f   GuContactCapsuleBox.obj
 0001:000101e0       ?contactCapsuleCapsule@Gu@physx@@YA_NAEBVGeometryUnion@12@0AEBVPxTransform@2@1AEBUNarrowPhaseParams@12@AEAUCache@12@AEAVContactBuffer@12@PEAVRenderOutput@Cm@2@@Z 00000001800111e0 f   GuContactCapsuleCapsule.obj
 0001:00010be0       ??0Segment@Gu@physx@@QEAA@XZ 0000000180011be0 f i GuContactCapsuleCapsule.obj
 0001:00010bf0       ??1Segment@Gu@physx@@QEAA@XZ 0000000180011bf0 f i GuContactCapsuleCapsule.obj
 0001:00010c00       ?contactCapsuleConvex@Gu@physx@@YA_NAEBVGeometryUnion@12@0AEBVPxTransform@2@1AEBUNarrowPhaseParams@12@AEAUCache@12@AEAVContactBuffer@12@PEAVRenderOutput@Cm@2@@Z 0000000180011c00 f   GuContactCapsuleConvex.obj
 0001:00011ac0       ??$gjk@U?$LocalConvex@VCapsuleV@Gu@physx@@@Gu@physx@@U?$LocalConvex@VConvexHullV@Gu@physx@@@23@@Gu@physx@@YA?AW4GjkStatus@01@AEBU?$LocalConvex@VCapsuleV@Gu@physx@@@01@AEBU?$LocalConvex@VConvexHullV@Gu@physx@@@01@AEBT__m128@@2AEAT5@333@Z 0000000180012ac0 f i GuContactCapsuleConvex.obj
 0001:00012820       ??0ConvexEdge@Gu@physx@@QEAA@XZ 0000000180013820 f i GuContactCapsuleConvex.obj
 0001:00012830       ??0ConvexMesh@Gu@physx@@QEAA@V?$PxFlags@W4Enum@PxBaseFlag@physx@@G@2@@Z 0000000180013830 f i GuContactCapsuleConvex.obj
 0001:00012880       ??0HullPolygonData@Gu@physx@@QEAA@AEBU012@@Z 0000000180013880 f i GuContactCapsuleConvex.obj
 0001:000128b0       ??0PolygonalBox@Gu@physx@@QEAA@AEBV012@@Z 00000001800138b0 f i GuContactCapsuleConvex.obj
 0001:00012b30       ??0PxVec3@physx@@QEAA@AEBV01@@Z 0000000180013b30 f i GuContactCapsuleConvex.obj
 0001:00012b50       ??1GjkConvexBase@Gu@physx@@UEAA@XZ 0000000180013b50 f i GuContactCapsuleConvex.obj
 0001:00012b60       ??1RefCountable@Cm@physx@@UEAA@XZ 0000000180013b60 f i GuContactCapsuleConvex.obj
 0001:00012b70       ??4FPUGuard@shdfnd@physx@@QEAAAEAV012@AEBV012@@Z 0000000180013b70 f i GuContactCapsuleConvex.obj
 0001:00012b90       ??Dphysx@@YA?AVMatrix34@Cm@0@AEBVPxMeshScale@0@AEBVPxTransform@0@@Z 0000000180013b90 f i GuContactCapsuleConvex.obj
 0001:000132e0       ??_EConvexMesh@Gu@physx@@UEAAPEAXI@Z 00000001800142e0 f i GuContactCapsuleConvex.obj
 0001:000133ec       ??_EConvexMesh@Gu@physx@@WBA@EAAPEAXI@Z 00000001800143ec f i GuContactCapsuleConvex.obj
 0001:00013400       ??_EPxConvexMesh@physx@@MEAAPEAXI@Z 0000000180014400 f i GuContactCapsuleConvex.obj
 0001:00013490       ??_E?$LocalConvex@VCapsuleV@Gu@physx@@@Gu@physx@@UEAAPEAXI@Z 0000000180014490 f i GuContactCapsuleConvex.obj
 0001:00013490       ??_G?$LocalConvex@VCapsuleV@Gu@physx@@@Gu@physx@@UEAAPEAXI@Z 0000000180014490 f i GuContactCapsuleConvex.obj
 0001:000134c0       ??_E?$LocalConvex@VConvexHullV@Gu@physx@@@Gu@physx@@UEAAPEAXI@Z 00000001800144c0 f i GuContactCapsuleConvex.obj
 0001:000134c0       ??_G?$LocalConvex@VConvexHullV@Gu@physx@@@Gu@physx@@UEAAPEAXI@Z 00000001800144c0 f i GuContactCapsuleConvex.obj
 0001:000134f0       ??_EGjkConvex@Gu@physx@@UEAAPEAXI@Z 00000001800144f0 f i GuContactCapsuleConvex.obj
 0001:000134f0       ??_GGjkConvex@Gu@physx@@UEAAPEAXI@Z 00000001800144f0 f i GuContactCapsuleConvex.obj
 0001:00013520       ??_EGjkConvexBase@Gu@physx@@UEAAPEAXI@Z 0000000180014520 f i GuContactCapsuleConvex.obj
 0001:00013520       ??_GGjkConvexBase@Gu@physx@@UEAAPEAXI@Z 0000000180014520 f i GuContactCapsuleConvex.obj
 0001:00013550       ??_ERefCountable@Cm@physx@@UEAAPEAXI@Z 0000000180014550 f i GuContactCapsuleConvex.obj
 0001:00013550       ??_GRefCountable@Cm@physx@@UEAAPEAXI@Z 0000000180014550 f i GuContactCapsuleConvex.obj
 0001:00013580       ??__G@YAXPEAX0_K1P6APEAX00@Z@Z 0000000180014580 f i GuContactCapsuleConvex.obj
 0001:00015600       ?getCenter@?$LocalConvex@VCapsuleV@Gu@physx@@@Gu@physx@@UEBA?AT__m128@@XZ 0000000180016600 f i GuContactCapsuleConvex.obj
 0001:00015610       ?getCenter@?$LocalConvex@VConvexHullV@Gu@physx@@@Gu@physx@@UEBA?AT__m128@@XZ 0000000180016610 f i GuContactCapsuleConvex.obj
 0001:00015620       ?getIndexBuffer@ConvexMesh@Gu@physx@@UEBAPEBEXZ 0000000180016620 f i GuContactCapsuleConvex.obj
 0001:00015660       ?getInverse@PxMat33@physx@@QEBA?BV12@XZ 0000000180016660 f i GuContactCapsuleConvex.obj
 0001:000158b0       ?getNbPolygons@ConvexMesh@Gu@physx@@UEBAIXZ 00000001800168b0 f i GuContactCapsuleConvex.obj
 0001:000158c0       ?getNbVertices@ConvexMesh@Gu@physx@@UEBAIXZ 00000001800168c0 f i GuContactCapsuleConvex.obj
 0001:000158d0       ?getSweepMargin@?$LocalConvex@VCapsuleV@Gu@physx@@@Gu@physx@@UEBA?AT__m128@@XZ 00000001800168d0 f i GuContactCapsuleConvex.obj
 0001:000158e0       ?getSweepMargin@?$LocalConvex@VConvexHullV@Gu@physx@@@Gu@physx@@UEBA?AT__m128@@XZ 00000001800168e0 f i GuContactCapsuleConvex.obj
 0001:00015900       ?getSweepMargin@GjkConvex@Gu@physx@@UEBA?AT__m128@@XZ 0000000180016900 f i GuContactCapsuleConvex.obj
 0001:00015920       ?getVertices@ConvexMesh@Gu@physx@@UEBAPEBVPxVec3@3@XZ 0000000180016920 f i GuContactCapsuleConvex.obj
 0001:00015940       ?hillClimbing@ConvexHullV@Gu@physx@@QEBAIAEBT__m128@@@Z 0000000180016940 f i GuContactCapsuleConvex.obj
 0001:00015b70       ?init@FastVertex2ShapeScaling@Cm@physx@@QEAAXAEBVPxVec3@3@AEBVPxQuat@3@@Z 0000000180016b70 f i GuContactCapsuleConvex.obj
 0001:00015f60       ?onRefCountZero@RefCountable@Cm@physx@@UEAAXXZ 0000000180016f60 f i GuContactCapsuleConvex.obj
 0001:00015f80       ?requiresObjects@ConvexMesh@Gu@physx@@UEAAXAEAVPxProcessPxBaseCallback@3@@Z 0000000180016f80 f i GuContactCapsuleConvex.obj
 0001:00015f90       ?support@?$LocalConvex@VCapsuleV@Gu@physx@@@Gu@physx@@UEBA?AT__m128@@AEBT4@@Z 0000000180016f90 f i GuContactCapsuleConvex.obj
 0001:00015ff0       ?support@?$LocalConvex@VCapsuleV@Gu@physx@@@Gu@physx@@UEBA?AT__m128@@AEBT4@AEAHPEAT4@@Z 0000000180016ff0 f i GuContactCapsuleConvex.obj
 0001:00016060       ?support@?$LocalConvex@VConvexHullV@Gu@physx@@@Gu@physx@@UEBA?AT__m128@@AEBT4@@Z 0000000180017060 f i GuContactCapsuleConvex.obj
 0001:00016140       ?support@?$LocalConvex@VConvexHullV@Gu@physx@@@Gu@physx@@UEBA?AT__m128@@AEBT4@AEAHPEAT4@@Z 0000000180017140 f i GuContactCapsuleConvex.obj
 0001:00016210       ?support@GjkConvex@Gu@physx@@UEBA?AT__m128@@AEBT4@@Z 0000000180017210 f i GuContactCapsuleConvex.obj
 0001:00016230       ?support@GjkConvex@Gu@physx@@UEBA?AT__m128@@AEBT4@AEAHPEAT4@@Z 0000000180017230 f i GuContactCapsuleConvex.obj
 0001:00016260       ?supportPoint@?$LocalConvex@VCapsuleV@Gu@physx@@@Gu@physx@@UEBA?AT__m128@@HPEAT4@@Z 0000000180017260 f i GuContactCapsuleConvex.obj
 0001:00016290       ?supportPoint@?$LocalConvex@VConvexHullV@Gu@physx@@@Gu@physx@@UEBA?AT__m128@@HPEAT4@@Z 0000000180017290 f i GuContactCapsuleConvex.obj
 0001:000162e0       ?supportPoint@GjkConvex@Gu@physx@@UEBA?AT__m128@@HPEAT4@@Z 00000001800172e0 f i GuContactCapsuleConvex.obj
 0001:00016300       ?supportVertexIndex@ConvexHullV@Gu@physx@@QEBAIAEBT__m128@@@Z 0000000180017300 f i GuContactCapsuleConvex.obj
 0001:000163a0       ?contactCapsuleMesh@Gu@physx@@YA_NAEBVGeometryUnion@12@0AEBVPxTransform@2@1AEBUNarrowPhaseParams@12@AEAUCache@12@AEAVContactBuffer@12@PEAVRenderOutput@Cm@2@@Z 00000001800173a0 f   GuContactCapsuleMesh.obj
 0001:000168e0       ?contactCapsuleHeightfield@Gu@physx@@YA_NAEBVGeometryUnion@12@0AEBVPxTransform@2@1AEBUNarrowPhaseParams@12@AEAUCache@12@AEAVContactBuffer@12@PEAVRenderOutput@Cm@2@@Z 00000001800178e0 f   GuContactCapsuleMesh.obj
 0001:00017920       ??0HeightFieldData@Gu@physx@@QEAA@$$QEAU012@@Z 0000000180018920 f i GuContactCapsuleMesh.obj
 0001:00017990       ??0HeightFieldData@Gu@physx@@QEAA@AEBU012@@Z 0000000180018990 f i GuContactCapsuleMesh.obj
 0001:00017a00       ??0HeightFieldData@Gu@physx@@QEAA@W4PxEMPTY@2@@Z 0000000180018a00 f i GuContactCapsuleMesh.obj
 0001:00017a10       ??0HeightFieldData@Gu@physx@@QEAA@XZ 0000000180018a10 f i GuContactCapsuleMesh.obj
 0001:00017a20       ??0HeightFieldTraceUtil@Gu@physx@@QEAA@AEBVPxHeightFieldGeometry@2@@Z 0000000180018a20 f i GuContactCapsuleMesh.obj
 0001:00017a60       ??0HeightFieldUtil@Gu@physx@@QEAA@AEBVPxHeightFieldGeometry@2@@Z 0000000180018a60 f i GuContactCapsuleMesh.obj
 0001:00017aa0       ??0HeightFieldUtil@Gu@physx@@QEAA@XZ 0000000180018aa0 f i GuContactCapsuleMesh.obj
 0001:00017ab0       ??1?$EntityReport@I@Gu@physx@@UEAA@XZ 0000000180018ab0 f i GuContactCapsuleMesh.obj
 0001:00017ac0       ??1?$MeshHitCallback@UPxRaycastHit@physx@@@Gu@physx@@UEAA@XZ 0000000180018ac0 f i GuContactCapsuleMesh.obj
 0001:00017ad0       ??1HeightFieldData@Gu@physx@@QEAA@XZ 0000000180018ad0 f i GuContactCapsuleMesh.obj
 0001:00017ae0       ??1PxHeightField@physx@@MEAA@XZ 0000000180018ae0 f i GuContactCapsuleMesh.obj
 0001:00017af0       ??4HeightFieldData@Gu@physx@@QEAAAEAU012@$$QEAU012@@Z 0000000180018af0 f i GuContactCapsuleMesh.obj
 0001:00017b60       ??4HeightFieldData@Gu@physx@@QEAAAEAU012@AEBU012@@Z 0000000180018b60 f i GuContactCapsuleMesh.obj
 0001:00017bd0       ??4HeightFieldTraceUtil@Gu@physx@@QEAAAEAV012@$$QEAV012@@Z 0000000180018bd0 f i GuContactCapsuleMesh.obj
 0001:00017bf0       ??4HeightFieldTraceUtil@Gu@physx@@QEAAAEAV012@AEBV012@@Z 0000000180018bf0 f i GuContactCapsuleMesh.obj
 0001:00017c10       ??4HeightFieldUtil@Gu@physx@@QEAAAEAV012@$$QEAV012@@Z 0000000180018c10 f i GuContactCapsuleMesh.obj
 0001:00017c40       ??4HeightFieldUtil@Gu@physx@@QEAAAEAV012@AEBV012@@Z 0000000180018c40 f i GuContactCapsuleMesh.obj
 0001:00017c60       ??_E?$EntityReport@I@Gu@physx@@UEAAPEAXI@Z 0000000180018c60 f i GuContactCapsuleMesh.obj
 0001:00017c60       ??_G?$EntityReport@I@Gu@physx@@UEAAPEAXI@Z 0000000180018c60 f i GuContactCapsuleMesh.obj
 0001:00017c90       ??_E?$MeshHitCallback@UPxRaycastHit@physx@@@Gu@physx@@UEAAPEAXI@Z 0000000180018c90 f i GuContactCapsuleMesh.obj
 0001:00017c90       ??_G?$MeshHitCallback@UPxRaycastHit@physx@@@Gu@physx@@UEAAPEAXI@Z 0000000180018c90 f i GuContactCapsuleMesh.obj
 0001:00019040       ?ceilUp@HeightFieldTraceUtil@Gu@physx@@SAMM@Z 000000018001a040 f i GuContactCapsuleMesh.obj
 0001:00019080       ?clipShapeNormalToVertexVoronoi@HeightFieldUtil@Gu@physx@@QEBA_NAEAVPxVec3@3@III@Z 000000018001a080 f i GuContactCapsuleMesh.obj
 0001:00019370       ?computePointNormal@HeightFieldUtil@Gu@physx@@QEBA?AVPxVec3@3@IAEBV43@AEBVPxTransform@3@MMMMAEAM@Z 000000018001a370 f i GuContactCapsuleMesh.obj
 0001:00019790       ?floorDown@HeightFieldTraceUtil@Gu@physx@@SAMM@Z 000000018001a790 f i GuContactCapsuleMesh.obj
 0001:000197d0       ?getConcreteTypeName@PxHeightField@physx@@UEBAPEBDXZ 000000018001a7d0 f i GuContactCapsuleMesh.obj
 0001:000197e0       ?getConvexEdgeThreshold@HeightField@Gu@physx@@UEBAMXZ 000000018001a7e0 f i GuContactCapsuleMesh.obj
 0001:000197f0       ?getFeatureIndex@HeightFieldUtil@Gu@physx@@SAII@Z 000000018001a7f0 f i GuContactCapsuleMesh.obj
 0001:00019800       ?getFeatureType@HeightFieldUtil@Gu@physx@@SA?AW4Feature@123@I@Z 000000018001a800 f i GuContactCapsuleMesh.obj
 0001:00019810       ?getFlags@HeightField@Gu@physx@@UEBA?AV?$PxFlags@W4Enum@PxHeightFieldFlag@physx@@G@3@XZ 000000018001a810 f i GuContactCapsuleMesh.obj
 0001:00019820       ?getFormat@HeightField@Gu@physx@@UEBA?AW4Enum@PxHeightFieldFormat@3@XZ 000000018001a820 f i GuContactCapsuleMesh.obj
 0001:00019830       ?getHeight@HeightField@Gu@physx@@UEBAMMM@Z 000000018001a830 f i GuContactCapsuleMesh.obj
 0001:00019870       ?getHeightAtShapePoint2@HeightFieldUtil@Gu@physx@@QEBAMIMM@Z 000000018001a870 f i GuContactCapsuleMesh.obj
 0001:000198a0       ?getHeightAtShapePoint@HeightFieldUtil@Gu@physx@@QEBAMMM@Z 000000018001a8a0 f i GuContactCapsuleMesh.obj
 0001:00019900       ?getHeightField@HeightFieldUtil@Gu@physx@@QEBAAEBVHeightField@23@XZ 000000018001a900 f i GuContactCapsuleMesh.obj
 0001:00019910       ?getHeightFieldGeometry@HeightFieldUtil@Gu@physx@@QEBAAEBVPxHeightFieldGeometry@3@XZ 000000018001a910 f i GuContactCapsuleMesh.obj
 0001:00019920       ?getHeightInternal2@HeightField@Gu@physx@@QEBAMIMM@Z 000000018001a920 f i GuContactCapsuleMesh.obj
 0001:00019a90       ?getNbColumns@HeightField@Gu@physx@@UEBAIXZ 000000018001aa90 f i GuContactCapsuleMesh.obj
 0001:00019aa0       ?getNbRows@HeightField@Gu@physx@@UEBAIXZ 000000018001aaa0 f i GuContactCapsuleMesh.obj
 0001:00019ab0       ?getNormalAtShapePoint2@HeightFieldUtil@Gu@physx@@QEBA?AVPxVec3@3@IMM@Z 000000018001aab0 f i GuContactCapsuleMesh.obj
 0001:00019b00       ?getNormalAtShapePoint@HeightFieldUtil@Gu@physx@@QEBA?AVPxVec3@3@MM@Z 000000018001ab00 f i GuContactCapsuleMesh.obj
 0001:00019bc0       ?getNormal_2@HeightField@Gu@physx@@QEBA?AVPxVec3@3@IMMMMM@Z 000000018001abc0 f i GuContactCapsuleMesh.obj
 0001:00019cd0       ?getOneOverColumnScale@HeightFieldUtil@Gu@physx@@QEBAMXZ 000000018001acd0 f i GuContactCapsuleMesh.obj
 0001:00019ce0       ?getOneOverHeightScale@HeightFieldUtil@Gu@physx@@QEBAMXZ 000000018001ace0 f i GuContactCapsuleMesh.obj
 0001:00019cf0       ?getOneOverRowScale@HeightFieldUtil@Gu@physx@@QEBAMXZ 000000018001acf0 f i GuContactCapsuleMesh.obj
 0001:00019d00       ?getPaddedBounds@HeightFieldData@Gu@physx@@QEBAAEBVCenterExtentsPadded@23@XZ 000000018001ad00 f i GuContactCapsuleMesh.obj
 0001:00019d10       ?getSample@HeightField@Gu@physx@@UEBAAEBUPxHeightFieldSample@3@II@Z 000000018001ad10 f i GuContactCapsuleMesh.obj
 0001:00019d20       ?getSampleStride@HeightField@Gu@physx@@UEBAIXZ 000000018001ad20 f i GuContactCapsuleMesh.obj
 0001:00019d30       ?getThickness@HeightField@Gu@physx@@UEBAMXZ 000000018001ad30 f i GuContactCapsuleMesh.obj
 0001:00019d40       ?getTimestamp@HeightField@Gu@physx@@UEBAIXZ 000000018001ad40 f i GuContactCapsuleMesh.obj
 0001:00019d50       ?getTriangleMaterialIndex@HeightField@Gu@physx@@UEBAGI@Z 000000018001ad50 f i GuContactCapsuleMesh.obj
 0001:00019d80       ?getTriangleNormal@HeightField@Gu@physx@@UEBA?AVPxVec3@3@I@Z 000000018001ad80 f i GuContactCapsuleMesh.obj
 0001:00019da0       ?getTriangleNormalInternal@HeightField@Gu@physx@@QEBA?AVPxVec3@3@I@Z 000000018001ada0 f i GuContactCapsuleMesh.obj
 0001:00019f00       ?getVertexNormal@HeightFieldUtil@Gu@physx@@QEBA?AVPxVec3@3@I@Z 000000018001af00 f i GuContactCapsuleMesh.obj
 0001:00019f30       ?hf2shapen@HeightFieldUtil@Gu@physx@@QEBA?AVPxVec3@3@AEBV43@@Z 000000018001af30 f i GuContactCapsuleMesh.obj
 0001:00019f70       ?hf2shapep@HeightFieldUtil@Gu@physx@@QEBA?AVPxVec3@3@AEBV43@@Z 000000018001af70 f i GuContactCapsuleMesh.obj
 0001:00019fb0       ?hf2worldn@HeightFieldUtil@Gu@physx@@QEBA?AVPxVec3@3@AEBVPxTransform@3@AEBV43@@Z 000000018001afb0 f i GuContactCapsuleMesh.obj
 0001:0001a120       ?hf2worldp@HeightFieldUtil@Gu@physx@@QEBA?AVPxVec3@3@AEBVPxTransform@3@AEBV43@@Z 000000018001b120 f i GuContactCapsuleMesh.obj
 0001:0001a2a0       ?initialize@HeightFieldUtil@Gu@physx@@QEAAXAEBVPxHeightFieldGeometry@3@AEBVHeightField@23@@Z 000000018001b2a0 f i GuContactCapsuleMesh.obj
 0001:0001a2e0       ?initialize@HeightFieldUtil@Gu@physx@@QEAAXXZ 000000018001b2e0 f i GuContactCapsuleMesh.obj
 0001:0001a310       ?isCollisionVertex@HeightFieldUtil@Gu@physx@@QEBA_NIII@Z 000000018001b310 f i GuContactCapsuleMesh.obj
 0001:0001a330       ?isKindOf@PxHeightField@physx@@MEBA_NPEBD@Z 000000018001b330 f i GuContactCapsuleMesh.obj
 0001:0001a380       ?isQueryVertex@HeightFieldUtil@Gu@physx@@QEBA_NIII@Z 000000018001b380 f i GuContactCapsuleMesh.obj
 0001:0001a440       ?isShapePointOnHeightField@HeightFieldUtil@Gu@physx@@QEBA_NMM@Z 000000018001b440 f i GuContactCapsuleMesh.obj
 0001:0001a490       ?makeFeatureCode@HeightFieldUtil@Gu@physx@@SAIIW4Feature@123@@Z 000000018001b490 f i GuContactCapsuleMesh.obj
 0001:0001a980       ?shape2hfp@HeightFieldUtil@Gu@physx@@QEBA?AVPxVec3@3@AEBV43@@Z 000000018001b980 f i GuContactCapsuleMesh.obj
 0001:0001a9c0       ?transformFast@PxBounds3@physx@@SA?AV12@AEBVPxTransform@2@AEBV12@@Z 000000018001b9c0 f i GuContactCapsuleMesh.obj
 0001:0001ada0       ?transformQueryBounds@FastVertex2ShapeScaling@Cm@physx@@QEBAXAEAVPxVec3@3@0AEAVPxMat33@3@@Z 000000018001bda0 f i GuContactCapsuleMesh.obj
 0001:0001afe0       ?contactBoxConvex@Gu@physx@@YA_NAEBVGeometryUnion@12@0AEBVPxTransform@2@1AEBUNarrowPhaseParams@12@AEAUCache@12@AEAVContactBuffer@12@PEAVRenderOutput@Cm@2@@Z 000000018001bfe0 f   GuContactConvexConvex.obj
 0001:0001b180       ?contactConvexConvex@Gu@physx@@YA_NAEBVGeometryUnion@12@0AEBVPxTransform@2@1AEBUNarrowPhaseParams@12@AEAUCache@12@AEAVContactBuffer@12@PEAVRenderOutput@Cm@2@@Z 000000018001c180 f   GuContactConvexConvex.obj
 0001:0001b2d0       ??0SeparatingAxes@Gu@physx@@QEAA@$$QEAV012@@Z 000000018001c2d0 f i GuContactConvexConvex.obj
 0001:0001b3e0       ??0SeparatingAxes@Gu@physx@@QEAA@AEBV012@@Z 000000018001c3e0 f i GuContactConvexConvex.obj
 0001:0001b4f0       ??0SeparatingAxes@Gu@physx@@QEAA@XZ 000000018001c4f0 f i GuContactConvexConvex.obj
 0001:0001b500       ??4SeparatingAxes@Gu@physx@@QEAAAEAV012@$$QEAV012@@Z 000000018001c500 f i GuContactConvexConvex.obj
 0001:0001b610       ??4SeparatingAxes@Gu@physx@@QEAAAEAV012@AEBV012@@Z 000000018001c610 f i GuContactConvexConvex.obj
 0001:0001f730       ?getAxes@SeparatingAxes@Gu@physx@@QEBAPEBVPxVec3@3@XZ 0000000180020730 f i GuContactConvexConvex.obj
 0001:0001f740       ?getNumAxes@SeparatingAxes@Gu@physx@@QEBAIXZ 0000000180020740 f i GuContactConvexConvex.obj
 0001:0001fa50       ?reset@SeparatingAxes@Gu@physx@@QEAAXXZ 0000000180020a50 f i GuContactConvexConvex.obj
 0001:0001fa60       ?transformPlaneToShapeSpace@FastVertex2ShapeScaling@Cm@physx@@QEBAXAEBVPxVec3@3@MAEAV43@AEAM@Z 0000000180020a60 f i GuContactConvexConvex.obj
 0001:0001fb50       ?contactBoxMesh@Gu@physx@@YA_NAEBVGeometryUnion@12@0AEBVPxTransform@2@1AEBUNarrowPhaseParams@12@AEAUCache@12@AEAVContactBuffer@12@PEAVRenderOutput@Cm@2@@Z 0000000180020b50 f   GuContactConvexMesh.obj
 0001:0001fd10       ?contactConvexMesh@Gu@physx@@YA_NAEBVGeometryUnion@12@0AEBVPxTransform@2@1AEBUNarrowPhaseParams@12@AEAUCache@12@AEAVContactBuffer@12@PEAVRenderOutput@Cm@2@@Z 0000000180020d10 f   GuContactConvexMesh.obj
 0001:0001fec0       ?contactBoxHeightfield@Gu@physx@@YA_NAEBVGeometryUnion@12@0AEBVPxTransform@2@1AEBUNarrowPhaseParams@12@AEAUCache@12@AEAVContactBuffer@12@PEAVRenderOutput@Cm@2@@Z 0000000180020ec0 f   GuContactConvexMesh.obj
 0001:00020020       ?contactConvexHeightfield@Gu@physx@@YA_NAEBVGeometryUnion@12@0AEBVPxTransform@2@1AEBUNarrowPhaseParams@12@AEAUCache@12@AEAVContactBuffer@12@PEAVRenderOutput@Cm@2@@Z 0000000180021020 f   GuContactConvexMesh.obj
 0001:000205a0       ??0?$CacheMap@UCachedEdge@Gu@physx@@$0IA@@Gu@physx@@QEAA@XZ 00000001800215a0 f i GuContactConvexMesh.obj
 0001:00020660       ??0?$CacheMap@UCachedVertex@Gu@physx@@$0IA@@Gu@physx@@QEAA@XZ 0000000180021660 f i GuContactConvexMesh.obj
 0001:00020720       ??0CachedEdge@Gu@physx@@QEAA@XZ 0000000180021720 f i GuContactConvexMesh.obj
 0001:00020730       ??0CachedVertex@Gu@physx@@QEAA@XZ 0000000180021730 f i GuContactConvexMesh.obj
 0001:00020c50       ??_EConvexMeshContactGenerationCallback@@UEAAPEAXI@Z 0000000180021c50 f i GuContactConvexMesh.obj
 0001:00020c50       ??_GConvexMeshContactGenerationCallback@@UEAAPEAXI@Z 0000000180021c50 f i GuContactConvexMesh.obj
 0001:00020c80       ?addData@?$CacheMap@UCachedEdge@Gu@physx@@$0IA@@Gu@physx@@QEAA_NAEBUCachedEdge@23@@Z 0000000180021c80 f i GuContactConvexMesh.obj
 0001:00020d60       ?addData@?$CacheMap@UCachedVertex@Gu@physx@@$0IA@@Gu@physx@@QEAA_NAEBUCachedVertex@23@@Z 0000000180021d60 f i GuContactConvexMesh.obj
 0001:00020df0       ?allocate@?$ReflectionAllocator@I@shdfnd@physx@@QEAAPEAX_KPEBDH@Z 0000000180021df0 f i GuContactConvexMesh.obj
 0001:000242e0       ?processHit@ConvexMeshContactGenerationCallback@@UEAA_NAEBUPxRaycastHit@physx@@AEBVPxVec3@3@11AEAMPEBI@Z 00000001800252e0 f i GuContactConvexMesh.obj
 0001:00024c10       ?recreate@?$Array@IV?$InlineAllocator@$0BBAA@V?$ReflectionAllocator@I@shdfnd@physx@@@shdfnd@physx@@@shdfnd@physx@@IEAAXI@Z 0000000180025c10 f i GuContactConvexMesh.obj
 0001:00025c90       ?contactPlaneBox@Gu@physx@@YA_NAEBVGeometryUnion@12@0AEBVPxTransform@2@1AEBUNarrowPhaseParams@12@AEAUCache@12@AEAVContactBuffer@12@PEAVRenderOutput@Cm@2@@Z 0000000180026c90 f   GuContactPlaneBox.obj
 0001:000268c0       ?contactPlaneCapsule@Gu@physx@@YA_NAEBVGeometryUnion@12@0AEBVPxTransform@2@1AEBUNarrowPhaseParams@12@AEAUCache@12@AEAVContactBuffer@12@PEAVRenderOutput@Cm@2@@Z 00000001800278c0 f   GuContactPlaneCapsule.obj
 0001:00026ee0       ?contactPlaneConvex@Gu@physx@@YA_NAEBVGeometryUnion@12@0AEBVPxTransform@2@1AEBUNarrowPhaseParams@12@AEAUCache@12@AEAVContactBuffer@12@PEAVRenderOutput@Cm@2@@Z 0000000180027ee0 f   GuContactPlaneConvex.obj
 0001:000277a0       ?findRotationMatrixFromZ@Gu@physx@@YA?AVPxMat33@2@AEBVPxVec3@2@@Z 00000001800287a0 f   GuContactPolygonPolygon.obj
 0001:000279e0       ?contactPolygonPolygonExt@Gu@physx@@YA_NIPEBVPxVec3@2@PEBEAEBVMatrix34@Cm@2@AEBVPxPlane@2@AEBVPxMat33@2@I01234AEBV32@22IIAEAVContactBuffer@12@_N5M@Z 00000001800289e0 f   GuContactPolygonPolygon.obj
 0001:0002ad90       ?contactSphereBox@Gu@physx@@YA_NAEBVGeometryUnion@12@0AEBVPxTransform@2@1AEBUNarrowPhaseParams@12@AEAUCache@12@AEAVContactBuffer@12@PEAVRenderOutput@Cm@2@@Z 000000018002bd90 f   GuContactSphereBox.obj
 0001:0002b350       ?contactSphereCapsule@Gu@physx@@YA_NAEBVGeometryUnion@12@0AEBVPxTransform@2@1AEBUNarrowPhaseParams@12@AEAUCache@12@AEAVContactBuffer@12@PEAVRenderOutput@Cm@2@@Z 000000018002c350 f   GuContactSphereCapsule.obj
 0001:0002b6f0       ?contactSphereMesh@Gu@physx@@YA_NAEBVGeometryUnion@12@0AEBVPxTransform@2@1AEBUNarrowPhaseParams@12@AEAUCache@12@AEAVContactBuffer@12@PEAVRenderOutput@Cm@2@@Z 000000018002c6f0 f   GuContactSphereMesh.obj
 0001:0002c930       ?contactSphereHeightfield@Gu@physx@@YA_NAEBVGeometryUnion@12@0AEBVPxTransform@2@1AEBUNarrowPhaseParams@12@AEAUCache@12@AEAVContactBuffer@12@PEAVRenderOutput@Cm@2@@Z 000000018002d930 f   GuContactSphereMesh.obj
 0001:0002dc10       ??0TriangleData@@QEAA@XZ   000000018002ec10 f i GuContactSphereMesh.obj
 0001:0002ef70       ?contactSpherePlane@Gu@physx@@YA_NAEBVGeometryUnion@12@0AEBVPxTransform@2@1AEBUNarrowPhaseParams@12@AEAUCache@12@AEAVContactBuffer@12@PEAVRenderOutput@Cm@2@@Z 000000018002ff70 f   GuContactSpherePlane.obj
 0001:0002f170       ?contactSphereSphere@Gu@physx@@YA_NAEBVGeometryUnion@12@0AEBVPxTransform@2@1AEBUNarrowPhaseParams@12@AEAUCache@12@AEAVContactBuffer@12@PEAVRenderOutput@Cm@2@@Z 0000000180030170 f   GuContactSphereSphere.obj
 0001:0002f2e0       ?selectNormal@Gu@physx@@YA_NEMM@Z 00000001800302e0 f   GuFeatureCode.obj
 0001:0002f360       ?legacyContactBoxHeightfield@Gu@physx@@YA_NAEBVGeometryUnion@12@0AEBVPxTransform@2@1AEBUNarrowPhaseParams@12@AEAUCache@12@AEAVContactBuffer@12@PEAVRenderOutput@Cm@2@@Z 0000000180030360 f   GuLegacyContactBoxHeightField.obj
 0001:00031200       ??$traceSegment@UGuContactTraceSegmentCallback@Gu@physx@@$00$0A@@HeightFieldTraceUtil@Gu@physx@@QEBAXAEBVPxVec3@2@0MPEAUGuContactTraceSegmentCallback@12@AEBVPxBounds3@2@_NPEBV32@@Z 0000000180032200 f i GuLegacyContactBoxHeightField.obj
 0001:00031f20       ?underFaceHit@GuContactTraceSegmentCallback@Gu@physx@@QEAA_NAEBVHeightFieldUtil@23@AEBVPxVec3@3@1MMMI@Z 0000000180032f20 f i GuLegacyContactBoxHeightField.obj
 0001:000322f0       ?legacyContactCapsuleHeightfield@Gu@physx@@YA_NAEBVGeometryUnion@12@0AEBVPxTransform@2@1AEBUNarrowPhaseParams@12@AEAUCache@12@AEAVContactBuffer@12@PEAVRenderOutput@Cm@2@@Z 00000001800332f0 f   GuLegacyContactCapsuleHeightField.obj
 0001:00034170       ?legacyContactConvexHeightfield@Gu@physx@@YA_NAEBVGeometryUnion@12@0AEBVPxTransform@2@1AEBUNarrowPhaseParams@12@AEAUCache@12@AEAVContactBuffer@12@PEAVRenderOutput@Cm@2@@Z 0000000180035170 f   GuLegacyContactConvexHeightField.obj
 0001:00036440       ?legacyContactSphereHeightfield@Gu@physx@@YA_NAEBVGeometryUnion@12@0AEBVPxTransform@2@1AEBUNarrowPhaseParams@12@AEAUCache@12@AEAVContactBuffer@12@PEAVRenderOutput@Cm@2@@Z 0000000180037440 f   GuLegacyContactSphereHeightField.obj
 0001:00036490       ?GuContactSphereHeightFieldShared@@YA_NAEBVGeometryUnion@Gu@physx@@0AEBVPxTransform@3@1AEBUNarrowPhaseParams@23@AEAUCache@23@AEAVContactBuffer@23@PEAVRenderOutput@Cm@3@_N@Z 0000000180037490 f   GuLegacyContactSphereHeightField.obj
 0001:00037d20       ?barycentricCoordinates@Gu@physx@@YAXAEBT__m128@@00AEAT3@@Z 0000000180038d20 f   GuBarycentricCoordinates.obj
 0001:00037d90       ?barycentricCoordinates@Gu@physx@@YAXAEBT__m128@@000AEAT3@1@Z 0000000180038d90 f   GuBarycentricCoordinates.obj
 0001:00037ee0       ?barycentricCoordinates@Gu@physx@@YAXAEBT__m128@@00AEAT3@1@Z 0000000180038ee0 f   GuBarycentricCoordinates.obj
 0001:00037fd0       ?addAxis@SeparatingAxes@Gu@physx@@QEAA_NAEBVPxVec3@3@@Z 0000000180038fd0 f   GuSeparatingAxes.obj
 0001:00038090       ??0BigConvexData@physx@@QEAA@XZ 0000000180039090 f   GuBigConvexData.obj
 0001:000380c0       ??1BigConvexData@physx@@QEAA@XZ 00000001800390c0 f   GuBigConvexData.obj
 0001:00038150       ?Load@BigConvexData@physx@@QEAA_NAEAVPxInputStream@2@@Z 0000000180039150 f   GuBigConvexData.obj
 0001:00038260       ?ComputeOffset@BigConvexData@physx@@QEBAIAEBVPxVec3@2@@Z 0000000180039260 f   GuBigConvexData.obj
 0001:00038360       ?ComputeNearestOffset@BigConvexData@physx@@QEBAIAEBVPxVec3@2@@Z 0000000180039360 f   GuBigConvexData.obj
 0001:00038470       ?exportExtraData@BigConvexData@physx@@QEAAXAEAVPxSerializationContext@2@@Z 0000000180039470 f   GuBigConvexData.obj
 0001:000384f0       ?importExtraData@BigConvexData@physx@@QEAAXAEAVPxDeserializationContext@2@@Z 00000001800394f0 f   GuBigConvexData.obj
 0001:00038560       ?CreateOffsets@BigConvexData@physx@@IEAAXXZ 0000000180039560 f   GuBigConvexData.obj
 0001:000385b0       ?VLoad@BigConvexData@physx@@IEAA_NAEAVPxInputStream@2@@Z 00000001800395b0 f   GuBigConvexData.obj
 0001:00038750       ??0BigConvexData@physx@@QEAA@W4PxEMPTY@1@@Z 0000000180039750 f i GuBigConvexData.obj
 0001:00038760       ??4BigConvexData@physx@@QEAAAEAV01@AEBV01@@Z 0000000180039760 f i GuBigConvexData.obj
 0001:00038780       ?GetAdjacentVerts@BigConvexData@physx@@QEBAPEBEXZ 0000000180039780 f i GuBigConvexData.obj
 0001:00038790       ?GetNbNeighbors@BigConvexData@physx@@QEBAGI@Z 0000000180039790 f i GuBigConvexData.obj
 0001:000387a0       ?GetNbSamples@BigConvexData@physx@@QEBAIXZ 00000001800397a0 f i GuBigConvexData.obj
 0001:000387b0       ?GetNbVerts@BigConvexData@physx@@QEBAIXZ 00000001800397b0 f i GuBigConvexData.obj
 0001:000387c0       ?GetNeighbors@BigConvexData@physx@@QEBAPEBEI@Z 00000001800397c0 f i GuBigConvexData.obj
 0001:000387d0       ?GetOffset@BigConvexData@physx@@QEBAGI@Z 00000001800397d0 f i GuBigConvexData.obj
 0001:000387e0       ?GetSubdiv@BigConvexData@physx@@QEBAIXZ 00000001800397e0 f i GuBigConvexData.obj
 0001:000387f0       ?GetValencies@BigConvexData@physx@@QEBAPEBUValency@Gu@2@XZ 00000001800397f0 f i GuBigConvexData.obj
 0001:00038800       ?GetValency@BigConvexData@physx@@QEBAGI@Z 0000000180039800 f i GuBigConvexData.obj
 0001:00038810       ?__global_array_delete@@YAXPEAX@Z 0000000180039810 f i GuBigConvexData.obj
 0001:00038820       ?__global_array_delete@@YAXPEAX_K@Z 0000000180039820 f i GuBigConvexData.obj
 0001:00038830       ?__global_delete@@YAXPEAX@Z 0000000180039830 f i GuBigConvexData.obj
 0001:00038840       ?__global_delete@@YAXPEAX_K@Z 0000000180039840 f i GuBigConvexData.obj
 0001:00038850       ?getScaledConvex@Gu@physx@@YAXAEAPEAVPxVec3@2@AEAPEAEPEAV32@PEAE_NPEBV32@PEBEIAEBVFastVertex2ShapeScaling@Cm@2@@Z 0000000180039850 f   GuConvexHelper.obj
 0001:00038990       ?getConvexData@Gu@physx@@YA_NAEBVGeometryUnion@12@AEAVFastVertex2ShapeScaling@Cm@2@AEAVPxBounds3@2@AEAUPolygonalData@12@@Z 0000000180039990 f   GuConvexHelper.obj
 0001:00038c20       ?findUniqueConvexEdges@Gu@physx@@YAIIPEIAUConvexEdge@12@IPEIBUHullPolygonData@12@PEIBE@Z 0000000180039c20 f   GuConvexHelper.obj
 0001:00038d60       ?exportExtraData@ConvexMesh@Gu@physx@@UEAAXAEAVPxSerializationContext@3@@Z 0000000180039d60 f   GuConvexMesh.obj
 0001:00038e30       ?importExtraData@ConvexMesh@Gu@physx@@QEAAXAEAVPxDeserializationContext@3@@Z 0000000180039e30 f   GuConvexMesh.obj
 0001:00038ef0       ?onRefCountZero@ConvexMesh@Gu@physx@@UEAAXXZ 0000000180039ef0 f   GuConvexMesh.obj
 0001:00038ff0       ?createObject@ConvexMesh@Gu@physx@@SAPEAV123@AEAPEAEAEAVPxDeserializationContext@3@@Z 0000000180039ff0 f   GuConvexMesh.obj
 0001:00039060       ??0ConvexMesh@Gu@physx@@QEAA@XZ 000000018003a060 f   GuConvexMesh.obj
 0001:00039110       ??0ConvexMesh@Gu@physx@@QEAA@AEAVGuMeshFactory@2@AEAUConvexHullData@12@@Z 000000018003a110 f   GuConvexMesh.obj
 0001:00039210       ?load@ConvexMesh@Gu@physx@@QEAA_NAEAVPxInputStream@3@@Z 000000018003a210 f   GuConvexMesh.obj
 0001:000394c0       ?release@ConvexMesh@Gu@physx@@UEAAXXZ 000000018003a4c0 f   GuConvexMesh.obj
 0001:00039500       ?getPolygonData@ConvexMesh@Gu@physx@@UEBA_NIAEAUPxHullPolygon@3@@Z 000000018003a500 f   GuConvexMesh.obj
 0001:00039550       ?isGpuCompatible@ConvexMesh@Gu@physx@@UEBA_NXZ 000000018003a550 f   GuConvexMesh.obj
 0001:00039580       ?getReferenceCount@ConvexMesh@Gu@physx@@UEBAIXZ 000000018003a580 f   GuConvexMesh.obj
 0001:00039590       ?acquireReference@ConvexMesh@Gu@physx@@UEAAXXZ 000000018003a590 f   GuConvexMesh.obj
 0001:000395a0       ?getMassInformation@ConvexMesh@Gu@physx@@UEBAXAEAMAEAVPxMat33@3@AEAVPxVec3@3@@Z 000000018003a5a0 f   GuConvexMesh.obj
 0001:00039620       ?getLocalBounds@ConvexMesh@Gu@physx@@UEBA?AVPxBounds3@3@XZ 000000018003a620 f   GuConvexMesh.obj
 0001:000396b0       ??1ConvexMesh@Gu@physx@@UEAA@XZ 000000018003a6b0 f   GuConvexMesh.obj
 0001:00039c00       ?notifyReleaseConvexMesh@GuMeshFactory@physx@@MEAAXAEBVPxConvexMesh@2@@Z 000000018003ac00 f i GuConvexMesh.obj
 0001:00039c10       ?notifyReleaseHeightField@GuMeshFactory@physx@@MEAAXAEBVPxHeightField@2@@Z 000000018003ac10 f i GuConvexMesh.obj
 0001:00039c20       ?notifyReleaseTriangleMesh@GuMeshFactory@physx@@MEAAXAEBVPxTriangleMesh@2@@Z 000000018003ac20 f i GuConvexMesh.obj
 0001:00039c30       ?computeHullOBB@Gu@physx@@YAXAEAVBox@12@AEBVPxBounds3@2@MAEBVMatrix34@Cm@2@2AEBVFastVertex2ShapeScaling@62@_N@Z 000000018003ac30 f   GuConvexUtilsInternal.obj
 0001:0003a0f0       ?computeVertexSpaceOBB@Gu@physx@@YAXAEAVBox@12@AEBV312@AEBVPxTransform@2@AEBVPxMeshScale@2@@Z 000000018003b0f0 f   GuConvexUtilsInternal.obj
 0001:0003a4b0       ?computeOBBAroundConvex@Gu@physx@@YAXAEAVBox@12@AEBVPxConvexMeshGeometry@2@PEBVPxConvexMesh@2@AEBVPxTransform@2@@Z 000000018003b4b0 f   GuConvexUtilsInternal.obj
 0001:0003adc0       ??Dphysx@@YA?AVMatrix34@Cm@0@AEBVPxMeshScale@0@AEBV120@@Z 000000018003bdc0 f i GuConvexUtilsInternal.obj
 0001:0003b390       ?transform@physx@@YA?AVBox@Gu@1@AEBVMatrix34@Cm@1@AEBV231@@Z 000000018003c390 f i GuConvexUtilsInternal.obj
 0001:0003b5e0       ?localSearch@physx@@YAXAEAIAEBVPxVec3@1@PEBV21@PEBUBigConvexRawData@Gu@1@@Z 000000018003c5e0 f   GuHillClimbing.obj
 0001:0003b710       ??0PolygonalBox@Gu@physx@@QEAA@AEBVPxVec3@2@@Z 000000018003c710 f   GuShapeConvex.obj
 0001:0003b8e0       ?getPolygonalData@PolygonalBox@Gu@physx@@QEBAXPEIAUPolygonalData@23@@Z 000000018003c8e0 f   GuShapeConvex.obj
 0001:0003b950       ?getPolygonalData_Convex@Gu@physx@@YAXPEIAUPolygonalData@12@PEIBUConvexHullData@12@AEBVFastVertex2ShapeScaling@Cm@2@@Z 000000018003c950 f   GuShapeConvex.obj
 0001:0003cdd0       ??0HullPolygonData@Gu@physx@@QEAA@XZ 000000018003ddd0 f i GuShapeConvex.obj
 0001:0003cde0       ?distancePointBoxSquared@Gu@physx@@YAMAEBVPxVec3@2@00AEBVPxMat33@2@PEAV32@@Z 000000018003dde0 f   GuDistancePointBox.obj
 0001:0003cf30       ?closestPtPointTriangle@Gu@physx@@YA?AVPxVec3@2@AEBV32@000AEAM1@Z 000000018003df30 f   GuDistancePointTriangle.obj
 0001:0003d450       ?distancePointTriangleSquared@Gu@physx@@YA?AT__m128@@AEBT3@000AEAT3@11@Z 000000018003e450 f   GuDistancePointTriangle.obj
 0001:0003d850       ?distanceSegmentBoxSquared@Gu@physx@@YAMAEBVPxVec3@2@000AEBVPxMat33@2@PEAMPEAV32@@Z 000000018003e850 f   GuDistanceSegmentBox.obj
 0001:0003ea20       ?distanceSegmentSegmentSquared@Gu@physx@@YAMAEBVPxVec3@2@0M00MPEAM1@Z 000000018003fa20 f   GuDistanceSegmentSegment.obj
 0001:0003f170       ?distanceSegmentSegmentSquared@Gu@physx@@YAMAEBVPxVec3@2@000PEAM1@Z 0000000180040170 f   GuDistanceSegmentSegment.obj
 0001:0003f410       ?distanceSegmentSegmentSquared@Gu@physx@@YA?AT__m128@@AEBT3@000AEAT3@1@Z 0000000180040410 f   GuDistanceSegmentSegment.obj
 0001:0003f5e0       ?distanceSegmentSegmentSquared4@Gu@physx@@YA?AT__m128@@AEBT3@000000000AEAT3@1@Z 00000001800405e0 f   GuDistanceSegmentSegment.obj
 0001:0003f8f0       ?distanceSegmentTriangleSquared@Gu@physx@@YAMAEBVPxVec3@2@0000PEAM11@Z 00000001800408f0 f   GuDistanceSegmentTriangle.obj
 0001:00040f70       ?distanceSegmentTriangleSquared@Gu@physx@@YA?AT__m128@@AEBT3@0000AEAT3@1@Z 0000000180041f70 f   GuDistanceSegmentTriangle.obj
 0001:000416b0       ?sweepBoxBox@Gu@physx@@YA_NAEBVBox@12@0AEBVPxVec3@2@MV?$PxFlags@W4Enum@PxHitFlag@physx@@G@2@AEAUPxSweepHit@2@@Z 00000001800426b0 f   GuSweepBoxBox.obj
 0001:00042cb0       ?sweepBoxSphere@Gu@physx@@YA_NAEBVBox@12@MAEBVPxVec3@2@1MAEAMAEAV42@V?$PxFlags@W4Enum@PxHitFlag@physx@@G@2@@Z 0000000180043cb0 f   GuSweepBoxSphere.obj
 0001:000437b0       ?sweepBoxTriangle@Gu@physx@@YA_NAEBVPxTriangle@2@AEBVPxBounds3@2@AEBVPxVec3@2@2AEAV52@3AEAM_N@Z 00000001800447b0 f   GuSweepBoxTriangle_FeatureBased.obj
 0001:00045080       ?triBoxSweepTestBoxSpace@Gu@physx@@YAHAEBVPxTriangle@2@AEBVPxVec3@2@11MAEAM_N@Z 0000000180046080 f   GuSweepBoxTriangle_SAT.obj
 0001:000459c0       ?sweepCapsuleBox@Gu@physx@@YA_NAEBVCapsule@12@AEBVPxTransform@2@AEBVPxVec3@2@2MAEAV52@AEAM3V?$PxFlags@W4Enum@PxHitFlag@physx@@G@2@@Z 00000001800469c0 f   GuSweepCapsuleBox.obj
 0001:00045d40       ??0PxTriangle@physx@@QEAA@XZ 0000000180046d40 f i GuSweepCapsuleBox.obj
 0001:00045d50       ??1PxTriangle@physx@@QEAA@XZ 0000000180046d50 f i GuSweepCapsuleBox.obj
 0001:00046d30       ?sweepCapsuleCapsule@Gu@physx@@YA_NAEBVCapsule@12@0AEBVPxVec3@2@MAEAMAEAV42@3IAEAG@Z 0000000180047d30 f   GuSweepCapsuleCapsule.obj
 0001:00047b40       ??0Capsule@Gu@physx@@QEAA@XZ 0000000180048b40 f i GuSweepCapsuleCapsule.obj
 0001:00047b50       ??1Capsule@Gu@physx@@QEAA@XZ 0000000180048b50 f i GuSweepCapsuleCapsule.obj
 0001:00047b60       ?distancePointSegmentSquared@Gu@physx@@YAMAEBVSegment@12@AEBVPxVec3@2@PEAM@Z 0000000180048b60 f i GuSweepCapsuleCapsule.obj
 0001:00047ee0       ?sweepCapsuleTriangles_Precise@Gu@physx@@YA_NIPEIBVPxTriangle@2@AEBVCapsule@12@AEBVPxVec3@2@MPEIBIAEAUPxSweepHit@2@AEAV52@V?$PxFlags@W4Enum@PxHitFlag@physx@@G@2@_NPEBVBoxPadded@12@@Z 0000000180048ee0 f   GuSweepCapsuleTriangle.obj
 0001:0004a050       ?sweepSphereCapsule@Gu@physx@@YA_NAEBVSphere@12@AEBVCapsule@12@AEBVPxVec3@2@MAEAMAEAV52@4V?$PxFlags@W4Enum@PxHitFlag@physx@@G@2@@Z 000000018004b050 f   GuSweepSphereCapsule.obj
 0001:0004a6f0       ?sweepSphereSphere@Gu@physx@@YA_NAEBVPxVec3@2@M0M0AEAMAEAV32@@Z 000000018004b6f0 f   GuSweepSphereSphere.obj
 0001:0004a960       ?sweepSphereVSTri@Gu@physx@@YA_NPEIBVPxVec3@2@AEBV32@1M1AEAMAEA_N_N@Z 000000018004b960 f   GuSweepSphereTriangle.obj
 0001:0004b840       ?sweepSphereVSQuad@Gu@physx@@YA_NPEIBVPxVec3@2@AEBV32@1M1AEAM@Z 000000018004c840 f   GuSweepSphereTriangle.obj
 0001:0004cda0       ?sweepSphereTriangles@Gu@physx@@YA_NIPEIBVPxTriangle@2@AEBVPxVec3@2@M1MPEIBIAEAUPxSweepHit@2@AEAV42@_N555@Z 000000018004dda0 f   GuSweepSphereTriangle.obj
 0001:0004d670       ?computeSphereTriImpactData@Gu@physx@@YAXAEAVPxVec3@2@0AEBV32@1MAEBVPxTriangle@2@@Z 000000018004e670 f   GuSweepTriangleUtils.obj
 0001:0004d910       ?computeBoxTriImpactData@Gu@physx@@YAXAEAVPxVec3@2@0AEBV32@1AEBVPxTriangle@2@M@Z 000000018004e910 f   GuSweepTriangleUtils.obj
 0001:0004dba0       ?computeEdgeEdgeNormal@Gu@physx@@YAXAEAVPxVec3@2@AEBV32@1111M@Z 000000018004eba0 f   GuSweepTriangleUtils.obj
 0001:0004de60       ??$gjk@U?$LocalConvex@VTriangleV@Gu@physx@@@Gu@physx@@U?$LocalConvex@VBoxV@Gu@physx@@@23@@Gu@physx@@YA?AW4GjkStatus@01@AEBU?$LocalConvex@VTriangleV@Gu@physx@@@01@AEBU?$LocalConvex@VBoxV@Gu@physx@@@01@AEBT__m128@@2AEAT5@333@Z 000000018004ee60 f i GuSweepTriangleUtils.obj
 0001:0004eb40       ??_E?$LocalConvex@VBoxV@Gu@physx@@@Gu@physx@@UEAAPEAXI@Z 000000018004fb40 f i GuSweepTriangleUtils.obj
 0001:0004eb40       ??_G?$LocalConvex@VBoxV@Gu@physx@@@Gu@physx@@UEAAPEAXI@Z 000000018004fb40 f i GuSweepTriangleUtils.obj
 0001:0004eb70       ??_E?$LocalConvex@VTriangleV@Gu@physx@@@Gu@physx@@UEAAPEAXI@Z 000000018004fb70 f i GuSweepTriangleUtils.obj
 0001:0004eb70       ??_G?$LocalConvex@VTriangleV@Gu@physx@@@Gu@physx@@UEAAPEAXI@Z 000000018004fb70 f i GuSweepTriangleUtils.obj
 0001:0004eba0       ?getCenter@?$LocalConvex@VBoxV@Gu@physx@@@Gu@physx@@UEBA?AT__m128@@XZ 000000018004fba0 f i GuSweepTriangleUtils.obj
 0001:0004ebb0       ?getCenter@?$LocalConvex@VTriangleV@Gu@physx@@@Gu@physx@@UEBA?AT__m128@@XZ 000000018004fbb0 f i GuSweepTriangleUtils.obj
 0001:0004ebc0       ?getSweepMargin@?$LocalConvex@VBoxV@Gu@physx@@@Gu@physx@@UEBA?AT__m128@@XZ 000000018004fbc0 f i GuSweepTriangleUtils.obj
 0001:0004ebe0       ?getSweepMargin@?$LocalConvex@VTriangleV@Gu@physx@@@Gu@physx@@UEBA?AT__m128@@XZ 000000018004fbe0 f i GuSweepTriangleUtils.obj
 0001:0004ee50       ?support@?$LocalConvex@VBoxV@Gu@physx@@@Gu@physx@@UEBA?AT__m128@@AEBT4@@Z 000000018004fe50 f i GuSweepTriangleUtils.obj
 0001:0004ee80       ?support@?$LocalConvex@VBoxV@Gu@physx@@@Gu@physx@@UEBA?AT__m128@@AEBT4@AEAHPEAT4@@Z 000000018004fe80 f i GuSweepTriangleUtils.obj
 0001:0004eec0       ?support@?$LocalConvex@VTriangleV@Gu@physx@@@Gu@physx@@UEBA?AT__m128@@AEBT4@@Z 000000018004fec0 f i GuSweepTriangleUtils.obj
 0001:0004ef50       ?support@?$LocalConvex@VTriangleV@Gu@physx@@@Gu@physx@@UEBA?AT__m128@@AEBT4@AEAHPEAT4@@Z 000000018004ff50 f i GuSweepTriangleUtils.obj
 0001:0004f030       ?supportPoint@?$LocalConvex@VBoxV@Gu@physx@@@Gu@physx@@UEBA?AT__m128@@HPEAT4@@Z 0000000180050030 f i GuSweepTriangleUtils.obj
 0001:0004f070       ?supportPoint@?$LocalConvex@VTriangleV@Gu@physx@@@Gu@physx@@UEBA?AT__m128@@HPEAT4@@Z 0000000180050070 f i GuSweepTriangleUtils.obj
 0001:0004f090       ?epaPenetration@Gu@physx@@YA?AW4GjkStatus@12@AEBUGjkConvex@12@0PEIAE1EAEAT__m128@@222_N@Z 0000000180050090 f   GuEPA.obj
 0001:0004ff80       ?isValid2@Facet@Gu@physx@@QEAA?AT__m128@@IIIPEIBT4@0AEBT4@@Z 0000000180050f80 f   GuEPA.obj
 0001:00050070       ?silhouette@Facet@Gu@physx@@QEAAXAEBT__m128@@PEIBT4@1AEAVEdgeBuffer@23@AEAV?$InlineDeferredIDPool@$0EA@@Cm@3@@Z 0000000180051070 f   GuEPA.obj
 0001:00050240       ?PenetrationDepth@EPA@Gu@physx@@QEAA?AW4GjkStatus@23@AEBUGjkConvex@23@0PEIBT__m128@@11HAEAT6@222_N@Z 0000000180051240 f   GuEPA.obj
 0001:00050d00       ?expandPoint@EPA@Gu@physx@@QEAA_NAEBUGjkConvex@23@0AEAHAEBT__m128@@@Z 0000000180051d00 f   GuEPA.obj
 0001:00050df0       ?expandSegment@EPA@Gu@physx@@QEAA_NAEBUGjkConvex@23@0AEAHAEBT__m128@@@Z 0000000180051df0 f   GuEPA.obj
 0001:00050f50       ?expandTriangle@EPA@Gu@physx@@QEAA_NAEAHAEBT__m128@@@Z 0000000180051f50 f   GuEPA.obj
 0001:00051000       ?addFacet@EPA@Gu@physx@@QEAAPEAVFacet@23@IIIAEBT__m128@@@Z 0000000180052000 f   GuEPA.obj
 0001:000511d0       ??0Edge@Gu@physx@@QEAA@XZ  00000001800521d0 f i GuEPA.obj
 0001:000511e0       ??0Facet@Gu@physx@@QEAA@XZ 00000001800521e0 f i GuEPA.obj
 0001:000514b0       ?closestPtPointTetrahedron@Gu@physx@@YA?AT__m128@@PEIAT3@00AEAI@Z 00000001800524b0 f   GuGJKSimplex.obj
 0001:00051c30       ?closestPtPointTetrahedron@Gu@physx@@YA?AT__m128@@PEIAT3@00PEIAH1AEAI@Z 0000000180052c30 f   GuGJKSimplex.obj
 0001:00053730       ?testGjk@Gu@physx@@YA?AW4GjkStatus@12@AEAUGjkConvex@12@0AEBT__m128@@1AEAT5@222@Z 0000000180054730 f   GuGJKTest.obj
 0001:00053740       ?testGjkPenetration@Gu@physx@@YA?AW4GjkStatus@12@AEAUGjkConvex@12@0AEBT__m128@@1AEAT5@222@Z 0000000180054740 f   GuGJKTest.obj
 0001:000537d0       ?testGjkPenetration@Gu@physx@@YA?AW4GjkStatus@12@AEAUGjkConvex@12@0AEBT__m128@@1AEAT5@222PEAE3E@Z 00000001800547d0 f   GuGJKTest.obj
 0001:00053860       ?testEpaPenetration@Gu@physx@@YA?AW4GjkStatus@12@AEAUGjkConvex@12@0AEAT__m128@@111@Z 0000000180054860 f   GuGJKTest.obj
 0001:000538d0       ?testEpaPenetration@Gu@physx@@YA?AW4GjkStatus@12@AEAUGjkConvex@12@0AEAT__m128@@111PEAE2E@Z 00000001800548d0 f   GuGJKTest.obj
 0001:00053950       ?testGjkRaycast@Gu@physx@@YA_NAEAUGjkConvex@12@0AEBT__m128@@111AEAT4@22M@Z 0000000180054950 f   GuGJKTest.obj
 0001:00053960       ??$gjk@UGjkConvex@Gu@physx@@U123@@Gu@physx@@YA?AW4GjkStatus@01@AEBUGjkConvex@01@0AEBT__m128@@1AEAT4@222@Z 0000000180054960 f i GuGJKTest.obj
 0001:00054580       ??$gjkPenetration@UGjkConvex@Gu@physx@@U123@@Gu@physx@@YA?AW4GjkStatus@01@AEBUGjkConvex@01@0AEBT__m128@@1AEAT4@222PEIAE3AEAE_N@Z 0000000180055580 f i GuGJKTest.obj
 0001:00055b60       ??$gjkRaycast@UGjkConvex@Gu@physx@@U123@@Gu@physx@@YA_NAEBUGjkConvex@01@0AEBT__m128@@111AEAT3@22M@Z 0000000180056b60 f i GuGJKTest.obj
 0001:000566f0       ?intersectOBBOBB@Gu@physx@@YA_NAEBVPxVec3@2@0AEBVPxMat33@2@001_N@Z 00000001800576f0 f   GuIntersectionBoxBox.obj
 0001:00056d40       ?intersectCapsuleTriangle@Gu@physx@@YA_NAEBVPxVec3@2@000AEBVCapsule@12@AEBUCapsuleTriangleOverlapData@12@@Z 0000000180057d40 f   GuIntersectionCapsuleTriangle.obj
 0001:00057930       ?intersectEdgeEdge@Gu@physx@@YA_NAEBVPxVec3@2@0000AEAMAEAV32@@Z 0000000180058930 f   GuIntersectionEdgeEdge.obj
 0001:00057c50       ?rayAABBIntersect@Gu@physx@@YA_NAEBVPxVec3@2@000AEAV32@@Z 0000000180058c50 f   GuIntersectionRayBox.obj
 0001:00057e50       ?rayAABBIntersect2@Gu@physx@@YAIAEBVPxVec3@2@000AEAV32@AEAM@Z 0000000180058e50 f   GuIntersectionRayBox.obj
 0001:00058060       ?intersectRayAABB@Gu@physx@@YAHAEBVPxVec3@2@000AEAM1@Z 0000000180059060 f   GuIntersectionRayBox.obj
 0001:00058180       ?intersectRayAABB@Gu@physx@@YAHAEBVPxVec3@2@0000AEAM1@Z 0000000180059180 f   GuIntersectionRayBox.obj
 0001:00058370       ?intersectRayAABB2@Gu@physx@@YA_NAEBVPxVec3@2@000MAEAM1@Z 0000000180059370 f   GuIntersectionRayBox.obj
 0001:00058520       ?intersectRayAABB2@Gu@physx@@YA_NAEBT__m128@@0000AEAT3@1@Z 0000000180059520 f   GuIntersectionRayBox.obj
 0001:000585e0       ?intersectRayCapsuleInternal@Gu@physx@@YAIAEBVPxVec3@2@000MQEAM@Z 00000001800595e0 f   GuIntersectionRayCapsule.obj
 0001:00058e60       ?intersectRaySphereBasic@Gu@physx@@YA_NAEBVPxVec3@2@0M0MAEAMPEAV32@@Z 0000000180059e60 f   GuIntersectionRaySphere.obj
 0001:00058fc0       ?intersectRaySphere@Gu@physx@@YA_NAEBVPxVec3@2@0M0MAEAMPEAV32@@Z 0000000180059fc0 f   GuIntersectionRaySphere.obj
 0001:00059200       ?intersectSphereBox@Gu@physx@@YA_NAEBVSphere@12@AEBVBox@12@@Z 000000018005a200 f   GuIntersectionSphereBox.obj
 0001:00059430       ?intersectTriangleBox_ReferenceCode@Gu@physx@@YAHAEBVPxVec3@2@0000@Z 000000018005a430 f   GuIntersectionTriangleBox.obj
 0001:00059c10       ?intersectTriangleBox_Unsafe@Gu@physx@@YAHAEBVPxVec3@2@0000@Z 000000018005ac10 f   GuIntersectionTriangleBox.obj
 0001:00059ff0       ?intersectTriangleBox@Gu@physx@@YAHAEBVBoxPadded@12@AEBVPxVec3@2@11@Z 000000018005aff0 f   GuIntersectionTriangleBox.obj
 0001:0005a5d0       ?intersectTriangleBoxBV4@@YAHAEBVPxVec3@physx@@00AEBVPxMat33@2@00@Z 000000018005b5d0 f   GuIntersectionTriangleBox.obj
 0001:0005aa10       ??0BV32Tree@Gu@physx@@QEAA@W4PxEMPTY@2@@Z 000000018005ba10 f   GuBV32.obj
 0001:0005aa30       ?exportExtraData@BV32Tree@Gu@physx@@QEAAXAEAVPxSerializationContext@3@@Z 000000018005ba30 f   GuBV32.obj
 0001:0005aa80       ?importExtraData@BV32Tree@Gu@physx@@QEAAXAEAVPxDeserializationContext@3@@Z 000000018005ba80 f   GuBV32.obj
 0001:0005aab0       ??0BV32Tree@Gu@physx@@QEAA@XZ 000000018005bab0 f   GuBV32.obj
 0001:0005aae0       ??0BV32Tree@Gu@physx@@QEAA@PEAVSourceMesh@12@AEBVPxBounds3@2@@Z 000000018005bae0 f   GuBV32.obj
 0001:0005aba0       ??1BV32Tree@Gu@physx@@QEAA@XZ 000000018005bba0 f   GuBV32.obj
 0001:0005abb0       ?load@BV32Tree@Gu@physx@@QEAA_NAEAVPxInputStream@3@_N@Z 000000018005bbb0 f   GuBV32.obj
 0001:0005add0       ?calculateLeafNode@BV32Tree@Gu@physx@@QEAAXAEAUBV32Data@23@@Z 000000018005bdd0 f   GuBV32.obj
 0001:0005b000       ?createSOAformatNode@BV32Tree@Gu@physx@@QEAAXAEAUBV32DataPacked@23@AEBUBV32Data@23@IAEAI2@Z 000000018005c000 f   GuBV32.obj
 0001:0005b450       ?reset@BV32Tree@Gu@physx@@QEAAXXZ 000000018005c450 f   GuBV32.obj
 0001:0005b470       ??4BV32Tree@Gu@physx@@QEAAXAEAV012@@Z 000000018005c470 f   GuBV32.obj
 0001:0005b4d0       ?init@BV32Tree@Gu@physx@@QEAA_NPEAVSourceMesh@23@AEBVPxBounds3@3@@Z 000000018005c4d0 f   GuBV32.obj
 0001:0005b570       ?release@BV32Tree@Gu@physx@@QEAAXXZ 000000018005c570 f   GuBV32.obj
 0001:0005b600       ?BuildBV32Ex@Gu@physx@@YA_NAEAVBV32Tree@12@AEAVSourceMesh@12@MI@Z 000000018005c600 f   GuBV32Build.obj
 0001:0005b7c0       ??0BV32Data@Gu@physx@@QEAA@XZ 000000018005c7c0 f i GuBV32Build.obj
 0001:0005b7f0       ??0BV32Node@@QEAA@XZ       000000018005c7f0 f i GuBV32Build.obj
 0001:0005c870       ??0SourceMesh@Gu@physx@@QEAA@XZ 000000018005d870 f   GuBV4.obj
 0001:0005c8a0       ??1SourceMesh@Gu@physx@@QEAA@XZ 000000018005d8a0 f   GuBV4.obj
 0001:0005c900       ?reset@SourceMesh@Gu@physx@@QEAAXXZ 000000018005d900 f   GuBV4.obj
 0001:0005c920       ??4SourceMesh@Gu@physx@@QEAAXAEAV012@@Z 000000018005d920 f   GuBV4.obj
 0001:0005c970       ?remapTopology@SourceMesh@Gu@physx@@QEAAXPEBI@Z 000000018005d970 f   GuBV4.obj
 0001:0005cc40       ?isValid@SourceMesh@Gu@physx@@QEBA_NXZ 000000018005dc40 f   GuBV4.obj
 0001:0005cc70       ??0BV4Tree@Gu@physx@@QEAA@W4PxEMPTY@2@@Z 000000018005dc70 f   GuBV4.obj
 0001:0005cc80       ?exportExtraData@BV4Tree@Gu@physx@@QEAAXAEAVPxSerializationContext@3@@Z 000000018005dc80 f   GuBV4.obj
 0001:0005ccd0       ?importExtraData@BV4Tree@Gu@physx@@QEAAXAEAVPxDeserializationContext@3@@Z 000000018005dcd0 f   GuBV4.obj
 0001:0005cd00       ??0BV4Tree@Gu@physx@@QEAA@XZ 000000018005dd00 f   GuBV4.obj
 0001:0005cd30       ??0BV4Tree@Gu@physx@@QEAA@PEAVSourceMesh@12@AEBVPxBounds3@2@@Z 000000018005dd30 f   GuBV4.obj
 0001:0005ce00       ??1BV4Tree@Gu@physx@@QEAA@XZ 000000018005de00 f   GuBV4.obj
 0001:0005ce60       ?load@BV4Tree@Gu@physx@@QEAA_NAEAVPxInputStream@3@_N@Z 000000018005de60 f   GuBV4.obj
 0001:0005d0e0       ?reset@BV4Tree@Gu@physx@@QEAAXXZ 000000018005e0e0 f   GuBV4.obj
 0001:0005d110       ??4BV4Tree@Gu@physx@@QEAAXAEAV012@@Z 000000018005e110 f   GuBV4.obj
 0001:0005d1a0       ?init@BV4Tree@Gu@physx@@QEAA_NPEAVSourceMesh@23@AEBVPxBounds3@3@@Z 000000018005e1a0 f   GuBV4.obj
 0001:0005d240       ?release@BV4Tree@Gu@physx@@QEAAXXZ 000000018005e240 f   GuBV4.obj
 0001:0005d2a0       ??0IndTri16@Gu@physx@@QEAA@XZ 000000018005e2a0 f i GuBV4.obj
 0001:0005d2b0       ??0IndTri32@Gu@physx@@QEAA@XZ 000000018005e2b0 f i GuBV4.obj
 0001:0005d2c0       ??1IndTri16@Gu@physx@@QEAA@XZ 000000018005e2c0 f i GuBV4.obj
 0001:0005d2d0       ??1IndTri32@Gu@physx@@QEAA@XZ 000000018005e2d0 f i GuBV4.obj
 0001:0005d2e0       ??_EIndTri16@Gu@physx@@QEAAPEAXI@Z 000000018005e2e0 f i GuBV4.obj
 0001:0005d360       ??_EIndTri32@Gu@physx@@QEAAPEAXI@Z 000000018005e360 f i GuBV4.obj
 0001:0005d3e0       ??0AABBTree@Gu@physx@@QEAA@XZ 000000018005e3e0 f   GuBV4Build.obj
 0001:0005d400       ??1AABBTree@Gu@physx@@QEAA@XZ 000000018005e400 f   GuBV4Build.obj
 0001:0005d410       ?buildFromMesh@AABBTree@Gu@physx@@QEAA_NAEAVSourceMesh@23@I@Z 000000018005e410 f   GuBV4Build.obj
 0001:0005d840       ?release@AABBTree@Gu@physx@@QEAAXXZ 000000018005e840 f   GuBV4Build.obj
 0001:0005d8f0       ?walk@AABBTree@Gu@physx@@QEBAIP6A_NPEBVAABBTreeNode@23@IPEAX@Z1@Z 000000018005e8f0 f   GuBV4Build.obj
 0001:0005d9b0       ?BuildBV4Ex@Gu@physx@@YA_NAEAVBV4Tree@12@AEAVSourceMesh@12@MI@Z 000000018005e9b0 f   GuBV4Build.obj
 0001:0005dc50       ??0BVData@@QEAA@XZ         000000018005ec50 f   GuBV4Build.obj
 0001:0005dc90       ??1BV4BuildParams@@QEAA@XZ 000000018005ec90 f   GuBV4Build.obj
 0001:0005dca0       ?allocateNode@BV4BuildParams@@QEAAPEAUBV4Node@@XZ 000000018005eca0 f   GuBV4Build.obj
 0001:0005ddc0       ?releaseNodes@BV4BuildParams@@QEAAXXZ 000000018005edc0 f   GuBV4Build.obj
 0001:0005de80       ??0AABBTreeNode@Gu@physx@@QEAA@XZ 000000018005ee80 f i GuBV4Build.obj
 0001:0005dea0       ??0BV4Node@@QEAA@XZ        000000018005eea0 f i GuBV4Build.obj
 0001:0005df50       ??1AABBTreeNode@Gu@physx@@QEAA@XZ 000000018005ef50 f i GuBV4Build.obj
 0001:0005df60       ??1BV4Node@@QEAA@XZ        000000018005ef60 f i GuBV4Build.obj
 0001:0005df70       ??1BVData@@QEAA@XZ         000000018005ef70 f i GuBV4Build.obj
 0001:0005df80       ??_EAABBTreeNode@Gu@physx@@QEAAPEAXI@Z 000000018005ef80 f i GuBV4Build.obj
 0001:0005fbf0       ?Sweep_AABB_BV4@@YAHAEBVBox@Gu@physx@@AEBVPxVec3@3@MAEBVBV4Tree@23@PEIAVSweepHit@23@I@Z 0000000180060bf0 f   GuBV4_AABBSweep.obj
 0001:00060130       ?Sweep_AABB_BV4_CB@@YAXAEBVBox@Gu@physx@@AEBVPxVec3@3@MAEBVBV4Tree@23@PEIBVPxMat44@3@P6A_NPEAXAEBVSweepHit@23@@Z4I_N@Z 0000000180061130 f   GuBV4_AABBSweep.obj
 0001:000602d0       ?GenericSweep_AABB_CB@@YAXAEBVBox@Gu@physx@@AEBVPxVec3@3@MAEBVBV4Tree@23@P6A_NPEAX111IAEAM@Z3I@Z 00000001800612d0 f   GuBV4_AABBSweep.obj
 0001:00067180       ?transform@PxMat44@physx@@QEBA?BVPxVec4@2@AEBV32@@Z 0000000180068180 f i GuBV4_AABBSweep.obj
 0001:00067ec0       ?BV4_OverlapBoxAny@@YAHAEBVBox@Gu@physx@@AEBVBV4Tree@23@PEIBVPxMat44@3@@Z 0000000180068ec0 f   GuBV4_BoxOverlap.obj
 0001:000686b0       ?BV4_OverlapBoxAll@@YAIAEBVBox@Gu@physx@@AEBVBV4Tree@23@PEIBVPxMat44@3@PEAIIAEA_N@Z 00000001800696b0 f   GuBV4_BoxOverlap.obj
 0001:00068ef0       ?BV4_OverlapBoxCB@@YAXAEBVBox@Gu@physx@@AEBVBV4Tree@23@P6A_NPEAXAEBVPxVec3@3@33IPEBI@Z2@Z 0000000180069ef0 f   GuBV4_BoxOverlap.obj
 0001:000693b0       ?BV4_OverlapCapsuleAny@@YAHAEBVCapsule@Gu@physx@@AEBVBV4Tree@23@PEIBVPxMat44@3@@Z 000000018006a3b0 f   GuBV4_BoxOverlap.obj
 0001:00069a60       ?BV4_OverlapCapsuleAll@@YAIAEBVCapsule@Gu@physx@@AEBVBV4Tree@23@PEIBVPxMat44@3@PEAIIAEA_N@Z 000000018006aa60 f   GuBV4_BoxOverlap.obj
 0001:0006a170       ?BV4_OverlapCapsuleCB@@YAXAEBVCapsule@Gu@physx@@AEBVBV4Tree@23@PEIBVPxMat44@3@P6A_NPEAXAEBVPxVec3@3@44IPEBI@Z3@Z 000000018006b170 f   GuBV4_BoxOverlap.obj
 0001:0006e8d0       ?BV4_CapsuleSweepSingle@@YAHAEBVCapsule@Gu@physx@@AEBVPxVec3@3@MAEBVBV4Tree@23@PEIAVSweepHit@23@I@Z 000000018006f8d0 f   GuBV4_CapsuleSweep.obj
 0001:0006ef10       ?BV4_CapsuleSweepCB@@YAXAEBVCapsule@Gu@physx@@AEBVPxVec3@3@MAEBVBV4Tree@23@PEIBVPxMat44@3@P6A_NPEAXAEBVSweepHit@23@@Z4I_N@Z 000000018006ff10 f   GuBV4_CapsuleSweep.obj
 0001:00074b00       ?computeBasis@shdfnd@physx@@YAXAEBVPxVec3@2@0AEAV32@11@Z 0000000180075b00 f i GuBV4_CapsuleSweep.obj
 0001:000761b0       ?transform@PxMat44@physx@@QEBA?BVPxVec3@2@AEBV32@@Z 00000001800771b0 f i GuBV4_CapsuleSweep.obj
 0001:00076fc0       ?BV4_CapsuleSweepSingleAA@@YAHAEBVCapsule@Gu@physx@@AEBVPxVec3@3@MAEBVBV4Tree@23@PEIAVSweepHit@23@I@Z 0000000180077fc0 f   GuBV4_CapsuleSweepAA.obj
 0001:0007a050       ?Sweep_OBB_BV4@@YAHAEBVBox@Gu@physx@@AEBVPxVec3@3@MAEBVBV4Tree@23@PEIAVSweepHit@23@I@Z 000000018007b050 f   GuBV4_OBBSweep.obj
 0001:0007a580       ?Sweep_OBB_BV4_CB@@YAXAEBVBox@Gu@physx@@AEBVPxVec3@3@MAEBVBV4Tree@23@PEIBVPxMat44@3@P6A_NPEAXAEBVSweepHit@23@@Z4I_N@Z 000000018007b580 f   GuBV4_OBBSweep.obj
 0001:0007a710       ?GenericSweep_OBB_CB@@YAXAEBVBox@Gu@physx@@AEBVPxVec3@3@MAEBVBV4Tree@23@P6A_NPEAX111IAEAM@Z3I@Z 000000018007b710 f   GuBV4_OBBSweep.obj
 0001:0007a820       ?BV4_BoxSweepSingle@@YAHAEBVBox@Gu@physx@@AEBVPxVec3@3@MAEBVBV4Tree@23@PEIBVPxMat44@3@PEIAVSweepHit@23@I@Z 000000018007b820 f   GuBV4_OBBSweep.obj
 0001:0007af50       ?BV4_BoxSweepCB@@YAXAEBVBox@Gu@physx@@AEBVPxVec3@3@MAEBVBV4Tree@23@PEIBVPxMat44@3@P6A_NPEAXAEBVSweepHit@23@@Z4I_N@Z 000000018007bf50 f   GuBV4_OBBSweep.obj
 0001:0007b7f0       ?BV4_GenericSweepCB@@YAXAEBVBox@Gu@physx@@AEBVPxVec3@3@MAEBVBV4Tree@23@P6A_NPEAX111IAEAM@Z3_N@Z 000000018007c7f0 f   GuBV4_OBBSweep.obj
 0001:00082c90       ??DPxMat33@physx@@QEBA?BVPxVec3@1@AEBV21@@Z 0000000180083c90 f i GuBV4_OBBSweep.obj
 0001:00084570       ?BV4_RaycastSingle@@YAHAEBVPxVec3@physx@@0AEBVBV4Tree@Gu@2@PEIBVPxMat44@2@PEIAUPxRaycastHit@2@MMIV?$PxFlags@W4Enum@PxHitFlag@physx@@G@2@@Z 0000000180085570 f   GuBV4_Raycast.obj
 0001:00084ae0       ?BV4_RaycastCB@@YAXAEBVPxVec3@physx@@0AEBVBV4Tree@Gu@2@PEIBVPxMat44@2@MMIP6A?AW4HitCode@42@PEAX000IMMM@Z3@Z 0000000180085ae0 f   GuBV4_Raycast.obj
 0001:00084f10       ?BV4_RaycastAll@@YAIAEBVPxVec3@physx@@0AEBVBV4Tree@Gu@2@PEIBVPxMat44@2@PEIAUPxRaycastHit@2@IMMIV?$PxFlags@W4Enum@PxHitFlag@physx@@G@2@@Z 0000000180085f10 f   GuBV4_Raycast.obj
 0001:00087880       ?BV4_OverlapSphereAny@@YAHAEBVSphere@Gu@physx@@AEBVBV4Tree@23@PEIBVPxMat44@3@@Z 0000000180088880 f   GuBV4_SphereOverlap.obj
 0001:00087b40       ?BV4_OverlapSphereAll@@YAIAEBVSphere@Gu@physx@@AEBVBV4Tree@23@PEIBVPxMat44@3@PEAIIAEA_N@Z 0000000180088b40 f   GuBV4_SphereOverlap.obj
 0001:00087e60       ?BV4_OverlapSphereCB@@YAXAEBVSphere@Gu@physx@@AEBVBV4Tree@23@PEIBVPxMat44@3@P6A_NPEAXAEBVPxVec3@3@44IPEBI@Z3@Z 0000000180088e60 f   GuBV4_SphereOverlap.obj
 0001:0008af20       ?BV4_SphereSweepSingle@@YAHAEBVSphere@Gu@physx@@AEBVPxVec3@3@MAEBVBV4Tree@23@PEIBVPxMat44@3@PEIAVSweepHit@23@I@Z 000000018008bf20 f   GuBV4_SphereSweep.obj
 0001:0008b5f0       ?BV4_SphereSweepCB@@YAXAEBVSphere@Gu@physx@@AEBVPxVec3@3@MAEBVBV4Tree@23@PEIBVPxMat44@3@P6A_NPEAXAEBVSweepHit@23@@Z4I_N@Z 000000018008c5f0 f   GuBV4_SphereSweep.obj
 0001:0008b9d0       ?BV4_GenericSweepCB_Old@@YAXAEBVPxVec3@physx@@00MAEBVBV4Tree@Gu@2@PEIBVPxMat44@2@P6A_NPEAX000IAEAM@Z3@Z 000000018008c9d0 f   GuBV4_SphereSweep.obj
 0001:000906b0       ?getTriangle@PxMeshQuery@physx@@SAXAEBVPxTriangleMeshGeometry@2@AEBVPxTransform@2@IAEAVPxTriangle@2@PEAI3@Z 00000001800916b0 f   GuMeshQuery.obj
 0001:00090a70       ?getTriangle@PxMeshQuery@physx@@SAXAEBVPxHeightFieldGeometry@2@AEBVPxTransform@2@IAEAVPxTriangle@2@PEAI3@Z 0000000180091a70 f   GuMeshQuery.obj
 0001:00090af0       ?findOverlapTriangleMesh@PxMeshQuery@physx@@SAIAEBVPxGeometry@2@AEBVPxTransform@2@AEBVPxTriangleMeshGeometry@2@1PEAIIIAEA_N@Z 0000000180091af0 f   GuMeshQuery.obj
 0001:00090de0       ?findOverlapHeightField@PxMeshQuery@physx@@SAIAEBVPxGeometry@2@AEBVPxTransform@2@AEBVPxHeightFieldGeometry@2@1PEAIIIAEA_N@Z 0000000180091de0 f   GuMeshQuery.obj
 0001:000914a0       ?sweep@PxMeshQuery@physx@@SA_NAEBVPxVec3@2@MAEBVPxGeometry@2@AEBVPxTransform@2@IPEBVPxTriangle@2@AEAUPxSweepHit@2@V?$PxFlags@W4Enum@PxHitFlag@physx@@G@2@PEBIM_N@Z 00000001800924a0 f   GuMeshQuery.obj
 0001:00091730       ?intersectOBB_Particles@Gu@physx@@YAXPEBVTriangleMesh@12@AEBVBox@12@AEAU?$MeshHitCallback@UPxRaycastHit@physx@@@12@_N3@Z 0000000180092730 f   GuMeshQuery.obj
 0001:000918d0       ??Dphysx@@YA?AVMatrix34@Cm@0@AEBVPxTransform@0@AEBVPxMeshScale@0@@Z 00000001800928d0 f i GuMeshQuery.obj
 0001:00091f20       ?raycast_triangleMesh_BV4@Gu@physx@@YAIPEBVTriangleMesh@12@AEBVPxTriangleMeshGeometry@2@AEBVPxTransform@2@AEBVPxVec3@2@3MV?$PxFlags@W4Enum@PxHitFlag@physx@@G@2@IPEIAUPxRaycastHit@2@@Z 0000000180092f20 f   GuMidphaseBV4.obj
 0001:00092d10       ?intersectSphereVsMesh_BV4@Gu@physx@@YA_NAEBVSphere@12@AEBVTriangleMesh@12@AEBVPxTransform@2@AEBVPxMeshScale@2@PEAULimitedResults@12@@Z 0000000180093d10 f   GuMidphaseBV4.obj
 0001:00093490       ?intersectBoxVsMesh_BV4@Gu@physx@@YA_NAEBVBox@12@AEBVTriangleMesh@12@AEBVPxTransform@2@AEBVPxMeshScale@2@PEAULimitedResults@12@@Z 0000000180094490 f   GuMidphaseBV4.obj
 0001:00093fc0       ?intersectCapsuleVsMesh_BV4@Gu@physx@@YA_NAEBVCapsule@12@AEBVTriangleMesh@12@AEBVPxTransform@2@AEBVPxMeshScale@2@PEAULimitedResults@12@@Z 0000000180094fc0 f   GuMidphaseBV4.obj
 0001:00094840       ?intersectOBB_BV4@Gu@physx@@YAXPEBVTriangleMesh@12@AEBVBox@12@AEAU?$MeshHitCallback@UPxRaycastHit@physx@@@12@_N3@Z 0000000180095840 f   GuMidphaseBV4.obj
 0001:00094870       ?sweepCapsule_MeshGeom_BV4@Gu@physx@@YA_NPEBVTriangleMesh@12@AEBVPxTriangleMeshGeometry@2@AEBVPxTransform@2@AEBVCapsule@12@AEBVPxVec3@2@MAEAUPxSweepHit@2@V?$PxFlags@W4Enum@PxHitFlag@physx@@G@2@M@Z 0000000180095870 f   GuMidphaseBV4.obj
 0001:00095380       ?sweepBox_MeshGeom_BV4@Gu@physx@@YA_NPEBVTriangleMesh@12@AEBVPxTriangleMeshGeometry@2@AEBVPxTransform@2@AEBVBox@12@AEBVPxVec3@2@MAEAUPxSweepHit@2@V?$PxFlags@W4Enum@PxHitFlag@physx@@G@2@M@Z 0000000180096380 f   GuMidphaseBV4.obj
 0001:00096aa0       ?sweepConvex_MeshGeom_BV4@Gu@physx@@YAXPEBVTriangleMesh@12@AEBVBox@12@AEBVPxVec3@2@MAEAUSweepConvexMeshHitCallback@12@_N@Z 0000000180097aa0 f   GuMidphaseBV4.obj
 0001:00097c10       ??0PxVec4@physx@@QEAA@XZ   0000000180098c10 f i GuMidphaseBV4.obj
 0001:00097c20       ??1SweepBoxMeshHitCallback@Gu@physx@@UEAA@XZ 0000000180098c20 f i GuMidphaseBV4.obj
 0001:00098430       ?computeSweepData@physx@@YAMAEBVPxTriangleMeshGeometry@1@AEAVPxVec3@1@11M@Z 0000000180099430 f i GuMidphaseBV4.obj
 0001:000987c0       ?transform@PxMeshScale@physx@@QEBA?AVPxVec3@2@AEBV32@@Z 00000001800997c0 f i GuMidphaseBV4.obj
 0001:00098a00       ?raycast_triangleMesh_RTREE@Gu@physx@@YAIPEBVTriangleMesh@12@AEBVPxTriangleMeshGeometry@2@AEBVPxTransform@2@AEBVPxVec3@2@3MV?$PxFlags@W4Enum@PxHitFlag@physx@@G@2@IPEIAUPxRaycastHit@2@@Z 0000000180099a00 f   GuMidphaseRTree.obj
 0001:000991a0       ?intersectSphereVsMesh_RTREE@Gu@physx@@YA_NAEBVSphere@12@AEBVTriangleMesh@12@AEBVPxTransform@2@AEBVPxMeshScale@2@PEAULimitedResults@12@@Z 000000018009a1a0 f   GuMidphaseRTree.obj
 0001:000991d0       ?intersectBoxVsMesh_RTREE@Gu@physx@@YA_NAEBVBox@12@AEBVTriangleMesh@12@AEBVPxTransform@2@AEBVPxMeshScale@2@PEAULimitedResults@12@@Z 000000018009a1d0 f   GuMidphaseRTree.obj
 0001:00099250       ?intersectCapsuleVsMesh_RTREE@Gu@physx@@YA_NAEBVCapsule@12@AEBVTriangleMesh@12@AEBVPxTransform@2@AEBVPxMeshScale@2@PEAULimitedResults@12@@Z 000000018009a250 f   GuMidphaseRTree.obj
 0001:000992d0       ?intersectOBB_RTREE@Gu@physx@@YAXPEBVTriangleMesh@12@AEBVBox@12@AEAU?$MeshHitCallback@UPxRaycastHit@physx@@@12@_N3@Z 000000018009a2d0 f   GuMidphaseRTree.obj
 0001:00099300       ?sweepCapsule_MeshGeom_RTREE@Gu@physx@@YA_NPEBVTriangleMesh@12@AEBVPxTriangleMeshGeometry@2@AEBVPxTransform@2@AEBVCapsule@12@AEBVPxVec3@2@MAEAUPxSweepHit@2@V?$PxFlags@W4Enum@PxHitFlag@physx@@G@2@M@Z 000000018009a300 f   GuMidphaseRTree.obj
 0001:00099b00       ?sweepBox_MeshGeom_RTREE@Gu@physx@@YA_NPEBVTriangleMesh@12@AEBVPxTriangleMeshGeometry@2@AEBVPxTransform@2@AEBVBox@12@AEBVPxVec3@2@MAEAUPxSweepHit@2@V?$PxFlags@W4Enum@PxHitFlag@physx@@G@2@M@Z 000000018009ab00 f   GuMidphaseRTree.obj
 0001:0009afe0       ?sweepConvex_MeshGeom_RTREE@Gu@physx@@YAXPEBVTriangleMesh@12@AEBVBox@12@AEBVPxVec3@2@MAEAUSweepConvexMeshHitCallback@12@_N@Z 000000018009bfe0 f   GuMidphaseRTree.obj
 0001:0009b040       ?collideOBB@MeshRayCollider@@SAXAEBVBox@Gu@physx@@_NPEBVRTreeTriangleMesh@34@AEAU?$MeshHitCallback@UPxRaycastHit@physx@@@34@1@Z 000000018009c040 f   GuMidphaseRTree.obj
 0001:0009c3e0       ??$collide@$00$00@MeshRayCollider@@SAXAEBVPxVec3@physx@@0M_NPEBVRTreeTriangleMesh@Gu@2@AEAU?$MeshHitCallback@UPxRaycastHit@physx@@@42@PEBV12@@Z 000000018009d3e0 f i GuMidphaseRTree.obj
 0001:0009c760       ??$collide@$00$0A@@MeshRayCollider@@SAXAEBVPxVec3@physx@@0M_NPEBVRTreeTriangleMesh@Gu@2@AEAU?$MeshHitCallback@UPxRaycastHit@physx@@@42@PEBV12@@Z 000000018009d760 f i GuMidphaseRTree.obj
 0001:0009c9a0       ??$collide@$0A@$00@MeshRayCollider@@SAXAEBVPxVec3@physx@@0M_NPEBVRTreeTriangleMesh@Gu@2@AEAU?$MeshHitCallback@UPxRaycastHit@physx@@@42@PEBV12@@Z 000000018009d9a0 f i GuMidphaseRTree.obj
 0001:0009cd30       ??$collide@$0A@$0A@@MeshRayCollider@@SAXAEBVPxVec3@physx@@0M_NPEBVRTreeTriangleMesh@Gu@2@AEAU?$MeshHitCallback@UPxRaycastHit@physx@@@42@PEBV12@@Z 000000018009dd30 f i GuMidphaseRTree.obj
 0001:0009f110       ??0?$RayRTreeCallback@$00$0A@@@QEAA@MAEAU?$MeshHitCallback@UPxRaycastHit@physx@@@Gu@physx@@HPEBXPEBVPxVec3@3@AEBV43@3M_N2@Z 00000001800a0110 f i GuMidphaseRTree.obj
 0001:0009f240       ??1?$RayRTreeCallback@$00$00@@UEAA@XZ 00000001800a0240 f i GuMidphaseRTree.obj
 0001:0009f2d0       ??1?$RayRTreeCallback@$00$0A@@@UEAA@XZ 00000001800a02d0 f i GuMidphaseRTree.obj
 0001:0009f360       ??1?$RayRTreeCallback@$0A@$00@@UEAA@XZ 00000001800a0360 f i GuMidphaseRTree.obj
 0001:0009f3f0       ??1?$RayRTreeCallback@$0A@$0A@@@UEAA@XZ 00000001800a03f0 f i GuMidphaseRTree.obj
 0001:0009f480       ??1Callback@RTree@Gu@physx@@UEAA@XZ 00000001800a0480 f i GuMidphaseRTree.obj
 0001:0009f490       ??1CallbackRaycast@RTree@Gu@physx@@UEAA@XZ 00000001800a0490 f i GuMidphaseRTree.obj
 0001:0009f49c       ??_E?$RayRTreeCallback@$00$00@@W7EAAPEAXI@Z 00000001800a049c f i GuMidphaseRTree.obj
 0001:0009f4a8       ??_E?$RayRTreeCallback@$00$0A@@@W7EAAPEAXI@Z 00000001800a04a8 f i GuMidphaseRTree.obj
 0001:0009f4b4       ??_E?$RayRTreeCallback@$0A@$00@@W7EAAPEAXI@Z 00000001800a04b4 f i GuMidphaseRTree.obj
 0001:0009f4c0       ??_E?$RayRTreeCallback@$0A@$0A@@@W7EAAPEAXI@Z 00000001800a04c0 f i GuMidphaseRTree.obj
 0001:0009f4d0       ??_E?$RayRTreeCallback@$00$00@@UEAAPEAXI@Z 00000001800a04d0 f i GuMidphaseRTree.obj
 0001:0009f4d0       ??_G?$RayRTreeCallback@$00$00@@UEAAPEAXI@Z 00000001800a04d0 f i GuMidphaseRTree.obj
 0001:0009f510       ??_E?$RayRTreeCallback@$00$0A@@@UEAAPEAXI@Z 00000001800a0510 f i GuMidphaseRTree.obj
 0001:0009f510       ??_G?$RayRTreeCallback@$00$0A@@@UEAAPEAXI@Z 00000001800a0510 f i GuMidphaseRTree.obj
 0001:0009f550       ??_E?$RayRTreeCallback@$0A@$00@@UEAAPEAXI@Z 00000001800a0550 f i GuMidphaseRTree.obj
 0001:0009f550       ??_G?$RayRTreeCallback@$0A@$00@@UEAAPEAXI@Z 00000001800a0550 f i GuMidphaseRTree.obj
 0001:0009f590       ??_E?$RayRTreeCallback@$0A@$0A@@@UEAAPEAXI@Z 00000001800a0590 f i GuMidphaseRTree.obj
 0001:0009f590       ??_G?$RayRTreeCallback@$0A@$0A@@@UEAAPEAXI@Z 00000001800a0590 f i GuMidphaseRTree.obj
 0001:0009f5d0       ??_ECallback@RTree@Gu@physx@@UEAAPEAXI@Z 00000001800a05d0 f i GuMidphaseRTree.obj
 0001:0009f5d0       ??_GCallback@RTree@Gu@physx@@UEAAPEAXI@Z 00000001800a05d0 f i GuMidphaseRTree.obj
 0001:0009f600       ??_ECallbackRaycast@RTree@Gu@physx@@UEAAPEAXI@Z 00000001800a0600 f i GuMidphaseRTree.obj
 0001:0009f600       ??_GCallbackRaycast@RTree@Gu@physx@@UEAAPEAXI@Z 00000001800a0600 f i GuMidphaseRTree.obj
 0001:0009f630       ??_ERayMeshColliderCallback@@UEAAPEAXI@Z 00000001800a0630 f i GuMidphaseRTree.obj
 0001:0009f630       ??_GRayMeshColliderCallback@@UEAAPEAXI@Z 00000001800a0630 f i GuMidphaseRTree.obj
 0001:0009f860       ?processHit@RayMeshColliderCallback@@UEAA_NAEBUPxRaycastHit@physx@@AEBVPxVec3@3@11AEAMPEBI@Z 00000001800a0860 f i GuMidphaseRTree.obj
 0001:0009ffe0       ?processResults@?$RayRTreeCallback@$00$00@@UEAA_NIPEAI@Z 00000001800a0fe0 f i GuMidphaseRTree.obj
 0001:000a0390       ?processResults@?$RayRTreeCallback@$00$00@@UEAA_NIPEAIAEAM@Z 00000001800a1390 f i GuMidphaseRTree.obj
 0001:000a0740       ?processResults@?$RayRTreeCallback@$00$0A@@@UEAA_NIPEAI@Z 00000001800a1740 f i GuMidphaseRTree.obj
 0001:000a09d0       ?processResults@?$RayRTreeCallback@$00$0A@@@UEAA_NIPEAIAEAM@Z 00000001800a19d0 f i GuMidphaseRTree.obj
 0001:000a0c90       ?processResults@?$RayRTreeCallback@$0A@$00@@UEAA_NIPEAI@Z 00000001800a1c90 f i GuMidphaseRTree.obj
 0001:000a1300       ?processResults@?$RayRTreeCallback@$0A@$00@@UEAA_NIPEAIAEAM@Z 00000001800a2300 f i GuMidphaseRTree.obj
 0001:000a1980       ?processResults@?$RayRTreeCallback@$0A@$0A@@@UEAA_NIPEAI@Z 00000001800a2980 f i GuMidphaseRTree.obj
 0001:000a1c10       ?processResults@?$RayRTreeCallback@$0A@$0A@@@UEAA_NIPEAIAEAM@Z 00000001800a2c10 f i GuMidphaseRTree.obj
 0001:000a1ed0       ?profile@Callback@RTree@Gu@physx@@UEAAXXZ 00000001800a2ed0 f i GuMidphaseRTree.obj
 0001:000a1ee0       ?transformBoxOrthonormal@physx@@YA?AVBox@Gu@1@AEBV231@AEBVPxTransform@1@@Z 00000001800a2ee0 f i GuMidphaseRTree.obj
 0001:000a2370       ?checkOverlapAABB_triangleGeom@Gu@physx@@YA_NAEBVPxGeometry@2@AEBVPxTransform@2@AEBVPxBounds3@2@@Z 00000001800a3370 f   GuOverlapTestsMesh.obj
 0001:000a2470       ?GeomOverlapCallback_SphereMesh@@YA_NAEBVPxGeometry@physx@@AEBVPxTransform@2@01PEAUTriggerCache@Gu@2@@Z 00000001800a3470 f   GuOverlapTestsMesh.obj
 0001:000a24e0       ?GeomOverlapCallback_CapsuleMesh@@YA_NAEBVPxGeometry@physx@@AEBVPxTransform@2@01PEAUTriggerCache@Gu@2@@Z 00000001800a34e0 f   GuOverlapTestsMesh.obj
 0001:000a2600       ?GeomOverlapCallback_BoxMesh@@YA_NAEBVPxGeometry@physx@@AEBVPxTransform@2@01PEAUTriggerCache@Gu@2@@Z 00000001800a3600 f   GuOverlapTestsMesh.obj
 0001:000a2710       ?GeomOverlapCallback_ConvexMesh@@YA_NAEBVPxGeometry@physx@@AEBVPxTransform@2@01PEAUTriggerCache@Gu@2@@Z 00000001800a3710 f   GuOverlapTestsMesh.obj
 0001:000a2d00       ??$gjk@U?$RelativeConvex@VTriangleV@Gu@physx@@@Gu@physx@@U?$LocalConvex@VConvexHullV@Gu@physx@@@23@@Gu@physx@@YA?AW4GjkStatus@01@AEBU?$RelativeConvex@VTriangleV@Gu@physx@@@01@AEBU?$LocalConvex@VConvexHullV@Gu@physx@@@01@AEBT__m128@@2AEAT5@333@Z 00000001800a3d00 f i GuOverlapTestsMesh.obj
 0001:000a3b80       ??0ConvexVsMeshOverlapCallback@@QEAA@AEBVConvexMesh@Gu@physx@@AEBVPxMeshScale@3@AEBVFastVertex2ShapeScaling@Cm@3@AEBVPxTransform@3@3_NAEBVBox@23@@Z 00000001800a4b80 f i GuOverlapTestsMesh.obj
 0001:000a4430       ??1ConvexVsMeshOverlapCallback@@UEAA@XZ 00000001800a5430 f i GuOverlapTestsMesh.obj
 0001:000a4440       ??_E?$RelativeConvex@VTriangleV@Gu@physx@@@Gu@physx@@UEAAPEAXI@Z 00000001800a5440 f i GuOverlapTestsMesh.obj
 0001:000a4440       ??_G?$RelativeConvex@VTriangleV@Gu@physx@@@Gu@physx@@UEAAPEAXI@Z 00000001800a5440 f i GuOverlapTestsMesh.obj
 0001:000a4470       ??_EConvexVsMeshOverlapCallback@@UEAAPEAXI@Z 00000001800a5470 f i GuOverlapTestsMesh.obj
 0001:000a4470       ??_GConvexVsMeshOverlapCallback@@UEAAPEAXI@Z 00000001800a5470 f i GuOverlapTestsMesh.obj
 0001:000a44a0       ?getCenter@?$RelativeConvex@VTriangleV@Gu@physx@@@Gu@physx@@UEBA?AT__m128@@XZ 00000001800a54a0 f i GuOverlapTestsMesh.obj
 0001:000a44e0       ?getSweepMargin@?$RelativeConvex@VTriangleV@Gu@physx@@@Gu@physx@@UEBA?AT__m128@@XZ 00000001800a54e0 f i GuOverlapTestsMesh.obj
 0001:000a44f0       ?processHit@ConvexVsMeshOverlapCallback@@UEAA_NAEBUPxRaycastHit@physx@@AEBVPxVec3@3@11AEAMPEBI@Z 00000001800a54f0 f i GuOverlapTestsMesh.obj
 0001:000a4870       ?support@?$RelativeConvex@VTriangleV@Gu@physx@@@Gu@physx@@UEBA?AT__m128@@AEBT4@@Z 00000001800a5870 f i GuOverlapTestsMesh.obj
 0001:000a4970       ?support@?$RelativeConvex@VTriangleV@Gu@physx@@@Gu@physx@@UEBA?AT__m128@@AEBT4@AEAHPEAT4@@Z 00000001800a5970 f i GuOverlapTestsMesh.obj
 0001:000a4ab0       ?supportPoint@?$RelativeConvex@VTriangleV@Gu@physx@@@Gu@physx@@UEBA?AT__m128@@HPEAT4@@Z 00000001800a5ab0 f i GuOverlapTestsMesh.obj
 0001:000a4b00       ??0RTree@Gu@physx@@QEAA@W4PxEMPTY@2@@Z 00000001800a5b00 f   GuRTree.obj
 0001:000a4b10       ?exportExtraData@RTree@Gu@physx@@QEAAXAEAVPxSerializationContext@3@@Z 00000001800a5b10 f   GuRTree.obj
 0001:000a4b60       ?importExtraData@RTree@Gu@physx@@QEAAXAEAVPxDeserializationContext@3@@Z 00000001800a5b60 f   GuRTree.obj
 0001:000a4b90       ?load@RTree@Gu@physx@@QEAA_NAEAVPxInputStream@3@I_N@Z 00000001800a5b90 f   GuRTree.obj
 0001:000a4e90       ?refitAllStaticTree@RTree@Gu@physx@@QEAAXAEAUCallbackRefit@123@PEAVPxBounds3@3@@Z 00000001800a5e90 f   GuRTree.obj
 0001:000a53f0       ?validate@RTree@Gu@physx@@QEAAXPEAUCallbackRefit@123@@Z 00000001800a63f0 f   GuRTree.obj
 0001:000a5630       ?computeBottomLevelCount@RTree@Gu@physx@@QEBAII@Z 00000001800a6630 f   GuRTree.obj
 0001:000a5720       ?validateRecursive@RTree@Gu@physx@@IEAAXIURTreeNodeQ@23@PEAURTreePage@23@PEAUCallbackRefit@123@@Z 00000001800a6720 f   GuRTree.obj
 0001:000a58e0       ?traverseAABB@RTree@Gu@physx@@QEBAXAEBVPxVec3@3@0IPEAIPEAUCallback@123@@Z 00000001800a68e0 f   GuRTreeQueries.obj
 0001:000a5aa0       ?traverseOBB@RTree@Gu@physx@@QEBAXAEBVBox@23@IPEAIPEAUCallback@123@@Z 00000001800a6aa0 f   GuRTreeQueries.obj
 0001:000a6380       ??$traverseRay@$00@RTree@Gu@physx@@QEBAXAEBVPxVec3@2@0IPEAIPEAUCallbackRaycast@012@PEBV32@M@Z 00000001800a7380 f i GuRTreeQueries.obj
 0001:000a6720       ??$traverseRay@$0A@@RTree@Gu@physx@@QEBAXAEBVPxVec3@2@0IPEAIPEAUCallbackRaycast@012@PEBV32@M@Z 00000001800a7720 f i GuRTreeQueries.obj
 0001:000a6a70       ??0SweepShapeMeshHitCallback@Gu@physx@@QEAA@W4Enum@CallbackMode@12@AEBV?$PxFlags@W4Enum@PxHitFlag@physx@@G@2@_NM@Z 00000001800a7a70 f   GuSweepsMesh.obj
 0001:000a6ab0       ??0SweepCapsuleMeshHitCallback@Gu@physx@@QEAA@AEAUPxSweepHit@2@AEBVMatrix34@Cm@2@M_NAEBVCapsule@12@AEBVPxVec3@2@AEBV?$PxFlags@W4Enum@PxHitFlag@physx@@G@2@2M@Z 00000001800a7ab0 f   GuSweepsMesh.obj
 0001:000a6b80       ?processHit@SweepCapsuleMeshHitCallback@Gu@physx@@UEAA_NAEBUPxRaycastHit@3@AEBVPxVec3@3@11AEAMPEBI@Z 00000001800a7b80 f   GuSweepsMesh.obj
 0001:000a70b0       ?finalizeHit@SweepCapsuleMeshHitCallback@Gu@physx@@QEBA_NAEAUPxSweepHit@3@AEBVCapsule@23@AEBVPxTriangleMeshGeometry@3@AEBVPxTransform@3@_N@Z 00000001800a80b0 f   GuSweepsMesh.obj
 0001:000a7250       ??0SweepBoxMeshHitCallback@Gu@physx@@QEAA@W4Enum@CallbackMode@12@AEBVMatrix34Padded@12@M_NAEBVBox@12@AEBVPxVec3@2@44AEBV?$PxFlags@W4Enum@PxHitFlag@physx@@G@2@M2M@Z 00000001800a8250 f   GuSweepsMesh.obj
 0001:000a7360       ?processHit@SweepBoxMeshHitCallback@Gu@physx@@UEAA_NAEBUPxRaycastHit@3@AEBVPxVec3@3@11AEAMPEBI@Z 00000001800a8360 f   GuSweepsMesh.obj
 0001:000a7b80       ?finalizeHit@SweepBoxMeshHitCallback@Gu@physx@@QEBA_NAEAUPxSweepHit@3@AEBVPxTriangleMeshGeometry@3@AEBVPxTransform@3@2AEBVPxVec3@3@_N4@Z 00000001800a8b80 f   GuSweepsMesh.obj
 0001:000a8250       ??0SweepConvexMeshHitCallback@Gu@physx@@QEAA@AEBUConvexHullData@12@AEBVPxMeshScale@2@AEBVFastVertex2ShapeScaling@Cm@2@AEBVPxTransform@2@3AEBVPxVec3@2@MV?$PxFlags@W4Enum@PxHitFlag@physx@@G@2@_NM6M@Z 00000001800a9250 f   GuSweepsMesh.obj
 0001:000a8be0       ?processHit@SweepConvexMeshHitCallback@Gu@physx@@UEAA_NAEBUPxRaycastHit@3@AEBVPxVec3@3@11AEAMPEBI@Z 00000001800a9be0 f   GuSweepsMesh.obj
 0001:000a9330       ?finalizeHit@SweepConvexMeshHitCallback@Gu@physx@@QEAA_NAEAUPxSweepHit@3@AEBVPxTriangleMeshGeometry@3@AEBVPxTransform@3@AEBVPxConvexMeshGeometry@3@2AEBVPxVec3@3@M_N555@Z 00000001800aa330 f   GuSweepsMesh.obj
 0001:000a9810       ?sweepCapsule_MeshGeom@@YA_NAEBVPxGeometry@physx@@AEBVPxTransform@2@AEBVPxCapsuleGeometry@2@1AEBVCapsule@Gu@2@AEBVPxVec3@2@MAEAUPxSweepHit@2@V?$PxFlags@W4Enum@PxHitFlag@physx@@G@2@M@Z 00000001800aa810 f   GuSweepsMesh.obj
 0001:000a98b0       ?sweepBox_MeshGeom@@YA_NAEBVPxGeometry@physx@@AEBVPxTransform@2@AEBVPxBoxGeometry@2@1AEBVBox@Gu@2@AEBVPxVec3@2@MAEAUPxSweepHit@2@V?$PxFlags@W4Enum@PxHitFlag@physx@@G@2@M@Z 00000001800aa8b0 f   GuSweepsMesh.obj
 0001:000a9950       ?sweepConvex_MeshGeom@@YA_NAEBVPxGeometry@physx@@AEBVPxTransform@2@AEBVPxConvexMeshGeometry@2@1AEBVPxVec3@2@MAEAUPxSweepHit@2@V?$PxFlags@W4Enum@PxHitFlag@physx@@G@2@M@Z 00000001800aa950 f   GuSweepsMesh.obj
 0001:000aa2b0       ??$gjkPenetration@U?$LocalConvex@VTriangleV@Gu@physx@@@Gu@physx@@U?$LocalConvex@VShrunkBoxV@Gu@physx@@@23@@Gu@physx@@YA?AW4GjkStatus@01@AEBU?$LocalConvex@VTriangleV@Gu@physx@@@01@AEBU?$LocalConvex@VShrunkBoxV@Gu@physx@@@01@AEBT__m128@@2AEAT5@333PEIAE4AEAE_N@Z 00000001800ab2b0 f i GuSweepsMesh.obj
 0001:000ab930       ??$gjkPenetration@U?$LocalConvex@VTriangleV@Gu@physx@@@Gu@physx@@U?$LocalConvex@VShrunkConvexHullV@Gu@physx@@@23@@Gu@physx@@YA?AW4GjkStatus@01@AEBU?$LocalConvex@VTriangleV@Gu@physx@@@01@AEBU?$LocalConvex@VShrunkConvexHullV@Gu@physx@@@01@AEBT__m128@@2AEAT5@333PEIAE4AEAE_N@Z 00000001800ac930 f i GuSweepsMesh.obj
 0001:000ad310       ??$gjkRaycast@U?$LocalConvex@VTriangleV@Gu@physx@@@Gu@physx@@U?$LocalConvex@VBoxV@Gu@physx@@@23@@Gu@physx@@YA_NAEBU?$LocalConvex@VTriangleV@Gu@physx@@@01@AEBU?$LocalConvex@VBoxV@Gu@physx@@@01@AEBT__m128@@222AEAT4@33M@Z 00000001800ae310 f i GuSweepsMesh.obj
 0001:000adf70       ??$gjkRaycast@U?$LocalConvex@VTriangleV@Gu@physx@@@Gu@physx@@U?$LocalConvex@VConvexHullV@Gu@physx@@@23@@Gu@physx@@YA_NAEBU?$LocalConvex@VTriangleV@Gu@physx@@@01@AEBU?$LocalConvex@VConvexHullV@Gu@physx@@@01@AEBT__m128@@222AEAT4@33M@Z 00000001800aef70 f i GuSweepsMesh.obj
 0001:000aed70       ??$gjkRaycastPenetration@U?$LocalConvex@VTriangleV@Gu@physx@@@Gu@physx@@U?$LocalConvex@VBoxV@Gu@physx@@@23@@Gu@physx@@YA_NAEBU?$LocalConvex@VTriangleV@Gu@physx@@@01@AEBU?$LocalConvex@VBoxV@Gu@physx@@@01@AEBT__m128@@222AEAT4@33M_N@Z 00000001800afd70 f i GuSweepsMesh.obj
 0001:000aefa0       ??$gjkRaycastPenetration@U?$LocalConvex@VTriangleV@Gu@physx@@@Gu@physx@@U?$LocalConvex@VConvexHullV@Gu@physx@@@23@@Gu@physx@@YA_NAEBU?$LocalConvex@VTriangleV@Gu@physx@@@01@AEBU?$LocalConvex@VConvexHullV@Gu@physx@@@01@AEBT__m128@@222AEAT4@33M_N@Z 00000001800affa0 f i GuSweepsMesh.obj
 0001:000af1d0       ??1SweepConvexMeshHitCallback@Gu@physx@@UEAA@XZ 00000001800b01d0 f i GuSweepsMesh.obj
 0001:000af1e0       ??_E?$LocalConvex@VShrunkBoxV@Gu@physx@@@Gu@physx@@UEAAPEAXI@Z 00000001800b01e0 f i GuSweepsMesh.obj
 0001:000af1e0       ??_G?$LocalConvex@VShrunkBoxV@Gu@physx@@@Gu@physx@@UEAAPEAXI@Z 00000001800b01e0 f i GuSweepsMesh.obj
 0001:000af210       ??_E?$LocalConvex@VShrunkConvexHullV@Gu@physx@@@Gu@physx@@UEAAPEAXI@Z 00000001800b0210 f i GuSweepsMesh.obj
 0001:000af210       ??_G?$LocalConvex@VShrunkConvexHullV@Gu@physx@@@Gu@physx@@UEAAPEAXI@Z 00000001800b0210 f i GuSweepsMesh.obj
 0001:000af240       ??_ESweepBoxMeshHitCallback@Gu@physx@@UEAAPEAXI@Z 00000001800b0240 f i GuSweepsMesh.obj
 0001:000af240       ??_GSweepBoxMeshHitCallback@Gu@physx@@UEAAPEAXI@Z 00000001800b0240 f i GuSweepsMesh.obj
 0001:000af270       ??_ESweepCapsuleMeshHitCallback@Gu@physx@@UEAAPEAXI@Z 00000001800b0270 f i GuSweepsMesh.obj
 0001:000af270       ??_GSweepCapsuleMeshHitCallback@Gu@physx@@UEAAPEAXI@Z 00000001800b0270 f i GuSweepsMesh.obj
 0001:000af2a0       ??_ESweepConvexMeshHitCallback@Gu@physx@@UEAAPEAXI@Z 00000001800b02a0 f i GuSweepsMesh.obj
 0001:000af2a0       ??_GSweepConvexMeshHitCallback@Gu@physx@@UEAAPEAXI@Z 00000001800b02a0 f i GuSweepsMesh.obj
 0001:000af2d0       ??_ESweepShapeMeshHitCallback@Gu@physx@@UEAAPEAXI@Z 00000001800b02d0 f i GuSweepsMesh.obj
 0001:000af2d0       ??_GSweepShapeMeshHitCallback@Gu@physx@@UEAAPEAXI@Z 00000001800b02d0 f i GuSweepsMesh.obj
 0001:000af300       ?getCenter@?$LocalConvex@VShrunkBoxV@Gu@physx@@@Gu@physx@@UEBA?AT__m128@@XZ 00000001800b0300 f i GuSweepsMesh.obj
 0001:000af310       ?getCenter@?$LocalConvex@VShrunkConvexHullV@Gu@physx@@@Gu@physx@@UEBA?AT__m128@@XZ 00000001800b0310 f i GuSweepsMesh.obj
 0001:000af320       ?getSweepMargin@?$LocalConvex@VShrunkBoxV@Gu@physx@@@Gu@physx@@UEBA?AT__m128@@XZ 00000001800b0320 f i GuSweepsMesh.obj
 0001:000af340       ?getSweepMargin@?$LocalConvex@VShrunkConvexHullV@Gu@physx@@@Gu@physx@@UEBA?AT__m128@@XZ 00000001800b0340 f i GuSweepsMesh.obj
 0001:000af360       ?support@?$LocalConvex@VShrunkBoxV@Gu@physx@@@Gu@physx@@UEBA?AT__m128@@AEBT4@@Z 00000001800b0360 f i GuSweepsMesh.obj
 0001:000af3a0       ?support@?$LocalConvex@VShrunkBoxV@Gu@physx@@@Gu@physx@@UEBA?AT__m128@@AEBT4@AEAHPEAT4@@Z 00000001800b03a0 f i GuSweepsMesh.obj
 0001:000af400       ?support@?$LocalConvex@VShrunkConvexHullV@Gu@physx@@@Gu@physx@@UEBA?AT__m128@@AEBT4@@Z 00000001800b0400 f i GuSweepsMesh.obj
 0001:000af800       ?support@?$LocalConvex@VShrunkConvexHullV@Gu@physx@@@Gu@physx@@UEBA?AT__m128@@AEBT4@AEAHPEAT4@@Z 00000001800b0800 f i GuSweepsMesh.obj
 0001:000afc50       ?supportPoint@?$LocalConvex@VShrunkBoxV@Gu@physx@@@Gu@physx@@UEBA?AT__m128@@HPEAT4@@Z 00000001800b0c50 f i GuSweepsMesh.obj
 0001:000afcb0       ?supportPoint@?$LocalConvex@VShrunkConvexHullV@Gu@physx@@@Gu@physx@@UEBA?AT__m128@@HPEAT4@@Z 00000001800b0cb0 f i GuSweepsMesh.obj
 0001:000b0370       ?exportExtraData@TriangleMesh@Gu@physx@@UEAAXAEAVPxSerializationContext@3@@Z 00000001800b1370 f   GuTriangleMesh.obj
 0001:000b04b0       ?importExtraData@TriangleMesh@Gu@physx@@QEAAXAEAVPxDeserializationContext@3@@Z 00000001800b14b0 f   GuTriangleMesh.obj
 0001:000b05c0       ?release@TriangleMesh@Gu@physx@@UEAAXXZ 00000001800b15c0 f   GuTriangleMesh.obj
 0001:000b0600       ?onRefCountZero@TriangleMesh@Gu@physx@@UEAAXXZ 00000001800b1600 f   GuTriangleMesh.obj
 0001:000b06a0       ??0TriangleMesh@Gu@physx@@QEAA@AEAVGuMeshFactory@2@AEAVTriangleMeshData@12@@Z 00000001800b16a0 f   GuTriangleMesh.obj
 0001:000b0830       ??1TriangleMesh@Gu@physx@@UEAA@XZ 00000001800b1830 f   GuTriangleMesh.obj
 0001:000b09e0       ?getVerticesForModification@TriangleMesh@Gu@physx@@UEAAPEAVPxVec3@3@XZ 00000001800b19e0 f   GuTriangleMesh.obj
 0001:000b0a20       ?refitBVH@TriangleMesh@Gu@physx@@UEAA?AVPxBounds3@3@XZ 00000001800b1a20 f   GuTriangleMesh.obj
 0001:000b0ae0       ??1PxTriangleMesh@physx@@MEAA@XZ 00000001800b1ae0 f i GuTriangleMesh.obj
 0001:000b0aec       ??_ETriangleMesh@Gu@physx@@WBA@EAAPEAXI@Z 00000001800b1aec f i GuTriangleMesh.obj
 0001:000b0b00       ??_EPxTriangleMesh@physx@@MEAAPEAXI@Z 00000001800b1b00 f i GuTriangleMesh.obj
 0001:000b0b00       ??_GPxTriangleMesh@physx@@MEAAPEAXI@Z 00000001800b1b00 f i GuTriangleMesh.obj
 0001:000b0b30       ??_ETriangleMesh@Gu@physx@@UEAAPEAXI@Z 00000001800b1b30 f i GuTriangleMesh.obj
 0001:000b0b30       ??_GTriangleMesh@Gu@physx@@UEAAPEAXI@Z 00000001800b1b30 f i GuTriangleMesh.obj
 0001:000b0b90       ?acquireReference@TriangleMesh@Gu@physx@@UEAAXXZ 00000001800b1b90 f i GuTriangleMesh.obj
 0001:000b0ba0       ?getLocalBounds@TriangleMesh@Gu@physx@@UEBA?AVPxBounds3@3@XZ 00000001800b1ba0 f i GuTriangleMesh.obj
 0001:000b0c30       ?getNbTriangles@TriangleMesh@Gu@physx@@UEBAIXZ 00000001800b1c30 f i GuTriangleMesh.obj
 0001:000b0c40       ?getNbVertices@TriangleMesh@Gu@physx@@UEBAIXZ 00000001800b1c40 f i GuTriangleMesh.obj
 0001:000b0c50       ?getReferenceCount@TriangleMesh@Gu@physx@@UEBAIXZ 00000001800b1c50 f i GuTriangleMesh.obj
 0001:000b0c60       ?getTriangleMaterialIndex@TriangleMesh@Gu@physx@@UEBAGI@Z 00000001800b1c60 f i GuTriangleMesh.obj
 0001:000b0c80       ?getTriangleMeshFlags@TriangleMesh@Gu@physx@@UEBA?AV?$PxFlags@W4Enum@PxTriangleMeshFlag@physx@@E@3@XZ 00000001800b1c80 f i GuTriangleMesh.obj
 0001:000b0c90       ?getTriangles@TriangleMesh@Gu@physx@@UEBAPEBXXZ 00000001800b1c90 f i GuTriangleMesh.obj
 0001:000b0ca0       ?getTrianglesRemap@TriangleMesh@Gu@physx@@UEBAPEBIXZ 00000001800b1ca0 f i GuTriangleMesh.obj
 0001:000b0cb0       ?getVertices@TriangleMesh@Gu@physx@@UEBAPEBVPxVec3@3@XZ 00000001800b1cb0 f i GuTriangleMesh.obj
 0001:000b0cc0       ?isKindOf@PxTriangleMesh@physx@@MEBA_NPEBD@Z 00000001800b1cc0 f i GuTriangleMesh.obj
 0001:000b0d10       ?requiresObjects@TriangleMesh@Gu@physx@@UEAAXAEAVPxProcessPxBaseCallback@3@@Z 00000001800b1d10 f i GuTriangleMesh.obj
 0001:000b0d20       ?exportExtraData@BV4TriangleMesh@Gu@physx@@UEAAXAEAVPxSerializationContext@3@@Z 00000001800b1d20 f   GuTriangleMeshBV4.obj
 0001:000b0d60       ?importExtraData@BV4TriangleMesh@Gu@physx@@QEAAXAEAVPxDeserializationContext@3@@Z 00000001800b1d60 f   GuTriangleMeshBV4.obj
 0001:000b0de0       ?createObject@BV4TriangleMesh@Gu@physx@@SAPEAVTriangleMesh@23@AEAPEAEAEAVPxDeserializationContext@3@@Z 00000001800b1de0 f   GuTriangleMeshBV4.obj
 0001:000b0ec0       ??0BV4TriangleMesh@Gu@physx@@QEAA@AEAVGuMeshFactory@2@AEAVTriangleMeshData@12@@Z 00000001800b1ec0 f   GuTriangleMeshBV4.obj
 0001:000b0f60       ??1BV4TriangleMesh@Gu@physx@@UEAA@XZ 00000001800b1f60 f i GuTriangleMeshBV4.obj
 0001:000b0fa4       ??_EBV4TriangleMesh@Gu@physx@@WBA@EAAPEAXI@Z 00000001800b1fa4 f i GuTriangleMeshBV4.obj
 0001:000b0fb0       ??_EBV4TriangleMesh@Gu@physx@@UEAAPEAXI@Z 00000001800b1fb0 f i GuTriangleMeshBV4.obj
 0001:000b0fb0       ??_GBV4TriangleMesh@Gu@physx@@UEAAPEAXI@Z 00000001800b1fb0 f i GuTriangleMeshBV4.obj
 0001:000b1040       ?getConcreteTypeName@BV4TriangleMesh@Gu@physx@@UEBAPEBDXZ 00000001800b2040 f i GuTriangleMeshBV4.obj
 0001:000b1050       ?getMidphaseID@BV4TriangleMesh@Gu@physx@@UEBA?AW4Enum@PxMeshMidPhase@3@XZ 00000001800b2050 f i GuTriangleMeshBV4.obj
 0001:000b1060       ?exportExtraData@RTreeTriangleMesh@Gu@physx@@UEAAXAEAVPxSerializationContext@3@@Z 00000001800b2060 f   GuTriangleMeshRTree.obj
 0001:000b10a0       ?importExtraData@RTreeTriangleMesh@Gu@physx@@QEAAXAEAVPxDeserializationContext@3@@Z 00000001800b20a0 f   GuTriangleMeshRTree.obj
 0001:000b10e0       ?createObject@RTreeTriangleMesh@Gu@physx@@SAPEAVTriangleMesh@23@AEAPEAEAEAVPxDeserializationContext@3@@Z 00000001800b20e0 f   GuTriangleMeshRTree.obj
 0001:000b1180       ??0RTreeTriangleMesh@Gu@physx@@QEAA@AEAVGuMeshFactory@2@AEAVTriangleMeshData@12@@Z 00000001800b2180 f   GuTriangleMeshRTree.obj
 0001:000b1300       ?getVerticesForModification@RTreeTriangleMesh@Gu@physx@@UEAAPEAVPxVec3@3@XZ 00000001800b2300 f   GuTriangleMeshRTree.obj
 0001:000b1310       ?refitBVH@RTreeTriangleMesh@Gu@physx@@UEAA?AVPxBounds3@3@XZ 00000001800b2310 f   GuTriangleMeshRTree.obj
 0001:000b1530       ??1CallbackRefit@RTree@Gu@physx@@UEAA@XZ 00000001800b2530 f i GuTriangleMeshRTree.obj
 0001:000b1540       ??1RTreeTriangleMesh@Gu@physx@@UEAA@XZ 00000001800b2540 f i GuTriangleMeshRTree.obj
 0001:000b15b0       ??_ERTreeTriangleMesh@Gu@physx@@WBA@EAAPEAXI@Z 00000001800b25b0 f i GuTriangleMeshRTree.obj
 0001:000b15c0       ??_E?$RefitCallback@G@physx@@UEAAPEAXI@Z 00000001800b25c0 f i GuTriangleMeshRTree.obj
 0001:000b15c0       ??_G?$RefitCallback@G@physx@@UEAAPEAXI@Z 00000001800b25c0 f i GuTriangleMeshRTree.obj
 0001:000b15f0       ??_E?$RefitCallback@I@physx@@UEAAPEAXI@Z 00000001800b25f0 f i GuTriangleMeshRTree.obj
 0001:000b15f0       ??_G?$RefitCallback@I@physx@@UEAAPEAXI@Z 00000001800b25f0 f i GuTriangleMeshRTree.obj
 0001:000b1620       ??_ECallbackRefit@RTree@Gu@physx@@UEAAPEAXI@Z 00000001800b2620 f i GuTriangleMeshRTree.obj
 0001:000b1620       ??_GCallbackRefit@RTree@Gu@physx@@UEAAPEAXI@Z 00000001800b2620 f i GuTriangleMeshRTree.obj
 0001:000b1650       ??_ERTreeTriangleMesh@Gu@physx@@UEAAPEAXI@Z 00000001800b2650 f i GuTriangleMeshRTree.obj
 0001:000b1650       ??_GRTreeTriangleMesh@Gu@physx@@UEAAPEAXI@Z 00000001800b2650 f i GuTriangleMeshRTree.obj
 0001:000b1710       ?getConcreteTypeName@RTreeTriangleMesh@Gu@physx@@UEBAPEBDXZ 00000001800b2710 f i GuTriangleMeshRTree.obj
 0001:000b1720       ?getMidphaseID@RTreeTriangleMesh@Gu@physx@@UEBA?AW4Enum@PxMeshMidPhase@3@XZ 00000001800b2720 f i GuTriangleMeshRTree.obj
 0001:000b1730       ?recomputeBounds@?$RefitCallback@G@physx@@UEAAXIAEAT__m128@@0@Z 00000001800b2730 f i GuTriangleMeshRTree.obj
 0001:000b1a60       ?recomputeBounds@?$RefitCallback@I@physx@@UEAAXIAEAT__m128@@0@Z 00000001800b2a60 f i GuTriangleMeshRTree.obj
 0001:000b1d80       ?exportExtraData@HeightField@Gu@physx@@UEAAXAEAVPxSerializationContext@3@@Z 00000001800b2d80 f   GuHeightField.obj
 0001:000b1de0       ?importExtraData@HeightField@Gu@physx@@QEAAXAEAVPxDeserializationContext@3@@Z 00000001800b2de0 f   GuHeightField.obj
 0001:000b1e10       ?createObject@HeightField@Gu@physx@@SAPEAV123@AEAPEAEAEAVPxDeserializationContext@3@@Z 00000001800b2e10 f   GuHeightField.obj
 0001:000b1e90       ??0HeightField@Gu@physx@@QEAA@PEAVGuMeshFactory@2@@Z 00000001800b2e90 f   GuHeightField.obj
 0001:000b1f00       ??0HeightField@Gu@physx@@QEAA@AEAVGuMeshFactory@2@AEAUHeightFieldData@12@@Z 00000001800b2f00 f   GuHeightField.obj
 0001:000b1fe0       ?release@HeightField@Gu@physx@@UEAAXXZ 00000001800b2fe0 f   GuHeightField.obj
 0001:000b2020       ?saveCells@HeightField@Gu@physx@@UEBAIPEAXI@Z 00000001800b3020 f   GuHeightField.obj
 0001:000b2060       ?modifySamples@HeightField@Gu@physx@@UEAA_NHHAEBVPxHeightFieldDesc@3@_N@Z 00000001800b3060 f   GuHeightField.obj
 0001:000b23e0       ?acquireReference@HeightField@Gu@physx@@UEAAXXZ 00000001800b33e0 f   GuHeightField.obj
 0001:000b23f0       ?getReferenceCount@HeightField@Gu@physx@@UEBAIXZ 00000001800b33f0 f   GuHeightField.obj
 0001:000b2400       ?onRefCountZero@HeightField@Gu@physx@@UEAAXXZ 00000001800b3400 f   GuHeightField.obj
 0001:000b24a0       ?loadFromDesc@HeightField@Gu@physx@@QEAA_NAEBVPxHeightFieldDesc@3@@Z 00000001800b34a0 f   GuHeightField.obj
 0001:000b26e0       ?load@HeightField@Gu@physx@@QEAA_NAEAVPxInputStream@3@@Z 00000001800b36e0 f   GuHeightField.obj
 0001:000b2a70       ?computeCellCoordinates@HeightField@Gu@physx@@QEBAIMMAEAM0@Z 00000001800b3a70 f   GuHeightField.obj
 0001:000b2b80       ?isSolidVertex@HeightField@Gu@physx@@QEBA_NIIIGAEA_N@Z 00000001800b3b80 f   GuHeightField.obj
 0001:000b2d10       ?isCollisionVertexPreca@HeightField@Gu@physx@@QEBA_NIIIG@Z 00000001800b3d10 f   GuHeightField.obj
 0001:000b2db0       ?parseTrianglesForCollisionVertices@HeightField@Gu@physx@@QEAAXG@Z 00000001800b3db0 f   GuHeightField.obj
 0001:000b3300       ?computeExtreme@HeightField@Gu@physx@@QEBAMIIII@Z 00000001800b4300 f   GuHeightField.obj
 0001:000b33f0       ?releaseMemory@HeightField@Gu@physx@@QEAAXXZ 00000001800b43f0 f   GuHeightField.obj
 0001:000b3440       ??1HeightField@Gu@physx@@UEAA@XZ 00000001800b4440 f   GuHeightField.obj
 0001:000b34c0       ?getVertexEdgeIndices@physx@@YAIAEBVHeightField@Gu@1@IIIQEAUEdgeData@1@@Z 00000001800b44c0 f   GuHeightField.obj
 0001:000b36b0       ?getEdgeTriangleIndices@physx@@YAIAEBVHeightField@Gu@1@AEBUEdgeData@1@PEIAI@Z 00000001800b46b0 f   GuHeightField.obj
 0001:000b37e0       ??0?$BitMapBase@VNonTrackingAllocator@shdfnd@physx@@@Cm@physx@@QEAA@XZ 00000001800b47e0 f i GuHeightField.obj
 0001:000b37f0       ??1?$BitMapBase@VNonTrackingAllocator@shdfnd@physx@@@Cm@physx@@QEAA@XZ 00000001800b47f0 f i GuHeightField.obj
 0001:000b3850       ??_EHeightField@Gu@physx@@UEAAPEAXI@Z 00000001800b4850 f i GuHeightField.obj
 0001:000b3a04       ??_EHeightField@Gu@physx@@WBA@EAAPEAXI@Z 00000001800b4a04 f i GuHeightField.obj
 0001:000b3a10       ??_EPxHeightField@physx@@MEAAPEAXI@Z 00000001800b4a10 f i GuHeightField.obj
 0001:000b3aa0       ?isConvexVertex@HeightField@Gu@physx@@QEBA_NIII@Z 00000001800b4aa0 f i GuHeightField.obj
 0001:000b3b90       ?requiresObjects@HeightField@Gu@physx@@UEAAXAEAVPxProcessPxBaseCallback@3@@Z 00000001800b4b90 f i GuHeightField.obj
 0001:000b3ba0       ?resizeAndClear@?$BitMapBase@VNonTrackingAllocator@shdfnd@physx@@@Cm@physx@@QEAAXI@Z 00000001800b4ba0 f i GuHeightField.obj
 0001:000b3c50       ?computeLocalBounds@HeightFieldUtil@Gu@physx@@QEBAXAEAVPxBounds3@3@@Z 00000001800b4c50 f   GuHeightFieldUtil.obj
 0001:000b3d20       ?getFaceIndexAtShapePoint@HeightFieldUtil@Gu@physx@@QEBAIMM@Z 00000001800b4d20 f   GuHeightFieldUtil.obj
 0001:000b3de0       ?getFaceIndexAtShapePointNoTest@HeightFieldUtil@Gu@physx@@QEBAIMM@Z 00000001800b4de0 f   GuHeightFieldUtil.obj
 0001:000b3e90       ?getFaceIndexAtShapePointNoTest2@HeightFieldUtil@Gu@physx@@QEBAIIMM@Z 00000001800b4e90 f   GuHeightFieldUtil.obj
 0001:000b3f00       ?getVertexNormal@HeightFieldUtil@Gu@physx@@QEBA?AVPxVec3@3@III@Z 00000001800b4f00 f   GuHeightFieldUtil.obj
 0001:000b4280       ?getVertexFaceIndex@HeightFieldUtil@Gu@physx@@QEBAIIII@Z 00000001800b5280 f   GuHeightFieldUtil.obj
 0001:000b44e0       ?getEdge@HeightFieldUtil@Gu@physx@@QEBAXIIIIAEAVPxVec3@3@0@Z 00000001800b54e0 f   GuHeightFieldUtil.obj
 0001:000b4730       ?getEdgeFaceIndex@HeightFieldUtil@Gu@physx@@QEBAII@Z 00000001800b5730 f   GuHeightFieldUtil.obj
 0001:000b4910       ?getEdgeFaceIndex@HeightFieldUtil@Gu@physx@@QEBAIIIII@Z 00000001800b5910 f   GuHeightFieldUtil.obj
 0001:000b4ab0       ?getEdgeFaceIndex@HeightFieldUtil@Gu@physx@@QEBAIIIPEIBI@Z 00000001800b5ab0 f   GuHeightFieldUtil.obj
 0001:000b4b60       ?findClosestPointsOnCell@HeightFieldUtil@Gu@physx@@QEBAIIIVPxVec3@3@PEIAV43@PEIAI_N33@Z 00000001800b5b60 f   GuHeightFieldUtil.obj
 0001:000b52f0       ?findProjectionOnTriangle@HeightFieldUtil@Gu@physx@@QEBA_NIIIAEBVPxVec3@3@AEAV43@@Z 00000001800b62f0 f   GuHeightFieldUtil.obj
 0001:000b55a0       ?findClosestPointOnEdge@HeightFieldUtil@Gu@physx@@QEBAMIIIIAEBVPxVec3@3@AEAV43@@Z 00000001800b65a0 f   GuHeightFieldUtil.obj
 0001:000b58a0       ?getTriangle@HeightFieldUtil@Gu@physx@@QEBAIAEBVPxTransform@3@AEAVPxTriangle@3@PEAI2I_N3@Z 00000001800b68a0 f   GuHeightFieldUtil.obj
 0001:000b63b0       ?overlapAABBTriangles@HeightFieldUtil@Gu@physx@@QEBA_NAEBVPxTransform@3@AEBVPxBounds3@3@IPEAV?$EntityReport@I@23@@Z 00000001800b73b0 f   GuHeightFieldUtil.obj
 0001:000b69f0       ?getTriangleAdjacencyIndices@HeightField@Gu@physx@@QEBAXIIIIAEAI00@Z 00000001800b79f0 f i GuHeightFieldUtil.obj
 0001:000b6ba0       ?getTriangleIndex@HeightField@Gu@physx@@QEBAIMM@Z 00000001800b7ba0 f i GuHeightFieldUtil.obj
 0001:000b6c10       ?getTriangleVertexIndices@HeightField@Gu@physx@@QEBAXIAEAI00@Z 00000001800b7c10 f i GuHeightFieldUtil.obj
 0001:000b6cd0       ?checkOverlapAABB_heightFieldGeom@Gu@physx@@YA_NAEBVPxGeometry@2@AEBVPxTransform@2@AEBVPxBounds3@2@@Z 00000001800b7cd0 f   GuOverlapTestsHF.obj
 0001:000b7150       ?GeomOverlapCallback_SphereHeightfield@@YA_NAEBVPxGeometry@physx@@AEBVPxTransform@2@01PEAUTriggerCache@Gu@2@@Z 00000001800b8150 f   GuOverlapTestsHF.obj
 0001:000b7330       ?GeomOverlapCallback_CapsuleHeightfield@@YA_NAEBVPxGeometry@physx@@AEBVPxTransform@2@01PEAUTriggerCache@Gu@2@@Z 00000001800b8330 f   GuOverlapTestsHF.obj
 0001:000b7570       ?GeomOverlapCallback_BoxHeightfield@@YA_NAEBVPxGeometry@physx@@AEBVPxTransform@2@01PEAUTriggerCache@Gu@2@@Z 00000001800b8570 f   GuOverlapTestsHF.obj
 0001:000b78e0       ?GeomOverlapCallback_ConvexHeightfield@@YA_NAEBVPxGeometry@physx@@AEBVPxTransform@2@01PEAUTriggerCache@Gu@2@@Z 00000001800b88e0 f   GuOverlapTestsHF.obj
 0001:000b7950       ??$traceSegment@UTriggerTraceSegmentCallback@Gu@physx@@$0A@$0A@@HeightFieldTraceUtil@Gu@physx@@QEBAXAEBVPxVec3@2@0MPEAUTriggerTraceSegmentCallback@12@AEBVPxBounds3@2@_NPEBV32@@Z 00000001800b8950 f i GuOverlapTestsHF.obj
 0001:000bb8a0       ?sweepCapsule_HeightFieldGeom@@YA_NAEBVPxGeometry@physx@@AEBVPxTransform@2@AEBVPxCapsuleGeometry@2@1AEBVCapsule@Gu@2@AEBVPxVec3@2@MAEAUPxSweepHit@2@V?$PxFlags@W4Enum@PxHitFlag@physx@@G@2@M@Z 00000001800bc8a0 f   GuSweepsHF.obj
 0001:000bc210       ?sweepConvex_HeightFieldGeom@@YA_NAEBVPxGeometry@physx@@AEBVPxTransform@2@AEBVPxConvexMeshGeometry@2@1AEBVPxVec3@2@MAEAUPxSweepHit@2@V?$PxFlags@W4Enum@PxHitFlag@physx@@G@2@M@Z 00000001800bd210 f   GuSweepsHF.obj
 0001:000bcc00       ?sweepBox_HeightFieldGeom@@YA_NAEBVPxGeometry@physx@@AEBVPxTransform@2@AEBVPxBoxGeometry@2@1AEBVBox@Gu@2@AEBVPxVec3@2@MAEAUPxSweepHit@2@V?$PxFlags@W4Enum@PxHitFlag@physx@@G@2@M@Z 00000001800bdc00 f   GuSweepsHF.obj
 0001:000bda60       ??$traceSegment@VBoxTraceSegmentReport@@$0A@$00@HeightFieldTraceUtil@Gu@physx@@QEBAXAEBVPxVec3@2@0MPEAVBoxTraceSegmentReport@@AEBVPxBounds3@2@_NPEBV32@@Z 00000001800bea60 f i GuSweepsHF.obj
 0001:000be280       ??$traceSegment@VCapsuleTraceSegmentReport@@$0A@$00@HeightFieldTraceUtil@Gu@physx@@QEBAXAEBVPxVec3@2@0MPEAVCapsuleTraceSegmentReport@@AEBVPxBounds3@2@_NPEBV32@@Z 00000001800bf280 f i GuSweepsHF.obj
 0001:000beaa0       ??$traceSegment@VConvexTraceSegmentReport@@$0A@$00@HeightFieldTraceUtil@Gu@physx@@QEBAXAEBVPxVec3@2@0MPEAVConvexTraceSegmentReport@@AEBVPxBounds3@2@_NPEBV32@@Z 00000001800bfaa0 f i GuSweepsHF.obj
 0001:000bf2c0       ??0ConvexTraceSegmentReport@@QEAA@AEBVHeightFieldUtil@Gu@physx@@AEBUConvexHullData@23@AEBVPxMeshScale@3@AEBVPxTransform@3@3AEBVPxVec3@3@MV?$PxFlags@W4Enum@PxHitFlag@physx@@G@3@M@Z 00000001800c02c0 f i GuSweepsHF.obj
 0001:000bfc70       ??_EBoxTraceSegmentReport@@UEAAPEAXI@Z 00000001800c0c70 f i GuSweepsHF.obj
 0001:000bfc70       ??_GBoxTraceSegmentReport@@UEAAPEAXI@Z 00000001800c0c70 f i GuSweepsHF.obj
 0001:000bfca0       ??_ECapsuleTraceSegmentReport@@UEAAPEAXI@Z 00000001800c0ca0 f i GuSweepsHF.obj
 0001:000bfca0       ??_GCapsuleTraceSegmentReport@@UEAAPEAXI@Z 00000001800c0ca0 f i GuSweepsHF.obj
 0001:000bfcd0       ??_EConvexTraceSegmentReport@@UEAAPEAXI@Z 00000001800c0cd0 f i GuSweepsHF.obj
 0001:000bfcd0       ??_GConvexTraceSegmentReport@@UEAAPEAXI@Z 00000001800c0cd0 f i GuSweepsHF.obj
 0001:000bfd00       ??_EHeightFieldTraceSegmentReport@@UEAAPEAXI@Z 00000001800c0d00 f i GuSweepsHF.obj
 0001:000bfd00       ??_GHeightFieldTraceSegmentReport@@UEAAPEAXI@Z 00000001800c0d00 f i GuSweepsHF.obj
 0001:000bfd30       ?finalizeHit@ConvexTraceSegmentReport@@QEAA_NAEAUPxSweepHit@physx@@AEBVPxHeightFieldGeometry@3@AEBVPxTransform@3@AEBVPxConvexMeshGeometry@3@2AEBVPxVec3@3@M@Z 00000001800c0d30 f i GuSweepsHF.obj
 0001:000bff80       ?onEvent@BoxTraceSegmentReport@@UEAA_NIPEAI@Z 00000001800c0f80 f i GuSweepsHF.obj
 0001:000c03f0       ?onEvent@CapsuleTraceSegmentReport@@UEAA_NIPEAI@Z 00000001800c13f0 f i GuSweepsHF.obj
 0001:000c0630       ?onEvent@ConvexTraceSegmentReport@@UEAA_NIPEAI@Z 00000001800c1630 f i GuSweepsHF.obj
 0001:000c0c00       ?prepare@?$OverlapTraceSegment@VBoxTraceSegmentReport@@@HeightFieldTraceUtil@Gu@physx@@QEAAXAEBVPxVec3@4@00AEAM1@Z 00000001800c1c00 f i GuSweepsHF.obj
 0001:000c0ec0       ?prepare@?$OverlapTraceSegment@VCapsuleTraceSegmentReport@@@HeightFieldTraceUtil@Gu@physx@@QEAAXAEBVPxVec3@4@00AEAM1@Z 00000001800c1ec0 f i GuSweepsHF.obj
 0001:000c1180       ?prepare@?$OverlapTraceSegment@VConvexTraceSegmentReport@@@HeightFieldTraceUtil@Gu@physx@@QEAAXAEBVPxVec3@4@00AEAM1@Z 00000001800c2180 f i GuSweepsHF.obj
 0001:000c1440       ?testVertexIndex@?$OverlapTraceSegment@VBoxTraceSegmentReport@@@HeightFieldTraceUtil@Gu@physx@@QEAA_NI@Z 00000001800c2440 f i GuSweepsHF.obj
 0001:000c15a0       ?testVertexIndex@?$OverlapTraceSegment@VCapsuleTraceSegmentReport@@@HeightFieldTraceUtil@Gu@physx@@QEAA_NI@Z 00000001800c25a0 f i GuSweepsHF.obj
 0001:000c1700       ?testVertexIndex@?$OverlapTraceSegment@VConvexTraceSegmentReport@@@HeightFieldTraceUtil@Gu@physx@@QEAA_NI@Z 00000001800c2700 f i GuSweepsHF.obj
 0001:000c1860       ?visitCells@?$OverlapTraceSegment@VBoxTraceSegmentReport@@@HeightFieldTraceUtil@Gu@physx@@QEAA_NAEBUOverlapRectangle@1234@@Z 00000001800c2860 f i GuSweepsHF.obj
 0001:000c1a50       ?visitCells@?$OverlapTraceSegment@VCapsuleTraceSegmentReport@@@HeightFieldTraceUtil@Gu@physx@@QEAA_NAEBUOverlapRectangle@1234@@Z 00000001800c2a50 f i GuSweepsHF.obj
 0001:000c1c40       ?visitCells@?$OverlapTraceSegment@VConvexTraceSegmentReport@@@HeightFieldTraceUtil@Gu@physx@@QEAA_NAEBUOverlapRectangle@1234@@Z 00000001800c2c40 f i GuSweepsHF.obj
 0001:000c1e30       ?pcmContactBoxBox@Gu@physx@@YA_NAEBVGeometryUnion@12@0AEBVPxTransform@2@1AEBUNarrowPhaseParams@12@AEAUCache@12@AEAVContactBuffer@12@PEAVRenderOutput@Cm@2@@Z 00000001800c2e30 f   GuPCMContactBoxBox.obj
 0001:000c2ab0       ??$gjkPenetration@U?$RelativeConvex@VBoxV@Gu@physx@@@Gu@physx@@U?$LocalConvex@VBoxV@Gu@physx@@@23@@Gu@physx@@YA?AW4GjkStatus@01@AEBU?$RelativeConvex@VBoxV@Gu@physx@@@01@AEBU?$LocalConvex@VBoxV@Gu@physx@@@01@AEBT__m128@@2AEAT5@333PEIAE4AEAE_N@Z 00000001800c3ab0 f i GuPCMContactBoxBox.obj
 0001:000c4110       ??0MeshPersistentContact@Gu@physx@@QEAA@XZ 00000001800c5110 f i GuPCMContactBoxBox.obj
 0001:000c4120       ??0MultiplePersistentContactManifold@Gu@physx@@QEAA@XZ 00000001800c5120 f i GuPCMContactBoxBox.obj
 0001:000c4180       ??0PersistentContact@Gu@physx@@QEAA@XZ 00000001800c5180 f i GuPCMContactBoxBox.obj
 0001:000c4190       ??0SinglePersistentContactManifold@Gu@physx@@QEAA@XZ 00000001800c5190 f i GuPCMContactBoxBox.obj
 0001:000c41a0       ??4MultiplePersistentContactManifold@Gu@physx@@QEAAAEAV012@$$QEAV012@@Z 00000001800c51a0 f i GuPCMContactBoxBox.obj
 0001:000c44b0       ??4MultiplePersistentContactManifold@Gu@physx@@QEAAAEAV012@AEBV012@@Z 00000001800c54b0 f i GuPCMContactBoxBox.obj
 0001:000c44d0       ??_E?$RelativeConvex@VBoxV@Gu@physx@@@Gu@physx@@UEAAPEAXI@Z 00000001800c54d0 f i GuPCMContactBoxBox.obj
 0001:000c44d0       ??_G?$RelativeConvex@VBoxV@Gu@physx@@@Gu@physx@@UEAAPEAXI@Z 00000001800c54d0 f i GuPCMContactBoxBox.obj
 0001:000c5240       ?clearManifold@MultiplePersistentContactManifold@Gu@physx@@QEAAXXZ 00000001800c6240 f i GuPCMContactBoxBox.obj
 0001:000c6d90       ?getCenter@?$RelativeConvex@VBoxV@Gu@physx@@@Gu@physx@@UEBA?AT__m128@@XZ 00000001800c7d90 f i GuPCMContactBoxBox.obj
 0001:000c6dd0       ?getEmptyManifold@MultiplePersistentContactManifold@Gu@physx@@QEAAPEAVSinglePersistentContactManifold@23@XZ 00000001800c7dd0 f i GuPCMContactBoxBox.obj
 0001:000c7000       ?getManifold@MultiplePersistentContactManifold@Gu@physx@@QEAAPEAVSinglePersistentContactManifold@23@I@Z 00000001800c8000 f i GuPCMContactBoxBox.obj
 0001:000c7020       ?getSweepMargin@?$RelativeConvex@VBoxV@Gu@physx@@@Gu@physx@@UEBA?AT__m128@@XZ 00000001800c8020 f i GuPCMContactBoxBox.obj
 0001:000c7040       ?initialize@MultiplePersistentContactManifold@Gu@physx@@QEAAXXZ 00000001800c8040 f i GuPCMContactBoxBox.obj
 0001:000c70a0       ?invalidate@MultiplePersistentContactManifold@Gu@physx@@QEAAIAEBVPsTransformV@aos@shdfnd@3@AEBT__m128@@1@Z 00000001800c80a0 f i GuPCMContactBoxBox.obj
 0001:000c7120       ?invalidate@MultiplePersistentContactManifold@Gu@physx@@QEAAIAEBVPsTransformV@aos@shdfnd@3@AEBT__m128@@@Z 00000001800c8120 f i GuPCMContactBoxBox.obj
 0001:000c71a0       ?maxTransformPositionDelta@MultiplePersistentContactManifold@Gu@physx@@QEAA?AT__m128@@AEBT4@@Z 00000001800c81a0 f i GuPCMContactBoxBox.obj
 0001:000c71e0       ?maxTransformQuatDelta@MultiplePersistentContactManifold@Gu@physx@@QEAA?AT__m128@@AEBT4@@Z 00000001800c81e0 f i GuPCMContactBoxBox.obj
 0001:000c7220       ?reduceManifoldContactsInDifferentPatches@MultiplePersistentContactManifold@Gu@physx@@QEAAIPEAPEAUPCMContactPatch@23@IPEAVMeshPersistentContact@23@IAEBT__m128@@@Z 00000001800c8220 f i GuPCMContactBoxBox.obj
 0001:000c7390       ?refineContactPatchConnective@MultiplePersistentContactManifold@Gu@physx@@QEAAXPEAPEAUPCMContactPatch@23@IPEAVMeshPersistentContact@23@AEBT__m128@@@Z 00000001800c8390 f i GuPCMContactBoxBox.obj
 0001:000c7480       ?refreshManifold@MultiplePersistentContactManifold@Gu@physx@@QEAAXAEBVPsMatTransformV@aos@shdfnd@3@AEBT__m128@@1@Z 00000001800c8480 f i GuPCMContactBoxBox.obj
 0001:000c7580       ?setRelativeTransform@MultiplePersistentContactManifold@Gu@physx@@QEAAXAEBVPsTransformV@aos@shdfnd@3@@Z 00000001800c8580 f i GuPCMContactBoxBox.obj
 0001:000c7590       ?support@?$RelativeConvex@VBoxV@Gu@physx@@@Gu@physx@@UEBA?AT__m128@@AEBT4@@Z 00000001800c8590 f i GuPCMContactBoxBox.obj
 0001:000c7610       ?support@?$RelativeConvex@VBoxV@Gu@physx@@@Gu@physx@@UEBA?AT__m128@@AEBT4@AEAHPEAT4@@Z 00000001800c8610 f i GuPCMContactBoxBox.obj
 0001:000c76a0       ?supportPoint@?$RelativeConvex@VBoxV@Gu@physx@@@Gu@physx@@UEBA?AT__m128@@HPEAT4@@Z 00000001800c86a0 f i GuPCMContactBoxBox.obj
 0001:000c7710       ?toBuffer@MultiplePersistentContactManifold@Gu@physx@@QEAAXPEIAE@Z 00000001800c8710 f i GuPCMContactBoxBox.obj
 0001:000c77f0       ?pcmContactBoxConvex@Gu@physx@@YA_NAEBVGeometryUnion@12@0AEBVPxTransform@2@1AEBUNarrowPhaseParams@12@AEAUCache@12@AEAVContactBuffer@12@PEAVRenderOutput@Cm@2@@Z 00000001800c87f0 f   GuPCMContactBoxConvex.obj
 0001:000c87b0       ??$gjkPenetration@U?$RelativeConvex@VBoxV@Gu@physx@@@Gu@physx@@U?$LocalConvex@VShrunkConvexHullNoScaleV@Gu@physx@@@23@@Gu@physx@@YA?AW4GjkStatus@01@AEBU?$RelativeConvex@VBoxV@Gu@physx@@@01@AEBU?$LocalConvex@VShrunkConvexHullNoScaleV@Gu@physx@@@01@AEBT__m128@@2AEAT5@333PEIAE4AEAE_N@Z 00000001800c97b0 f i GuPCMContactBoxConvex.obj
 0001:000ca220       ??$gjkPenetration@U?$RelativeConvex@VBoxV@Gu@physx@@@Gu@physx@@U?$LocalConvex@VShrunkConvexHullV@Gu@physx@@@23@@Gu@physx@@YA?AW4GjkStatus@01@AEBU?$RelativeConvex@VBoxV@Gu@physx@@@01@AEBU?$LocalConvex@VShrunkConvexHullV@Gu@physx@@@01@AEBT__m128@@2AEAT5@333PEIAE4AEAE_N@Z 00000001800cb220 f i GuPCMContactBoxConvex.obj
 0001:000cbc00       ??1SupportLocal@Gu@physx@@UEAA@XZ 00000001800ccc00 f i GuPCMContactBoxConvex.obj
 0001:000cbc10       ??_E?$LocalConvex@VShrunkConvexHullNoScaleV@Gu@physx@@@Gu@physx@@UEAAPEAXI@Z 00000001800ccc10 f i GuPCMContactBoxConvex.obj
 0001:000cbc10       ??_G?$LocalConvex@VShrunkConvexHullNoScaleV@Gu@physx@@@Gu@physx@@UEAAPEAXI@Z 00000001800ccc10 f i GuPCMContactBoxConvex.obj
 0001:000cbc40       ??_E?$SupportLocalImpl@VBoxV@Gu@physx@@@Gu@physx@@UEAAPEAXI@Z 00000001800ccc40 f i GuPCMContactBoxConvex.obj
 0001:000cbc40       ??_G?$SupportLocalImpl@VBoxV@Gu@physx@@@Gu@physx@@UEAAPEAXI@Z 00000001800ccc40 f i GuPCMContactBoxConvex.obj
 0001:000cbc70       ??_E?$SupportLocalImpl@VConvexHullNoScaleV@Gu@physx@@@Gu@physx@@UEAAPEAXI@Z 00000001800ccc70 f i GuPCMContactBoxConvex.obj
 0001:000cbc70       ??_G?$SupportLocalImpl@VConvexHullNoScaleV@Gu@physx@@@Gu@physx@@UEAAPEAXI@Z 00000001800ccc70 f i GuPCMContactBoxConvex.obj
 0001:000cbca0       ??_E?$SupportLocalImpl@VConvexHullV@Gu@physx@@@Gu@physx@@UEAAPEAXI@Z 00000001800ccca0 f i GuPCMContactBoxConvex.obj
 0001:000cbca0       ??_G?$SupportLocalImpl@VConvexHullV@Gu@physx@@@Gu@physx@@UEAAPEAXI@Z 00000001800ccca0 f i GuPCMContactBoxConvex.obj
 0001:000cbcd0       ??_ESupportLocal@Gu@physx@@UEAAPEAXI@Z 00000001800cccd0 f i GuPCMContactBoxConvex.obj
 0001:000cbcd0       ??_GSupportLocal@Gu@physx@@UEAAPEAXI@Z 00000001800cccd0 f i GuPCMContactBoxConvex.obj
 0001:000cc020       ?doSupport@?$SupportLocalImpl@VBoxV@Gu@physx@@@Gu@physx@@UEBA?AT__m128@@AEBT4@@Z 00000001800cd020 f i GuPCMContactBoxConvex.obj
 0001:000cc050       ?doSupport@?$SupportLocalImpl@VBoxV@Gu@physx@@@Gu@physx@@UEBAXAEBT__m128@@AEAT4@1@Z 00000001800cd050 f i GuPCMContactBoxConvex.obj
 0001:000cc0a0       ?doSupport@?$SupportLocalImpl@VConvexHullNoScaleV@Gu@physx@@@Gu@physx@@UEBA?AT__m128@@AEBT4@@Z 00000001800cd0a0 f i GuPCMContactBoxConvex.obj
 0001:000cc0f0       ?doSupport@?$SupportLocalImpl@VConvexHullNoScaleV@Gu@physx@@@Gu@physx@@UEBAXAEBT__m128@@AEAT4@1@Z 00000001800cd0f0 f i GuPCMContactBoxConvex.obj
 0001:000cc270       ?doSupport@?$SupportLocalImpl@VConvexHullV@Gu@physx@@@Gu@physx@@UEBA?AT__m128@@AEBT4@@Z 00000001800cd270 f i GuPCMContactBoxConvex.obj
 0001:000cc350       ?doSupport@?$SupportLocalImpl@VConvexHullV@Gu@physx@@@Gu@physx@@UEBAXAEBT__m128@@AEAT4@1@Z 00000001800cd350 f i GuPCMContactBoxConvex.obj
 0001:000cc8e0       ?getCenter@?$LocalConvex@VShrunkConvexHullNoScaleV@Gu@physx@@@Gu@physx@@UEBA?AT__m128@@XZ 00000001800cd8e0 f i GuPCMContactBoxConvex.obj
 0001:000cc8f0       ?getSweepMargin@?$LocalConvex@VShrunkConvexHullNoScaleV@Gu@physx@@@Gu@physx@@UEBA?AT__m128@@XZ 00000001800cd8f0 f i GuPCMContactBoxConvex.obj
 0001:000cc910       ?populateVerts@?$SupportLocalImpl@VBoxV@Gu@physx@@@Gu@physx@@UEBAXPEBEIPEBVPxVec3@3@PEAT__m128@@@Z 00000001800cd910 f i GuPCMContactBoxConvex.obj
 0001:000cc950       ?populateVerts@?$SupportLocalImpl@VConvexHullNoScaleV@Gu@physx@@@Gu@physx@@UEBAXPEBEIPEBVPxVec3@3@PEAT__m128@@@Z 00000001800cd950 f i GuPCMContactBoxConvex.obj
 0001:000cc990       ?populateVerts@?$SupportLocalImpl@VConvexHullV@Gu@physx@@@Gu@physx@@UEBAXPEBEIPEBVPxVec3@3@PEAT__m128@@@Z 00000001800cd990 f i GuPCMContactBoxConvex.obj
 0001:000cc9f0       ?support@?$LocalConvex@VShrunkConvexHullNoScaleV@Gu@physx@@@Gu@physx@@UEBA?AT__m128@@AEBT4@@Z 00000001800cd9f0 f i GuPCMContactBoxConvex.obj
 0001:000ccc10       ?support@?$LocalConvex@VShrunkConvexHullNoScaleV@Gu@physx@@@Gu@physx@@UEBA?AT__m128@@AEBT4@AEAHPEAT4@@Z 00000001800cdc10 f i GuPCMContactBoxConvex.obj
 0001:000cce80       ?supportPoint@?$LocalConvex@VShrunkConvexHullNoScaleV@Gu@physx@@@Gu@physx@@UEBA?AT__m128@@HPEAT4@@Z 00000001800cde80 f i GuPCMContactBoxConvex.obj
 0001:000cd0d0       ?pcmContactCapsuleBox@Gu@physx@@YA_NAEBVGeometryUnion@12@0AEBVPxTransform@2@1AEBUNarrowPhaseParams@12@AEAUCache@12@AEAVContactBuffer@12@PEAVRenderOutput@Cm@2@@Z 00000001800ce0d0 f   GuPCMContactCapsuleBox.obj
 0001:000cdf60       ??$gjkPenetration@U?$LocalConvex@VCapsuleV@Gu@physx@@@Gu@physx@@U?$LocalConvex@VBoxV@Gu@physx@@@23@@Gu@physx@@YA?AW4GjkStatus@01@AEBU?$LocalConvex@VCapsuleV@Gu@physx@@@01@AEBU?$LocalConvex@VBoxV@Gu@physx@@@01@AEBT__m128@@2AEAT5@333PEIAE4AEAE_N@Z 00000001800cef60 f i GuPCMContactCapsuleBox.obj
 0001:000cf590       ?pcmContactCapsuleCapsule@Gu@physx@@YA_NAEBVGeometryUnion@12@0AEBVPxTransform@2@1AEBUNarrowPhaseParams@12@AEAUCache@12@AEAVContactBuffer@12@PEAVRenderOutput@Cm@2@@Z 00000001800d0590 f   GuPCMContactCapsuleCapsule.obj
 0001:000cfe10       ?pcmContactCapsuleConvex@Gu@physx@@YA_NAEBVGeometryUnion@12@0AEBVPxTransform@2@1AEBUNarrowPhaseParams@12@AEAUCache@12@AEAVContactBuffer@12@PEAVRenderOutput@Cm@2@@Z 00000001800d0e10 f   GuPCMContactCapsuleConvex.obj
 0001:000d1020       ??$gjkPenetration@U?$LocalConvex@VCapsuleV@Gu@physx@@@Gu@physx@@U?$LocalConvex@VConvexHullNoScaleV@Gu@physx@@@23@@Gu@physx@@YA?AW4GjkStatus@01@AEBU?$LocalConvex@VCapsuleV@Gu@physx@@@01@AEBU?$LocalConvex@VConvexHullNoScaleV@Gu@physx@@@01@AEBT__m128@@2AEAT5@333PEIAE4AEAE_N@Z 00000001800d2020 f i GuPCMContactCapsuleConvex.obj
 0001:000d2640       ??$gjkPenetration@U?$LocalConvex@VCapsuleV@Gu@physx@@@Gu@physx@@U?$LocalConvex@VConvexHullV@Gu@physx@@@23@@Gu@physx@@YA?AW4GjkStatus@01@AEBU?$LocalConvex@VCapsuleV@Gu@physx@@@01@AEBU?$LocalConvex@VConvexHullV@Gu@physx@@@01@AEBT__m128@@2AEAT5@333PEIAE4AEAE_N@Z 00000001800d3640 f i GuPCMContactCapsuleConvex.obj
 0001:000d3ce0       ??_E?$LocalConvex@VConvexHullNoScaleV@Gu@physx@@@Gu@physx@@UEAAPEAXI@Z 00000001800d4ce0 f i GuPCMContactCapsuleConvex.obj
 0001:000d3ce0       ??_G?$LocalConvex@VConvexHullNoScaleV@Gu@physx@@@Gu@physx@@UEAAPEAXI@Z 00000001800d4ce0 f i GuPCMContactCapsuleConvex.obj
 0001:000d3f50       ?getCenter@?$LocalConvex@VConvexHullNoScaleV@Gu@physx@@@Gu@physx@@UEBA?AT__m128@@XZ 00000001800d4f50 f i GuPCMContactCapsuleConvex.obj
 0001:000d3f60       ?getSweepMargin@?$LocalConvex@VConvexHullNoScaleV@Gu@physx@@@Gu@physx@@UEBA?AT__m128@@XZ 00000001800d4f60 f i GuPCMContactCapsuleConvex.obj
 0001:000d3f80       ?support@?$LocalConvex@VConvexHullNoScaleV@Gu@physx@@@Gu@physx@@UEBA?AT__m128@@AEBT4@@Z 00000001800d4f80 f i GuPCMContactCapsuleConvex.obj
 0001:000d3fd0       ?support@?$LocalConvex@VConvexHullNoScaleV@Gu@physx@@@Gu@physx@@UEBA?AT__m128@@AEBT4@AEAHPEAT4@@Z 00000001800d4fd0 f i GuPCMContactCapsuleConvex.obj
 0001:000d4030       ?supportPoint@?$LocalConvex@VConvexHullNoScaleV@Gu@physx@@@Gu@physx@@UEBA?AT__m128@@HPEAT4@@Z 00000001800d5030 f i GuPCMContactCapsuleConvex.obj
 0001:000d4060       ?pcmContactCapsuleHeightField@Gu@physx@@YA_NAEBVGeometryUnion@12@0AEBVPxTransform@2@1AEBUNarrowPhaseParams@12@AEAUCache@12@AEAVContactBuffer@12@PEAVRenderOutput@Cm@2@@Z 00000001800d5060 f   GuPCMContactCapsuleHeightField.obj
 0001:000d4db0       ??0PCMContactPatch@Gu@physx@@QEAA@XZ 00000001800d5db0 f i GuPCMContactCapsuleHeightField.obj
 0001:000d4dd0       ??0PCMMeshContactGeneration@Gu@physx@@QEAA@AEBT__m128@@0AEBVPsTransformV@aos@shdfnd@2@1AEAVMultiplePersistentContactManifold@12@AEAVContactBuffer@12@PEAV?$InlineArray@I$0EEA@V?$ReflectionAllocator@I@shdfnd@physx@@@62@PEAVRenderOutput@Cm@2@@Z 00000001800d5dd0 f i GuPCMContactCapsuleHeightField.obj
 0001:000d56e0       ??_E?$PCMHeightfieldContactGenerationCallback@UPCMCapsuleVsHeightfieldContactGenerationCallback@physx@@@Gu@physx@@UEAAPEAXI@Z 00000001800d66e0 f i GuPCMContactCapsuleHeightField.obj
 0001:000d56e0       ??_G?$PCMHeightfieldContactGenerationCallback@UPCMCapsuleVsHeightfieldContactGenerationCallback@physx@@@Gu@physx@@UEAAPEAXI@Z 00000001800d66e0 f i GuPCMContactCapsuleHeightField.obj
 0001:000d5710       ??_EPCMCapsuleVsHeightfieldContactGenerationCallback@physx@@UEAAPEAXI@Z 00000001800d6710 f i GuPCMContactCapsuleHeightField.obj
 0001:000d5710       ??_GPCMCapsuleVsHeightfieldContactGenerationCallback@physx@@UEAAPEAXI@Z 00000001800d6710 f i GuPCMContactCapsuleHeightField.obj
 0001:000d5740       ?onEvent@?$PCMHeightfieldContactGenerationCallback@UPCMCapsuleVsHeightfieldContactGenerationCallback@physx@@@Gu@physx@@UEAA_NIPEAI@Z 00000001800d6740 f i GuPCMContactCapsuleHeightField.obj
 0001:000d5cf0       ?pcmContactCapsuleMesh@Gu@physx@@YA_NAEBVGeometryUnion@12@0AEBVPxTransform@2@1AEBUNarrowPhaseParams@12@AEAUCache@12@AEAVContactBuffer@12@PEAVRenderOutput@Cm@2@@Z 00000001800d6cf0 f   GuPCMContactCapsuleMesh.obj
 0001:000d6c20       ??$processTriangleCache@$0BA@@PCMCapsuleVsMeshContactGenerationCallback@physx@@QEAAXAEAU?$TriangleCache@$0BA@@Gu@1@@Z 00000001800d7c20 f i GuPCMContactCapsuleMesh.obj
 0001:000d6cb0       ??_E?$PCMMeshContactGenerationCallback@UPCMCapsuleVsMeshContactGenerationCallback@physx@@@Gu@physx@@UEAAPEAXI@Z 00000001800d7cb0 f i GuPCMContactCapsuleMesh.obj
 0001:000d6cb0       ??_G?$PCMMeshContactGenerationCallback@UPCMCapsuleVsMeshContactGenerationCallback@physx@@@Gu@physx@@UEAAPEAXI@Z 00000001800d7cb0 f i GuPCMContactCapsuleMesh.obj
 0001:000d6ce0       ??_EPCMCapsuleVsMeshContactGenerationCallback@physx@@UEAAPEAXI@Z 00000001800d7ce0 f i GuPCMContactCapsuleMesh.obj
 0001:000d6ce0       ??_GPCMCapsuleVsMeshContactGenerationCallback@physx@@UEAAPEAXI@Z 00000001800d7ce0 f i GuPCMContactCapsuleMesh.obj
 0001:000d6d10       ?processHit@?$PCMMeshContactGenerationCallback@UPCMCapsuleVsMeshContactGenerationCallback@physx@@@Gu@physx@@UEAA_NAEBUPxRaycastHit@3@AEBVPxVec3@3@11AEAMPEBI@Z 00000001800d7d10 f i GuPCMContactCapsuleMesh.obj
 0001:000d70e0       ?generateLastContacts@PCMConvexVsMeshContactGeneration@Gu@physx@@QEAAXXZ 00000001800d80e0 f   GuPCMContactConvexCommon.obj
 0001:000d7650       ?addContactsToPatch@PCMConvexVsMeshContactGeneration@Gu@physx@@QEAAXAEBT__m128@@I@Z 00000001800d8650 f   GuPCMContactConvexCommon.obj
 0001:000d7f90       ?processTriangle@PCMConvexVsMeshContactGeneration@Gu@physx@@QEAA_NPEBVPxVec3@3@IEPEBI@Z 00000001800d8f90 f   GuPCMContactConvexCommon.obj
 0001:000d84e0       ?processTriangle@PCMConvexVsMeshContactGeneration@Gu@physx@@SA_NAEBUPolygonalData@23@PEAVSupportLocal@23@PEBVPxVec3@3@IEAEBT__m128@@_NAEBVPsTransformV@aos@shdfnd@3@AEBVPsMatTransformV@9shdfnd@3@PEAVMeshPersistentContact@23@AEAI@Z 00000001800d94e0 f   GuPCMContactConvexCommon.obj
 0001:000d8770       ?processTriangle@PCMSphereVsMeshContactGeneration@Gu@physx@@QEAA_NPEBVPxVec3@3@IEPEBI@Z 00000001800d9770 f   GuPCMContactConvexCommon.obj
 0001:000d8b90       ?generateLastContacts@PCMSphereVsMeshContactGeneration@Gu@physx@@QEAAXXZ 00000001800d9b90 f   GuPCMContactConvexCommon.obj
 0001:000d8f90       ?addToPatch@PCMSphereVsMeshContactGeneration@Gu@physx@@QEAAXAEBT__m128@@0T4@I@Z 00000001800d9f90 f   GuPCMContactConvexCommon.obj
 0001:000d9660       ?generateEEContacts@PCMCapsuleVsMeshContactGeneration@Gu@physx@@QEAAXAEBT__m128@@000I000PEAVMeshPersistentContact@23@AEAI@Z 00000001800da660 f   GuPCMContactConvexCommon.obj
 0001:000d9790       ?generateEE@PCMCapsuleVsMeshContactGeneration@Gu@physx@@QEAAXAEBT__m128@@000I00PEAVMeshPersistentContact@23@AEAI@Z 00000001800da790 f   GuPCMContactConvexCommon.obj
 0001:000d9a20       ?generateContacts@PCMCapsuleVsMeshContactGeneration@Gu@physx@@SA_NAEBT__m128@@0000I000PEAVMeshPersistentContact@23@AEAI@Z 00000001800daa20 f   GuPCMContactConvexCommon.obj
 0001:000d9e60       ?generateEEContactsMTD@PCMCapsuleVsMeshContactGeneration@Gu@physx@@SAXAEBT__m128@@000I000PEAVMeshPersistentContact@23@AEAI@Z 00000001800dae60 f   GuPCMContactConvexCommon.obj
 0001:000d9f80       ?generateEEMTD@PCMCapsuleVsMeshContactGeneration@Gu@physx@@SAXAEBT__m128@@000I00PEAVMeshPersistentContact@23@AEAI@Z 00000001800daf80 f   GuPCMContactConvexCommon.obj
 0001:000da1d0       ?processTriangle@PCMCapsuleVsMeshContactGeneration@Gu@physx@@QEAA_NPEBVPxVec3@3@IEPEBI@Z 00000001800db1d0 f   GuPCMContactConvexCommon.obj
 0001:000dadc0       ?processTriangle@PCMCapsuleVsMeshContactGeneration@Gu@physx@@SA_NAEBVTriangleV@23@IAEBVCapsuleV@23@AEBT__m128@@EPEAVMeshPersistentContact@23@AEAI@Z 00000001800dbdc0 f   GuPCMContactConvexCommon.obj
 0001:000db100       ?pcmDistanceSegmentTriangleSquared@Gu@physx@@YA?AT__m128@@AEBT3@0000AEAT3@11@Z 00000001800dc100 f   GuPCMContactConvexCommon.obj
 0001:000dba40       ??$sort@USortedTriangle@Gu@physx@@U?$Less@USortedTriangle@Gu@physx@@@shdfnd@3@@shdfnd@physx@@YAXPEAUSortedTriangle@Gu@1@IAEBU?$Less@USortedTriangle@Gu@physx@@@01@@Z 00000001800dca40 f i GuPCMContactConvexCommon.obj
 0001:000dba60       ??$sort@USortedTriangle@Gu@physx@@U?$Less@USortedTriangle@Gu@physx@@@shdfnd@3@V?$ReflectionAllocator@USortedTriangle@Gu@physx@@@53@@shdfnd@physx@@YAXPEAUSortedTriangle@Gu@1@IAEBU?$Less@USortedTriangle@Gu@physx@@@01@AEBV?$ReflectionAllocator@USortedTriangle@Gu@physx@@@01@I@Z 00000001800dca60 f i GuPCMContactConvexCommon.obj
 0001:000dbf90       ??_E?$SupportLocalImpl@VTriangleV@Gu@physx@@@Gu@physx@@UEAAPEAXI@Z 00000001800dcf90 f i GuPCMContactConvexCommon.obj
 0001:000dbf90       ??_G?$SupportLocalImpl@VTriangleV@Gu@physx@@@Gu@physx@@UEAAPEAXI@Z 00000001800dcf90 f i GuPCMContactConvexCommon.obj
 0001:000dbfc0       ?allocate@?$ReflectionAllocator@USortedTriangle@Gu@physx@@@shdfnd@physx@@QEAAPEAX_KPEBDH@Z 00000001800dcfc0 f i GuPCMContactConvexCommon.obj
 0001:000dc060       ?doSupport@?$SupportLocalImpl@VTriangleV@Gu@physx@@@Gu@physx@@UEBA?AT__m128@@AEBT4@@Z 00000001800dd060 f i GuPCMContactConvexCommon.obj
 0001:000dc0f0       ?doSupport@?$SupportLocalImpl@VTriangleV@Gu@physx@@@Gu@physx@@UEBAXAEBT__m128@@AEAT4@1@Z 00000001800dd0f0 f i GuPCMContactConvexCommon.obj
 0001:000dc160       ?growAndPushBack@?$Array@USortedTriangle@Gu@physx@@V?$InlineAllocator@$0IAA@V?$ReflectionAllocator@USortedTriangle@Gu@physx@@@shdfnd@physx@@@shdfnd@3@@shdfnd@physx@@IEAAAEAUSortedTriangle@Gu@3@AEBU453@@Z 00000001800dd160 f i GuPCMContactConvexCommon.obj
 0001:000dc7e0       ?populateVerts@?$SupportLocalImpl@VTriangleV@Gu@physx@@@Gu@physx@@UEBAXPEBEIPEBVPxVec3@3@PEAT__m128@@@Z 00000001800dd7e0 f i GuPCMContactConvexCommon.obj
 0001:000dc920       ?pcmContactConvexConvex@Gu@physx@@YA_NAEBVGeometryUnion@12@0AEBVPxTransform@2@1AEBUNarrowPhaseParams@12@AEAUCache@12@AEAVContactBuffer@12@PEAVRenderOutput@Cm@2@@Z 00000001800dd920 f   GuPCMContactConvexConvex.obj
 0001:000dde30       ??$gjkPenetration@U?$RelativeConvex@VShrunkConvexHullNoScaleV@Gu@physx@@@Gu@physx@@U?$LocalConvex@VShrunkConvexHullNoScaleV@Gu@physx@@@23@@Gu@physx@@YA?AW4GjkStatus@01@AEBU?$RelativeConvex@VShrunkConvexHullNoScaleV@Gu@physx@@@01@AEBU?$LocalConvex@VShrunkConvexHullNoScaleV@Gu@physx@@@01@AEBT__m128@@2AEAT5@333PEIAE4AEAE_N@Z 00000001800dee30 f i GuPCMContactConvexConvex.obj
 0001:000dfbc0       ??$gjkPenetration@U?$RelativeConvex@VShrunkConvexHullNoScaleV@Gu@physx@@@Gu@physx@@U?$LocalConvex@VShrunkConvexHullV@Gu@physx@@@23@@Gu@physx@@YA?AW4GjkStatus@01@AEBU?$RelativeConvex@VShrunkConvexHullNoScaleV@Gu@physx@@@01@AEBU?$LocalConvex@VShrunkConvexHullV@Gu@physx@@@01@AEBT__m128@@2AEAT5@333PEIAE4AEAE_N@Z 00000001800e0bc0 f i GuPCMContactConvexConvex.obj
 0001:000e18f0       ??$gjkPenetration@U?$RelativeConvex@VShrunkConvexHullV@Gu@physx@@@Gu@physx@@U?$LocalConvex@VShrunkConvexHullNoScaleV@Gu@physx@@@23@@Gu@physx@@YA?AW4GjkStatus@01@AEBU?$RelativeConvex@VShrunkConvexHullV@Gu@physx@@@01@AEBU?$LocalConvex@VShrunkConvexHullNoScaleV@Gu@physx@@@01@AEBT__m128@@2AEAT5@333PEIAE4AEAE_N@Z 00000001800e28f0 f i GuPCMContactConvexConvex.obj
 0001:000e3600       ??$gjkPenetration@U?$RelativeConvex@VShrunkConvexHullV@Gu@physx@@@Gu@physx@@U?$LocalConvex@VShrunkConvexHullV@Gu@physx@@@23@@Gu@physx@@YA?AW4GjkStatus@01@AEBU?$RelativeConvex@VShrunkConvexHullV@Gu@physx@@@01@AEBU?$LocalConvex@VShrunkConvexHullV@Gu@physx@@@01@AEBT__m128@@2AEAT5@333PEIAE4AEAE_N@Z 00000001800e4600 f i GuPCMContactConvexConvex.obj
 0001:000e52a0       ??_E?$RelativeConvex@VConvexHullV@Gu@physx@@@Gu@physx@@UEAAPEAXI@Z 00000001800e62a0 f i GuPCMContactConvexConvex.obj
 0001:000e52a0       ??_G?$RelativeConvex@VConvexHullV@Gu@physx@@@Gu@physx@@UEAAPEAXI@Z 00000001800e62a0 f i GuPCMContactConvexConvex.obj
 0001:000e52d0       ??_E?$RelativeConvex@VShrunkConvexHullNoScaleV@Gu@physx@@@Gu@physx@@UEAAPEAXI@Z 00000001800e62d0 f i GuPCMContactConvexConvex.obj
 0001:000e52d0       ??_G?$RelativeConvex@VShrunkConvexHullNoScaleV@Gu@physx@@@Gu@physx@@UEAAPEAXI@Z 00000001800e62d0 f i GuPCMContactConvexConvex.obj
 0001:000e5300       ??_E?$RelativeConvex@VShrunkConvexHullV@Gu@physx@@@Gu@physx@@UEAAPEAXI@Z 00000001800e6300 f i GuPCMContactConvexConvex.obj
 0001:000e5300       ??_G?$RelativeConvex@VShrunkConvexHullV@Gu@physx@@@Gu@physx@@UEAAPEAXI@Z 00000001800e6300 f i GuPCMContactConvexConvex.obj
 0001:000e5a10       ?getCenter@?$RelativeConvex@VConvexHullV@Gu@physx@@@Gu@physx@@UEBA?AT__m128@@XZ 00000001800e6a10 f i GuPCMContactConvexConvex.obj
 0001:000e5a50       ?getCenter@?$RelativeConvex@VShrunkConvexHullNoScaleV@Gu@physx@@@Gu@physx@@UEBA?AT__m128@@XZ 00000001800e6a50 f i GuPCMContactConvexConvex.obj
 0001:000e5a90       ?getCenter@?$RelativeConvex@VShrunkConvexHullV@Gu@physx@@@Gu@physx@@UEBA?AT__m128@@XZ 00000001800e6a90 f i GuPCMContactConvexConvex.obj
 0001:000e5ad0       ?getSweepMargin@?$RelativeConvex@VConvexHullV@Gu@physx@@@Gu@physx@@UEBA?AT__m128@@XZ 00000001800e6ad0 f i GuPCMContactConvexConvex.obj
 0001:000e5af0       ?getSweepMargin@?$RelativeConvex@VShrunkConvexHullNoScaleV@Gu@physx@@@Gu@physx@@UEBA?AT__m128@@XZ 00000001800e6af0 f i GuPCMContactConvexConvex.obj
 0001:000e5b10       ?getSweepMargin@?$RelativeConvex@VShrunkConvexHullV@Gu@physx@@@Gu@physx@@UEBA?AT__m128@@XZ 00000001800e6b10 f i GuPCMContactConvexConvex.obj
 0001:000e5b30       ?support@?$RelativeConvex@VConvexHullV@Gu@physx@@@Gu@physx@@UEBA?AT__m128@@AEBT4@@Z 00000001800e6b30 f i GuPCMContactConvexConvex.obj
 0001:000e5c60       ?support@?$RelativeConvex@VConvexHullV@Gu@physx@@@Gu@physx@@UEBA?AT__m128@@AEBT4@AEAHPEAT4@@Z 00000001800e6c60 f i GuPCMContactConvexConvex.obj
 0001:000e5d80       ?support@?$RelativeConvex@VShrunkConvexHullNoScaleV@Gu@physx@@@Gu@physx@@UEBA?AT__m128@@AEBT4@@Z 00000001800e6d80 f i GuPCMContactConvexConvex.obj
 0001:000e6000       ?support@?$RelativeConvex@VShrunkConvexHullNoScaleV@Gu@physx@@@Gu@physx@@UEBA?AT__m128@@AEBT4@AEAHPEAT4@@Z 00000001800e7000 f i GuPCMContactConvexConvex.obj
 0001:000e62d0       ?support@?$RelativeConvex@VShrunkConvexHullV@Gu@physx@@@Gu@physx@@UEBA?AT__m128@@AEBT4@@Z 00000001800e72d0 f i GuPCMContactConvexConvex.obj
 0001:000e6730       ?support@?$RelativeConvex@VShrunkConvexHullV@Gu@physx@@@Gu@physx@@UEBA?AT__m128@@AEBT4@AEAHPEAT4@@Z 00000001800e7730 f i GuPCMContactConvexConvex.obj
 0001:000e6bd0       ?supportPoint@?$RelativeConvex@VConvexHullV@Gu@physx@@@Gu@physx@@UEBA?AT__m128@@HPEAT4@@Z 00000001800e7bd0 f i GuPCMContactConvexConvex.obj
 0001:000e6c50       ?supportPoint@?$RelativeConvex@VShrunkConvexHullNoScaleV@Gu@physx@@@Gu@physx@@UEBA?AT__m128@@HPEAT4@@Z 00000001800e7c50 f i GuPCMContactConvexConvex.obj
 0001:000e6ed0       ?supportPoint@?$RelativeConvex@VShrunkConvexHullV@Gu@physx@@@Gu@physx@@UEBA?AT__m128@@HPEAT4@@Z 00000001800e7ed0 f i GuPCMContactConvexConvex.obj
 0001:000e72e0       ?pcmContactBoxHeightField@Gu@physx@@YA_NAEBVGeometryUnion@12@0AEBVPxTransform@2@1AEBUNarrowPhaseParams@12@AEAUCache@12@AEAVContactBuffer@12@PEAVRenderOutput@Cm@2@@Z 00000001800e82e0 f   GuPCMContactConvexHeightField.obj
 0001:000e7570       ?pcmContactConvexHeightField@Gu@physx@@YA_NAEBVGeometryUnion@12@0AEBVPxTransform@2@1AEBUNarrowPhaseParams@12@AEAUCache@12@AEAVContactBuffer@12@PEAVRenderOutput@Cm@2@@Z 00000001800e8570 f   GuPCMContactConvexHeightField.obj
 0001:000e7c20       ?PCMContactConvexHeightfield@Gu@physx@@YA_NAEBUPolygonalData@12@PEAVSupportLocal@12@AEBT__m128@@AEBVPxBounds3@2@AEBVPxHeightFieldGeometry@2@AEBVPxTransform@2@5MAEAVContactBuffer@12@AEBVFastVertex2ShapeScaling@Cm@2@_NAEAVMultiplePersistentContactManifold@12@PEAVRenderOutput@Cm@2@@Z 00000001800e8c20 f   GuPCMContactConvexHeightField.obj
 0001:000e86f0       ??_E?$PCMHeightfieldContactGenerationCallback@UPCMConvexVsHeightfieldContactGenerationCallback@physx@@@Gu@physx@@UEAAPEAXI@Z 00000001800e96f0 f i GuPCMContactConvexHeightField.obj
 0001:000e86f0       ??_G?$PCMHeightfieldContactGenerationCallback@UPCMConvexVsHeightfieldContactGenerationCallback@physx@@@Gu@physx@@UEAAPEAXI@Z 00000001800e96f0 f i GuPCMContactConvexHeightField.obj
 0001:000e8720       ??_EPCMConvexVsHeightfieldContactGenerationCallback@physx@@UEAAPEAXI@Z 00000001800e9720 f i GuPCMContactConvexHeightField.obj
 0001:000e8720       ??_GPCMConvexVsHeightfieldContactGenerationCallback@physx@@UEAAPEAXI@Z 00000001800e9720 f i GuPCMContactConvexHeightField.obj
 0001:000e8750       ?onEvent@?$PCMHeightfieldContactGenerationCallback@UPCMConvexVsHeightfieldContactGenerationCallback@physx@@@Gu@physx@@UEAA_NIPEAI@Z 00000001800e9750 f i GuPCMContactConvexHeightField.obj
 0001:000e8d00       ?pcmContactBoxMesh@Gu@physx@@YA_NAEBVGeometryUnion@12@0AEBVPxTransform@2@1AEBUNarrowPhaseParams@12@AEAUCache@12@AEAVContactBuffer@12@PEAVRenderOutput@Cm@2@@Z 00000001800e9d00 f   GuPCMContactConvexMesh.obj
 0001:000e9030       ?pcmContactConvexMesh@Gu@physx@@YA_NAEBVGeometryUnion@12@0AEBVPxTransform@2@1AEBUNarrowPhaseParams@12@AEAUCache@12@AEAVContactBuffer@12@PEAVRenderOutput@Cm@2@@Z 00000001800ea030 f   GuPCMContactConvexMesh.obj
 0001:000e9760       ?PCMContactConvexMesh@Gu@physx@@YA_NAEBUPolygonalData@12@PEAVSupportLocal@12@AEBT__m128@@AEBVPxBounds3@2@AEBUPxTriangleMeshGeometryLL@2@AEBVPxTransform@2@5MAEAVContactBuffer@12@AEBVFastVertex2ShapeScaling@Cm@2@7_N8AEAVMultiplePersistentContactManifold@12@PEAVRenderOutput@Cm@2@@Z 00000001800ea760 f   GuPCMContactConvexMesh.obj
 0001:000ea330       ??$processTriangleCache@$0BA@@PCMConvexVsMeshContactGenerationCallback@physx@@QEAAXAEAU?$TriangleCache@$0BA@@Gu@1@@Z 00000001800eb330 f i GuPCMContactConvexMesh.obj
 0001:000ea3c0       ??_E?$PCMMeshContactGenerationCallback@UPCMConvexVsMeshContactGenerationCallback@physx@@@Gu@physx@@UEAAPEAXI@Z 00000001800eb3c0 f i GuPCMContactConvexMesh.obj
 0001:000ea3c0       ??_G?$PCMMeshContactGenerationCallback@UPCMConvexVsMeshContactGenerationCallback@physx@@@Gu@physx@@UEAAPEAXI@Z 00000001800eb3c0 f i GuPCMContactConvexMesh.obj
 0001:000ea3f0       ??_EPCMConvexVsMeshContactGenerationCallback@physx@@UEAAPEAXI@Z 00000001800eb3f0 f i GuPCMContactConvexMesh.obj
 0001:000ea3f0       ??_GPCMConvexVsMeshContactGenerationCallback@physx@@UEAAPEAXI@Z 00000001800eb3f0 f i GuPCMContactConvexMesh.obj
 0001:000ea420       ?processHit@?$PCMMeshContactGenerationCallback@UPCMConvexVsMeshContactGenerationCallback@physx@@@Gu@physx@@UEAA_NAEBUPxRaycastHit@3@AEBVPxVec3@3@11AEAMPEBI@Z 00000001800eb420 f i GuPCMContactConvexMesh.obj
 0001:000ea850       ?generateFullContactManifold@Gu@physx@@YA_NAEAUPolygonalData@12@0PEAVSupportLocal@12@1PEAVPersistentContact@12@AEAIAEBT__m128@@444MM_NPEAVRenderOutput@Cm@2@M@Z 00000001800eb850 f   GuPCMContactGenBoxConvex.obj
 0001:000ec090       ?computeMTD@Gu@physx@@YA_NAEAUPolygonalData@12@0PEAVSupportLocal@12@1AEAT__m128@@2@Z 00000001800ed090 f   GuPCMContactGenBoxConvex.obj
 0001:000ec6f0       ?buildPartialHull@Gu@physx@@YAXAEBUPolygonalData@12@PEAVSupportLocal@12@AEAVSeparatingAxes@12@AEBT__m128@@3@Z 00000001800ed6f0 f   GuPCMContactGenBoxConvex.obj
 0001:000ec9b0       ?generatedContacts@Gu@physx@@YAXAEAUPolygonalData@12@0AEBUHullPolygonData@12@1PEAVSupportLocal@12@2AEBVPsMatTransformV@aos@shdfnd@2@PEAVPersistentContact@12@AEAIAEBT__m128@@PEAVRenderOutput@Cm@2@@Z 00000001800ed9b0 f   GuPCMContactGenBoxConvex.obj
 0001:000ee090       ?generateFullContactManifold@Gu@physx@@YA_NAEBVCapsuleV@12@AEAUPolygonalData@12@PEAVSupportLocal@12@AEBVPsMatTransformV@aos@shdfnd@2@PEAVPersistentContact@12@AEAIAEBT__m128@@AEAT__m128@@6M_NM@Z 00000001800ef090 f   GuPCMContactGenSphereCapsule.obj
 0001:000ee970       ?generateCapsuleBoxFullContactManifold@Gu@physx@@YA_NAEBVCapsuleV@12@AEAUPolygonalData@12@PEAVSupportLocal@12@AEBVPsMatTransformV@aos@shdfnd@2@PEAVPersistentContact@12@AEAIAEBT__m128@@AEAT__m128@@6M_NM@Z 00000001800ef970 f   GuPCMContactGenSphereCapsule.obj
 0001:000ef1e0       ?computeMTD@Gu@physx@@YA_NAEBVCapsuleV@12@AEAUPolygonalData@12@PEAVSupportLocal@12@AEAT__m128@@3@Z 00000001800f01e0 f   GuPCMContactGenSphereCapsule.obj
 0001:000ef2d0       ?generateSphereFullContactManifold@Gu@physx@@YA_NAEBVCapsuleV@12@AEAUPolygonalData@12@PEAVSupportLocal@12@PEAVPersistentContact@12@AEAIAEBT__m128@@AEAT7@_N@Z 00000001800f02d0 f   GuPCMContactGenSphereCapsule.obj
 0001:000ef700       ?generatedCapsuleBoxFaceContacts@Gu@physx@@YAXAEBVCapsuleV@12@AEAUPolygonalData@12@AEBUHullPolygonData@12@PEAVSupportLocal@12@AEBVPsMatTransformV@aos@shdfnd@2@PEAVPersistentContact@12@AEAIAEBT__m128@@7@Z 00000001800f0700 f   GuPCMContactGenSphereCapsule.obj
 0001:000efeb0       ?generatedContactsEEContacts@Gu@physx@@YAXAEBVCapsuleV@12@AEAUPolygonalData@12@AEBUHullPolygonData@12@PEAVSupportLocal@12@AEBVPsMatTransformV@aos@shdfnd@2@PEAVPersistentContact@12@AEAIAEBT__m128@@7@Z 00000001800f0eb0 f   GuPCMContactGenSphereCapsule.obj
 0001:000f0b40       ?pcmContactPlaneBox@Gu@physx@@YA_NAEBVGeometryUnion@12@0AEBVPxTransform@2@1AEBUNarrowPhaseParams@12@AEAUCache@12@AEAVContactBuffer@12@PEAVRenderOutput@Cm@2@@Z 00000001800f1b40 f   GuPCMContactPlaneBox.obj
 0001:000f1730       ?pcmContactPlaneCapsule@Gu@physx@@YA_NAEBVGeometryUnion@12@0AEBVPxTransform@2@1AEBUNarrowPhaseParams@12@AEAUCache@12@AEAVContactBuffer@12@PEAVRenderOutput@Cm@2@@Z 00000001800f2730 f   GuPCMContactPlaneCapsule.obj
 0001:000f1ed0       ?pcmContactPlaneConvex@Gu@physx@@YA_NAEBVGeometryUnion@12@0AEBVPxTransform@2@1AEBUNarrowPhaseParams@12@AEAUCache@12@AEAVContactBuffer@12@PEAVRenderOutput@Cm@2@@Z 00000001800f2ed0 f   GuPCMContactPlaneConvex.obj
 0001:000f2840       ?pcmContactSphereBox@Gu@physx@@YA_NAEBVGeometryUnion@12@0AEBVPxTransform@2@1AEBUNarrowPhaseParams@12@AEAUCache@12@AEAVContactBuffer@12@PEAVRenderOutput@Cm@2@@Z 00000001800f3840 f   GuPCMContactSphereBox.obj
 0001:000f2cb0       ?pcmContactSphereCapsule@Gu@physx@@YA_NAEBVGeometryUnion@12@0AEBVPxTransform@2@1AEBUNarrowPhaseParams@12@AEAUCache@12@AEAVContactBuffer@12@PEAVRenderOutput@Cm@2@@Z 00000001800f3cb0 f   GuPCMContactSphereCapsule.obj
 0001:000f2f10       ?pcmContactSphereConvex@Gu@physx@@YA_NAEBVGeometryUnion@12@0AEBVPxTransform@2@1AEBUNarrowPhaseParams@12@AEAUCache@12@AEAVContactBuffer@12@PEAVRenderOutput@Cm@2@@Z 00000001800f3f10 f   GuPCMContactSphereConvex.obj
 0001:000f3e30       ?pcmContactSphereHeightField@Gu@physx@@YA_NAEBVGeometryUnion@12@0AEBVPxTransform@2@1AEBUNarrowPhaseParams@12@AEAUCache@12@AEAVContactBuffer@12@PEAVRenderOutput@Cm@2@@Z 00000001800f4e30 f   GuPCMContactSphereHeightField.obj
 0001:000f48f0       ??1?$Array@USortedTriangle@Gu@physx@@V?$InlineAllocator@$0IAA@V?$ReflectionAllocator@USortedTriangle@Gu@physx@@@shdfnd@physx@@@shdfnd@3@@shdfnd@physx@@QEAA@XZ 00000001800f58f0 f i GuPCMContactSphereHeightField.obj
 0001:000f4960       ??_E?$PCMHeightfieldContactGenerationCallback@UPCMSphereVsHeightfieldContactGenerationCallback@physx@@@Gu@physx@@UEAAPEAXI@Z 00000001800f5960 f i GuPCMContactSphereHeightField.obj
 0001:000f4960       ??_G?$PCMHeightfieldContactGenerationCallback@UPCMSphereVsHeightfieldContactGenerationCallback@physx@@@Gu@physx@@UEAAPEAXI@Z 00000001800f5960 f i GuPCMContactSphereHeightField.obj
 0001:000f4990       ??_EPCMSphereVsHeightfieldContactGenerationCallback@physx@@UEAAPEAXI@Z 00000001800f5990 f i GuPCMContactSphereHeightField.obj
 0001:000f4990       ??_GPCMSphereVsHeightfieldContactGenerationCallback@physx@@UEAAPEAXI@Z 00000001800f5990 f i GuPCMContactSphereHeightField.obj
 0001:000f49e0       ?onEvent@?$PCMHeightfieldContactGenerationCallback@UPCMSphereVsHeightfieldContactGenerationCallback@physx@@@Gu@physx@@UEAA_NIPEAI@Z 00000001800f59e0 f i GuPCMContactSphereHeightField.obj
 0001:000f4f90       ?pcmContactSphereMesh@Gu@physx@@YA_NAEBVGeometryUnion@12@0AEBVPxTransform@2@1AEBUNarrowPhaseParams@12@AEAUCache@12@AEAVContactBuffer@12@PEAVRenderOutput@Cm@2@@Z 00000001800f5f90 f   GuPCMContactSphereMesh.obj
 0001:000f5ba0       ??$processTriangleCache@$0BA@@PCMSphereVsMeshContactGenerationCallback@physx@@QEAAXAEAU?$TriangleCache@$0BA@@Gu@1@@Z 00000001800f6ba0 f i GuPCMContactSphereMesh.obj
 0001:000f5c30       ??_E?$PCMMeshContactGenerationCallback@UPCMSphereVsMeshContactGenerationCallback@physx@@@Gu@physx@@UEAAPEAXI@Z 00000001800f6c30 f i GuPCMContactSphereMesh.obj
 0001:000f5c30       ??_G?$PCMMeshContactGenerationCallback@UPCMSphereVsMeshContactGenerationCallback@physx@@@Gu@physx@@UEAAPEAXI@Z 00000001800f6c30 f i GuPCMContactSphereMesh.obj
 0001:000f5c60       ??_EPCMSphereVsMeshContactGenerationCallback@physx@@UEAAPEAXI@Z 00000001800f6c60 f i GuPCMContactSphereMesh.obj
 0001:000f5c60       ??_GPCMSphereVsMeshContactGenerationCallback@physx@@UEAAPEAXI@Z 00000001800f6c60 f i GuPCMContactSphereMesh.obj
 0001:000f5cb0       ?processHit@?$PCMMeshContactGenerationCallback@UPCMSphereVsMeshContactGenerationCallback@physx@@@Gu@physx@@UEAA_NAEBUPxRaycastHit@3@AEBVPxVec3@3@11AEAMPEBI@Z 00000001800f6cb0 f i GuPCMContactSphereMesh.obj
 0001:000f6080       ?pcmContactSpherePlane@Gu@physx@@YA_NAEBVGeometryUnion@12@0AEBVPxTransform@2@1AEBUNarrowPhaseParams@12@AEAUCache@12@AEAVContactBuffer@12@PEAVRenderOutput@Cm@2@@Z 00000001800f7080 f   GuPCMContactSpherePlane.obj
 0001:000f6210       ?pcmContactSphereSphere@Gu@physx@@YA_NAEBVGeometryUnion@12@0AEBVPxTransform@2@1AEBUNarrowPhaseParams@12@AEAUCache@12@AEAVContactBuffer@12@PEAVRenderOutput@Cm@2@@Z 00000001800f7210 f   GuPCMContactSphereSphere.obj
 0001:000f62f0       ??0PCMPolygonalBox@Gu@physx@@QEAA@AEBVPxVec3@2@@Z 00000001800f72f0 f   GuPCMShapeConvex.obj
 0001:000f64c0       ?getPolygonalData@PCMPolygonalBox@Gu@physx@@QEBAXPEIAUPolygonalData@23@@Z 00000001800f74c0 f   GuPCMShapeConvex.obj
 0001:000f6510       ?getPCMConvexData@Gu@physx@@YAXAEBVConvexHullV@12@_NAEAUPolygonalData@12@@Z 00000001800f7510 f   GuPCMShapeConvex.obj
 0001:000f6670       ?getPCMConvexData@Gu@physx@@YA_NAEBVGeometryUnion@12@AEAVFastVertex2ShapeScaling@Cm@2@AEAVPxBounds3@2@AEAUPolygonalData@12@@Z 00000001800f7670 f   GuPCMShapeConvex.obj
 0001:000f6a30       ?generateTriangleFullContactManifold@PCMConvexVsMeshContactGeneration@Gu@physx@@QEAA_NAEAVTriangleV@23@IPEBIEAEBUPolygonalData@23@PEAV?$SupportLocalImpl@VTriangleV@Gu@physx@@@23@PEAVSupportLocal@23@PEAVMeshPersistentContact@23@AEAIAEBT__m128@@AEAT9@@Z 00000001800f7a30 f   GuPCMTriangleContactGen.obj
 0001:000f7330       ?generatePolyDataContactManifold@PCMConvexVsMeshContactGeneration@Gu@physx@@QEAA_NAEAVTriangleV@23@IIEPEAVMeshPersistentContact@23@AEAIAEBT__m128@@AEAT6@@Z 00000001800f8330 f   GuPCMTriangleContactGen.obj
 0001:000f7460       ?generateTriangleFullContactManifold@PCMConvexVsMeshContactGeneration@Gu@physx@@SA_NAEAVTriangleV@23@IEAEBUPolygonalData@23@PEAV?$SupportLocalImpl@VTriangleV@Gu@physx@@@23@PEAVSupportLocal@23@PEAVMeshPersistentContact@23@AEAIAEBT__m128@@AEAT9@PEAVRenderOutput@Cm@3@@Z 00000001800f8460 f   GuPCMTriangleContactGen.obj
 0001:000f9bb0       ?findRotationMatrixFromZAxis@Gu@physx@@YA?AUMat33V@aos@shdfnd@2@AEBT__m128@@@Z 00000001800fabb0 f   GuPersistentContactManifold.obj
 0001:000f9e40       ?replaceManifoldPoint@PersistentContactManifold@Gu@physx@@QEAA_NAEBT__m128@@000@Z 00000001800fae40 f   GuPersistentContactManifold.obj
 0001:000f9f10       ?addManifoldPoint@PersistentContactManifold@Gu@physx@@QEAAIAEBT__m128@@000@Z 00000001800faf10 f   GuPersistentContactManifold.obj
 0001:000f9fe0       ?addManifoldPoint2@PersistentContactManifold@Gu@physx@@QEAAIAEBT__m128@@000@Z 00000001800fafe0 f   GuPersistentContactManifold.obj
 0001:000fa120       ?addBatchManifoldContactsCluster@PersistentContactManifold@Gu@physx@@QEAAXPEBVPersistentContact@23@I@Z 00000001800fb120 f   GuPersistentContactManifold.obj
 0001:000fa1a0       ?addBatchManifoldContacts2@PersistentContactManifold@Gu@physx@@QEAAXPEBVPersistentContact@23@I@Z 00000001800fb1a0 f   GuPersistentContactManifold.obj
 0001:000fa220       ?addBatchManifoldContacts@PersistentContactManifold@Gu@physx@@QEAAXPEBVPersistentContact@23@IM@Z 00000001800fb220 f   GuPersistentContactManifold.obj
 0001:000fa2a0       ?reduceBatchContactsCluster@PersistentContactManifold@Gu@physx@@QEAAXPEBVPersistentContact@23@I@Z 00000001800fb2a0 f   GuPersistentContactManifold.obj
 0001:000fa740       ?reduceBatchContacts2@PersistentContactManifold@Gu@physx@@QEAAXPEBVPersistentContact@23@I@Z 00000001800fb740 f   GuPersistentContactManifold.obj
 0001:000fa940       ?reduceBatchContacts@PersistentContactManifold@Gu@physx@@QEAAXPEBVPersistentContact@23@IM@Z 00000001800fb940 f   GuPersistentContactManifold.obj
 0001:000fae10       ?reduceContactsForPCM@PersistentContactManifold@Gu@physx@@QEAAIAEBT__m128@@00@Z 00000001800fbe10 f   GuPersistentContactManifold.obj
 0001:000fb3c0       ?reduceContactSegment@PersistentContactManifold@Gu@physx@@QEAAIAEBT__m128@@00@Z 00000001800fc3c0 f   GuPersistentContactManifold.obj
 0001:000fb460       ?addManifoldContactsToContactBuffer@PersistentContactManifold@Gu@physx@@QEAAXAEAVContactBuffer@23@AEBT__m128@@AEBVPsMatTransformV@aos@shdfnd@3@@Z 00000001800fc460 f   GuPersistentContactManifold.obj
 0001:000fb510       ?addManifoldContactsToContactBuffer@PersistentContactManifold@Gu@physx@@QEAAXAEAVContactBuffer@23@AEBT__m128@@AEBVPsTransformV@aos@shdfnd@3@1@Z 00000001800fc510 f   GuPersistentContactManifold.obj
 0001:000fb670       ?addManifoldContactsToContactBuffer@PersistentContactManifold@Gu@physx@@QEAAXAEAVContactBuffer@23@AEBT__m128@@1AEBVPsTransformV@aos@shdfnd@3@11@Z 00000001800fc670 f   GuPersistentContactManifold.obj
 0001:000fb810       ?drawManifold@PersistentContactManifold@Gu@physx@@QEAAXAEAVRenderOutput@Cm@3@AEBVPsTransformV@aos@shdfnd@3@1@Z 00000001800fc810 f   GuPersistentContactManifold.obj
 0001:000fb890       ?drawManifold@PersistentContactManifold@Gu@physx@@QEAAXAEAVRenderOutput@Cm@3@AEBVPsTransformV@aos@shdfnd@3@1AEBT__m128@@@Z 00000001800fc890 f   GuPersistentContactManifold.obj
 0001:000fb930       ?drawManifold@PersistentContactManifold@Gu@physx@@QEAAXAEBVPersistentContact@23@AEAVRenderOutput@Cm@3@AEBVPsTransformV@aos@shdfnd@3@2@Z 00000001800fc930 f   GuPersistentContactManifold.obj
 0001:000fb960       ?drawPoint@PersistentContactManifold@Gu@physx@@SAXAEAVRenderOutput@Cm@3@AEBT__m128@@MI@Z 00000001800fc960 f   GuPersistentContactManifold.obj
 0001:000fbb40       ?drawLine@PersistentContactManifold@Gu@physx@@SAXAEAVRenderOutput@Cm@3@AEBT__m128@@1I@Z 00000001800fcb40 f   GuPersistentContactManifold.obj
 0001:000fbc00       ?drawTriangle@PersistentContactManifold@Gu@physx@@SAXAEAVRenderOutput@Cm@3@AEBT__m128@@11I@Z 00000001800fcc00 f   GuPersistentContactManifold.obj
 0001:000fbcf0       ?drawPolygon@PersistentContactManifold@Gu@physx@@SAXAEAVRenderOutput@Cm@3@AEBVPsTransformV@aos@shdfnd@3@PEAT__m128@@II@Z 00000001800fccf0 f   GuPersistentContactManifold.obj
 0001:000fbf70       ?drawPolygon@PersistentContactManifold@Gu@physx@@SAXAEAVRenderOutput@Cm@3@AEBVPsMatTransformV@aos@shdfnd@3@PEAT__m128@@II@Z 00000001800fcf70 f   GuPersistentContactManifold.obj
 0001:000fc130       ?reduceBatchContactsConvex@SinglePersistentContactManifold@Gu@physx@@QEAA?AT__m128@@PEBVMeshPersistentContact@23@IAEAUPCMContactPatch@23@@Z 00000001800fd130 f   GuPersistentContactManifold.obj
 0001:000fc730       ?reduceBatchContactsSphere@SinglePersistentContactManifold@Gu@physx@@QEAA?AT__m128@@PEBVMeshPersistentContact@23@IAEAUPCMContactPatch@23@@Z 00000001800fd730 f   GuPersistentContactManifold.obj
 0001:000fc7f0       ?reduceBatchContactsCapsule@SinglePersistentContactManifold@Gu@physx@@QEAA?AT__m128@@PEBVMeshPersistentContact@23@IAEAUPCMContactPatch@23@@Z 00000001800fd7f0 f   GuPersistentContactManifold.obj
 0001:000fca80       ?addBatchManifoldContactsConvex@SinglePersistentContactManifold@Gu@physx@@QEAA?AT__m128@@PEBVMeshPersistentContact@23@IAEAUPCMContactPatch@23@AEBT4@@Z 00000001800fda80 f   GuPersistentContactManifold.obj
 0001:000fcb50       ?addBatchManifoldContactsSphere@SinglePersistentContactManifold@Gu@physx@@QEAA?AT__m128@@PEBVMeshPersistentContact@23@IAEAUPCMContactPatch@23@AEBT4@@Z 00000001800fdb50 f   GuPersistentContactManifold.obj
 0001:000fcc20       ?addBatchManifoldContactsCapsule@SinglePersistentContactManifold@Gu@physx@@QEAA?AT__m128@@PEBVMeshPersistentContact@23@IAEAUPCMContactPatch@23@AEBT4@@Z 00000001800fdc20 f   GuPersistentContactManifold.obj
 0001:000fccf0       ?reduceContacts@SinglePersistentContactManifold@Gu@physx@@SAIPEAVMeshPersistentContact@23@I@Z 00000001800fdcf0 f   GuPersistentContactManifold.obj
 0001:000fd200       ?refreshContactPoints@SinglePersistentContactManifold@Gu@physx@@QEAA?AT__m128@@AEBVPsMatTransformV@aos@shdfnd@3@AEBT4@1@Z 00000001800fe200 f   GuPersistentContactManifold.obj
 0001:000fd360       ?drawManifold@SinglePersistentContactManifold@Gu@physx@@QEAAXAEAVRenderOutput@Cm@3@AEBVPsTransformV@aos@shdfnd@3@1@Z 00000001800fe360 f   GuPersistentContactManifold.obj
 0001:000fd3f0       ?addManifoldContactPoints@MultiplePersistentContactManifold@Gu@physx@@QEAAXPEAVMeshPersistentContact@23@IPEAPEAUPCMContactPatch@23@IAEBT__m128@@2E@Z 00000001800fe3f0 f   GuPersistentContactManifold.obj
 0001:000fd7e0       ?addManifoldContactsToContactBuffer@MultiplePersistentContactManifold@Gu@physx@@QEAA_NAEAVContactBuffer@23@AEBVPsTransformV@aos@shdfnd@3@@Z 00000001800fe7e0 f   GuPersistentContactManifold.obj
 0001:000fda70       ?addManifoldContactsToContactBuffer@MultiplePersistentContactManifold@Gu@physx@@QEAA_NAEAVContactBuffer@23@AEBVPsTransformV@aos@shdfnd@3@1AEBT__m128@@@Z 00000001800fea70 f   GuPersistentContactManifold.obj
 0001:000fdd30       ?drawManifold@MultiplePersistentContactManifold@Gu@physx@@QEAAXAEAVRenderOutput@Cm@3@AEBVPsTransformV@aos@shdfnd@3@1@Z 00000001800fed30 f   GuPersistentContactManifold.obj
 0001:000fddf0       ?fromBuffer@MultiplePersistentContactManifold@Gu@physx@@QEAAXPEIAE@Z 00000001800fedf0 f   GuPersistentContactManifold.obj
 0001:000fdf50       ?drawLine@MultiplePersistentContactManifold@Gu@physx@@SAXAEAVRenderOutput@Cm@3@AEBT__m128@@1I@Z 00000001800fef50 f   GuPersistentContactManifold.obj
 0001:000fe010       ?drawLine@MultiplePersistentContactManifold@Gu@physx@@SAXAEAVRenderOutput@Cm@3@VPxVec3@3@1I@Z 00000001800ff010 f   GuPersistentContactManifold.obj
 0001:000fe0d0       ?drawPoint@MultiplePersistentContactManifold@Gu@physx@@SAXAEAVRenderOutput@Cm@3@AEBT__m128@@MI@Z 00000001800ff0d0 f   GuPersistentContactManifold.obj
 0001:000fe2b0       ?drawPolygon@MultiplePersistentContactManifold@Gu@physx@@SAXAEAVRenderOutput@Cm@3@AEBVPsTransformV@aos@shdfnd@3@PEAT__m128@@II@Z 00000001800ff2b0 f   GuPersistentContactManifold.obj
 0001:000ff770       ?SweepEstimateAnyShapeHeightfield@Gu@physx@@YAMAEBUCCDShape@12@0AEBVPxTransform@2@111MM@Z 0000000180100770 f   GuCCDSweepConvexMesh.obj
 0001:000fffe0       ?SweepEstimateAnyShapeMesh@Gu@physx@@YAMAEBUCCDShape@12@0AEBVPxTransform@2@111MM@Z 0000000180100fe0 f   GuCCDSweepConvexMesh.obj
 0001:00100420       ?SweepAnyShapeHeightfield@Gu@physx@@YAMAEBUCCDShape@12@0AEBVPxTransform@2@111MAEAVPxVec3@2@2MAEAIM@Z 0000000180101420 f   GuCCDSweepConvexMesh.obj
 0001:00101560       ?SweepAnyShapeMesh@Gu@physx@@YAMAEBUCCDShape@12@0AEBVPxTransform@2@111MAEAVPxVec3@2@2MAEAIM@Z 0000000180102560 f   GuCCDSweepConvexMesh.obj
 0001:00103d30       ?growAndPushBack@?$Array@IV?$InlineAllocator@$0BAA@V?$ReflectionAllocator@I@shdfnd@physx@@@shdfnd@physx@@@shdfnd@physx@@IEAAAEAIAEBI@Z 0000000180104d30 f i GuCCDSweepConvexMesh.obj
 0001:00103e50       ?recreate@?$Array@IV?$InlineAllocator@$0BAA@V?$ReflectionAllocator@I@shdfnd@physx@@@shdfnd@physx@@@shdfnd@physx@@IEAAXI@Z 0000000180104e50 f i GuCCDSweepConvexMesh.obj
 0001:00103f30       ?recreate@?$Array@IV?$ReflectionAllocator@I@shdfnd@physx@@@shdfnd@physx@@IEAAXI@Z 0000000180104f30 f i GuCCDSweepConvexMesh.obj
 0001:00103ff0       ?resize@?$Array@IV?$InlineAllocator@$0BAA@V?$ReflectionAllocator@I@shdfnd@physx@@@shdfnd@physx@@@shdfnd@physx@@QEAAXIAEBI@Z 0000000180104ff0 f i GuCCDSweepConvexMesh.obj
 0001:001040c0       ?resize@?$Array@IV?$ReflectionAllocator@I@shdfnd@physx@@@shdfnd@physx@@QEAAXIAEBI@Z 00000001801050c0 f i GuCCDSweepConvexMesh.obj
 0001:00104180       ?SweepShapeShape@Gu@physx@@YAMAEBUCCDShape@12@0AEBVPxTransform@2@111MAEAVPxVec3@2@2MAEAIM@Z 0000000180105180 f   GuCCDSweepPrimitives.obj
 0001:001041b0       ?UnimplementedSweep@Gu@physx@@YAMAEBUCCDShape@12@0AEBVPxTransform@2@111MAEAVPxVec3@2@2MAEAIM@Z 00000001801051b0 f   GuCCDSweepPrimitives.obj
 0001:001041c0       ?UnimplementedTriangleSweep@Gu@physx@@YAMAEBVGeometryUnion@12@0AEBVPxTransform@2@111MAEAVPxVec3@2@2AEBVFastVertex2ShapeScaling@Cm@2@AEAVTriangleV@12@M@Z 00000001801051c0 f   GuCCDSweepPrimitives.obj
 0001:001041d0       ?SweepShapeTriangle@Gu@physx@@YAMAEBVGeometryUnion@12@0AEBVPxTransform@2@111MAEAVPxVec3@2@2AEBVFastVertex2ShapeScaling@Cm@2@AEAVTriangleV@12@M@Z 00000001801051d0 f   GuCCDSweepPrimitives.obj
 0001:001041f0       ??$SweepGeomGeom@VCapsuleV@Gu@physx@@V123@@Gu@physx@@YAMAEBUCCDShape@01@0AEBVPxTransform@1@111MAEAVPxVec3@1@2MAEAIM@Z 00000001801051f0 f i GuCCDSweepPrimitives.obj
 0001:00104330       ??$SweepGeomGeom@VCapsuleV@Gu@physx@@VBoxV@23@@Gu@physx@@YAMAEBUCCDShape@01@0AEBVPxTransform@1@111MAEAVPxVec3@1@2MAEAIM@Z 0000000180105330 f i GuCCDSweepPrimitives.obj
 0001:001044d0       ??$SweepGeomGeom@VCapsuleV@Gu@physx@@VConvexHullV@23@@Gu@physx@@YAMAEBUCCDShape@01@0AEBVPxTransform@1@111MAEAVPxVec3@1@2MAEAIM@Z 00000001801054d0 f i GuCCDSweepPrimitives.obj
 0001:00104a40       ??$SweepGeomGeom@VBoxV@Gu@physx@@V123@@Gu@physx@@YAMAEBUCCDShape@01@0AEBVPxTransform@1@111MAEAVPxVec3@1@2MAEAIM@Z 0000000180105a40 f i GuCCDSweepPrimitives.obj
 0001:00104c50       ??$SweepGeomGeom@VBoxV@Gu@physx@@VConvexHullV@23@@Gu@physx@@YAMAEBUCCDShape@01@0AEBVPxTransform@1@111MAEAVPxVec3@1@2MAEAIM@Z 0000000180105c50 f i GuCCDSweepPrimitives.obj
 0001:00105200       ??$SweepGeomGeom@VConvexHullV@Gu@physx@@V123@@Gu@physx@@YAMAEBUCCDShape@01@0AEBVPxTransform@1@111MAEAVPxVec3@1@2MAEAIM@Z 0000000180106200 f i GuCCDSweepPrimitives.obj
 0001:00105b20       ??$SweepGeomTriangles@VCapsuleV@Gu@physx@@@Gu@physx@@YAMAEBVGeometryUnion@01@0AEBVPxTransform@1@111MAEAVPxVec3@1@2AEBVFastVertex2ShapeScaling@Cm@1@AEAVTriangleV@01@M@Z 0000000180106b20 f i GuCCDSweepPrimitives.obj
 0001:00105bf0       ??$SweepGeomTriangles@VBoxV@Gu@physx@@@Gu@physx@@YAMAEBVGeometryUnion@01@0AEBVPxTransform@1@111MAEAVPxVec3@1@2AEBVFastVertex2ShapeScaling@Cm@1@AEAVTriangleV@01@M@Z 0000000180106bf0 f i GuCCDSweepPrimitives.obj
 0001:00105d20       ??$SweepGeomTriangles@VConvexHullV@Gu@physx@@@Gu@physx@@YAMAEBVGeometryUnion@01@0AEBVPxTransform@1@111MAEAVPxVec3@1@2AEBVFastVertex2ShapeScaling@Cm@1@AEAVTriangleV@01@M@Z 0000000180106d20 f i GuCCDSweepPrimitives.obj
 0001:00106220       ?supportPoint@?$RelativeConvex@VCapsuleV@Gu@physx@@@Gu@physx@@UEBA?AT__m128@@HPEAT4@@Z 0000000180107220 f i GuCCDSweepPrimitives.obj
 0001:00106280       ?support@?$RelativeConvex@VCapsuleV@Gu@physx@@@Gu@physx@@UEBA?AT__m128@@AEBT4@@Z 0000000180107280 f i GuCCDSweepPrimitives.obj
 0001:00106330       ?support@?$RelativeConvex@VCapsuleV@Gu@physx@@@Gu@physx@@UEBA?AT__m128@@AEBT4@AEAHPEAT4@@Z 0000000180107330 f i GuCCDSweepPrimitives.obj
 0001:001063f0       ?getCenter@?$RelativeConvex@VCapsuleV@Gu@physx@@@Gu@physx@@UEBA?AT__m128@@XZ 00000001801073f0 f i GuCCDSweepPrimitives.obj
 0001:00106430       ?getSweepMargin@?$RelativeConvex@VCapsuleV@Gu@physx@@@Gu@physx@@UEBA?AT__m128@@XZ 0000000180107430 f i GuCCDSweepPrimitives.obj
 0001:00106440       ??_E?$RelativeConvex@VCapsuleV@Gu@physx@@@Gu@physx@@UEAAPEAXI@Z 0000000180107440 f i GuCCDSweepPrimitives.obj
 0001:00106440       ??_G?$RelativeConvex@VCapsuleV@Gu@physx@@@Gu@physx@@UEAAPEAXI@Z 0000000180107440 f i GuCCDSweepPrimitives.obj
 0001:00106470       ?supportPoint@?$RelativeConvex@VShrunkBoxV@Gu@physx@@@Gu@physx@@UEBA?AT__m128@@HPEAT4@@Z 0000000180107470 f i GuCCDSweepPrimitives.obj
 0001:001064f0       ?support@?$RelativeConvex@VShrunkBoxV@Gu@physx@@@Gu@physx@@UEBA?AT__m128@@AEBT4@@Z 00000001801074f0 f i GuCCDSweepPrimitives.obj
 0001:00106590       ?support@?$RelativeConvex@VShrunkBoxV@Gu@physx@@@Gu@physx@@UEBA?AT__m128@@AEBT4@AEAHPEAT4@@Z 0000000180107590 f i GuCCDSweepPrimitives.obj
 0001:00106640       ?getCenter@?$RelativeConvex@VShrunkBoxV@Gu@physx@@@Gu@physx@@UEBA?AT__m128@@XZ 0000000180107640 f i GuCCDSweepPrimitives.obj
 0001:00106680       ?getSweepMargin@?$RelativeConvex@VShrunkBoxV@Gu@physx@@@Gu@physx@@UEBA?AT__m128@@XZ 0000000180107680 f i GuCCDSweepPrimitives.obj
 0001:001066a0       ??_E?$RelativeConvex@VShrunkBoxV@Gu@physx@@@Gu@physx@@UEAAPEAXI@Z 00000001801076a0 f i GuCCDSweepPrimitives.obj
 0001:001066a0       ??_G?$RelativeConvex@VShrunkBoxV@Gu@physx@@@Gu@physx@@UEAAPEAXI@Z 00000001801076a0 f i GuCCDSweepPrimitives.obj
 0001:0010a420       ??$gjkPenetration@U?$RelativeConvex@VCapsuleV@Gu@physx@@@Gu@physx@@U?$LocalConvex@VCapsuleV@Gu@physx@@@23@@Gu@physx@@YA?AW4GjkStatus@01@AEBU?$RelativeConvex@VCapsuleV@Gu@physx@@@01@AEBU?$LocalConvex@VCapsuleV@Gu@physx@@@01@AEBT__m128@@2AEAT5@333PEIAE4AEAE_N@Z 000000018010b420 f i GuCCDSweepPrimitives.obj
 0001:0010bae0       ??$gjkPenetration@U?$RelativeConvex@VCapsuleV@Gu@physx@@@Gu@physx@@U?$LocalConvex@VShrunkBoxV@Gu@physx@@@23@@Gu@physx@@YA?AW4GjkStatus@01@AEBU?$RelativeConvex@VCapsuleV@Gu@physx@@@01@AEBU?$LocalConvex@VShrunkBoxV@Gu@physx@@@01@AEBT__m128@@2AEAT5@333PEIAE4AEAE_N@Z 000000018010cae0 f i GuCCDSweepPrimitives.obj
 0001:0010d1c0       ??$gjkPenetration@U?$RelativeConvex@VCapsuleV@Gu@physx@@@Gu@physx@@U?$LocalConvex@VShrunkConvexHullV@Gu@physx@@@23@@Gu@physx@@YA?AW4GjkStatus@01@AEBU?$RelativeConvex@VCapsuleV@Gu@physx@@@01@AEBU?$LocalConvex@VShrunkConvexHullV@Gu@physx@@@01@AEBT__m128@@2AEAT5@333PEIAE4AEAE_N@Z 000000018010e1c0 f i GuCCDSweepPrimitives.obj
 0001:0010ebd0       ??$gjkPenetration@U?$RelativeConvex@VShrunkBoxV@Gu@physx@@@Gu@physx@@U?$LocalConvex@VShrunkBoxV@Gu@physx@@@23@@Gu@physx@@YA?AW4GjkStatus@01@AEBU?$RelativeConvex@VShrunkBoxV@Gu@physx@@@01@AEBU?$LocalConvex@VShrunkBoxV@Gu@physx@@@01@AEBT__m128@@2AEAT5@333PEIAE4AEAE_N@Z 000000018010fbd0 f i GuCCDSweepPrimitives.obj
 0001:001102b0       ??$gjkPenetration@U?$RelativeConvex@VShrunkBoxV@Gu@physx@@@Gu@physx@@U?$LocalConvex@VShrunkConvexHullV@Gu@physx@@@23@@Gu@physx@@YA?AW4GjkStatus@01@AEBU?$RelativeConvex@VShrunkBoxV@Gu@physx@@@01@AEBU?$LocalConvex@VShrunkConvexHullV@Gu@physx@@@01@AEBT__m128@@2AEAT5@333PEIAE4AEAE_N@Z 00000001801112b0 f i GuCCDSweepPrimitives.obj
 0001:00111cd0       ??$gjkPenetration@U?$RelativeConvex@VTriangleV@Gu@physx@@@Gu@physx@@U?$LocalConvex@VCapsuleV@Gu@physx@@@23@@Gu@physx@@YA?AW4GjkStatus@01@AEBU?$RelativeConvex@VTriangleV@Gu@physx@@@01@AEBU?$LocalConvex@VCapsuleV@Gu@physx@@@01@AEBT__m128@@2AEAT5@333PEIAE4AEAE_N@Z 0000000180112cd0 f i GuCCDSweepPrimitives.obj
 0001:001133b0       ??$gjkPenetration@U?$RelativeConvex@VTriangleV@Gu@physx@@@Gu@physx@@U?$LocalConvex@VShrunkBoxV@Gu@physx@@@23@@Gu@physx@@YA?AW4GjkStatus@01@AEBU?$RelativeConvex@VTriangleV@Gu@physx@@@01@AEBU?$LocalConvex@VShrunkBoxV@Gu@physx@@@01@AEBT__m128@@2AEAT5@333PEIAE4AEAE_N@Z 00000001801143b0 f i GuCCDSweepPrimitives.obj
 0001:00114ab0       ??$gjkPenetration@U?$RelativeConvex@VTriangleV@Gu@physx@@@Gu@physx@@U?$LocalConvex@VShrunkConvexHullV@Gu@physx@@@23@@Gu@physx@@YA?AW4GjkStatus@01@AEBU?$RelativeConvex@VTriangleV@Gu@physx@@@01@AEBU?$LocalConvex@VShrunkConvexHullV@Gu@physx@@@01@AEBT__m128@@2AEAT5@333PEIAE4AEAE_N@Z 0000000180115ab0 f i GuCCDSweepPrimitives.obj
 0001:001164f0       ??$gjkRaycast@U?$RelativeConvex@VCapsuleV@Gu@physx@@@Gu@physx@@U?$LocalConvex@VCapsuleV@Gu@physx@@@23@@Gu@physx@@YA_NAEBU?$RelativeConvex@VCapsuleV@Gu@physx@@@01@AEBU?$LocalConvex@VCapsuleV@Gu@physx@@@01@AEBT__m128@@222AEAT4@33M@Z 00000001801174f0 f i GuCCDSweepPrimitives.obj
 0001:00117200       ??$gjkRaycast@U?$RelativeConvex@VCapsuleV@Gu@physx@@@Gu@physx@@U?$LocalConvex@VShrunkBoxV@Gu@physx@@@23@@Gu@physx@@YA_NAEBU?$RelativeConvex@VCapsuleV@Gu@physx@@@01@AEBU?$LocalConvex@VShrunkBoxV@Gu@physx@@@01@AEBT__m128@@222AEAT4@33M@Z 0000000180118200 f i GuCCDSweepPrimitives.obj
 0001:00117ee0       ??$gjkRaycast@U?$RelativeConvex@VCapsuleV@Gu@physx@@@Gu@physx@@U?$LocalConvex@VShrunkConvexHullV@Gu@physx@@@23@@Gu@physx@@YA_NAEBU?$RelativeConvex@VCapsuleV@Gu@physx@@@01@AEBU?$LocalConvex@VShrunkConvexHullV@Gu@physx@@@01@AEBT__m128@@222AEAT4@33M@Z 0000000180118ee0 f i GuCCDSweepPrimitives.obj
 0001:00118b60       ??$gjkRaycast@U?$RelativeConvex@VShrunkBoxV@Gu@physx@@@Gu@physx@@U?$LocalConvex@VShrunkBoxV@Gu@physx@@@23@@Gu@physx@@YA_NAEBU?$RelativeConvex@VShrunkBoxV@Gu@physx@@@01@AEBU?$LocalConvex@VShrunkBoxV@Gu@physx@@@01@AEBT__m128@@222AEAT4@33M@Z 0000000180119b60 f i GuCCDSweepPrimitives.obj
 0001:001197f0       ??$gjkRaycast@U?$RelativeConvex@VShrunkBoxV@Gu@physx@@@Gu@physx@@U?$LocalConvex@VShrunkConvexHullV@Gu@physx@@@23@@Gu@physx@@YA_NAEBU?$RelativeConvex@VShrunkBoxV@Gu@physx@@@01@AEBU?$LocalConvex@VShrunkConvexHullV@Gu@physx@@@01@AEBT__m128@@222AEAT4@33M@Z 000000018011a7f0 f i GuCCDSweepPrimitives.obj
 0001:0011a440       ??$gjkRaycast@U?$RelativeConvex@VShrunkConvexHullV@Gu@physx@@@Gu@physx@@U?$LocalConvex@VShrunkConvexHullV@Gu@physx@@@23@@Gu@physx@@YA_NAEBU?$RelativeConvex@VShrunkConvexHullV@Gu@physx@@@01@AEBU?$LocalConvex@VShrunkConvexHullV@Gu@physx@@@01@AEBT__m128@@222AEAT4@33M@Z 000000018011b440 f i GuCCDSweepPrimitives.obj
 0001:0011afb0       ??$gjkRaycast@U?$RelativeConvex@VTriangleV@Gu@physx@@@Gu@physx@@U?$LocalConvex@VBoxV@Gu@physx@@@23@@Gu@physx@@YA_NAEBU?$RelativeConvex@VTriangleV@Gu@physx@@@01@AEBU?$LocalConvex@VBoxV@Gu@physx@@@01@AEBT__m128@@222AEAT4@33M@Z 000000018011bfb0 f i GuCCDSweepPrimitives.obj
 0001:0011bd00       ??$gjkRaycast@U?$RelativeConvex@VTriangleV@Gu@physx@@@Gu@physx@@U?$LocalConvex@VCapsuleV@Gu@physx@@@23@@Gu@physx@@YA_NAEBU?$RelativeConvex@VTriangleV@Gu@physx@@@01@AEBU?$LocalConvex@VCapsuleV@Gu@physx@@@01@AEBT__m128@@222AEAT4@33M@Z 000000018011cd00 f i GuCCDSweepPrimitives.obj
 0001:0011ca90       ??$gjkRaycast@U?$RelativeConvex@VTriangleV@Gu@physx@@@Gu@physx@@U?$LocalConvex@VConvexHullV@Gu@physx@@@23@@Gu@physx@@YA_NAEBU?$RelativeConvex@VTriangleV@Gu@physx@@@01@AEBU?$LocalConvex@VConvexHullV@Gu@physx@@@01@AEBT__m128@@222AEAT4@33M@Z 000000018011da90 f i GuCCDSweepPrimitives.obj
 0001:0011d960       ??$gjkRaycastPenetration@U?$RelativeConvex@VCapsuleV@Gu@physx@@@Gu@physx@@U?$LocalConvex@VCapsuleV@Gu@physx@@@23@@Gu@physx@@YA_NAEBU?$RelativeConvex@VCapsuleV@Gu@physx@@@01@AEBU?$LocalConvex@VCapsuleV@Gu@physx@@@01@AEBT__m128@@222AEAT4@33M_N@Z 000000018011e960 f i GuCCDSweepPrimitives.obj
 0001:0011dbf0       ??$gjkRaycastPenetration@U?$RelativeConvex@VCapsuleV@Gu@physx@@@Gu@physx@@U?$LocalConvex@VShrunkBoxV@Gu@physx@@@23@@Gu@physx@@YA_NAEBU?$RelativeConvex@VCapsuleV@Gu@physx@@@01@AEBU?$LocalConvex@VShrunkBoxV@Gu@physx@@@01@AEBT__m128@@222AEAT4@33M_N@Z 000000018011ebf0 f i GuCCDSweepPrimitives.obj
 0001:0011de80       ??$gjkRaycastPenetration@U?$RelativeConvex@VCapsuleV@Gu@physx@@@Gu@physx@@U?$LocalConvex@VShrunkConvexHullV@Gu@physx@@@23@@Gu@physx@@YA_NAEBU?$RelativeConvex@VCapsuleV@Gu@physx@@@01@AEBU?$LocalConvex@VShrunkConvexHullV@Gu@physx@@@01@AEBT__m128@@222AEAT4@33M_N@Z 000000018011ee80 f i GuCCDSweepPrimitives.obj
 0001:0011e110       ??$gjkRaycastPenetration@U?$RelativeConvex@VShrunkBoxV@Gu@physx@@@Gu@physx@@U?$LocalConvex@VShrunkBoxV@Gu@physx@@@23@@Gu@physx@@YA_NAEBU?$RelativeConvex@VShrunkBoxV@Gu@physx@@@01@AEBU?$LocalConvex@VShrunkBoxV@Gu@physx@@@01@AEBT__m128@@222AEAT4@33M_N@Z 000000018011f110 f i GuCCDSweepPrimitives.obj
 0001:0011e3a0       ??$gjkRaycastPenetration@U?$RelativeConvex@VShrunkBoxV@Gu@physx@@@Gu@physx@@U?$LocalConvex@VShrunkConvexHullV@Gu@physx@@@23@@Gu@physx@@YA_NAEBU?$RelativeConvex@VShrunkBoxV@Gu@physx@@@01@AEBU?$LocalConvex@VShrunkConvexHullV@Gu@physx@@@01@AEBT__m128@@222AEAT4@33M_N@Z 000000018011f3a0 f i GuCCDSweepPrimitives.obj
 0001:0011e630       ??$gjkRaycastPenetration@U?$RelativeConvex@VShrunkConvexHullV@Gu@physx@@@Gu@physx@@U?$LocalConvex@VShrunkConvexHullV@Gu@physx@@@23@@Gu@physx@@YA_NAEBU?$RelativeConvex@VShrunkConvexHullV@Gu@physx@@@01@AEBU?$LocalConvex@VShrunkConvexHullV@Gu@physx@@@01@AEBT__m128@@222AEAT4@33M_N@Z 000000018011f630 f i GuCCDSweepPrimitives.obj
 0001:0011e8c0       ??$gjkRaycastPenetration@U?$RelativeConvex@VTriangleV@Gu@physx@@@Gu@physx@@U?$LocalConvex@VBoxV@Gu@physx@@@23@@Gu@physx@@YA_NAEBU?$RelativeConvex@VTriangleV@Gu@physx@@@01@AEBU?$LocalConvex@VBoxV@Gu@physx@@@01@AEBT__m128@@222AEAT4@33M_N@Z 000000018011f8c0 f i GuCCDSweepPrimitives.obj
 0001:0011eb50       ??$gjkRaycastPenetration@U?$RelativeConvex@VTriangleV@Gu@physx@@@Gu@physx@@U?$LocalConvex@VCapsuleV@Gu@physx@@@23@@Gu@physx@@YA_NAEBU?$RelativeConvex@VTriangleV@Gu@physx@@@01@AEBU?$LocalConvex@VCapsuleV@Gu@physx@@@01@AEBT__m128@@222AEAT4@33M_N@Z 000000018011fb50 f i GuCCDSweepPrimitives.obj
 0001:0011ede0       ??$gjkRaycastPenetration@U?$RelativeConvex@VTriangleV@Gu@physx@@@Gu@physx@@U?$LocalConvex@VConvexHullV@Gu@physx@@@23@@Gu@physx@@YA_NAEBU?$RelativeConvex@VTriangleV@Gu@physx@@@01@AEBU?$LocalConvex@VConvexHullV@Gu@physx@@@01@AEBT__m128@@222AEAT4@33M_N@Z 000000018011fde0 f i GuCCDSweepPrimitives.obj
 0001:0011f070       ?computeBounds@Gu@physx@@YAXAEAVPxBounds3@2@AEBVPxGeometry@2@AEBVPxTransform@2@MPEIBVCenterExtentsPadded@12@M_N@Z 0000000180120070 f   GuBounds.obj
 0001:0011fab0       ?computeBoundsWithCCDThreshold@Gu@physx@@YAMAEAVVec3p@12@0AEBVPxGeometry@2@AEBVPxTransform@2@PEIBVCenterExtentsPadded@12@@Z 0000000180120ab0 f   GuBounds.obj
 0001:00120070       ??0ShapeData@Gu@physx@@QEAA@AEBVPxGeometry@2@AEBVPxTransform@2@M@Z 0000000180121070 f   GuBounds.obj
 0001:001216d0       ?computeOBBPoints@Gu@physx@@YAXPEIAVPxVec3@2@AEBV32@1111@Z 00000001801226d0 f   GuBox.obj
 0001:00121950       ?create@Box@Gu@physx@@QEAAXAEBVCapsule@23@@Z 0000000180122950 f   GuBox.obj
 0001:00121b90       ?getBoxEdges@Gu@physx@@YAPEBEXZ 0000000180122b90 f   GuBox.obj
 0001:00121ba0       ?computeBoxAroundCapsule@Gu@physx@@YAXAEBVCapsule@12@AEAVBox@12@@Z 0000000180122ba0 f   GuCapsule.obj
 0001:00121cf0       ?sweepBoxTriangles_Precise@Gu@physx@@YA_NIPEBVPxTriangle@2@_NAEBVPxBoxGeometry@2@AEBVPxTransform@2@AEBVPxVec3@2@MAEAUPxSweepHit@2@PEBIMV?$PxFlags@W4Enum@PxHitFlag@physx@@G@2@@Z 0000000180122cf0 f   GuCCTSweepTests.obj
 0001:00121e40       ?sweepCapsule_BoxGeom_Precise@@YA_NAEBVPxGeometry@physx@@AEBVPxTransform@2@AEBVPxCapsuleGeometry@2@1AEBVCapsule@Gu@2@AEBVPxVec3@2@MAEAUPxSweepHit@2@V?$PxFlags@W4Enum@PxHitFlag@physx@@G@2@M@Z 0000000180122e40 f   GuCCTSweepTests.obj
 0001:001224e0       ?sweepBox_SphereGeom_Precise@@YA_NAEBVPxGeometry@physx@@AEBVPxTransform@2@AEBVPxBoxGeometry@2@1AEBVBox@Gu@2@AEBVPxVec3@2@MAEAUPxSweepHit@2@V?$PxFlags@W4Enum@PxHitFlag@physx@@G@2@M@Z 00000001801234e0 f   GuCCTSweepTests.obj
 0001:001227c0       ?sweepBox_CapsuleGeom_Precise@@YA_NAEBVPxGeometry@physx@@AEBVPxTransform@2@AEBVPxBoxGeometry@2@1AEBVBox@Gu@2@AEBVPxVec3@2@MAEAUPxSweepHit@2@V?$PxFlags@W4Enum@PxHitFlag@physx@@G@2@M@Z 00000001801237c0 f   GuCCTSweepTests.obj
 0001:00122b90       ?sweepBox_BoxGeom_Precise@@YA_NAEBVPxGeometry@physx@@AEBVPxTransform@2@AEBVPxBoxGeometry@2@1AEBVBox@Gu@2@AEBVPxVec3@2@MAEAUPxSweepHit@2@V?$PxFlags@W4Enum@PxHitFlag@physx@@G@2@M@Z 0000000180123b90 f   GuCCTSweepTests.obj
 0001:00122d50       ?sweepBox_HeightFieldGeom_Precise@@YA_NAEBVPxGeometry@physx@@AEBVPxTransform@2@AEBVPxBoxGeometry@2@1AEBVBox@Gu@2@AEBVPxVec3@2@MAEAUPxSweepHit@2@V?$PxFlags@W4Enum@PxHitFlag@physx@@G@2@M@Z 0000000180123d50 f   GuCCTSweepTests.obj
 0001:00123f80       ?sweep@PxGeometryQuery@physx@@SA_NAEBVPxVec3@2@MAEBVPxGeometry@2@AEBVPxTransform@2@12AEAUPxSweepHit@2@V?$PxFlags@W4Enum@PxHitFlag@physx@@G@2@M@Z 0000000180124f80 f   GuGeometryQuery.obj
 0001:00124380       ?overlap@PxGeometryQuery@physx@@SA_NAEBVPxGeometry@2@AEBVPxTransform@2@01@Z 0000000180125380 f   GuGeometryQuery.obj
 0001:00124430       ?raycast@PxGeometryQuery@physx@@SAIAEBVPxVec3@2@0AEBVPxGeometry@2@AEBVPxTransform@2@MV?$PxFlags@W4Enum@PxHitFlag@physx@@G@2@IPEIAUPxRaycastHit@2@@Z 0000000180125430 f   GuGeometryQuery.obj
 0001:001244d0       ?computePenetration@PxGeometryQuery@physx@@SA_NAEAVPxVec3@2@AEAMAEBVPxGeometry@2@AEBVPxTransform@2@23@Z 00000001801254d0 f   GuGeometryQuery.obj
 0001:001245b0       ?pointDistance@PxGeometryQuery@physx@@SAMAEBVPxVec3@2@AEBVPxGeometry@2@AEBVPxTransform@2@PEAV32@@Z 00000001801255b0 f   GuGeometryQuery.obj
 0001:00124c40       ?getWorldBounds@PxGeometryQuery@physx@@SA?AVPxBounds3@2@AEBVPxGeometry@2@AEBVPxTransform@2@M@Z 0000000180125c40 f   GuGeometryQuery.obj
 0001:00124cb0       ?isValid@PxGeometryQuery@physx@@SA_NAEBVPxGeometry@2@@Z 0000000180125cb0 f   GuGeometryQuery.obj
 0001:00124eb0       ?isFinite@PxQuat@physx@@QEBA_NXZ 0000000180125eb0 f i GuGeometryQuery.obj
 0001:00124f20       ?set@GeometryUnion@Gu@physx@@QEAAXAEBVPxGeometry@3@@Z 0000000180125f20 f   GuGeometryUnion.obj
 0001:001250e0       ?computeBoxPoints@Gu@physx@@YAXAEBVPxBounds3@2@PEIAVPxVec3@2@@Z 00000001801260e0 f   GuInternal.obj
 0001:00125180       ?computeBoundsAroundVertices@Gu@physx@@YAXAEAVPxBounds3@2@IPEIBVPxVec3@2@@Z 0000000180126180 f   GuInternal.obj
 0001:00125230       ?getPlane@Gu@physx@@YA?AVPxPlane@2@AEBVPxTransform@2@@Z 0000000180126230 f   GuInternal.obj
 0001:001252e0       ?computeSweptBox@Gu@physx@@YAXAEAVBox@12@AEBVPxVec3@2@1AEBVPxMat33@2@1M@Z 00000001801262e0 f   GuInternal.obj
 0001:00125820       ??0GuMeshFactory@physx@@QEAA@XZ 0000000180126820 f   GuMeshFactory.obj
 0001:00125980       ??1GuMeshFactory@physx@@MEAA@XZ 0000000180126980 f   GuMeshFactory.obj
 0001:00125a50       ?release@GuMeshFactory@physx@@QEAAXXZ 0000000180126a50 f   GuMeshFactory.obj
 0001:00125b20       ?addTriangleMesh@GuMeshFactory@physx@@QEAAXPEAVTriangleMesh@Gu@2@_N@Z 0000000180126b20 f   GuMeshFactory.obj
 0001:00125ba0       ?createTriangleMesh@GuMeshFactory@physx@@QEAAPEAVPxTriangleMesh@2@AEAVPxInputStream@2@@Z 0000000180126ba0 f   GuMeshFactory.obj
 0001:00125c00       ?createTriangleMesh@GuMeshFactory@physx@@QEAAPEAVPxTriangleMesh@2@PEAX@Z 0000000180126c00 f   GuMeshFactory.obj
 0001:00125c10       ?removeTriangleMesh@GuMeshFactory@physx@@QEAA_NAEAVPxTriangleMesh@2@@Z 0000000180126c10 f   GuMeshFactory.obj
 0001:00125c80       ?getNbTriangleMeshes@GuMeshFactory@physx@@QEBAIXZ 0000000180126c80 f   GuMeshFactory.obj
 0001:00125cc0       ?getTriangleMeshes@GuMeshFactory@physx@@QEBAIPEAPEAVPxTriangleMesh@2@II@Z 0000000180126cc0 f   GuMeshFactory.obj
 0001:00125d50       ?addConvexMesh@GuMeshFactory@physx@@QEAAXPEAVConvexMesh@Gu@2@_N@Z 0000000180126d50 f   GuMeshFactory.obj
 0001:00125dd0       ?createConvexMesh@GuMeshFactory@physx@@QEAAPEAVPxConvexMesh@2@AEAVPxInputStream@2@@Z 0000000180126dd0 f   GuMeshFactory.obj
 0001:00125ef0       ?createConvexMesh@GuMeshFactory@physx@@QEAAPEAVPxConvexMesh@2@PEAX@Z 0000000180126ef0 f   GuMeshFactory.obj
 0001:00125f00       ?removeConvexMesh@GuMeshFactory@physx@@QEAA_NAEAVPxConvexMesh@2@@Z 0000000180126f00 f   GuMeshFactory.obj
 0001:00125f70       ?getNbConvexMeshes@GuMeshFactory@physx@@QEBAIXZ 0000000180126f70 f   GuMeshFactory.obj
 0001:00125fb0       ?getConvexMeshes@GuMeshFactory@physx@@QEBAIPEAPEAVPxConvexMesh@2@II@Z 0000000180126fb0 f   GuMeshFactory.obj
 0001:00126040       ?addHeightField@GuMeshFactory@physx@@QEAAXPEAVHeightField@Gu@2@_N@Z 0000000180127040 f   GuMeshFactory.obj
 0001:001260c0       ?createHeightField@GuMeshFactory@physx@@QEAAPEAVPxHeightField@2@PEAX@Z 00000001801270c0 f   GuMeshFactory.obj
 0001:001261c0       ?createHeightField@GuMeshFactory@physx@@QEAAPEAVPxHeightField@2@AEAVPxInputStream@2@@Z 00000001801271c0 f   GuMeshFactory.obj
 0001:001262e0       ?removeHeightField@GuMeshFactory@physx@@QEAA_NAEAVPxHeightField@2@@Z 00000001801272e0 f   GuMeshFactory.obj
 0001:00126350       ?getNbHeightFields@GuMeshFactory@physx@@QEBAIXZ 0000000180127350 f   GuMeshFactory.obj
 0001:00126390       ?getHeightFields@GuMeshFactory@physx@@QEBAIPEAPEAVPxHeightField@2@II@Z 0000000180127390 f   GuMeshFactory.obj
 0001:00126430       ?addFactoryListener@GuMeshFactory@physx@@QEAAXAEAVGuMeshFactoryListener@2@@Z 0000000180127430 f   GuMeshFactory.obj
 0001:001264b0       ?removeFactoryListener@GuMeshFactory@physx@@QEAAXAEAVGuMeshFactoryListener@2@@Z 00000001801274b0 f   GuMeshFactory.obj
 0001:00126540       ?notifyFactoryListener@GuMeshFactory@physx@@QEAAXPEBVPxBase@2@G@Z 0000000180127540 f   GuMeshFactory.obj
 0001:001265c0       ?createTriangleMesh@GuMeshFactory@physx@@IEAAPEAVPxTriangleMesh@2@AEAVTriangleMeshData@Gu@2@@Z 00000001801275c0 f   GuMeshFactory.obj
 0001:00126750       ?createConvexMesh@GuMeshFactory@physx@@IEAAPEAVPxConvexMesh@2@AEAUConvexHullData@Gu@2@@Z 0000000180127750 f   GuMeshFactory.obj
 0001:00126840       ??1BV4TriangleData@Gu@physx@@UEAA@XZ 0000000180127840 f i GuMeshFactory.obj
 0001:00126880       ??1RTreeTriangleData@Gu@physx@@UEAA@XZ 0000000180127880 f i GuMeshFactory.obj
 0001:001268f0       ??1TriangleMeshData@Gu@physx@@UEAA@XZ 00000001801278f0 f i GuMeshFactory.obj
 0001:00126a60       ??_EGuMeshFactory@physx@@MEAAPEAXI@Z 0000000180127a60 f i GuMeshFactory.obj
 0001:00126b70       ??_EBV4TriangleData@Gu@physx@@UEAAPEAXI@Z 0000000180127b70 f i GuMeshFactory.obj
 0001:00126b70       ??_GBV4TriangleData@Gu@physx@@UEAAPEAXI@Z 0000000180127b70 f i GuMeshFactory.obj
 0001:00126bf0       ??_GGuMeshFactory@physx@@MEAAPEAXI@Z 0000000180127bf0 f i GuMeshFactory.obj
 0001:00126c50       ??_ERTreeTriangleData@Gu@physx@@UEAAPEAXI@Z 0000000180127c50 f i GuMeshFactory.obj
 0001:00126c50       ??_GRTreeTriangleData@Gu@physx@@UEAAPEAXI@Z 0000000180127c50 f i GuMeshFactory.obj
 0001:00126d00       ??_ETriangleMeshData@Gu@physx@@UEAAPEAXI@Z 0000000180127d00 f i GuMeshFactory.obj
 0001:00126d00       ??_GTriangleMeshData@Gu@physx@@UEAAPEAXI@Z 0000000180127d00 f i GuMeshFactory.obj
 0001:00126d60       ?create@?$HashBase@PEAVConvexMesh@Gu@physx@@PEAV123@U?$Hash@PEAVConvexMesh@Gu@physx@@@shdfnd@3@UGetKey@?$HashSetBase@PEAVConvexMesh@Gu@physx@@U?$Hash@PEAVConvexMesh@Gu@physx@@@shdfnd@3@VNonTrackingAllocator@53@$00@internal@53@VNonTrackingAllocator@53@$00@internal@shdfnd@physx@@QEAAPEAPEAVConvexMesh@Gu@4@AEBQEAV564@AEA_N@Z 0000000180127d60 f i GuMeshFactory.obj
 0001:00126ef0       ?create@?$HashBase@PEAVHeightField@Gu@physx@@PEAV123@U?$Hash@PEAVHeightField@Gu@physx@@@shdfnd@3@UGetKey@?$HashSetBase@PEAVHeightField@Gu@physx@@U?$Hash@PEAVHeightField@Gu@physx@@@shdfnd@3@VNonTrackingAllocator@53@$00@internal@53@VNonTrackingAllocator@53@$00@internal@shdfnd@physx@@QEAAPEAPEAVHeightField@Gu@4@AEBQEAV564@AEA_N@Z 0000000180127ef0 f i GuMeshFactory.obj
 0001:00127080       ?create@?$HashBase@PEAVTriangleMesh@Gu@physx@@PEAV123@U?$Hash@PEAVTriangleMesh@Gu@physx@@@shdfnd@3@UGetKey@?$HashSetBase@PEAVTriangleMesh@Gu@physx@@U?$Hash@PEAVTriangleMesh@Gu@physx@@@shdfnd@3@VNonTrackingAllocator@53@$00@internal@53@VNonTrackingAllocator@53@$00@internal@shdfnd@physx@@QEAAPEAPEAVTriangleMesh@Gu@4@AEBQEAV564@AEA_N@Z 0000000180128080 f i GuMeshFactory.obj
 0001:00127210       ?erase@?$HashBase@PEAVConvexMesh@Gu@physx@@PEAV123@U?$Hash@PEAVConvexMesh@Gu@physx@@@shdfnd@3@UGetKey@?$HashSetBase@PEAVConvexMesh@Gu@physx@@U?$Hash@PEAVConvexMesh@Gu@physx@@@shdfnd@3@VNonTrackingAllocator@53@$00@internal@53@VNonTrackingAllocator@53@$00@internal@shdfnd@physx@@QEAA_NAEBQEAVConvexMesh@Gu@4@@Z 0000000180128210 f i GuMeshFactory.obj
 0001:00127390       ?erase@?$HashBase@PEAVHeightField@Gu@physx@@PEAV123@U?$Hash@PEAVHeightField@Gu@physx@@@shdfnd@3@UGetKey@?$HashSetBase@PEAVHeightField@Gu@physx@@U?$Hash@PEAVHeightField@Gu@physx@@@shdfnd@3@VNonTrackingAllocator@53@$00@internal@53@VNonTrackingAllocator@53@$00@internal@shdfnd@physx@@QEAA_NAEBQEAVHeightField@Gu@4@@Z 0000000180128390 f i GuMeshFactory.obj
 0001:00127510       ?erase@?$HashBase@PEAVTriangleMesh@Gu@physx@@PEAV123@U?$Hash@PEAVTriangleMesh@Gu@physx@@@shdfnd@3@UGetKey@?$HashSetBase@PEAVTriangleMesh@Gu@physx@@U?$Hash@PEAVTriangleMesh@Gu@physx@@@shdfnd@3@VNonTrackingAllocator@53@$00@internal@53@VNonTrackingAllocator@53@$00@internal@shdfnd@physx@@QEAA_NAEBQEAVTriangleMesh@Gu@4@@Z 0000000180128510 f i GuMeshFactory.obj
 0001:00127690       ?growAndPushBack@?$Array@PEAVGuMeshFactoryListener@physx@@V?$ReflectionAllocator@PEAVGuMeshFactoryListener@physx@@@shdfnd@2@@shdfnd@physx@@IEAAAEAPEAVGuMeshFactoryListener@3@AEBQEAV43@@Z 0000000180128690 f i GuMeshFactory.obj
 0001:00128770       ?reserveInternal@?$HashBase@PEAVConvexMesh@Gu@physx@@PEAV123@U?$Hash@PEAVConvexMesh@Gu@physx@@@shdfnd@3@UGetKey@?$HashSetBase@PEAVConvexMesh@Gu@physx@@U?$Hash@PEAVConvexMesh@Gu@physx@@@shdfnd@3@VNonTrackingAllocator@53@$00@internal@53@VNonTrackingAllocator@53@$00@internal@shdfnd@physx@@AEAAXI@Z 0000000180129770 f i GuMeshFactory.obj
 0001:00128940       ?reserveInternal@?$HashBase@PEAVHeightField@Gu@physx@@PEAV123@U?$Hash@PEAVHeightField@Gu@physx@@@shdfnd@3@UGetKey@?$HashSetBase@PEAVHeightField@Gu@physx@@U?$Hash@PEAVHeightField@Gu@physx@@@shdfnd@3@VNonTrackingAllocator@53@$00@internal@53@VNonTrackingAllocator@53@$00@internal@shdfnd@physx@@AEAAXI@Z 0000000180129940 f i GuMeshFactory.obj
 0001:00128b10       ?reserveInternal@?$HashBase@PEAVTriangleMesh@Gu@physx@@PEAV123@U?$Hash@PEAVTriangleMesh@Gu@physx@@@shdfnd@3@UGetKey@?$HashSetBase@PEAVTriangleMesh@Gu@physx@@U?$Hash@PEAVTriangleMesh@Gu@physx@@@shdfnd@3@VNonTrackingAllocator@53@$00@internal@53@VNonTrackingAllocator@53@$00@internal@shdfnd@physx@@AEAAXI@Z 0000000180129b10 f i GuMeshFactory.obj
 0001:00128ce0       ?getBinaryMetaData@HeightField@Gu@physx@@SAXAEAVPxOutputStream@3@@Z 0000000180129ce0 f   GuMetaData.obj
 0001:00129110       ?getBinaryMetaData@BigConvexData@physx@@SAXAEAVPxOutputStream@2@@Z 000000018012a110 f   GuMetaData.obj
 0001:001293e0       ?getBinaryMetaData@ConvexMesh@Gu@physx@@SAXAEAVPxOutputStream@3@@Z 000000018012a3e0 f   GuMetaData.obj
 0001:00129a70       ?getBinaryMetaData@RTree@Gu@physx@@SAXAEAVPxOutputStream@3@@Z 000000018012aa70 f   GuMetaData.obj
 0001:00129db0       ?getBinaryMetaData@SourceMesh@Gu@physx@@SAXAEAVPxOutputStream@3@@Z 000000018012adb0 f   GuMetaData.obj
 0001:00129fa0       ?getBinaryMetaData@BV4Tree@Gu@physx@@SAXAEAVPxOutputStream@3@@Z 000000018012afa0 f   GuMetaData.obj
 0001:0012a340       ?getBinaryMetaData@TriangleMesh@Gu@physx@@SAXAEAVPxOutputStream@3@@Z 000000018012b340 f   GuMetaData.obj
 0001:0012ab60       ?getBinaryMetaData@BV4TriangleMesh@Gu@physx@@SAXAEAVPxOutputStream@3@@Z 000000018012bb60 f   GuMetaData.obj
 0001:0012ae40       ?getBinaryMetaData@RTreeTriangleMesh@Gu@physx@@SAXAEAVPxOutputStream@3@@Z 000000018012be40 f   GuMetaData.obj
 0001:0012af30       ?getBinaryMetaData@MaterialIndicesStruct@physx@@SAXAEAVPxOutputStream@2@@Z 000000018012bf30 f   GuMetaData.obj
 0001:0012b0e0       ?getBinaryMetaData@GeometryUnion@Gu@physx@@SAXAEAVPxOutputStream@3@@Z 000000018012c0e0 f   GuMetaData.obj
 0001:0012cbc0       ?pointConvexDistance@@YA_NAEAVPxVec3@physx@@0AEAMAEBV12@PEBVConvexMesh@Gu@2@AEBVPxMeshScale@2@AEBVPxTransform@2@@Z 000000018012dbc0 f   GuMTD.obj
 0001:0012f5b0       ??0ContactPoint@Gu@physx@@QEAA@XZ 00000001801305b0 f i GuMTD.obj
 0001:00133980       ?getOverlapFuncTable@Gu@physx@@YAPEAY06Q6A_NAEBVPxGeometry@2@AEBVPxTransform@2@01PEAUTriggerCache@12@@ZXZ 0000000180134980 f   GuOverlapTests.obj
 0001:00133990       ?registerHeightFields@Gu@physx@@YAXXZ 0000000180134990 f   GuOverlapTests.obj
 0001:00135c10       ??$gjk@U?$RelativeConvex@VBoxV@Gu@physx@@@Gu@physx@@U?$LocalConvex@VConvexHullV@Gu@physx@@@23@@Gu@physx@@YA?AW4GjkStatus@01@AEBU?$RelativeConvex@VBoxV@Gu@physx@@@01@AEBU?$LocalConvex@VConvexHullV@Gu@physx@@@01@AEBT__m128@@2AEAT5@333@Z 0000000180136c10 f i GuOverlapTests.obj
 0001:001369c0       ??$gjk@U?$RelativeConvex@VConvexHullV@Gu@physx@@@Gu@physx@@U?$LocalConvex@VConvexHullV@Gu@physx@@@23@@Gu@physx@@YA?AW4GjkStatus@01@AEBU?$RelativeConvex@VConvexHullV@Gu@physx@@@01@AEBU?$LocalConvex@VConvexHullV@Gu@physx@@@01@AEBT__m128@@2AEAT5@333@Z 00000001801379c0 f i GuOverlapTests.obj
 0001:00137840       ?ComputeCubemapNearestOffset@physx@@YAIAEBVPxVec3@1@I@Z 0000000180138840 f i GuOverlapTests.obj
 0001:00139450       ?getRaycastFuncTable@Gu@physx@@YAAEAY06Q6AIAEBVPxGeometry@2@AEBVPxTransform@2@AEBVPxVec3@2@2MV?$PxFlags@W4Enum@PxHitFlag@physx@@G@2@IPEIAUPxRaycastHit@2@@ZXZ 000000018013a450 f   GuRaycastTests.obj
 0001:00139460       ?raycast_box@@YAIAEBVPxGeometry@physx@@AEBVPxTransform@2@AEBVPxVec3@2@2MV?$PxFlags@W4Enum@PxHitFlag@physx@@G@2@IPEIAUPxRaycastHit@2@@Z 000000018013a460 f   GuRaycastTests.obj
 0001:00139aa0       ?raycast_sphere@@YAIAEBVPxGeometry@physx@@AEBVPxTransform@2@AEBVPxVec3@2@2MV?$PxFlags@W4Enum@PxHitFlag@physx@@G@2@IPEIAUPxRaycastHit@2@@Z 000000018013aaa0 f   GuRaycastTests.obj
 0001:00139c30       ?raycast_capsule@@YAIAEBVPxGeometry@physx@@AEBVPxTransform@2@AEBVPxVec3@2@2MV?$PxFlags@W4Enum@PxHitFlag@physx@@G@2@IPEIAUPxRaycastHit@2@@Z 000000018013ac30 f   GuRaycastTests.obj
 0001:0013a190       ?raycast_plane@@YAIAEBVPxGeometry@physx@@AEBVPxTransform@2@AEBVPxVec3@2@2MV?$PxFlags@W4Enum@PxHitFlag@physx@@G@2@IPEIAUPxRaycastHit@2@@Z 000000018013b190 f   GuRaycastTests.obj
 0001:0013a310       ?raycast_convexMesh@@YAIAEBVPxGeometry@physx@@AEBVPxTransform@2@AEBVPxVec3@2@2MV?$PxFlags@W4Enum@PxHitFlag@physx@@G@2@IPEIAUPxRaycastHit@2@@Z 000000018013b310 f   GuRaycastTests.obj
 0001:0013ae50       ?raycast_triangleMesh@@YAIAEBVPxGeometry@physx@@AEBVPxTransform@2@AEBVPxVec3@2@2MV?$PxFlags@W4Enum@PxHitFlag@physx@@G@2@IPEIAUPxRaycastHit@2@@Z 000000018013be50 f   GuRaycastTests.obj
 0001:0013aee0       ?raycast_heightField@@YAIAEBVPxGeometry@physx@@AEBVPxTransform@2@AEBVPxVec3@2@2MV?$PxFlags@W4Enum@PxHitFlag@physx@@G@2@IPEIAUPxRaycastHit@2@@Z 000000018013bee0 f   GuRaycastTests.obj
 0001:0013b660       ?registerHeightFields_Raycasts@@YAXXZ 000000018013c660 f   GuRaycastTests.obj
 0001:0013ce60       ?readChunk@physx@@YAXAEAC000AEAVPxInputStream@1@@Z 000000018013de60 f   GuSerialize.obj
 0001:0013cef0       ?readWord@physx@@YAG_NAEAVPxInputStream@1@@Z 000000018013def0 f   GuSerialize.obj
 0001:0013cf40       ?readDword@physx@@YAI_NAEAVPxInputStream@1@@Z 000000018013df40 f   GuSerialize.obj
 0001:0013cfa0       ?readFloat@physx@@YAM_NAEAVPxInputStream@1@@Z 000000018013dfa0 f   GuSerialize.obj
 0001:0013d000       ?writeWord@physx@@YAXG_NAEAVPxOutputStream@1@@Z 000000018013e000 f   GuSerialize.obj
 0001:0013d040       ?writeDword@physx@@YAXI_NAEAVPxOutputStream@1@@Z 000000018013e040 f   GuSerialize.obj
 0001:0013d090       ?writeFloat@physx@@YAXM_NAEAVPxOutputStream@1@@Z 000000018013e090 f   GuSerialize.obj
 0001:0013d0f0       ?readFloatBuffer@physx@@YA_NPEAMI_NAEAVPxInputStream@1@@Z 000000018013e0f0 f   GuSerialize.obj
 0001:0013d170       ?writeFloatBuffer@physx@@YAXPEBMI_NAEAVPxOutputStream@1@@Z 000000018013e170 f   GuSerialize.obj
 0001:0013d220       ?writeWordBuffer@physx@@YAXPEBGI_NAEAVPxOutputStream@1@@Z 000000018013e220 f   GuSerialize.obj
 0001:0013d2b0       ?readWordBuffer@physx@@YAXPEAGI_NAEAVPxInputStream@1@@Z 000000018013e2b0 f   GuSerialize.obj
 0001:0013d320       ?writeHeader@physx@@YA_NCCCCI_NAEAVPxOutputStream@1@@Z 000000018013e320 f   GuSerialize.obj
 0001:0013d450       ?readHeader@physx@@YA_NCCCCAEAIAEA_NAEAVPxInputStream@1@@Z 000000018013e450 f   GuSerialize.obj
 0001:0013d5b0       ?computeMaxIndex@physx@@YAIPEBII@Z 000000018013e5b0 f   GuSerialize.obj
 0001:0013d5e0       ?computeMaxIndex@physx@@YAGPEBGI@Z 000000018013e5e0 f   GuSerialize.obj
 0001:0013d620       ?storeIndices@physx@@YAXIIPEBIAEAVPxOutputStream@1@_N@Z 000000018013e620 f   GuSerialize.obj
 0001:0013d740       ?readIndices@physx@@YAXIIPEAIAEAVPxInputStream@1@_N@Z 000000018013e740 f   GuSerialize.obj
 0001:0013d870       ?WriteHeader@Gu@physx@@YA_NEEEEI_NAEAVPxOutputStream@2@@Z 000000018013e870 f   GuSerialize.obj
 0001:0013d9a0       ?ReadHeader@Gu@physx@@YA_NEEEEAEAIAEA_NAEAVPxInputStream@2@@Z 000000018013e9a0 f   GuSerialize.obj
 0001:0013db10       ?StoreIndices@Gu@physx@@YAXIIPEBIAEAVPxOutputStream@2@_N@Z 000000018013eb10 f   GuSerialize.obj
 0001:0013dca0       ?ReadIndices@Gu@physx@@YAXIIPEAIAEAVPxInputStream@2@_N@Z 000000018013eca0 f   GuSerialize.obj
 0001:0013df90       ?StoreIndices@Gu@physx@@YAXGIPEBGAEAVPxOutputStream@2@_N@Z 000000018013ef90 f   GuSerialize.obj
 0001:0013e080       ?ReadIndices@Gu@physx@@YAXGIPEAGAEAVPxInputStream@2@_N@Z 000000018013f080 f   GuSerialize.obj
 0001:0013e210       ?computeCapsule_TriangleMeshMTD@Gu@physx@@YA_NAEBVPxTriangleMeshGeometry@2@AEBVPxTransform@2@AEAVCapsuleV@12@M_NAEAUPxSweepHit@2@@Z 000000018013f210 f   GuSweepMTD.obj
 0001:0013eab0       ?computeCapsule_HeightFieldMTD@Gu@physx@@YA_NAEBVPxHeightFieldGeometry@2@AEBVPxTransform@2@AEAVCapsuleV@12@M_NIAEAUPxSweepHit@2@@Z 000000018013fab0 f   GuSweepMTD.obj
 0001:0013f2f0       ?computeBox_TriangleMeshMTD@Gu@physx@@YA_NAEBVPxTriangleMeshGeometry@2@AEBVPxTransform@2@AEBVBox@12@1M_NAEAUPxSweepHit@2@@Z 00000001801402f0 f   GuSweepMTD.obj
 0001:0013ff40       ?computeBox_HeightFieldMTD@Gu@physx@@YA_NAEBVPxHeightFieldGeometry@2@AEBVPxTransform@2@AEBVBox@12@1M_NIAEAUPxSweepHit@2@@Z 0000000180140f40 f   GuSweepMTD.obj
 0001:00140da0       ?computeConvex_TriangleMeshMTD@Gu@physx@@YA_NAEBVPxTriangleMeshGeometry@2@AEBVPxTransform@2@AEBVPxConvexMeshGeometry@2@1M_NAEAUPxSweepHit@2@@Z 0000000180141da0 f   GuSweepMTD.obj
 0001:00142010       ?computeConvex_HeightFieldMTD@Gu@physx@@YA_NAEBVPxHeightFieldGeometry@2@AEBVPxTransform@2@AEBVPxConvexMeshGeometry@2@1M_NIAEAUPxSweepHit@2@@Z 0000000180143010 f   GuSweepMTD.obj
 0001:001433a0       ?computeSphere_SphereMTD@Gu@physx@@YA_NAEBVSphere@12@0AEAUPxSweepHit@2@@Z 00000001801443a0 f   GuSweepMTD.obj
 0001:00143490       ?computeSphere_CapsuleMTD@Gu@physx@@YA_NAEBVSphere@12@AEBVCapsule@12@AEAUPxSweepHit@2@@Z 0000000180144490 f   GuSweepMTD.obj
 0001:00143640       ?computeCapsule_CapsuleMTD@Gu@physx@@YA_NAEBVCapsule@12@0AEAUPxSweepHit@2@@Z 0000000180144640 f   GuSweepMTD.obj
 0001:00143880       ?computePlane_CapsuleMTD@Gu@physx@@YA_NAEBVPxPlane@2@AEBVCapsule@12@AEAUPxSweepHit@2@@Z 0000000180144880 f   GuSweepMTD.obj
 0001:001439a0       ?computePlane_BoxMTD@Gu@physx@@YA_NAEBVPxPlane@2@AEBVBox@12@AEAUPxSweepHit@2@@Z 00000001801449a0 f   GuSweepMTD.obj
 0001:00143c40       ?computePlane_ConvexMTD@Gu@physx@@YA_NAEBVPxPlane@2@AEBVPxConvexMeshGeometry@2@AEBVPxTransform@2@AEAUPxSweepHit@2@@Z 0000000180144c40 f   GuSweepMTD.obj
 0001:00144800       ??0MTDTriangle@@QEAA@XZ    0000000180145800 f i GuSweepMTD.obj
 0001:00144810       ??1MTDTriangle@@QEAA@XZ    0000000180145810 f i GuSweepMTD.obj
 0001:00144820       ??_EMeshMTDGenerationCallback@@UEAAPEAXI@Z 0000000180145820 f i GuSweepMTD.obj
 0001:00144820       ??_GMeshMTDGenerationCallback@@UEAAPEAXI@Z 0000000180145820 f i GuSweepMTD.obj
 0001:00144850       ??_EMidPhaseQueryLocalReport@@UEAAPEAXI@Z 0000000180145850 f i GuSweepMTD.obj
 0001:00144850       ??_GMidPhaseQueryLocalReport@@UEAAPEAXI@Z 0000000180145850 f i GuSweepMTD.obj
 0001:00144880       ?onEvent@MidPhaseQueryLocalReport@@UEAA_NIPEAI@Z 0000000180145880 f i GuSweepMTD.obj
 0001:001448f0       ?processHit@MeshMTDGenerationCallback@@UEAA_NAEBUPxRaycastHit@physx@@AEBVPxVec3@3@11AEAMPEBI@Z 00000001801458f0 f i GuSweepMTD.obj
 0001:00144940       ?sweepCapsuleTriangles@Gu@physx@@YA_NIPEBVPxTriangle@2@_NAEBVPxCapsuleGeometry@2@AEBVPxTransform@2@AEBVPxVec3@2@MAEAUPxSweepHit@2@PEBIMV?$PxFlags@W4Enum@PxHitFlag@physx@@G@2@@Z 0000000180145940 f   GuSweepSharedTests.obj
 0001:00144b30       ?sweepCapsule_SphereGeom@@YA_NAEBVPxGeometry@physx@@AEBVPxTransform@2@AEBVPxCapsuleGeometry@2@1AEBVCapsule@Gu@2@AEBVPxVec3@2@MAEAUPxSweepHit@2@V?$PxFlags@W4Enum@PxHitFlag@physx@@G@2@M@Z 0000000180145b30 f   GuSweepSharedTests.obj
 0001:00144cd0       ?sweepCapsule_PlaneGeom@@YA_NAEBVPxGeometry@physx@@AEBVPxTransform@2@AEBVPxCapsuleGeometry@2@1AEBVCapsule@Gu@2@AEBVPxVec3@2@MAEAUPxSweepHit@2@V?$PxFlags@W4Enum@PxHitFlag@physx@@G@2@M@Z 0000000180145cd0 f   GuSweepSharedTests.obj
 0001:00144fc0       ?sweepCapsule_CapsuleGeom@@YA_NAEBVPxGeometry@physx@@AEBVPxTransform@2@AEBVPxCapsuleGeometry@2@1AEBVCapsule@Gu@2@AEBVPxVec3@2@MAEAUPxSweepHit@2@V?$PxFlags@W4Enum@PxHitFlag@physx@@G@2@M@Z 0000000180145fc0 f   GuSweepSharedTests.obj
 0001:001451a0       ?sweepCapsule_ConvexGeom@@YA_NAEBVPxGeometry@physx@@AEBVPxTransform@2@AEBVPxCapsuleGeometry@2@1AEBVCapsule@Gu@2@AEBVPxVec3@2@MAEAUPxSweepHit@2@V?$PxFlags@W4Enum@PxHitFlag@physx@@G@2@M@Z 00000001801461a0 f   GuSweepSharedTests.obj
 0001:00145ef0       ?sweepBox_PlaneGeom@@YA_NAEBVPxGeometry@physx@@AEBVPxTransform@2@AEBVPxBoxGeometry@2@1AEBVBox@Gu@2@AEBVPxVec3@2@MAEAUPxSweepHit@2@V?$PxFlags@W4Enum@PxHitFlag@physx@@G@2@M@Z 0000000180146ef0 f   GuSweepSharedTests.obj
 0001:001462c0       ?sweepBox_ConvexGeom@@YA_NAEBVPxGeometry@physx@@AEBVPxTransform@2@AEBVPxBoxGeometry@2@1AEBVBox@Gu@2@AEBVPxVec3@2@MAEAUPxSweepHit@2@V?$PxFlags@W4Enum@PxHitFlag@physx@@G@2@M@Z 00000001801472c0 f   GuSweepSharedTests.obj
 0001:00147160       ?sweepConvex_SphereGeom@@YA_NAEBVPxGeometry@physx@@AEBVPxTransform@2@AEBVPxConvexMeshGeometry@2@1AEBVPxVec3@2@MAEAUPxSweepHit@2@V?$PxFlags@W4Enum@PxHitFlag@physx@@G@2@M@Z 0000000180148160 f   GuSweepSharedTests.obj
 0001:00147da0       ?sweepConvex_PlaneGeom@@YA_NAEBVPxGeometry@physx@@AEBVPxTransform@2@AEBVPxConvexMeshGeometry@2@1AEBVPxVec3@2@MAEAUPxSweepHit@2@V?$PxFlags@W4Enum@PxHitFlag@physx@@G@2@M@Z 0000000180148da0 f   GuSweepSharedTests.obj
 0001:001481f0       ?sweepConvex_CapsuleGeom@@YA_NAEBVPxGeometry@physx@@AEBVPxTransform@2@AEBVPxConvexMeshGeometry@2@1AEBVPxVec3@2@MAEAUPxSweepHit@2@V?$PxFlags@W4Enum@PxHitFlag@physx@@G@2@M@Z 00000001801491f0 f   GuSweepSharedTests.obj
 0001:00148420       ?sweepConvex_BoxGeom@@YA_NAEBVPxGeometry@physx@@AEBVPxTransform@2@AEBVPxConvexMeshGeometry@2@1AEBVPxVec3@2@MAEAUPxSweepHit@2@V?$PxFlags@W4Enum@PxHitFlag@physx@@G@2@M@Z 0000000180149420 f   GuSweepSharedTests.obj
 0001:00148640       ?sweepConvex_ConvexGeom@@YA_NAEBVPxGeometry@physx@@AEBVPxTransform@2@AEBVPxConvexMeshGeometry@2@1AEBVPxVec3@2@MAEAUPxSweepHit@2@V?$PxFlags@W4Enum@PxHitFlag@physx@@G@2@M@Z 0000000180149640 f   GuSweepSharedTests.obj
 0001:00149650       ??$gjkPenetration@U?$LocalConvex@VCapsuleV@Gu@physx@@@Gu@physx@@U?$LocalConvex@VShrunkConvexHullV@Gu@physx@@@23@@Gu@physx@@YA?AW4GjkStatus@01@AEBU?$LocalConvex@VCapsuleV@Gu@physx@@@01@AEBU?$LocalConvex@VShrunkConvexHullV@Gu@physx@@@01@AEBT__m128@@2AEAT5@333PEIAE4AEAE_N@Z 000000018014a650 f i GuSweepSharedTests.obj
 0001:0014afd0       ??$gjkRaycast@U?$LocalConvex@VCapsuleV@Gu@physx@@@Gu@physx@@U?$LocalConvex@VConvexHullV@Gu@physx@@@23@@Gu@physx@@YA_NAEBU?$LocalConvex@VCapsuleV@Gu@physx@@@01@AEBU?$LocalConvex@VConvexHullV@Gu@physx@@@01@AEBT__m128@@222AEAT4@33M@Z 000000018014bfd0 f i GuSweepSharedTests.obj
 0001:0014bd30       ??$gjkRaycast@U?$RelativeConvex@VBoxV@Gu@physx@@@Gu@physx@@U?$LocalConvex@VConvexHullV@Gu@physx@@@23@@Gu@physx@@YA_NAEBU?$RelativeConvex@VBoxV@Gu@physx@@@01@AEBU?$LocalConvex@VConvexHullV@Gu@physx@@@01@AEBT__m128@@222AEAT4@33M@Z 000000018014cd30 f i GuSweepSharedTests.obj
 0001:0014cb30       ??$gjkRaycast@U?$RelativeConvex@VConvexHullV@Gu@physx@@@Gu@physx@@U?$LocalConvex@VConvexHullV@Gu@physx@@@23@@Gu@physx@@YA_NAEBU?$RelativeConvex@VConvexHullV@Gu@physx@@@01@AEBU?$LocalConvex@VConvexHullV@Gu@physx@@@01@AEBT__m128@@222AEAT4@33M@Z 000000018014db30 f i GuSweepSharedTests.obj
 0001:0014d920       ??$gjkRaycastPenetration@U?$LocalConvex@VCapsuleV@Gu@physx@@@Gu@physx@@U?$LocalConvex@VConvexHullV@Gu@physx@@@23@@Gu@physx@@YA_NAEBU?$LocalConvex@VCapsuleV@Gu@physx@@@01@AEBU?$LocalConvex@VConvexHullV@Gu@physx@@@01@AEBT__m128@@222AEAT4@33M_N@Z 000000018014e920 f i GuSweepSharedTests.obj
 0001:0014db50       ??$gjkRaycastPenetration@U?$RelativeConvex@VBoxV@Gu@physx@@@Gu@physx@@U?$LocalConvex@VConvexHullV@Gu@physx@@@23@@Gu@physx@@YA_NAEBU?$RelativeConvex@VBoxV@Gu@physx@@@01@AEBU?$LocalConvex@VConvexHullV@Gu@physx@@@01@AEBT__m128@@222AEAT4@33M_N@Z 000000018014eb50 f i GuSweepSharedTests.obj
 0001:0014dde0       ??$gjkRaycastPenetration@U?$RelativeConvex@VConvexHullV@Gu@physx@@@Gu@physx@@U?$LocalConvex@VConvexHullV@Gu@physx@@@23@@Gu@physx@@YA_NAEBU?$RelativeConvex@VConvexHullV@Gu@physx@@@01@AEBU?$LocalConvex@VConvexHullV@Gu@physx@@@01@AEBT__m128@@222AEAT4@33M_N@Z 000000018014ede0 f i GuSweepSharedTests.obj
 0001:0014e9c0       ?getSweepFuncTable@Gu@physx@@YAAEBUGeomSweepFuncs@12@XZ 000000018014f9c0 f   GuSweepTests.obj
 0001:0014e9d0       ?sweepBoxTriangles@Gu@physx@@YA_NIPEBVPxTriangle@2@_NAEBVPxBoxGeometry@2@AEBVPxTransform@2@AEBVPxVec3@2@MAEAUPxSweepHit@2@PEBIMV?$PxFlags@W4Enum@PxHitFlag@physx@@G@2@@Z 000000018014f9d0 f   GuSweepTests.obj
 0001:0014f480       ?sweepCapsule_BoxGeom@@YA_NAEBVPxGeometry@physx@@AEBVPxTransform@2@AEBVPxCapsuleGeometry@2@1AEBVCapsule@Gu@2@AEBVPxVec3@2@MAEAUPxSweepHit@2@V?$PxFlags@W4Enum@PxHitFlag@physx@@G@2@M@Z 0000000180150480 f   GuSweepTests.obj
 0001:0014fdd0       ?sweepBox_SphereGeom@@YA_NAEBVPxGeometry@physx@@AEBVPxTransform@2@AEBVPxBoxGeometry@2@1AEBVBox@Gu@2@AEBVPxVec3@2@MAEAUPxSweepHit@2@V?$PxFlags@W4Enum@PxHitFlag@physx@@G@2@M@Z 0000000180150dd0 f   GuSweepTests.obj
 0001:001504f0       ?sweepBox_CapsuleGeom@@YA_NAEBVPxGeometry@physx@@AEBVPxTransform@2@AEBVPxBoxGeometry@2@1AEBVBox@Gu@2@AEBVPxVec3@2@MAEAUPxSweepHit@2@V?$PxFlags@W4Enum@PxHitFlag@physx@@G@2@M@Z 00000001801514f0 f   GuSweepTests.obj
 0001:00150e40       ?sweepBox_BoxGeom@@YA_NAEBVPxGeometry@physx@@AEBVPxTransform@2@AEBVPxBoxGeometry@2@1AEBVBox@Gu@2@AEBVPxVec3@2@MAEAUPxSweepHit@2@V?$PxFlags@W4Enum@PxHitFlag@physx@@G@2@M@Z 0000000180151e40 f   GuSweepTests.obj
 0001:00151840       ?registerHeightFields_Sweeps@@YAXXZ 0000000180152840 f   GuSweepTests.obj
 0001:00151880       ??$gjkPenetration@U?$LocalConvex@VCapsuleV@Gu@physx@@@Gu@physx@@U?$LocalConvex@VShrunkBoxV@Gu@physx@@@23@@Gu@physx@@YA?AW4GjkStatus@01@AEBU?$LocalConvex@VCapsuleV@Gu@physx@@@01@AEBU?$LocalConvex@VShrunkBoxV@Gu@physx@@@01@AEBT__m128@@2AEAT5@333PEIAE4AEAE_N@Z 0000000180152880 f i GuSweepTests.obj
 0001:00152ee0       ??$gjkRaycast@U?$LocalConvex@VCapsuleV@Gu@physx@@@Gu@physx@@U?$LocalConvex@VBoxV@Gu@physx@@@23@@Gu@physx@@YA_NAEBU?$LocalConvex@VCapsuleV@Gu@physx@@@01@AEBU?$LocalConvex@VBoxV@Gu@physx@@@01@AEBT__m128@@222AEAT4@33M@Z 0000000180153ee0 f i GuSweepTests.obj
 0001:00153ac0       ??$gjkRaycast@U?$RelativeConvex@VBoxV@Gu@physx@@@Gu@physx@@U?$LocalConvex@VBoxV@Gu@physx@@@23@@Gu@physx@@YA_NAEBU?$RelativeConvex@VBoxV@Gu@physx@@@01@AEBU?$LocalConvex@VBoxV@Gu@physx@@@01@AEBT__m128@@222AEAT4@33M@Z 0000000180154ac0 f i GuSweepTests.obj
 0001:00154700       ??$gjkRaycastPenetration@U?$LocalConvex@VCapsuleV@Gu@physx@@@Gu@physx@@U?$LocalConvex@VBoxV@Gu@physx@@@23@@Gu@physx@@YA_NAEBU?$LocalConvex@VCapsuleV@Gu@physx@@@01@AEBU?$LocalConvex@VBoxV@Gu@physx@@@01@AEBT__m128@@222AEAT4@33M_N@Z 0000000180155700 f i GuSweepTests.obj
 0001:00154930       ??$gjkRaycastPenetration@U?$RelativeConvex@VBoxV@Gu@physx@@@Gu@physx@@U?$LocalConvex@VBoxV@Gu@physx@@@23@@Gu@physx@@YA_NAEBU?$RelativeConvex@VBoxV@Gu@physx@@@01@AEBU?$LocalConvex@VBoxV@Gu@physx@@@01@AEBT__m128@@222AEAT4@33M_N@Z 0000000180155930 f i GuSweepTests.obj
 0001:00154bb5       LoadLibraryA               0000000180155bb5 f   kernel32:KERNEL32.dll
 0001:00154bbb       FreeLibrary                0000000180155bbb f   kernel32:KERNEL32.dll
 0001:00154bc1       GetProcAddress             0000000180155bc1 f   kernel32:KERNEL32.dll
 0001:00154bc7       __imp_load_PxGetFoundation 0000000180155bc7 f   PxFoundation_x64:PxFoundation_x64.dll
 0001:00154bd3       PxGetFoundation            0000000180155bd3 f   PxFoundation_x64:PxFoundation_x64.dll
 0001:00154bd9       __tailMerge_pxfoundation_x64_dll 0000000180155bd9     PxFoundation_x64:PxFoundation_x64.dll
 0001:00154c52       __imp_load_?getAllocator@shdfnd@physx@@YAAEAVPxAllocatorCallback@2@XZ 0000000180155c52 f   PxFoundation_x64:PxFoundation_x64.dll
 0001:00154c5e       ?getAllocator@shdfnd@physx@@YAAEAVPxAllocatorCallback@2@XZ 0000000180155c5e f   PxFoundation_x64:PxFoundation_x64.dll
 0001:00154c64       __imp_load_?getInstance@Foundation@shdfnd@physx@@SAAEAV123@XZ 0000000180155c64 f   PxFoundation_x64:PxFoundation_x64.dll
 0001:00154c70       ?getInstance@Foundation@shdfnd@physx@@SAAEAV123@XZ 0000000180155c70 f   PxFoundation_x64:PxFoundation_x64.dll
 0001:00154c76       __imp_load_?error@Foundation@shdfnd@physx@@QEAAXW4Enum@PxErrorCode@3@PEBDH1ZZ 0000000180155c76 f   PxFoundation_x64:PxFoundation_x64.dll
 0001:00154c82       ?error@Foundation@shdfnd@physx@@QEAAXW4Enum@PxErrorCode@3@PEBDH1ZZ 0000000180155c82 f   PxFoundation_x64:PxFoundation_x64.dll
 0001:00154c88       __imp_load_?PxShortestRotation@physx@@YA?AVPxQuat@1@AEBVPxVec3@1@0@Z 0000000180155c88 f   PxFoundation_x64:PxFoundation_x64.dll
 0001:00154c94       ?PxShortestRotation@physx@@YA?AVPxQuat@1@AEBVPxVec3@1@0@Z 0000000180155c94 f   PxFoundation_x64:PxFoundation_x64.dll
 0001:00154c9a       __imp_load_?vsnprintf@shdfnd@physx@@YAHPEAD_KPEBD0@Z 0000000180155c9a f   PxFoundation_x64:PxFoundation_x64.dll
 0001:00154ca6       ?vsnprintf@shdfnd@physx@@YAHPEAD_KPEBD0@Z 0000000180155ca6 f   PxFoundation_x64:PxFoundation_x64.dll
 0001:00154cac       __imp_load_?optimizeBoundingBox@shdfnd@physx@@YA?AVPxVec3@2@AEAVPxMat33@2@@Z 0000000180155cac f   PxFoundation_x64:PxFoundation_x64.dll
 0001:00154cb8       ?optimizeBoundingBox@shdfnd@physx@@YA?AVPxVec3@2@AEAVPxMat33@2@@Z 0000000180155cb8 f   PxFoundation_x64:PxFoundation_x64.dll
 0001:00154cbe       __imp_load_?allocate@TempAllocator@shdfnd@physx@@QEAAPEAX_KPEBDH@Z 0000000180155cbe f   PxFoundation_x64:PxFoundation_x64.dll
 0001:00154cca       ?allocate@TempAllocator@shdfnd@physx@@QEAAPEAX_KPEBDH@Z 0000000180155cca f   PxFoundation_x64:PxFoundation_x64.dll
 0001:00154cd0       __imp_load_?deallocate@TempAllocator@shdfnd@physx@@QEAAXPEAX@Z 0000000180155cd0 f   PxFoundation_x64:PxFoundation_x64.dll
 0001:00154cdc       ?deallocate@TempAllocator@shdfnd@physx@@QEAAXPEAX@Z 0000000180155cdc f   PxFoundation_x64:PxFoundation_x64.dll
 0001:00154ce2       __imp_load_?atomicIncrement@shdfnd@physx@@YAHPECH@Z 0000000180155ce2 f   PxFoundation_x64:PxFoundation_x64.dll
 0001:00154cee       ?atomicIncrement@shdfnd@physx@@YAHPECH@Z 0000000180155cee f   PxFoundation_x64:PxFoundation_x64.dll
 0001:00154cf4       __imp_load_?atomicDecrement@shdfnd@physx@@YAHPECH@Z 0000000180155cf4 f   PxFoundation_x64:PxFoundation_x64.dll
 0001:00154d00       ?atomicDecrement@shdfnd@physx@@YAHPECH@Z 0000000180155d00 f   PxFoundation_x64:PxFoundation_x64.dll
 0001:00154d06       __imp_load_??0MutexImpl@shdfnd@physx@@QEAA@XZ 0000000180155d06 f   PxFoundation_x64:PxFoundation_x64.dll
 0001:00154d12       ??0MutexImpl@shdfnd@physx@@QEAA@XZ 0000000180155d12 f   PxFoundation_x64:PxFoundation_x64.dll
 0001:00154d18       __imp_load_??1MutexImpl@shdfnd@physx@@QEAA@XZ 0000000180155d18 f   PxFoundation_x64:PxFoundation_x64.dll
 0001:00154d24       ??1MutexImpl@shdfnd@physx@@QEAA@XZ 0000000180155d24 f   PxFoundation_x64:PxFoundation_x64.dll
 0001:00154d2a       __imp_load_?lock@MutexImpl@shdfnd@physx@@QEAAXXZ 0000000180155d2a f   PxFoundation_x64:PxFoundation_x64.dll
 0001:00154d36       ?lock@MutexImpl@shdfnd@physx@@QEAAXXZ 0000000180155d36 f   PxFoundation_x64:PxFoundation_x64.dll
 0001:00154d3c       __imp_load_?unlock@MutexImpl@shdfnd@physx@@QEAAXXZ 0000000180155d3c f   PxFoundation_x64:PxFoundation_x64.dll
 0001:00154d48       ?unlock@MutexImpl@shdfnd@physx@@QEAAXXZ 0000000180155d48 f   PxFoundation_x64:PxFoundation_x64.dll
 0001:00154d4e       __imp_load_?getSize@MutexImpl@shdfnd@physx@@SAIXZ 0000000180155d4e f   PxFoundation_x64:PxFoundation_x64.dll
 0001:00154d5a       ?getSize@MutexImpl@shdfnd@physx@@SAIXZ 0000000180155d5a f   PxFoundation_x64:PxFoundation_x64.dll
 0001:00154d60       ??$PFromRva@PEAP6A_JXZ@@YAPEAP6A_JXZK@Z 0000000180155d60 f i delayimp:delayhlp.obj
 0001:00154d70       ??$PFromRva@PEAPEAUHINSTANCE__@@@@YAPEAPEAUHINSTANCE__@@K@Z 0000000180155d70 f i delayimp:delayhlp.obj
 0001:00154d80       ??$PFromRva@PEAU_IMAGE_IMPORT_BY_NAME@@@@YAPEAU_IMAGE_IMPORT_BY_NAME@@K@Z 0000000180155d80 f i delayimp:delayhlp.obj
 0001:00154d90       ??$PFromRva@PEAU_IMAGE_THUNK_DATA64@@@@YAPEAU_IMAGE_THUNK_DATA64@@K@Z 0000000180155d90 f i delayimp:delayhlp.obj
 0001:00154da0       ??$PFromRva@PEBD@@YAPEBDK@Z 0000000180155da0 f i delayimp:delayhlp.obj
 0001:00154db0       ??$PFromRva@PEBUImgDelayDescr@@@@YAPEBUImgDelayDescr@@K@Z 0000000180155db0 f i delayimp:delayhlp.obj
 0001:00154dc0       ??$PFromRva@PEBU_IMAGE_THUNK_DATA64@@@@YAPEBU_IMAGE_THUNK_DATA64@@K@Z 0000000180155dc0 f i delayimp:delayhlp.obj
 0001:00154dd0       ?CountOfImports@@YAIPEBU_IMAGE_THUNK_DATA64@@@Z 0000000180155dd0 f i delayimp:delayhlp.obj
 0001:00154de4       ?DloadAcquireSectionWriteAccess@@YAXXZ 0000000180155de4 f i delayimp:delayhlp.obj
 0001:00154e90       ?DloadGetSRWLockFunctionPointers@@YAEXZ 0000000180155e90 f i delayimp:delayhlp.obj
 0001:00154f30       ?DloadLock@@YAXXZ          0000000180155f30 f i delayimp:delayhlp.obj
 0001:00154f78       ?DloadMakePermanentImageCommit@@YAXPEAX_K@Z 0000000180155f78 f i delayimp:delayhlp.obj
 0001:00155010       ?DloadObtainSection@@YAPEAXPEAK0@Z 0000000180156010 f i delayimp:delayhlp.obj
 0001:001550ac       ?DloadProtectSection@@YAXKPEAK@Z 00000001801560ac f i delayimp:delayhlp.obj
 0001:0015513c       ?DloadReleaseSectionWriteAccess@@YAXXZ 000000018015613c f i delayimp:delayhlp.obj
 0001:001551d0       ?DloadUnlock@@YAXXZ        00000001801561d0 f i delayimp:delayhlp.obj
 0001:00155210       ?IndexFromPImgThunkData@@YAIPEBU_IMAGE_THUNK_DATA64@@0@Z 0000000180156210 f i delayimp:delayhlp.obj
 0001:00155358       HRESULT_FROM_WIN32         0000000180156358 f i delayimp:delayhlp.obj
 0001:00155368       ReadAcquire64              0000000180156368 f i delayimp:delayhlp.obj
 0001:0015536c       ReadPointerAcquire         000000018015636c f i delayimp:delayhlp.obj
 0001:00155370       WritePointerRelease        0000000180156370 f i delayimp:delayhlp.obj
 0001:00155374       WriteRelease64             0000000180156374 f i delayimp:delayhlp.obj
 0001:00155378       __FUnloadDelayLoadedDLL2   0000000180156378 f   delayimp:delayhlp.obj
 0001:00155434       __HrLoadAllImportsForDll   0000000180156434 f   delayimp:delayhlp.obj
 0001:001554a8       __delayLoadHelper2         00000001801564a8 f   delayimp:delayhlp.obj
 0001:00155780       ??3@YAXPEAX_K@Z            0000000180156780 f   LIBCMT:delete_scalar_size.obj
 0001:00155788       ??_V@YAXPEAX_K@Z           0000000180156788 f   LIBCMT:delete_array_size.obj
 0001:00155790       ??1type_info@@UEAA@XZ      0000000180156790 f   LIBCMT:std_type_info_static.obj
 0001:0015579c       ??_Etype_info@@UEAAPEAXI@Z 000000018015679c f i LIBCMT:std_type_info_static.obj
 0001:0015579c       ??_Gtype_info@@UEAAPEAXI@Z 000000018015679c f i LIBCMT:std_type_info_static.obj
 0001:001557c8       ?__scrt_initialize_type_info@@YAXXZ 00000001801567c8 f   LIBCMT:tncleanup.obj
 0001:001557d8       ?__scrt_uninitialize_type_info@@YAXXZ 00000001801567d8 f   LIBCMT:tncleanup.obj
 0001:00155800       __chkstk                   0000000180156800 f   LIBCMT:chkstk.obj
 0001:00155800       _alloca_probe              0000000180156800 f   LIBCMT:chkstk.obj
 0001:00155850       __vdecl_sinf4              0000000180156850 f   LIBCMT:svml_ssinf4_dispatch.obj
 0001:00155870       __libm_sse2_sincosf_       0000000180156870 f   LIBCMT:svml_ssinf4_dispatch.obj
 0001:001558b3       __libm_sse2_sincosf4_      00000001801568b3 f   LIBCMT:svml_ssinf4_dispatch.obj
 0001:001558c0       ??3@YAXPEAX@Z              00000001801568c0 f   LIBCMT:delete_scalar.obj
 0001:001558c8       ??_V@YAXPEAX@Z             00000001801568c8 f   LIBCMT:delete_array.obj
 0001:00155c0c       _CRT_INIT                  0000000180156c0c f   LIBCMT:dll_dllmain.obj
 0001:00155c14       _DllMainCRTStartup         0000000180156c14 f   LIBCMT:dll_dllmain.obj
 0001:00155c54       _guard_check_icall_nop     0000000180156c54 f i LIBCMT:guard_support.obj
 0001:00155c58       ReadNoFence64              0000000180156c58 f i LIBCMT:guard_support.obj
 0001:00155c5c       ReadPointerNoFence         0000000180156c5c f i LIBCMT:guard_support.obj
 0001:00155c60       __castguard_check_failure_debugbreak 0000000180156c60 f i LIBCMT:guard_support.obj
 0001:00155c7c       __castguard_check_failure_fastfail 0000000180156c7c f i LIBCMT:guard_support.obj
 0001:00155ca0       __castguard_check_failure_nop 0000000180156ca0 f i LIBCMT:guard_support.obj
 0001:00155ca4       __castguard_check_failure_os_handled 0000000180156ca4 f i LIBCMT:guard_support.obj
 0001:00155d00       __castguard_check_failure_user_handled 0000000180156d00 f i LIBCMT:guard_support.obj
 0001:00155d74       __castguard_set_user_handler 0000000180156d74 f i LIBCMT:guard_support.obj
 0001:00155d80       __castguard_slow_path_check_debugbreak 0000000180156d80 f i LIBCMT:guard_support.obj
 0001:00155db4       __castguard_slow_path_check_fastfail 0000000180156db4 f i LIBCMT:guard_support.obj
 0001:00155df0       __castguard_slow_path_check_nop 0000000180156df0 f i LIBCMT:guard_support.obj
 0001:00155df4       __castguard_slow_path_check_os_handled 0000000180156df4 f i LIBCMT:guard_support.obj
 0001:00155e48       __castguard_slow_path_check_user_handled 0000000180156e48 f i LIBCMT:guard_support.obj
 0001:00155eb4       _guard_icall_checks_enforced 0000000180156eb4 f i LIBCMT:guard_support.obj
 0001:00155ecc       _guard_rf_checks_enforced  0000000180156ecc f i LIBCMT:guard_support.obj
 0001:00155ed0       __isa_available_init       0000000180156ed0 f   LIBCMT:cpu_disp.obj
 0001:00156080       __sse2_sinf4@@16           0000000180157080 f   LIBCMT:svml_ssinf4_sse2.obj
 0001:001569c0       __sse4_sinf4@@16           00000001801579c0 f   LIBCMT:svml_ssinf4_sse4.obj
 0001:001571a0       __security_init_cookie     00000001801581a0 f   LIBCMT:gs_support.obj
 0001:0015724c       DllMain                    000000018015824c f   LIBCMT:dll_dllmain_stub.obj
 0001:00157254       __local_stdio_printf_options 0000000180158254 f i LIBCMT:default_local_stdio_options.obj
 0001:0015725c       __local_stdio_scanf_options 000000018015825c f i LIBCMT:default_local_stdio_options.obj
 0001:00157264       __scrt_initialize_default_local_stdio_options 0000000180158264 f   LIBCMT:default_local_stdio_options.obj
 0001:00157280       ?configure_argv@__scrt_narrow_argv_policy@@SAHXZ 0000000180158280 f i LIBCMT:utility.obj
 0001:001572e0       ?initialize_environment@__scrt_narrow_environment_policy@@SAHXZ 00000001801582e0 f i LIBCMT:utility.obj
 0001:00157318       NtCurrentTeb               0000000180158318 f i LIBCMT:utility.obj
 0001:00157324       __scrt_acquire_startup_lock 0000000180158324 f   LIBCMT:utility.obj
 0001:00157360       __scrt_dllmain_after_initialize_c 0000000180158360 f   LIBCMT:utility.obj
 0001:00157394       __scrt_dllmain_before_initialize_c 0000000180158394 f   LIBCMT:utility.obj
 0001:001573ac       __scrt_dllmain_crt_thread_attach 00000001801583ac f   LIBCMT:utility.obj
 0001:001573d4       __scrt_dllmain_crt_thread_detach 00000001801583d4 f   LIBCMT:utility.obj
 0001:001573ec       __scrt_dllmain_exception_filter 00000001801583ec f   LIBCMT:utility.obj
 0001:0015744c       __scrt_dllmain_uninitialize_c 000000018015844c f   LIBCMT:utility.obj
 0001:0015747c       __scrt_dllmain_uninitialize_critical 000000018015847c f   LIBCMT:utility.obj
 0001:00157490       __scrt_initialize_crt      0000000180158490 f   LIBCMT:utility.obj
 0001:001574dc       __scrt_initialize_onexit_tables 00000001801584dc f   LIBCMT:utility.obj
 0001:00157568       __scrt_is_nonwritable_in_current_image 0000000180158568 f   LIBCMT:utility.obj
 0001:00157600       __scrt_release_startup_lock 0000000180158600 f   LIBCMT:utility.obj
 0001:00157624       __scrt_uninitialize_crt    0000000180158624 f   LIBCMT:utility.obj
 0001:00157650       _onexit                    0000000180158650 f   LIBCMT:utility.obj
 0001:0015768c       at_quick_exit              000000018015868c f   LIBCMT:utility.obj
 0001:001576ac       atexit                     00000001801586ac f   LIBCMT:utility.obj
 0001:001576c4       __scrt_get_dyn_tls_init_callback 00000001801586c4 f   LIBCMT:dyn_tls_init.obj
 0001:001576cc       __crt_debugger_hook        00000001801586cc f   LIBCMT:utility_desktop.obj
 0001:001576d4       __scrt_fastfail            00000001801586d4 f   LIBCMT:utility_desktop.obj
 0001:00157820       __scrt_get_show_window_mode 0000000180158820 f   LIBCMT:utility_desktop.obj
 0001:0015785c       __scrt_initialize_mta      000000018015885c f   LIBCMT:utility_desktop.obj
 0001:00157864       __scrt_initialize_winrt    0000000180158864 f   LIBCMT:utility_desktop.obj
 0001:00157868       __scrt_is_managed_app      0000000180158868 f   LIBCMT:utility_desktop.obj
 0001:001578bc       __scrt_set_unhandled_exception_filter 00000001801588bc f   LIBCMT:utility_desktop.obj
 0001:001578cc       __scrt_exe_initialize_mta  00000001801588cc f   LIBCMT:utility_desktop.obj
 0001:001578cc       __scrt_stub_for_initialize_mta 00000001801588cc f   LIBCMT:utility_desktop.obj
 0001:001578d0       __scrt_unhandled_exception_filter 00000001801588d0 f   LIBCMT:utility_desktop.obj
 0001:0015792c       _RTC_Initialize            000000018015892c f   LIBCMT:initsect.obj
 0001:00157968       _RTC_Terminate             0000000180158968 f   LIBCMT:initsect.obj
 0001:001579b0       __common_ssin_cout_rare    00000001801589b0 f   LIBCMT:svml_s_sin_cout.obj
 0001:00157a20       _get_startup_argv_mode     0000000180158a20 f   LIBCMT:argv_mode.obj
 0001:00157a28       __scrt_is_ucrt_dll_in_use  0000000180158a28 f   LIBCMT:ucrt_detection.obj
 0001:00157a34       strstr                     0000000180158a34 f   libvcruntime:strstr.obj
 0001:00157c2c       ??$__crt_interlocked_exchange_pointer@$$A6AXXZP6AXXZ@@YAP6AXXZPEDS6AXXZQ6AXXZ@Z 0000000180158c2c f i libvcruntime:purevirt.obj
 0001:00157c34       ??$__crt_interlocked_read_pointer@$$A6AXXZ@@YAP6AXXZPEDS6AXXZ@Z 0000000180158c34 f i libvcruntime:purevirt.obj
 0001:00157c3c       ?__crt_interlocked_read_64@@YA_JPED_J@Z 0000000180158c3c f i libvcruntime:purevirt.obj
 0001:00157c44       _get_purecall_handler      0000000180158c44 f   libvcruntime:purevirt.obj
 0001:00157c50       _purecall                  0000000180158c50 f   libvcruntime:purevirt.obj
 0001:00157c6c       _set_purecall_handler      0000000180158c6c f   libvcruntime:purevirt.obj
 0001:00157c88       ??$?RD@__crt_internal_free_policy@@QEBAXQEBD@Z 0000000180158c88 f i libvcruntime:std_type_info.obj
 0001:00157c90       ??$?RX@__crt_internal_free_policy@@QEBAXQEBX@Z 0000000180158c90 f i libvcruntime:std_type_info.obj
 0001:00157c98       ??$__crt_interlocked_compare_exchange_pointer@$$CBDPEAD$$T@@YAPEBDPEDSEBDQEAD$$T@Z 0000000180158c98 f i libvcruntime:std_type_info.obj
 0001:00157ca4       ??$__crt_interlocked_read_pointer@$$CBD@@YAPEBDPEDSEBD@Z 0000000180158ca4 f i libvcruntime:std_type_info.obj
 0001:00157cac       ??0?$__crt_unique_heap_ptr@DU__crt_internal_free_policy@@@@QEAA@QEAD@Z 0000000180158cac f i libvcruntime:std_type_info.obj
 0001:00157cb4       ??0?$__crt_unique_heap_ptr@XU__crt_internal_free_policy@@@@QEAA@QEAX@Z 0000000180158cb4 f i libvcruntime:std_type_info.obj
 0001:00157cbc       ??1?$__crt_unique_heap_ptr@DU__crt_internal_free_policy@@@@QEAA@XZ 0000000180158cbc f i libvcruntime:std_type_info.obj
 0001:00157cd8       ??1?$__crt_unique_heap_ptr@XU__crt_internal_free_policy@@@@QEAA@XZ 0000000180158cd8 f i libvcruntime:std_type_info.obj
 0001:00157cf4       ??B?$__crt_unique_heap_ptr@DU__crt_internal_free_policy@@@@QEBA_NXZ 0000000180158cf4 f i libvcruntime:std_type_info.obj
 0001:00157cfc       ??B?$__crt_unique_heap_ptr@XU__crt_internal_free_policy@@@@QEBA_NXZ 0000000180158cfc f i libvcruntime:std_type_info.obj
 0001:00157d14       ?detach@?$__crt_unique_heap_ptr@XU__crt_internal_free_policy@@@@QEAAPEAXXZ 0000000180158d14 f i libvcruntime:std_type_info.obj
 0001:00157d1c       ?get@?$__crt_unique_heap_ptr@DU__crt_internal_free_policy@@@@QEBAPEADXZ 0000000180158d1c f i libvcruntime:std_type_info.obj
 0001:00157d20       ?get@?$__crt_unique_heap_ptr@XU__crt_internal_free_policy@@@@QEBAPEAXXZ 0000000180158d20 f i libvcruntime:std_type_info.obj
 0001:00157d24       ?is_valid@?$__crt_unique_heap_ptr@DU__crt_internal_free_policy@@@@QEBA_NXZ 0000000180158d24 f i libvcruntime:std_type_info.obj
 0001:00157d2c       ?is_valid@?$__crt_unique_heap_ptr@XU__crt_internal_free_policy@@@@QEBA_NXZ 0000000180158d2c f i libvcruntime:std_type_info.obj
 0001:00157d34       ?release@?$__crt_unique_heap_ptr@DU__crt_internal_free_policy@@@@QEAAXXZ 0000000180158d34 f i libvcruntime:std_type_info.obj
 0001:00157d50       ?release@?$__crt_unique_heap_ptr@XU__crt_internal_free_policy@@@@QEAAXXZ 0000000180158d50 f i libvcruntime:std_type_info.obj
 0001:00157d6c       __std_type_info_compare    0000000180158d6c f   libvcruntime:std_type_info.obj
 0001:00157d94       __std_type_info_destroy_list 0000000180158d94 f   libvcruntime:std_type_info.obj
 0001:00157dc0       __std_type_info_hash       0000000180158dc0 f   libvcruntime:std_type_info.obj
 0001:00157df8       __std_type_info_name       0000000180158df8 f   libvcruntime:std_type_info.obj
 0001:00157f20       memcpy_repmovs             0000000180158f20 f   libvcruntime:memcpy.obj
 0001:00157f40       memcpy                     0000000180158f40 f   libvcruntime:memcpy.obj
 0001:00157f40       memmove                    0000000180158f40 f   libvcruntime:memcpy.obj
 0001:001585d0       memset_repstos             00000001801595d0 f   libvcruntime:memset.obj
 0001:001585f0       memset                     00000001801595f0 f   libvcruntime:memset.obj
 0001:00158978       __C_specific_handler       0000000180159978 f   libvcruntime:riscchandler.obj
 0001:00158b70       __vcrt_initialize          0000000180159b70 f   libvcruntime:initialization.obj
 0001:00158b98       __vcrt_thread_attach       0000000180159b98 f   libvcruntime:initialization.obj
 0001:00158bac       __vcrt_thread_detach       0000000180159bac f   libvcruntime:initialization.obj
 0001:00158bc0       __vcrt_uninitialize        0000000180159bc0 f   libvcruntime:initialization.obj
 0001:00158bdc       __vcrt_uninitialize_critical 0000000180159bdc f   libvcruntime:initialization.obj
 0001:00158bf0       __DestructExceptionObject  0000000180159bf0 f   libvcruntime:ehhelpers.obj
 0001:00158c60       ?_CallMemberFunction0@@YAXQEAX0@Z 0000000180159c60 f i libvcruntime:ehhelpers.obj
 0001:00158cbc       ?raw_name@type_info@@QEBAPEBDXZ 0000000180159cbc f i libvcruntime:ehhelpers.obj
 0001:00158cc4       _IsExceptionObjectToBeDestroyed 0000000180159cc4 f   libvcruntime:ehhelpers.obj
 0001:00158cf4       _SetWinRTOutOfMemoryExceptionCallback 0000000180159cf4 f   libvcruntime:ehhelpers.obj
 0001:00158cfc       __AdjustPointer            0000000180159cfc f   libvcruntime:ehhelpers.obj
 0001:00158d20       __FrameUnwindFilter        0000000180159d20 f   libvcruntime:ehhelpers.obj
 0001:00158d88       __GetPlatformExceptionInfo 0000000180159d88 f   libvcruntime:ehhelpers.obj
 0001:00158de4       __current_exception        0000000180159de4 f   libvcruntime:ehhelpers.obj
 0001:00158df8       __current_exception_context 0000000180159df8 f   libvcruntime:ehhelpers.obj
 0001:00158e0c       __processing_throw         0000000180159e0c f   libvcruntime:ehhelpers.obj
 0001:00158e20       __std_terminate            0000000180159e20 f   libvcruntime:ehhelpers.obj
 0001:00158e2c       _is_exception_typeof       0000000180159e2c f   libvcruntime:ehhelpers.obj
 0001:00158ed4       ??$?0$00@DName@@QEAA@PEBDU?$StringLifeSelector@$00@@@Z 0000000180159ed4 f i libvcruntime:undname.obj
 0001:00158f14       ??$?0$00@pcharNode@@QEAA@PEBDHU?$StringLifeSelector@$00@@@Z 0000000180159f14 f i libvcruntime:undname.obj
 0001:00158f2c       ??$?0$01@DName@@QEAA@PEBDU?$StringLifeSelector@$01@@@Z 0000000180159f2c f i libvcruntime:undname.obj
 0001:00158f6c       ??$?0$01@pcharNode@@QEAA@PEBDHU?$StringLifeSelector@$01@@@Z 0000000180159f6c f i libvcruntime:undname.obj
 0001:00158fe0       ??$?0$0A@@DName@@QEAA@PEBDU?$StringLifeSelector@$0A@@@@Z 0000000180159fe0 f i libvcruntime:undname.obj
 0001:00159020       ??$?0$0A@@pcharNode@@QEAA@PEBDHU?$StringLifeSelector@$0A@@@@Z 000000018015a020 f i libvcruntime:undname.obj
 0001:00159094       ??$?0_K$0A@@?$optional@_K@std@@QEAA@$$QEA_K@Z 000000018015a094 f i libvcruntime:undname.obj
 0001:001590a4       ??$?0_K@?$_Optional_construct_base@_K@std@@QEAA@Uin_place_t@1@$$QEA_K@Z 000000018015a0a4 f i libvcruntime:undname.obj
 0001:001590b4       ??$?0_K@?$_Optional_destruct_base@_K$00@std@@QEAA@Uin_place_t@1@$$QEA_K@Z 000000018015a0b4 f i libvcruntime:undname.obj
 0001:001590c4       ??$append@VDNameNode@@@DName@@AEAAXPEBVDNameNode@@@Z 000000018015a0c4 f i libvcruntime:undname.obj
 0001:00159128       ??$append@VDNameStatusNode@@@DName@@AEAAXPEBVDNameStatusNode@@@Z 000000018015a128 f i libvcruntime:undname.obj
 0001:0015918c       ??$append@VcharNode@@@DName@@AEAAXPEBVcharNode@@@Z 000000018015a18c f i libvcruntime:undname.obj
 0001:001591f0       ??$append@VpDNameNode@@@DName@@AEAAXPEBVpDNameNode@@@Z 000000018015a1f0 f i libvcruntime:undname.obj
 0001:00159254       ??$append@VpcharNode@@@DName@@AEAAXPEBVpcharNode@@@Z 000000018015a254 f i libvcruntime:undname.obj
 0001:001592b8       ??$doPchar@$00@DName@@AEAAXPEBDH@Z 000000018015a2b8 f i libvcruntime:undname.obj
 0001:0015935c       ??$doPchar@$01@DName@@AEAAXPEBDH@Z 000000018015a35c f i libvcruntime:undname.obj
 0001:001593f4       ??$doPchar@$0A@@DName@@AEAAXPEBDH@Z 000000018015a3f4 f i libvcruntime:undname.obj
 0001:0015948c       ??$forward@_K@std@@YA$$QEA_KAEA_K@Z 000000018015a48c f i libvcruntime:undname.obj
 0001:001595ac       ??$size@D$04@std@@YA_KAEAY04$$CBD@Z 000000018015a5ac f i libvcruntime:undname.obj
 0001:001595b4       ??0?$_Optional_construct_base@_K@std@@QEAA@XZ 000000018015a5b4 f i libvcruntime:undname.obj
 0001:001595bc       ??0?$_Optional_destruct_base@_K$00@std@@QEAA@XZ 000000018015a5bc f i libvcruntime:undname.obj
 0001:001595c4       ??0?$optional@_K@std@@QEAA@XZ 000000018015a5c4 f i libvcruntime:undname.obj
 0001:001595cc       ??0Block@_HeapManager@@QEAA@XZ 000000018015a5cc f i libvcruntime:undname.obj
 0001:001595d4       ??0DName@@QEAA@AEAPEBDD@Z  000000018015a5d4 f   libvcruntime:undname.obj
 0001:00159684       ??0DName@@QEAA@AEBUStringLiteral@@@Z 000000018015a684 f   libvcruntime:undname.obj
 0001:001596b0       ??0DName@@QEAA@AEBV0@@Z    000000018015a6b0 f i libvcruntime:undname.obj
 0001:001596c0       ??0DName@@QEAA@D@Z         000000018015a6c0 f   libvcruntime:undname.obj
 0001:001596e0       ??0DName@@QEAA@PEAV0@@Z    000000018015a6e0 f   libvcruntime:undname.obj
 0001:00159764       ??0DName@@QEAA@W4DNameStatus@@@Z 000000018015a764 f   libvcruntime:undname.obj
 0001:00159794       ??0DName@@QEAA@XZ          000000018015a794 f i libvcruntime:undname.obj
 0001:001597a0       ??0DName@@QEAA@_J@Z        000000018015a7a0 f   libvcruntime:undname.obj
 0001:00159848       ??0DName@@QEAA@_K@Z        000000018015a848 f   libvcruntime:undname.obj
 0001:001598d0       ??0DNameNode@@IEAA@XZ      000000018015a8d0 f i libvcruntime:undname.obj
 0001:001598e0       ??0Replicator@@QEAA@XZ     000000018015a8e0 f i libvcruntime:undname.obj
 0001:001598f4       ??0UnDecorator@@QEAA@PEBDP6APEADJ@ZK@Z 000000018015a8f4 f i libvcruntime:undname.obj
 0001:00159944       ??0_Nontrivial_dummy_type@std@@QEAA@XZ 000000018015a944 f i libvcruntime:undname.obj
 0001:00159948       ??0charNode@@QEAA@D@Z      000000018015a948 f i libvcruntime:undname.obj
 0001:0015995c       ??0pDNameNode@@QEAA@PEAVDName@@@Z 000000018015a95c f   libvcruntime:undname.obj
 0001:00159984       ??0pairNode@@QEAA@PEBVDNameNode@@0@Z 000000018015a984 f i libvcruntime:undname.obj
 0001:001599a8       ??2@YAPEAX_KAEAV_HeapManager@@H@Z 000000018015a9a8 f   libvcruntime:undname.obj
 0001:001599d4       ??4DName@@QEAAAEAV0@AEBUStringLiteral@@@Z 000000018015a9d4 f   libvcruntime:undname.obj
 0001:001599fc       ??4DName@@QEAAAEAV0@AEBV0@@Z 000000018015a9fc f   libvcruntime:undname.obj
 0001:00159a0c       ??4DName@@QEAAAEAV0@D@Z    000000018015aa0c f i libvcruntime:undname.obj
 0001:00159a2c       ??4DName@@QEAAAEAV0@PEAV0@@Z 000000018015aa2c f   libvcruntime:undname.obj
 0001:00159aa4       ??4DName@@QEAAAEAV0@W4DNameStatus@@@Z 000000018015aaa4 f   libvcruntime:undname.obj
 0001:00159ad4       ??AReplicator@@QEBA?AVDName@@H@Z 000000018015aad4 f   libvcruntime:undname.obj
 0001:00159b14       ??B?$optional@_K@std@@QEBA_NXZ 000000018015ab14 f i libvcruntime:undname.obj
 0001:00159b18       ??D?$_Optional_construct_base@_K@std@@QEGAAAEA_KXZ 000000018015ab18 f i libvcruntime:undname.obj
 0001:00159b1c       ??H@YA?AVDName@@AEBUStringLiteral@@AEBV0@@Z 000000018015ab1c f i libvcruntime:undname.obj
 0001:00159b54       ??H@YA?AVDName@@DAEBV0@@Z  000000018015ab54 f i libvcruntime:undname.obj
 0001:00159b98       ??H@YA?AVDName@@W4DNameStatus@@AEBV0@@Z 000000018015ab98 f i libvcruntime:undname.obj
 0001:00159be4       ??HDName@@QEBA?AV0@AEBUStringLiteral@@@Z 000000018015abe4 f   libvcruntime:undname.obj
 0001:00159c10       ??HDName@@QEBA?AV0@AEBV0@@Z 000000018015ac10 f   libvcruntime:undname.obj
 0001:00159c3c       ??HDName@@QEBA?AV0@D@Z     000000018015ac3c f   libvcruntime:undname.obj
 0001:00159c68       ??HDName@@QEBA?AV0@PEAV0@@Z 000000018015ac68 f   libvcruntime:undname.obj
 0001:00159c94       ??HDName@@QEBA?AV0@W4DNameStatus@@@Z 000000018015ac94 f   libvcruntime:undname.obj
 0001:00159cc0       ??HStringLiteral@@QEBA?AU0@H@Z 000000018015acc0 f i libvcruntime:undname.obj
 0001:00159cd8       ??YDName@@QEAAAEAV0@AEBUStringLiteral@@@Z 000000018015acd8 f   libvcruntime:undname.obj
 0001:00159d58       ??YDName@@QEAAAEAV0@AEBV0@@Z 000000018015ad58 f   libvcruntime:undname.obj
 0001:00159db0       ??YDName@@QEAAAEAV0@D@Z    000000018015adb0 f   libvcruntime:undname.obj
 0001:00159e1c       ??YDName@@QEAAAEAV0@PEAV0@@Z 000000018015ae1c f   libvcruntime:undname.obj
 0001:00159eb0       ??YDName@@QEAAAEAV0@W4DNameStatus@@@Z 000000018015aeb0 f   libvcruntime:undname.obj
 0001:00159f08       ??YReplicator@@QEAAAEAV0@AEBVDName@@@Z 000000018015af08 f   libvcruntime:undname.obj
 0001:00159f60       ??_5DName@@QEAAAEAV0@AEBV0@@Z 000000018015af60 f   libvcruntime:undname.obj
 0001:00159f78       ??__K_l@@YA?AUStringLiteral@@PEBD_K@Z 000000018015af78 f i libvcruntime:undname.obj
 0001:00159f84       ?Constructor@_HeapManager@@QEAAXP6APEAX_K@ZP6AXPEAX@Z@Z 000000018015af84 f i libvcruntime:undname.obj
 0001:00159f9c       ?Destructor@_HeapManager@@QEAAXXZ 000000018015af9c f i libvcruntime:undname.obj
 0001:00159fe8       ?UScore@UnDecorator@@SA?AUStringLiteral@@W4Tokens@@@Z 000000018015afe8 f   libvcruntime:undname.obj
 0001:0015a034       ?composeDeclaration@UnDecorator@@CA?AVDName@@AEBV2@@Z 000000018015b034 f i libvcruntime:undname.obj
 0001:0015af28       ?doAccessSpecifiers@UnDecorator@@SAHXZ 000000018015bf28 f i libvcruntime:undname.obj
 0001:0015af38       ?doAllocationLanguage@UnDecorator@@SAHXZ 000000018015bf38 f i libvcruntime:undname.obj
 0001:0015af48       ?doAllocationModel@UnDecorator@@SAHXZ 000000018015bf48 f i libvcruntime:undname.obj
 0001:0015af58       ?doEcsu@UnDecorator@@SAHXZ 000000018015bf58 f i libvcruntime:undname.obj
 0001:0015af68       ?doEllipsis@UnDecorator@@SAHXZ 000000018015bf68 f i libvcruntime:undname.obj
 0001:0015af78       ?doFunctionReturns@UnDecorator@@SAHXZ 000000018015bf78 f i libvcruntime:undname.obj
 0001:0015af88       ?doMSKeywords@UnDecorator@@SAHXZ 000000018015bf88 f i libvcruntime:undname.obj
 0001:0015af98       ?doMemberTypes@UnDecorator@@SAHXZ 000000018015bf98 f i libvcruntime:undname.obj
 0001:0015afa8       ?doNameOnly@UnDecorator@@SAHXZ 000000018015bfa8 f i libvcruntime:undname.obj
 0001:0015afb4       ?doNoIdentCharCheck@UnDecorator@@SAHXZ 000000018015bfb4 f i libvcruntime:undname.obj
 0001:0015afc0       ?doPchar@DName@@AEAAXD@Z   000000018015bfc0 f   libvcruntime:undname.obj
 0001:0015b010       ?doPtr64@UnDecorator@@SAHXZ 000000018015c010 f i libvcruntime:undname.obj
 0001:0015b020       ?doRestrictionSpec@UnDecorator@@SAHXZ 000000018015c020 f i libvcruntime:undname.obj
 0001:0015b030       ?doThisTypes@UnDecorator@@SAHXZ 000000018015c030 f i libvcruntime:undname.obj
 0001:0015b044       ?doThrowTypes@UnDecorator@@SAHXZ 000000018015c044 f i libvcruntime:undname.obj
 0001:0015b054       ?doTypeOnly@UnDecorator@@SAHXZ 000000018015c054 f i libvcruntime:undname.obj
 0001:0015b060       ?doUnderScore@UnDecorator@@SAHXZ 000000018015c060 f i libvcruntime:undname.obj
 0001:0015b06c       ?getAddressOf@UnDecorator@@CA?AVDName@@XZ 000000018015c06c f   libvcruntime:undname.obj
 0001:0015b0fc       ?getArgumentList@UnDecorator@@CA?AVDName@@XZ 000000018015c0fc f   libvcruntime:undname.obj
 0001:0015b2b0       ?getArgumentTypes@UnDecorator@@CA?AVDName@@XZ 000000018015c2b0 f   libvcruntime:undname.obj
 0001:0015b3fc       ?getArrayAccess@UnDecorator@@CA?AVDName@@XZ 000000018015c3fc f   libvcruntime:undname.obj
 0001:0015b498       ?getArrayObject@UnDecorator@@CA?AVDName@@XZ 000000018015c498 f   libvcruntime:undname.obj
 0001:0015b554       ?getArrayType@UnDecorator@@CA?AVDName@@AEBV2@@Z 000000018015c554 f i libvcruntime:undname.obj
 0001:0015b7c0       ?getBasedType@UnDecorator@@CA?AVDName@@XZ 000000018015c7c0 f   libvcruntime:undname.obj
 0001:0015b8b8       ?getBasicDataType@UnDecorator@@CA?AVDName@@AEBV2@@Z 000000018015c8b8 f   libvcruntime:undname.obj
 0001:0015bebc       ?getCHPEName@UnDecorator@@QEAAPEADPEADH@Z 000000018015cebc f i libvcruntime:undname.obj
 0001:0015bfdc       ?getCallIndex@UnDecorator@@CA?AVDName@@XZ 000000018015cfdc f i libvcruntime:undname.obj
 0001:0015bff8       ?getCallingConvention@UnDecorator@@CA?AVDName@@XZ 000000018015cff8 f   libvcruntime:undname.obj
 0001:0015c130       ?getDataIndirectType@UnDecorator@@CA?AVDName@@AEBV2@W4IndirectionKind@@0H@Z 000000018015d130 f   libvcruntime:undname.obj
 0001:0015ca54       ?getDataIndirectType@UnDecorator@@CA?AVDName@@XZ 000000018015da54 f i libvcruntime:undname.obj
 0001:0015ca90       ?getDataType@UnDecorator@@CA?AVDName@@PEAV2@@Z 000000018015da90 f   libvcruntime:undname.obj
 0001:0015cba4       ?getDecoratedName@UnDecorator@@CA?AVDName@@XZ 000000018015dba4 f   libvcruntime:undname.obj
 0001:0015ce8c       ?getDimension@UnDecorator@@CA?AVDName@@_N@Z 000000018015de8c f   libvcruntime:undname.obj
 0001:0015cfd4       ?getDispatchTarget@UnDecorator@@CA?AVDName@@XZ 000000018015dfd4 f   libvcruntime:undname.obj
 0001:0015d034       ?getDisplacement@UnDecorator@@CA?AVDName@@XZ 000000018015e034 f i libvcruntime:undname.obj
 0001:0015d050       ?getECSUDataType@UnDecorator@@CA?AVDName@@XZ 000000018015e050 f   libvcruntime:undname.obj
 0001:0015d24c       ?getECSUName@UnDecorator@@CA?AVDName@@XZ 000000018015e24c f i libvcruntime:undname.obj
 0001:0015d264       ?getEnumType@UnDecorator@@CA?AVDName@@XZ 000000018015e264 f i libvcruntime:undname.obj
 0001:0015d394       ?getExtendedDataIndirectType@UnDecorator@@CA?AVDName@@AEAW4IndirectionKind@@AEA_NH@Z 000000018015e394 f   libvcruntime:undname.obj
 0001:0015d598       ?getExternalDataType@UnDecorator@@CA?AVDName@@AEBV2@@Z 000000018015e598 f i libvcruntime:undname.obj
 0001:0015d658       ?getFloatingPoint@UnDecorator@@CA?AVDName@@H@Z 000000018015e658 f   libvcruntime:undname.obj
 0001:0015d7c0       ?getFunctionIndirectType@UnDecorator@@CA?AVDName@@AEBV2@@Z 000000018015e7c0 f   libvcruntime:undname.obj
 0001:0015dcf4       ?getGuardNumber@UnDecorator@@CA?AVDName@@XZ 000000018015ecf4 f i libvcruntime:undname.obj
 0001:0015dd10       ?getLastChar@DName@@QEBADXZ 000000018015ed10 f i libvcruntime:undname.obj
 0001:0015dd2c       ?getLastChar@DNameStatusNode@@UEBADXZ 000000018015ed2c f i libvcruntime:undname.obj
 0001:0015dd38       ?getLastChar@charNode@@UEBADXZ 000000018015ed38 f i libvcruntime:undname.obj
 0001:0015dd3c       ?getLastChar@pDNameNode@@UEBADXZ 000000018015ed3c f i libvcruntime:undname.obj
 0001:0015dd68       ?getLastChar@pairNode@@UEBADXZ 000000018015ed68 f i libvcruntime:undname.obj
 0001:0015dda0       ?getLastChar@pcharNode@@UEBADXZ 000000018015eda0 f i libvcruntime:undname.obj
 0001:0015ddb4       ?getLexicalFrame@UnDecorator@@CA?AVDName@@XZ 000000018015edb4 f i libvcruntime:undname.obj
 0001:0015de18       ?getMemberAccess@UnDecorator@@CA?AVDName@@XZ 000000018015ee18 f   libvcruntime:undname.obj
 0001:0015deac       ?getMemoryWithBuffer@_HeapManager@@QEAAPEAX_K@Z 000000018015eeac f   libvcruntime:undname.obj
 0001:0015df3c       ?getMemoryWithoutBuffer@_HeapManager@@QEAAPEAX_K@Z 000000018015ef3c f   libvcruntime:undname.obj
 0001:0015df50       ?getNoexcept@UnDecorator@@CA?AVDName@@XZ 000000018015ef50 f   libvcruntime:undname.obj
 0001:0015dfb4       ?getNumberOfDimensions@UnDecorator@@CAHXZ 000000018015efb4 f   libvcruntime:undname.obj
 0001:0015e01c       ?getOperatorName@UnDecorator@@CA?AVDName@@_NPEA_N@Z 000000018015f01c f i libvcruntime:undname.obj
 0001:0015e9cc       ?getPointerToMember@UnDecorator@@CA?AVDName@@XZ 000000018015f9cc f   libvcruntime:undname.obj
 0001:0015eac4       ?getPointerType@UnDecorator@@CA?AVDName@@AEBV2@0@Z 000000018015fac4 f i libvcruntime:undname.obj
 0001:0015eae4       ?getPointerTypeArray@UnDecorator@@CA?AVDName@@AEBV2@0@Z 000000018015fae4 f i libvcruntime:undname.obj
 0001:0015eb00       ?getPrimaryDataType@UnDecorator@@CA?AVDName@@AEBV2@@Z 000000018015fb00 f   libvcruntime:undname.obj
 0001:0015edb8       ?getPtrRefDataType@UnDecorator@@CA?AVDName@@AEBV2@H@Z 000000018015fdb8 f   libvcruntime:undname.obj
 0001:0015ef84       ?getPtrRefType@UnDecorator@@CA?AVDName@@AEBV2@0W4IndirectionKind@@@Z 000000018015ff84 f   libvcruntime:undname.obj
 0001:0015f15c       ?getReferenceType@UnDecorator@@CA?AVDName@@AEBV2@0W4IndirectionKind@@@Z 000000018016015c f i libvcruntime:undname.obj
 0001:0015f174       ?getRestrictionSpec@UnDecorator@@CA?AVDName@@XZ 0000000180160174 f   libvcruntime:undname.obj
 0001:0015f350       ?getReturnType@UnDecorator@@CA?AVDName@@PEAV2@@Z 0000000180160350 f   libvcruntime:undname.obj
 0001:0015f384       ?getScope@UnDecorator@@CA?AVDName@@XZ 0000000180160384 f   libvcruntime:undname.obj
 0001:0015f83c       ?getScopedName@UnDecorator@@CA?AVDName@@XZ 000000018016083c f   libvcruntime:undname.obj
 0001:0015f97c       ?getSignedDimension@UnDecorator@@CA?AVDName@@XZ 000000018016097c f   libvcruntime:undname.obj
 0001:0015fa04       ?getStorageConvention@UnDecorator@@CA?AVDName@@XZ 0000000180160a04 f i libvcruntime:undname.obj
 0001:0015fa40       ?getString@DName@@QEBAPEADPEAD0@Z 0000000180160a40 f i libvcruntime:undname.obj
 0001:0015fa5c       ?getString@DName@@QEBAPEADPEADH@Z 0000000180160a5c f i libvcruntime:undname.obj
 0001:0015faf0       ?getString@DNameStatusNode@@UEBAPEADPEAD0@Z 0000000180160af0 f i libvcruntime:undname.obj
 0001:0015fb38       ?getString@charNode@@UEBAPEADPEAD0@Z 0000000180160b38 f i libvcruntime:undname.obj
 0001:0015fb4c       ?getString@pDNameNode@@UEBAPEADPEAD0@Z 0000000180160b4c f i libvcruntime:undname.obj
 0001:0015fb7c       ?getString@pairNode@@UEBAPEADPEAD0@Z 0000000180160b7c f i libvcruntime:undname.obj
 0001:0015fbc8       ?getString@pcharNode@@UEBAPEADPEAD0@Z 0000000180160bc8 f i libvcruntime:undname.obj
 0001:0015fc00       ?getStringEncoding@UnDecorator@@CA?AVDName@@W4PrefixKind@@H@Z 0000000180160c00 f   libvcruntime:undname.obj
 0001:0015fd10       ?getStringHelper@@YAPEADPEADPEBD1H@Z 0000000180160d10 f i libvcruntime:undname.obj
 0001:0015fd40       ?getStringObject@UnDecorator@@CA?AVDName@@XZ 0000000180160d40 f   libvcruntime:undname.obj
 0001:0015fda8       ?getSymbolName@UnDecorator@@CA?AVDName@@XZ 0000000180160da8 f i libvcruntime:undname.obj
 0001:0015fdf4       ?getTemplateArgumentList@UnDecorator@@CA?AVDName@@XZ 0000000180160df4 f   libvcruntime:undname.obj
 0001:00160010       ?getTemplateName@UnDecorator@@CA?AVDName@@_N@Z 0000000180161010 f   libvcruntime:undname.obj
 0001:001602a4       ?getTemplateNonTypeArgument@UnDecorator@@CA?AVDName@@XZ 00000001801612a4 f   libvcruntime:undname.obj
 0001:001607f4       ?getTemplateTypeArgument@UnDecorator@@CA?AVDName@@XZ 00000001801617f4 f   libvcruntime:undname.obj
 0001:0016095c       ?getThisType@UnDecorator@@CA?AVDName@@XZ 000000018016195c f i libvcruntime:undname.obj
 0001:0016099c       ?getThrowTypes@UnDecorator@@CA?AVDName@@XZ 000000018016199c f   libvcruntime:undname.obj
 0001:001609c0       ?getTypeEncoding@UnDecorator@@CAHXZ 00000001801619c0 f i libvcruntime:undname.obj
 0001:00160d7c       ?getUndecoratedName@UnDecorator@@QEAAPEADPEADH@Z 0000000180161d7c f i libvcruntime:undname.obj
 0001:00160ed0       ?getUnionObject@UnDecorator@@CA?AVDName@@XZ 0000000180161ed0 f   libvcruntime:undname.obj
 0001:00160fa8       ?getVCallThunkType@UnDecorator@@CA?AVDName@@XZ 0000000180161fa8 f i libvcruntime:undname.obj
 0001:00161020       ?getValue@UnDecorator@@CA?AV?$optional@_K@std@@XZ 0000000180162020 f   libvcruntime:undname.obj
 0001:00161070       ?getValueObject@UnDecorator@@CA?AVDName@@XZ 0000000180162070 f   libvcruntime:undname.obj
 0001:001611b0       ?getVbTableType@UnDecorator@@CA?AVDName@@AEBV2@@Z 00000001801621b0 f i libvcruntime:undname.obj
 0001:001611c8       ?getVdispMapType@UnDecorator@@CA?AVDName@@AEBV2@@Z 00000001801621c8 f i libvcruntime:undname.obj
 0001:00161244       ?getVfTableType@UnDecorator@@CA?AVDName@@AEBV2@@Z 0000000180162244 f i libvcruntime:undname.obj
 0001:00161450       ?getZName@UnDecorator@@CA?AVDName@@_N0@Z 0000000180162450 f   libvcruntime:undname.obj
 0001:00161724       ?get_current_character_and_increment_buffer@UnDecorator@@CADXZ 0000000180162724 f i libvcruntime:undname.obj
 0001:0016173c       ?haveTemplateParameters@UnDecorator@@SAHXZ 000000018016273c f i libvcruntime:undname.obj
 0001:00161748       ?increment_buffer@UnDecorator@@CA_N_K@Z 0000000180162748 f i libvcruntime:undname.obj
 0001:00161774       ?increment_buffer_no_check@UnDecorator@@CAXXZ 0000000180162774 f i libvcruntime:undname.obj
 0001:0016177c       ?increment_buffer_no_check@UnDecorator@@CAX_K@Z 000000018016277c f i libvcruntime:undname.obj
 0001:00161784       ?isArray@DName@@QEBAHXZ    0000000180162784 f i libvcruntime:undname.obj
 0001:00161790       ?isComArray@DName@@QEBAHXZ 0000000180162790 f i libvcruntime:undname.obj
 0001:0016179c       ?isEmpty@DName@@QEBAHXZ    000000018016279c f i libvcruntime:undname.obj
 0001:001617a8       ?isFull@Replicator@@QEBAHXZ 00000001801627a8 f i libvcruntime:undname.obj
 0001:001617b4       ?isNoTE@DName@@QEBAHXZ     00000001801627b4 f i libvcruntime:undname.obj
 0001:001617c0       ?isPinPtr@DName@@QEBAHXZ   00000001801627c0 f i libvcruntime:undname.obj
 0001:001617cc       ?isPtrRef@DName@@QEBAHXZ   00000001801627cc f i libvcruntime:undname.obj
 0001:001617d8       ?isUDC@DName@@QEBAHXZ      00000001801627d8 f i libvcruntime:undname.obj
 0001:001617f0       ?isUDTThunk@DName@@QEBAHXZ 00000001801627f0 f i libvcruntime:undname.obj
 0001:00161808       ?isVCallThunk@DName@@QEBAHXZ 0000000180162808 f i libvcruntime:undname.obj
 0001:00161814       ?isValid@DName@@QEBAHXZ    0000000180162814 f i libvcruntime:undname.obj
 0001:00161820       ?length@DName@@QEBAHXZ     0000000180162820 f i libvcruntime:undname.obj
 0001:00161838       ?length@DNameStatusNode@@UEBAHXZ 0000000180162838 f i libvcruntime:undname.obj
 0001:0016183c       ?length@charNode@@UEBAHXZ  000000018016283c f i libvcruntime:undname.obj
 0001:00161844       ?length@pDNameNode@@UEBAHXZ 0000000180162844 f i libvcruntime:undname.obj
 0001:0016186c       ?length@pairNode@@UEBAHXZ  000000018016286c f i libvcruntime:undname.obj
 0001:001618b4       ?length@pcharNode@@UEBAHXZ 00000001801628b4 f i libvcruntime:undname.obj
 0001:001618b8       ?make@DNameStatusNode@@SAPEBV1@W4DNameStatus@@@Z 00000001801628b8 f i libvcruntime:undname.obj
 0001:001618d8       ?parseDecoratedName@UnDecorator@@CA?AVDName@@XZ 00000001801628d8 f   libvcruntime:undname.obj
 0001:001619f0       ?raw_length@DNameStatusNode@@UEBAHXZ 00000001801629f0 f i libvcruntime:undname.obj
 0001:001619f4       ?raw_length@charNode@@UEBAHXZ 00000001801629f4 f i libvcruntime:undname.obj
 0001:001619fc       ?raw_length@pDNameNode@@UEBAHXZ 00000001801629fc f i libvcruntime:undname.obj
 0001:00161a00       ?raw_length@pairNode@@UEBAHXZ 0000000180162a00 f i libvcruntime:undname.obj
 0001:00161a04       ?raw_length@pcharNode@@UEBAHXZ 0000000180162a04 f i libvcruntime:undname.obj
 0001:00161a08       ?setIsArray@DName@@QEAAXXZ 0000000180162a08 f i libvcruntime:undname.obj
 0001:00161a10       ?setIsComArray@DName@@QEAAXXZ 0000000180162a10 f i libvcruntime:undname.obj
 0001:00161a18       ?setIsNoTE@DName@@QEAAXXZ  0000000180162a18 f i libvcruntime:undname.obj
 0001:00161a20       ?setIsPinPtr@DName@@QEAAXXZ 0000000180162a20 f i libvcruntime:undname.obj
 0001:00161a28       ?setIsUDC@DName@@QEAAXXZ   0000000180162a28 f i libvcruntime:undname.obj
 0001:00161a34       ?setIsVCallThunk@DName@@QEAAXXZ 0000000180162a34 f i libvcruntime:undname.obj
 0001:00161a3c       ?setPtrRef@DName@@QEAAAEAV1@XZ 0000000180162a3c f i libvcruntime:undname.obj
 0001:00161a48       ?status@DName@@QEBA?AW4DNameStatus@@XZ 0000000180162a48 f i libvcruntime:undname.obj
 0001:00161aac       __unDName                  0000000180162aac f   libvcruntime:undname.obj
 0001:00161ad4       __unDNameEx                0000000180162ad4 f   libvcruntime:undname.obj
 0001:00161c08       _vsprintf_s_l              0000000180162c08 f i libvcruntime:undname.obj
 0001:00161c6c       snprintf                   0000000180162c6c f i libvcruntime:undname.obj
 0001:00161cc4       sprintf_s                  0000000180162cc4 f i libvcruntime:undname.obj
 0001:00161d18       unDNameGenerateCHPE        0000000180162d18 f   libvcruntime:undname.obj
 0001:00161e20       vsnprintf                  0000000180162e20 f i libvcruntime:undname.obj
 0001:00161ea0       _NLG_Notify                0000000180162ea0 f   libvcruntime:notify.obj
 0001:00161ec0       __NLG_Dispatch2            0000000180162ec0 f   libvcruntime:notify.obj
 0001:00161ed0       __NLG_Return2              0000000180162ed0 f   libvcruntime:notify.obj
 0001:00161edc       __except_validate_context_record 0000000180162edc f   libvcruntime:jbcxrval.obj
 0001:00161f14       __except_validate_jump_buffer 0000000180162f14 f   libvcruntime:jbcxrval.obj
 0001:00161f54       __except_validate_jump_buffer_common 0000000180162f54 f i libvcruntime:jbcxrval.obj
 0001:00161fb0       ??$?RU__vcrt_ptd@@@__crt_internal_free_policy@@QEBAXQEBU__vcrt_ptd@@@Z 0000000180162fb0 f i libvcruntime:per_thread_data.obj
 0001:00161fb8       ??0?$__crt_unique_heap_ptr@U__vcrt_ptd@@U__crt_internal_free_policy@@@@QEAA@QEAU__vcrt_ptd@@@Z 0000000180162fb8 f i libvcruntime:per_thread_data.obj
 0001:00161fdc       ??1?$__crt_unique_heap_ptr@U__vcrt_ptd@@U__crt_internal_free_policy@@@@QEAA@XZ 0000000180162fdc f i libvcruntime:per_thread_data.obj
 0001:00162004       ??B?$__crt_unique_heap_ptr@U__vcrt_ptd@@U__crt_internal_free_policy@@@@QEBA_NXZ 0000000180163004 f i libvcruntime:per_thread_data.obj
 0001:0016200c       ?detach@?$__crt_unique_heap_ptr@U__vcrt_ptd@@U__crt_internal_free_policy@@@@QEAAPEAU__vcrt_ptd@@XZ 000000018016300c f i libvcruntime:per_thread_data.obj
 0001:00162014       ?get@?$__crt_unique_heap_ptr@U__vcrt_ptd@@U__crt_internal_free_policy@@@@QEBAPEAU__vcrt_ptd@@XZ 0000000180163014 f i libvcruntime:per_thread_data.obj
 0001:00162018       ?is_valid@?$__crt_unique_heap_ptr@U__vcrt_ptd@@U__crt_internal_free_policy@@@@QEBA_NXZ 0000000180163018 f i libvcruntime:per_thread_data.obj
 0001:00162020       ?release@?$__crt_unique_heap_ptr@U__vcrt_ptd@@U__crt_internal_free_policy@@@@QEAAXXZ 0000000180163020 f i libvcruntime:per_thread_data.obj
 0001:00162068       __vcrt_freefls             0000000180163068 f   libvcruntime:per_thread_data.obj
 0001:00162088       __vcrt_freeptd             0000000180163088 f   libvcruntime:per_thread_data.obj
 0001:001620d8       __vcrt_getptd              00000001801630d8 f   libvcruntime:per_thread_data.obj
 0001:001620f4       __vcrt_getptd_noexit       00000001801630f4 f   libvcruntime:per_thread_data.obj
 0001:001621b4       __vcrt_getptd_noinit       00000001801631b4 f   libvcruntime:per_thread_data.obj
 0001:00162204       __vcrt_initialize_ptd      0000000180163204 f   libvcruntime:per_thread_data.obj
 0001:0016224c       __vcrt_uninitialize_ptd    000000018016324c f   libvcruntime:per_thread_data.obj
 0001:00162270       __vcrt_initialize_locks    0000000180163270 f   libvcruntime:locks.obj
 0001:001622b8       __vcrt_lock                00000001801632b8 f   libvcruntime:locks.obj
 0001:001622d4       __vcrt_uninitialize_locks  00000001801632d4 f   libvcruntime:locks.obj
 0001:0016230c       __vcrt_unlock              000000018016330c f   libvcruntime:locks.obj
 0001:00162328       ??$?0AEAViterator@TryBlockMap4@FH4@@AEAV012@$0A@@?$pair@Viterator@TryBlockMap4@FH4@@V123@@std@@QEAA@AEAViterator@TryBlockMap4@FH4@@0@Z 0000000180163328 f i libvcruntime:risctrnsctrl.obj
 0001:0016233c       ??$?0AEAViterator@TryBlockMap@__FrameHandler3@@AEAV012@$0A@@?$pair@Viterator@TryBlockMap@__FrameHandler3@@V123@@std@@QEAA@AEAViterator@TryBlockMap@__FrameHandler3@@0@Z 000000018016333c f i libvcruntime:risctrnsctrl.obj
 0001:001624c0       ??$_CallSETranslator@V__FrameHandler3@@@@YAHPEAUEHExceptionRecord@@PEA_KPEAU_CONTEXT@@PEAU_xDISPATCHER_CONTEXT@@PEBU_s_FuncInfo@@K1H@Z 00000001801634c0 f i libvcruntime:risctrnsctrl.obj
 0001:00162514       ??$_CallSETranslator@V__FrameHandler4@@@@YAHPEAUEHExceptionRecord@@PEA_KPEAU_CONTEXT@@PEAU_xDISPATCHER_CONTEXT@@PEAUFuncInfo4@FH4@@K1H@Z 0000000180163514 f i libvcruntime:risctrnsctrl.obj
 0001:00162568       ??$forward@AEAViterator@TryBlockMap4@FH4@@@std@@YAAEAViterator@TryBlockMap4@FH4@@AEAV123@@Z 0000000180163568 f i libvcruntime:risctrnsctrl.obj
 0001:0016256c       ??$forward@AEAViterator@TryBlockMap@__FrameHandler3@@@std@@YAAEAViterator@TryBlockMap@__FrameHandler3@@AEAV123@@Z 000000018016356c f i libvcruntime:risctrnsctrl.obj
 0001:00162570       ??0FuncInfo4@FH4@@QEAA@XZ  0000000180163570 f i libvcruntime:risctrnsctrl.obj
 0001:00162584       ??0FuncInfoHeader@FH4@@QEAA@XZ 0000000180163584 f i libvcruntime:risctrnsctrl.obj
 0001:0016258c       ??0iterator@TryBlockMap4@FH4@@QEAA@AEAV12@I@Z 000000018016358c f i libvcruntime:risctrnsctrl.obj
 0001:00162598       ??0iterator@TryBlockMap@__FrameHandler3@@QEAA@AEAV12@I@Z 0000000180163598 f i libvcruntime:risctrnsctrl.obj
 0001:001625a4       ??4iterator@TryBlockMap4@FH4@@QEAAAEAV012@AEBV012@@Z 00000001801635a4 f i libvcruntime:risctrnsctrl.obj
 0001:001625b0       ??9iterator@TryBlockMap4@FH4@@QEBA_NAEBV012@@Z 00000001801635b0 f i libvcruntime:risctrnsctrl.obj
 0001:001625bc       ??Diterator@TryBlockMap4@FH4@@QEAA?AUTryBlockMapEntry4@2@XZ 00000001801635bc f i libvcruntime:risctrnsctrl.obj
 0001:001625cc       ??Eiterator@TryBlockMap4@FH4@@QEAAAEAV012@XZ 00000001801635cc f i libvcruntime:risctrnsctrl.obj
 0001:00162668       ?CatchTryBlock@__FrameHandler3@@SAPEBU_s_TryBlockMapEntry@@PEBU_s_FuncInfo@@H@Z 0000000180163668 f   libvcruntime:risctrnsctrl.obj
 0001:001626cc       ?DecompFuncInfo@FH4@@YA_JPEAEAEAUFuncInfo4@1@_KH@Z 00000001801636cc f i libvcruntime:risctrnsctrl.obj
 0001:001626e0       ?DecompFuncInfo@FH4@@YA_JPEAEAEAUFuncInfo4@1@_KH_N@Z 00000001801636e0 f i libvcruntime:risctrnsctrl.obj
 0001:00162814       ?DecompTryBlock@TryBlockMap4@FH4@@AEAAXXZ 0000000180163814 f i libvcruntime:risctrnsctrl.obj
 0001:001628a8       ?ExecutionInCatch@__FrameHandler3@@SA_NPEAU_xDISPATCHER_CONTEXT@@PEBU_s_FuncInfo@@@Z 00000001801638a8 f   libvcruntime:risctrnsctrl.obj
 0001:001628d4       ?ExecutionInCatch@__FrameHandler4@@SA_NPEAU_xDISPATCHER_CONTEXT@@PEAUFuncInfo4@FH4@@@Z 00000001801638d4 f   libvcruntime:risctrnsctrl.obj
 0001:001628dc       ?FrameUnwindToEmptyState@__FrameHandler3@@SAXPEA_KPEAU_xDISPATCHER_CONTEXT@@PEBU_s_FuncInfo@@@Z 00000001801638dc f   libvcruntime:risctrnsctrl.obj
 0001:00162940       ?FrameUnwindToEmptyState@__FrameHandler4@@SAXPEA_KPEAU_xDISPATCHER_CONTEXT@@PEAUFuncInfo4@FH4@@@Z 0000000180163940 f   libvcruntime:risctrnsctrl.obj
 0001:00162974       ?GetEstablisherFrame@__FrameHandler3@@SAPEA_KPEA_KPEAU_xDISPATCHER_CONTEXT@@PEBU_s_FuncInfo@@0@Z 0000000180163974 f   libvcruntime:risctrnsctrl.obj
 0001:00162a40       ?GetEstablisherFrame@__FrameHandler4@@SAPEA_KPEA_KPEAU_xDISPATCHER_CONTEXT@@PEAUFuncInfo4@FH4@@0@Z 0000000180163a40 f   libvcruntime:risctrnsctrl.obj
 0001:00162a64       ?GetRangeOfTrysToCheck@__FrameHandler3@@SA?AU?$pair@Viterator@TryBlockMap@__FrameHandler3@@V123@@std@@AEAVTryBlockMap@1@HPEAU_xDISPATCHER_CONTEXT@@PEBU_s_FuncInfo@@H@Z 0000000180163a64 f   libvcruntime:risctrnsctrl.obj
 0001:00162ba4       ?GetRangeOfTrysToCheck@__FrameHandler4@@SA?AU?$pair@Viterator@TryBlockMap4@FH4@@V123@@std@@AEAVTryBlockMap4@FH4@@HPEAU_xDISPATCHER_CONTEXT@@PEAUFuncInfo4@5@H@Z 0000000180163ba4 f   libvcruntime:risctrnsctrl.obj
 0001:00162d10       ?ReadInt@FH4@@YAHPEAPEAE@Z 0000000180163d10 f i libvcruntime:risctrnsctrl.obj
 0001:00162d20       ?ReadUnsigned@FH4@@YAIPEAPEAE@Z 0000000180163d20 f i libvcruntime:risctrnsctrl.obj
 0001:00162d50       ?UnwindNestedFrames@__FrameHandler3@@SAXPEA_KPEAUEHExceptionRecord@@PEAU_CONTEXT@@0PEAXPEBU_s_FuncInfo@@HHPEBU_s_HandlerType@@PEAU_xDISPATCHER_CONTEXT@@E@Z 0000000180163d50 f   libvcruntime:risctrnsctrl.obj
 0001:00162e54       ?UnwindNestedFrames@__FrameHandler4@@SAXPEA_KPEAUEHExceptionRecord@@PEAU_CONTEXT@@0PEAXPEAUFuncInfo4@FH4@@HHPEAUHandlerType4@5@PEAU_xDISPATCHER_CONTEXT@@E@Z 0000000180163e54 f   libvcruntime:risctrnsctrl.obj
 0001:00162f74       ?begin@TryBlockMap4@FH4@@QEAA?AViterator@12@XZ 0000000180163f74 f i libvcruntime:risctrnsctrl.obj
 0001:00162f80       ?end@TryBlockMap4@FH4@@QEAA?AViterator@12@XZ 0000000180163f80 f i libvcruntime:risctrnsctrl.obj
 0001:00162f8c       ?imageRelToByteBuffer@FH4@@YAPEAE_KH@Z 0000000180163f8c f i libvcruntime:risctrnsctrl.obj
 0001:00162f94       ?incrementToSentinel@iterator@TryBlockMap4@FH4@@QEAAXXZ 0000000180163f94 f i libvcruntime:risctrnsctrl.obj
 0001:00162f98       ?setBuffer@TryBlockMap4@FH4@@QEAAXViterator@12@@Z 0000000180163f98 f i libvcruntime:risctrnsctrl.obj
 0001:0016315c       _CreateFrameInfo           000000018016415c f   libvcruntime:risctrnsctrl.obj
 0001:00163198       _FindAndUnlinkFrame        0000000180164198 f   libvcruntime:risctrnsctrl.obj
 0001:001631ec       _GetImageBase              00000001801641ec f   libvcruntime:risctrnsctrl.obj
 0001:00163200       _GetThrowImageBase         0000000180164200 f   libvcruntime:risctrnsctrl.obj
 0001:00163214       _SetImageBase              0000000180164214 f   libvcruntime:risctrnsctrl.obj
 0001:0016322c       _SetThrowImageBase         000000018016422c f   libvcruntime:risctrnsctrl.obj
 0001:00163244       __CxxFrameHandler          0000000180164244 f   libvcruntime:risctrnsctrl.obj
 0001:0016324c       __CxxFrameHandler2         000000018016424c f   libvcruntime:risctrnsctrl.obj
 0001:00163254       __CxxFrameHandler3         0000000180164254 f   libvcruntime:risctrnsctrl.obj
 0001:001632dc       __CxxFrameHandler4         00000001801642dc f   libvcruntime:risctrnsctrl.obj
 0001:0016339c       ??$__crt_interlocked_exchange_pointer@UHINSTANCE__@@PEAU1@@@YAPEAUHINSTANCE__@@PEDSEAU0@QEAU0@@Z 000000018016439c f i libvcruntime:winapi_downlevel.obj
 0001:001633a4       ??$__crt_interlocked_exchange_pointer@UHINSTANCE__@@PEAX@@YAPEAUHINSTANCE__@@PEDSEAU0@QEAX@Z 00000001801643a4 f i libvcruntime:winapi_downlevel.obj
 0001:001633ac       ??$__crt_interlocked_exchange_pointer@XPEAX@@YAPEAXPEDSEAXQEAX@Z 00000001801643ac f i libvcruntime:winapi_downlevel.obj
 0001:001633b4       ??$__crt_interlocked_read_pointer@UHINSTANCE__@@@@YAPEAUHINSTANCE__@@PEDSEAU0@@Z 00000001801643b4 f i libvcruntime:winapi_downlevel.obj
 0001:001633bc       ??$__crt_interlocked_read_pointer@X@@YAPEAXPEDSEAX@Z 00000001801643bc f i libvcruntime:winapi_downlevel.obj
 0001:001638fc       __vcrt_FlsAlloc            00000001801648fc f   libvcruntime:winapi_downlevel.obj
 0001:00163944       __vcrt_FlsFree             0000000180164944 f   libvcruntime:winapi_downlevel.obj
 0001:0016398c       __vcrt_FlsGetValue         000000018016498c f   libvcruntime:winapi_downlevel.obj
 0001:001639d4       __vcrt_FlsSetValue         00000001801649d4 f   libvcruntime:winapi_downlevel.obj
 0001:00163a28       __vcrt_InitializeCriticalSectionEx 0000000180164a28 f   libvcruntime:winapi_downlevel.obj
 0001:00163a8c       ?GetCurrentState@__FrameHandler3@@SAHPEA_KPEAU_xDISPATCHER_CONTEXT@@PEBU_s_FuncInfo@@@Z 0000000180164a8c f   libvcruntime:ehstate.obj
 0001:00163ab4       ?GetUnwindTryBlock@__FrameHandler3@@SAHPEA_KPEAU_xDISPATCHER_CONTEXT@@PEBU_s_FuncInfo@@@Z 0000000180164ab4 f   libvcruntime:ehstate.obj
 0001:00163ae0       ?SetState@__FrameHandler3@@SAXPEA_KPEBU_s_FuncInfo@@H@Z 0000000180164ae0 f   libvcruntime:ehstate.obj
 0001:00163aec       ?SetUnwindTryBlock@__FrameHandler3@@SAXPEA_KPEAU_xDISPATCHER_CONTEXT@@PEBU_s_FuncInfo@@H@Z 0000000180164aec f   libvcruntime:ehstate.obj
 0001:00163b28       ?StateFromControlPc@__FrameHandler3@@SAHPEBU_s_FuncInfo@@PEAU_xDISPATCHER_CONTEXT@@@Z 0000000180164b28 f   libvcruntime:ehstate.obj
 0001:00163b30       ?StateFromControlPc@__FrameHandler4@@SAHPEAUFuncInfo4@FH4@@PEAU_xDISPATCHER_CONTEXT@@@Z 0000000180164b30 f   libvcruntime:ehstate.obj
 0001:00163b38       ?StateFromIp@__FrameHandler3@@SAHPEBU_s_FuncInfo@@PEAU_xDISPATCHER_CONTEXT@@_K@Z 0000000180164b38 f   libvcruntime:ehstate.obj
 0001:00163ba0       ?StateFromIp@__FrameHandler4@@SAHPEAUFuncInfo4@FH4@@PEAU_xDISPATCHER_CONTEXT@@_K@Z 0000000180164ba0 f   libvcruntime:ehstate.obj
 0001:00163c90       ?__FuncRelToRealOffset@@YA_KPEAU_xDISPATCHER_CONTEXT@@I@Z 0000000180164c90 f i libvcruntime:ehstate.obj
 0001:00163ca0       ?__RVAtoRealOffset@@YA_KPEAU_xDISPATCHER_CONTEXT@@H@Z 0000000180164ca0 f i libvcruntime:ehstate.obj
 0001:001652bc       ??$TypeMatchHelper@V__FrameHandler3@@@@YAHPEBU_s_HandlerType@@PEBU_s_CatchableType@@PEBU_s_ThrowInfo@@@Z 00000001801662bc f i libvcruntime:frame.obj
 0001:001653fc       ??$TypeMatchHelper@V__FrameHandler4@@@@YAHPEAUHandlerType4@FH4@@PEBU_s_CatchableType@@PEBU_s_ThrowInfo@@@Z 00000001801663fc f i libvcruntime:frame.obj
 0001:00165540       ??$__InternalCxxFrameHandler@V__FrameHandler3@@@@YA?AW4_EXCEPTION_DISPOSITION@@PEAUEHExceptionRecord@@PEA_KPEAU_CONTEXT@@PEAU_xDISPATCHER_CONTEXT@@PEBU_s_FuncInfo@@H1E@Z 0000000180166540 f i libvcruntime:frame.obj
 0001:00165778       ??$__InternalCxxFrameHandler@V__FrameHandler4@@@@YA?AW4_EXCEPTION_DISPOSITION@@PEAUEHExceptionRecord@@PEA_KPEAU_CONTEXT@@PEAU_xDISPATCHER_CONTEXT@@PEAUFuncInfo4@FH4@@H1E@Z 0000000180166778 f i libvcruntime:frame.obj
 0001:00165a0c       ??$__InternalCxxFrameHandlerWrapper@V__FrameHandler3@@@@YA?AW4_EXCEPTION_DISPOSITION@@PEAUEHExceptionRecord@@PEA_KPEAU_CONTEXT@@PEAU_xDISPATCHER_CONTEXT@@PEBU_s_FuncInfo@@H1E@Z 0000000180166a0c f i libvcruntime:frame.obj
 0001:00165a14       ??$__InternalCxxFrameHandlerWrapper@V__FrameHandler4@@@@YA?AW4_EXCEPTION_DISPOSITION@@PEAUEHExceptionRecord@@PEA_KPEAU_CONTEXT@@PEAU_xDISPATCHER_CONTEXT@@PEAUFuncInfo4@FH4@@H1E@Z 0000000180166a14 f i libvcruntime:frame.obj
 0001:00165a70       ??0HandlerMap4@FH4@@QEAA@PEBUTryBlockMapEntry4@1@_KH@Z 0000000180166a70 f i libvcruntime:frame.obj
 0001:00165aec       ??0HandlerMap@__FrameHandler3@@QEAA@PEBU_s_TryBlockMapEntry@@_KI@Z 0000000180166aec f i libvcruntime:frame.obj
 0001:00165b00       ??0HandlerType4@FH4@@QEAA@XZ 0000000180166b00 f i libvcruntime:frame.obj
 0001:00165b18       ??0TryBlockMap4@FH4@@QEAA@PEBUFuncInfo4@1@_K@Z 0000000180166b18 f i libvcruntime:frame.obj
 0001:00165bf0       ??0TryBlockMap@__FrameHandler3@@QEAA@PEBU_s_FuncInfo@@_K@Z 0000000180166bf0 f i libvcruntime:frame.obj
 0001:00165bfc       ??0UWMap4@FH4@@QEAA@PEBUFuncInfo4@1@_K@Z 0000000180166bfc f i libvcruntime:frame.obj
 0001:00165c40       ??0bad_exception@std@@QEAA@AEBV01@@Z 0000000180166c40 f i libvcruntime:frame.obj
 0001:00165c7c       ??0bad_exception@std@@QEAA@XZ 0000000180166c7c f i libvcruntime:frame.obj
 0001:00165c9c       ??0exception@std@@QEAA@AEBV01@@Z 0000000180166c9c f i libvcruntime:frame.obj
 0001:00165cd0       ??0exception@std@@QEAA@QEBDH@Z 0000000180166cd0 f i libvcruntime:frame.obj
 0001:00165ce8       ??0iterator@HandlerMap4@FH4@@QEAA@AEAV12@I@Z 0000000180166ce8 f i libvcruntime:frame.obj
 0001:00165cf4       ??0iterator@HandlerMap@__FrameHandler3@@QEAA@AEAV12@I@Z 0000000180166cf4 f i libvcruntime:frame.obj
 0001:00165d00       ??0iterator@UWMap4@FH4@@QEAA@AEAV12@PEAE@Z 0000000180166d00 f i libvcruntime:frame.obj
 0001:00165d0c       ??1bad_exception@std@@UEAA@XZ 0000000180166d0c f i libvcruntime:frame.obj
 0001:00165d20       ??1exception@std@@UEAA@XZ  0000000180166d20 f i libvcruntime:frame.obj
 0001:00165d34       ??4iterator@UWMap4@FH4@@QEAAAEAV012@AEBV012@@Z 0000000180166d34 f i libvcruntime:frame.obj
 0001:00165d54       ??8iterator@HandlerMap4@FH4@@QEBA_NAEBV012@@Z 0000000180166d54 f i libvcruntime:frame.obj
 0001:00165d60       ??8iterator@HandlerMap@__FrameHandler3@@QEBA_NAEBV012@@Z 0000000180166d60 f i libvcruntime:frame.obj
 0001:00165d6c       ??8type_info@@QEBA_NAEBV0@@Z 0000000180166d6c f i libvcruntime:frame.obj
 0001:00165d88       ??9iterator@HandlerMap4@FH4@@QEBA_NAEBV012@@Z 0000000180166d88 f i libvcruntime:frame.obj
 0001:00165d94       ??9iterator@HandlerMap@__FrameHandler3@@QEBA_NAEBV012@@Z 0000000180166d94 f i libvcruntime:frame.obj
 0001:00165da0       ??Diterator@HandlerMap4@FH4@@QEAA?AUHandlerType4@2@XZ 0000000180166da0 f i libvcruntime:frame.obj
 0001:00165dc0       ??Diterator@HandlerMap@__FrameHandler3@@QEAA?BU_s_HandlerType@@XZ 0000000180166dc0 f i libvcruntime:frame.obj
 0001:00165de4       ??Diterator@TryBlockMap@__FrameHandler3@@QEAA?BU_s_TryBlockMapEntry@@XZ 0000000180166de4 f i libvcruntime:frame.obj
 0001:00165e14       ??Diterator@UWMap4@FH4@@QEAA?AUUnwindMapEntry4@2@XZ 0000000180166e14 f i libvcruntime:frame.obj
 0001:00165e68       ??Eiterator@HandlerMap4@FH4@@QEAAAEAV012@XZ 0000000180166e68 f i libvcruntime:frame.obj
 0001:00165e88       ??Eiterator@HandlerMap@__FrameHandler3@@QEAAAEAV012@XZ 0000000180166e88 f i libvcruntime:frame.obj
 0001:00165e90       ??Eiterator@TryBlockMap@__FrameHandler3@@QEAAAEAV012@XZ 0000000180166e90 f i libvcruntime:frame.obj
 0001:00165e98       ??Eiterator@UWMap4@FH4@@QEAAAEAV012@XZ 0000000180166e98 f i libvcruntime:frame.obj
 0001:00165eb8       ??Giterator@UWMap4@FH4@@QEBA_JAEBV012@@Z 0000000180166eb8 f i libvcruntime:frame.obj
 0001:00165ec4       ??Miterator@TryBlockMap4@FH4@@QEBA_NAEBV012@@Z 0000000180166ec4 f i libvcruntime:frame.obj
 0001:00165ed0       ??Miterator@TryBlockMap@__FrameHandler3@@QEBA_NAEBV012@@Z 0000000180166ed0 f i libvcruntime:frame.obj
 0001:00165edc       ??Oiterator@UWMap4@FH4@@QEBA_NAEBV012@@Z 0000000180166edc f i libvcruntime:frame.obj
 0001:00165ee8       ??Piterator@UWMap4@FH4@@QEBA_NAEBV012@@Z 0000000180166ee8 f i libvcruntime:frame.obj
 0001:00165ef4       ??_Ebad_exception@std@@UEAAPEAXI@Z 0000000180166ef4 f i libvcruntime:frame.obj
 0001:00165ef4       ??_Gbad_exception@std@@UEAAPEAXI@Z 0000000180166ef4 f i libvcruntime:frame.obj
 0001:00165f38       ??_Eexception@std@@UEAAPEAXI@Z 0000000180166f38 f i libvcruntime:frame.obj
 0001:00165f38       ??_Gexception@std@@UEAAPEAXI@Z 0000000180166f38 f i libvcruntime:frame.obj
 0001:00165f7c       ?BuildCatchObject@__FrameHandler3@@SAXPEAUEHExceptionRecord@@PEAXPEBU_s_HandlerType@@PEBU_s_CatchableType@@@Z 0000000180166f7c f   libvcruntime:frame.obj
 0001:00165f84       ?BuildCatchObject@__FrameHandler4@@SAXPEAUEHExceptionRecord@@PEAXPEAUHandlerType4@FH4@@PEBU_s_CatchableType@@@Z 0000000180166f84 f   libvcruntime:frame.obj
 0001:00165f8c       ?BuildCatchObjectHelper@__FrameHandler3@@SAHPEAUEHExceptionRecord@@PEAXPEBU_s_HandlerType@@PEBU_s_CatchableType@@@Z 0000000180166f8c f   libvcruntime:frame.obj
 0001:00165f94       ?BuildCatchObjectHelper@__FrameHandler4@@SAHPEAUEHExceptionRecord@@PEAXPEAUHandlerType4@FH4@@PEBU_s_CatchableType@@@Z 0000000180166f94 f   libvcruntime:frame.obj
 0001:00165f9c       ?CxxCallCatchBlock@__FrameHandler3@@SAPEAXPEAU_EXCEPTION_RECORD@@@Z 0000000180166f9c f   libvcruntime:frame.obj
 0001:00166188       ?CxxCallCatchBlock@__FrameHandler4@@SAPEAXPEAU_EXCEPTION_RECORD@@@Z 0000000180167188 f   libvcruntime:frame.obj
 0001:001663d8       ?DecompHandler@HandlerMap4@FH4@@AEAAXXZ 00000001801673d8 f i libvcruntime:frame.obj
 0001:00166624       ?FrameUnwindToState@__FrameHandler3@@SAXPEA_KPEAU_xDISPATCHER_CONTEXT@@PEBU_s_FuncInfo@@H@Z 0000000180167624 f   libvcruntime:frame.obj
 0001:001667b0       ?FrameUnwindToState@__FrameHandler4@@SAXPEA_KPEAU_xDISPATCHER_CONTEXT@@PEAUFuncInfo4@FH4@@H@Z 00000001801677b0 f   libvcruntime:frame.obj
 0001:00166aac       ?GetHandlerSearchState@__FrameHandler3@@SAHPEA_KPEAU_xDISPATCHER_CONTEXT@@PEBU_s_FuncInfo@@@Z 0000000180167aac f i libvcruntime:frame.obj
 0001:00166b44       ?GetHandlerSearchState@__FrameHandler4@@SAHPEA_KPEAU_xDISPATCHER_CONTEXT@@PEAUFuncInfo4@FH4@@@Z 0000000180167b44 f i libvcruntime:frame.obj
 0001:00166ba8       ?GetMaxState@__FrameHandler3@@SAHPEAU_xDISPATCHER_CONTEXT@@PEBU_s_FuncInfo@@@Z 0000000180167ba8 f i libvcruntime:frame.obj
 0001:00166bac       ?GetMaxState@__FrameHandler4@@SAHPEAU_xDISPATCHER_CONTEXT@@PEAUFuncInfo4@FH4@@@Z 0000000180167bac f i libvcruntime:frame.obj
 0001:00166d5c       ?ReadEntry@UWMap4@FH4@@AEAAXPEAPEAE@Z 0000000180167d5c f i libvcruntime:frame.obj
 0001:00166df8       ?TypeMatch@__FrameHandler3@@SAHPEBU_s_HandlerType@@PEBU_s_CatchableType@@PEBU_s_ThrowInfo@@@Z 0000000180167df8 f   libvcruntime:frame.obj
 0001:00166e00       ?TypeMatch@__FrameHandler4@@SAHPEAUHandlerType4@FH4@@PEBU_s_CatchableType@@PEBU_s_ThrowInfo@@@Z 0000000180167e00 f   libvcruntime:frame.obj
 0001:00166e08       ?WalkBack@UWMap4@FH4@@AEAAXPEAPEAE@Z 0000000180167e08 f i libvcruntime:frame.obj
 0001:00166e40       ?WalkBack@iterator@UWMap4@FH4@@QEAAXXZ 0000000180167e40 f i libvcruntime:frame.obj
 0001:00166e80       ?WalkForward@UWMap4@FH4@@AEAAXPEAPEAE@Z 0000000180167e80 f i libvcruntime:frame.obj
 0001:00166e88       ?_CallMemberFunction1@@YAXQEAX00@Z 0000000180167e88 f i libvcruntime:frame.obj
 0001:00166e94       ?_CallMemberFunction2@@YAXQEAX00H@Z 0000000180167e94 f i libvcruntime:frame.obj
 0001:00166eb8       ?begin@HandlerMap4@FH4@@QEAA?AViterator@12@XZ 0000000180167eb8 f i libvcruntime:frame.obj
 0001:00166ec4       ?begin@HandlerMap@__FrameHandler3@@QEAA?AViterator@12@XZ 0000000180167ec4 f i libvcruntime:frame.obj
 0001:00166ed0       ?begin@UWMap4@FH4@@QEAA?AViterator@12@XZ 0000000180167ed0 f i libvcruntime:frame.obj
 0001:00166ee0       ?end@HandlerMap4@FH4@@QEAA?AViterator@12@XZ 0000000180167ee0 f i libvcruntime:frame.obj
 0001:00166eec       ?end@HandlerMap@__FrameHandler3@@QEAA?AViterator@12@XZ 0000000180167eec f i libvcruntime:frame.obj
 0001:00166ef8       ?getESTypes@__FrameHandler3@@SAPEBU_s_ESTypeList@@PEBU_s_FuncInfo@@@Z 0000000180167ef8 f i libvcruntime:frame.obj
 0001:00166f20       ?getESTypes@__FrameHandler4@@SAPEBU_s_ESTypeList@@PEAUFuncInfo4@FH4@@@Z 0000000180167f20 f i libvcruntime:frame.obj
 0001:00166f24       ?getLastEntry@HandlerMap4@FH4@@QEAAPEAUHandlerType4@2@XZ 0000000180167f24 f i libvcruntime:frame.obj
 0001:00166f74       ?getLastEntry@HandlerMap@__FrameHandler3@@QEAAPEBU_s_HandlerType@@XZ 0000000180167f74 f i libvcruntime:frame.obj
 0001:00166f88       ?getMagicNum@__FrameHandler3@@SAIPEBU_s_FuncInfo@@@Z 0000000180167f88 f i libvcruntime:frame.obj
 0001:00166f90       ?getMagicNum@__FrameHandler4@@SAIPEAUFuncInfo4@FH4@@@Z 0000000180167f90 f i libvcruntime:frame.obj
 0001:00166f98       ?getNumTryBlocks@TryBlockMap4@FH4@@QEAAIXZ 0000000180167f98 f i libvcruntime:frame.obj
 0001:00166f9c       ?getNumTryBlocks@TryBlockMap@__FrameHandler3@@QEAAIXZ 0000000180167f9c f i libvcruntime:frame.obj
 0001:00166fa4       ?getStartStop@UWMap4@FH4@@QEAAXHHAEAViterator@12@0@Z 0000000180167fa4 f i libvcruntime:frame.obj
 0001:00167074       ?getStateFromIterators@UWMap4@FH4@@SAHAEBViterator@12@H0H0@Z 0000000180168074 f i libvcruntime:frame.obj
 0001:00167124       ?isEHs@__FrameHandler3@@SA_NPEBU_s_FuncInfo@@@Z 0000000180168124 f i libvcruntime:frame.obj
 0001:0016712c       ?isEHs@__FrameHandler4@@SA_NPEAUFuncInfo4@FH4@@@Z 000000018016812c f i libvcruntime:frame.obj
 0001:00167134       ?isNoExcept@__FrameHandler3@@SA_NPEBU_s_FuncInfo@@@Z 0000000180168134 f i libvcruntime:frame.obj
 0001:00167140       ?isNoExcept@__FrameHandler4@@SA_NPEAUFuncInfo4@FH4@@@Z 0000000180168140 f i libvcruntime:frame.obj
 0001:00167148       ?reset@HandlerType4@FH4@@QEAAXXZ 0000000180168148 f i libvcruntime:frame.obj
 0001:0016715c       ?resetBuffer@HandlerMap4@FH4@@QEAAXXZ 000000018016815c f i libvcruntime:frame.obj
 0001:0016716c       ?setBuffer@HandlerMap4@FH4@@QEAAXI@Z 000000018016816c f i libvcruntime:frame.obj
 0001:001671a8       ?what@exception@std@@UEBAPEBDXZ 00000001801681a8 f i libvcruntime:frame.obj
 0001:001671bc       __BuildCatchObject         00000001801681bc f   libvcruntime:frame.obj
 0001:001671c4       __BuildCatchObjectHelper   00000001801681c4 f   libvcruntime:frame.obj
 0001:001671cc       __TypeMatch                00000001801681cc f   libvcruntime:frame.obj
 0001:001671d4       __vcrt_EncodePointer       00000001801681d4 f i libvcruntime:frame.obj
 0001:001671f0       _CallSettingFrame          00000001801681f0 f   libvcruntime:handlers.obj
 0001:00167240       _CallSettingFrame_LookupContinuationIndex 0000000180168240 f   libvcruntime:handlers.obj
 0001:00167270       _CallSettingFrame_NotifyContinuationAddr 0000000180168270 f   libvcruntime:handlers.obj
 0001:001672a0       _CallSettingFrameEncoded   00000001801682a0 f   libvcruntime:handlers.obj
 0001:001672e8       ??$?RD@__crt_public_free_policy@@QEBAXQEBD@Z 00000001801682e8 f i libvcruntime:std_exception.obj
 0001:001672f0       ??0?$__crt_unique_heap_ptr@DU__crt_public_free_policy@@@@QEAA@QEAD@Z 00000001801682f0 f i libvcruntime:std_exception.obj
 0001:001672f8       ??1?$__crt_unique_heap_ptr@DU__crt_public_free_policy@@@@QEAA@XZ 00000001801682f8 f i libvcruntime:std_exception.obj
 0001:00167314       ??B?$__crt_unique_heap_ptr@DU__crt_public_free_policy@@@@QEBA_NXZ 0000000180168314 f i libvcruntime:std_exception.obj
 0001:0016731c       ?detach@?$__crt_unique_heap_ptr@DU__crt_public_free_policy@@@@QEAAPEADXZ 000000018016831c f i libvcruntime:std_exception.obj
 0001:00167324       ?get@?$__crt_unique_heap_ptr@DU__crt_public_free_policy@@@@QEBAPEADXZ 0000000180168324 f i libvcruntime:std_exception.obj
 0001:00167328       ?is_valid@?$__crt_unique_heap_ptr@DU__crt_public_free_policy@@@@QEBA_NXZ 0000000180168328 f i libvcruntime:std_exception.obj
 0001:00167330       ?release@?$__crt_unique_heap_ptr@DU__crt_public_free_policy@@@@QEAAXXZ 0000000180168330 f i libvcruntime:std_exception.obj
 0001:0016734c       __std_exception_copy       000000018016834c f   libvcruntime:std_exception.obj
 0001:001673dc       __std_exception_destroy    00000001801683dc f   libvcruntime:std_exception.obj
 0001:00167404       _CxxThrowException         0000000180168404 f   libvcruntime:throw.obj
 0001:001674a4       _local_unwind              00000001801684a4 f   libvcruntime:jmpuwind.obj
 0001:001674d0       cosf                       00000001801684d0 f   libucrt:cosf.obj
 0001:001679d0       sinf                       00000001801689d0 f   libucrt:sinf.obj
 0001:001680d0       tanf                       00000001801690d0 f   libucrt:tanf.obj
 0001:00168760       strcmp                     0000000180169760 f   libucrt:strcmp.obj
 0001:001687c8       _fpclass                   00000001801697c8 f   libucrt:ieeemisc.obj
 0001:00168850       _fpclassf                  0000000180169850 f   libucrt:ieeemisc.obj
 0001:001688bc       _isnan                     00000001801698bc f   libucrt:ieeemisc.obj
 0001:001688e8       _isnanf                    00000001801698e8 f   libucrt:ieeemisc.obj
 0001:00168904       _nextafter                 0000000180169904 f   libucrt:ieeemisc.obj
 0001:0016890c       _nextafterf                000000018016990c f   libucrt:ieeemisc.obj
 0001:00168914       _scalb                     0000000180169914 f   libucrt:ieeemisc.obj
 0001:00168ac0       _scalbf                    0000000180169ac0 f   libucrt:ieeemisc.obj
 0001:00168c60       free                       0000000180169c60 f   libucrt:free.obj
 0001:00168c74       _initterm                  0000000180169c74 f   libucrt:initterm.obj
 0001:00168cb8       _initterm_e                0000000180169cb8 f   libucrt:initterm.obj
 0001:00168d20       _seh_filter_dll            0000000180169d20 f   libucrt:exception_filter.obj
 0001:00168d34       _seh_filter_exe            0000000180169d34 f   libucrt:exception_filter.obj
 0001:00168eb8       ??$?B$$A6AXPEAXK0@Z@__crt_fast_encoded_nullptr_t@@QEBAP6AXPEAXK0@ZXZ 0000000180169eb8 f i libucrt:exit.obj
 0001:00168f28       ??$__crt_fast_decode_pointer@P6AXPEAXK0@Z@@YAP6AXPEAXK0@ZQ6AX0K0@Z@Z 0000000180169f28 f i libucrt:exit.obj
 0001:00168f40       ??$__crt_fast_encode_pointer@P6AXPEAXK0@Z@@YAP6AXPEAXK0@ZQ6AX0K0@Z@Z 0000000180169f40 f i libucrt:exit.obj
 0001:00168f60       ??$__crt_get_proc_address@P6AXI@Z@@YAP6AXI@ZQEAUHINSTANCE__@@QEBD@Z 0000000180169f60 f i libucrt:exit.obj
 0001:00168f68       ??$__crt_interlocked_read@J@@YAJPEDJ@Z 0000000180169f68 f i libucrt:exit.obj
 0001:00168f8c       ??0?$__crt_unique_handle_t@U__crt_hmodule_traits@@@@QEAA@QEAUHINSTANCE__@@@Z 0000000180169f8c f i libucrt:exit.obj
 0001:00168f94       ??1?$__crt_unique_handle_t@U__crt_hmodule_traits@@@@QEAA@XZ 0000000180169f94 f i libucrt:exit.obj
 0001:00169094       ?__acrt_select_exit_lock@@YA?AW4__acrt_lock_id@@XZ 000000018016a094 f i libucrt:exit.obj
 0001:0016909c       ?__crt_fast_encode_pointer@@YA?AU__crt_fast_encoded_nullptr_t@@$$T@Z 000000018016a09c f i libucrt:exit.obj
 0001:001690a4       ?__crt_interlocked_read_32@@YAHPEDH@Z 000000018016a0a4 f i libucrt:exit.obj
 0001:001690a8       ?__crt_rotate_pointer_value@@YA_K_KH@Z 000000018016a0a8 f i libucrt:exit.obj
 0001:001690c0       ?close@?$__crt_unique_handle_t@U__crt_hmodule_traits@@@@QEAAXXZ 000000018016a0c0 f i libucrt:exit.obj
 0001:001690e4       ?close@__crt_hmodule_traits@@SA_NPEAUHINSTANCE__@@@Z 000000018016a0e4 f i libucrt:exit.obj
 0001:001691f4       ?get@?$__crt_unique_handle_t@U__crt_hmodule_traits@@@@QEBAPEAUHINSTANCE__@@XZ 000000018016a1f4 f i libucrt:exit.obj
 0001:001691f8       ?get_address_of@?$__crt_unique_handle_t@U__crt_hmodule_traits@@@@QEAAPEAPEAUHINSTANCE__@@XZ 000000018016a1f8 f i libucrt:exit.obj
 0001:001691fc       ?get_invalid_value@__crt_hmodule_traits@@SAPEAUHINSTANCE__@@XZ 000000018016a1fc f i libucrt:exit.obj
 0001:001692f4       _Exit                      000000018016a2f4 f   libucrt:exit.obj
 0001:00169300       __acrt_initialize_thread_local_exit_callback 000000018016a300 f   libucrt:exit.obj
 0001:00169308       _c_exit                    000000018016a308 f   libucrt:exit.obj
 0001:00169318       _cexit                     000000018016a318 f   libucrt:exit.obj
 0001:00169328       _exit                      000000018016a328 f   libucrt:exit.obj
 0001:00169334       _is_c_termination_complete 000000018016a334 f   libucrt:exit.obj
 0001:0016933c       _register_thread_local_exe_atexit_callback 000000018016a33c f   libucrt:exit.obj
 0001:0016937c       exit                       000000018016a37c f   libucrt:exit.obj
 0001:00169388       quick_exit                 000000018016a388 f   libucrt:exit.obj
 0001:00169394       ??$?RE@__crt_internal_free_policy@@QEBAXQEBE@Z 000000018016a394 f i libucrt:argv_parsing.obj
 0001:0016939c       ??$?RPEAD@__crt_internal_free_policy@@QEBAXQEBQEAD@Z 000000018016a39c f i libucrt:argv_parsing.obj
 0001:001693a4       ??$?RPEA_W@__crt_internal_free_policy@@QEBAXQEBQEA_W@Z 000000018016a3a4 f i libucrt:argv_parsing.obj
 0001:001696a0       ??$get_module_file_name@$$TAEAY0BAF@DH@?$__crt_char_traits@D@@SAK$$QEA$$TAEAY0BAF@D$$QEAH@Z 000000018016a6a0 f i libucrt:argv_parsing.obj
 0001:001696ac       ??$get_module_file_name@$$TAEAY0BAF@_WH@?$__crt_char_traits@_W@@SAK$$QEA$$TAEAY0BAF@_W$$QEAH@Z 000000018016a6ac f i libucrt:argv_parsing.obj
 0001:00169a20       ??$set_program_name@PEAD@?$__crt_char_traits@D@@SAX$$QEAPEAD@Z 000000018016aa20 f i libucrt:argv_parsing.obj
 0001:00169a2c       ??$set_program_name@PEA_W@?$__crt_char_traits@_W@@SAX$$QEAPEA_W@Z 000000018016aa2c f i libucrt:argv_parsing.obj
 0001:00169a48       ??0?$__crt_unique_heap_ptr@EU__crt_internal_free_policy@@@@QEAA@QEAE@Z 000000018016aa48 f i libucrt:argv_parsing.obj
 0001:00169a50       ??0?$__crt_unique_heap_ptr@PEADU__crt_internal_free_policy@@@@QEAA@QEAPEAD@Z 000000018016aa50 f i libucrt:argv_parsing.obj
 0001:00169a58       ??0?$__crt_unique_heap_ptr@PEA_WU__crt_internal_free_policy@@@@QEAA@QEAPEA_W@Z 000000018016aa58 f i libucrt:argv_parsing.obj
 0001:00169a60       ??1?$__crt_unique_heap_ptr@EU__crt_internal_free_policy@@@@QEAA@XZ 000000018016aa60 f i libucrt:argv_parsing.obj
 0001:00169a7c       ??1?$__crt_unique_heap_ptr@PEADU__crt_internal_free_policy@@@@QEAA@XZ 000000018016aa7c f i libucrt:argv_parsing.obj
 0001:00169a98       ??1?$__crt_unique_heap_ptr@PEA_WU__crt_internal_free_policy@@@@QEAA@XZ 000000018016aa98 f i libucrt:argv_parsing.obj
 0001:00169ab4       ??B?$__crt_unique_heap_ptr@EU__crt_internal_free_policy@@@@QEBA_NXZ 000000018016aab4 f i libucrt:argv_parsing.obj
 0001:00169af4       ?detach@?$__crt_unique_heap_ptr@EU__crt_internal_free_policy@@@@QEAAPEAEXZ 000000018016aaf4 f i libucrt:argv_parsing.obj
 0001:00169afc       ?detach@?$__crt_unique_heap_ptr@PEADU__crt_internal_free_policy@@@@QEAAPEAPEADXZ 000000018016aafc f i libucrt:argv_parsing.obj
 0001:00169b04       ?detach@?$__crt_unique_heap_ptr@PEA_WU__crt_internal_free_policy@@@@QEAAPEAPEA_WXZ 000000018016ab04 f i libucrt:argv_parsing.obj
 0001:00169b28       ?get@?$__crt_unique_heap_ptr@EU__crt_internal_free_policy@@@@QEBAPEAEXZ 000000018016ab28 f i libucrt:argv_parsing.obj
 0001:00169b2c       ?get@?$__crt_unique_heap_ptr@PEADU__crt_internal_free_policy@@@@QEBAPEAPEADXZ 000000018016ab2c f i libucrt:argv_parsing.obj
 0001:00169b30       ?get@?$__crt_unique_heap_ptr@PEA_WU__crt_internal_free_policy@@@@QEBAPEAPEA_WXZ 000000018016ab30 f i libucrt:argv_parsing.obj
 0001:00169b34       ?get_address_of@?$__crt_unique_heap_ptr@PEADU__crt_internal_free_policy@@@@QEAAPEAPEAPEADXZ 000000018016ab34 f i libucrt:argv_parsing.obj
 0001:00169b38       ?get_address_of@?$__crt_unique_heap_ptr@PEA_WU__crt_internal_free_policy@@@@QEAAPEAPEAPEA_WXZ 000000018016ab38 f i libucrt:argv_parsing.obj
 0001:00169b5c       ?is_valid@?$__crt_unique_heap_ptr@EU__crt_internal_free_policy@@@@QEBA_NXZ 000000018016ab5c f i libucrt:argv_parsing.obj
 0001:00169b64       ?release@?$__crt_unique_heap_ptr@EU__crt_internal_free_policy@@@@QEAAXXZ 000000018016ab64 f i libucrt:argv_parsing.obj
 0001:00169b80       ?release@?$__crt_unique_heap_ptr@PEADU__crt_internal_free_policy@@@@QEAAXXZ 000000018016ab80 f i libucrt:argv_parsing.obj
 0001:00169b9c       ?release@?$__crt_unique_heap_ptr@PEA_WU__crt_internal_free_policy@@@@QEAAXXZ 000000018016ab9c f i libucrt:argv_parsing.obj
 0001:00169bd4       __acrt_allocate_buffer_for_argv 000000018016abd4 f   libucrt:argv_parsing.obj
 0001:00169c34       _configure_narrow_argv     000000018016ac34 f   libucrt:argv_parsing.obj
 0001:00169dbc       _configure_wide_argv       000000018016adbc f   libucrt:argv_parsing.obj
 0001:00169f40       _set_pgmptr                000000018016af40 f i libucrt:argv_parsing.obj
 0001:00169f48       _set_wpgmptr               000000018016af48 f i libucrt:argv_parsing.obj
 0001:00169f50       ??$?R_W@__crt_internal_free_policy@@QEBAXQEB_W@Z 000000018016af50 f i libucrt:environment_initialization.obj
 0001:0016a478       ??$get_environment_from_os@$$V@?$__crt_char_traits@D@@SAPEADXZ 000000018016b478 f i libucrt:environment_initialization.obj
 0001:0016a480       ??$get_environment_from_os@$$V@?$__crt_char_traits@_W@@SAPEA_WXZ 000000018016b480 f i libucrt:environment_initialization.obj
 0001:0016a624       ??$set_variable_in_environment_nolock@PEADH@?$__crt_char_traits@D@@SAH$$QEAPEAD$$QEAH@Z 000000018016b624 f i libucrt:environment_initialization.obj
 0001:0016a630       ??$set_variable_in_environment_nolock@PEA_WH@?$__crt_char_traits@_W@@SAH$$QEAPEA_W$$QEAH@Z 000000018016b630 f i libucrt:environment_initialization.obj
 0001:0016a63c       ??$tcscpy_s@PEADAEB_KAEAPEAD@?$__crt_char_traits@D@@SAH$$QEAPEADAEB_KAEAPEAD@Z 000000018016b63c f i libucrt:environment_initialization.obj
 0001:0016a64c       ??$tcscpy_s@PEA_WAEB_KAEAPEA_W@?$__crt_char_traits@_W@@SAH$$QEAPEA_WAEB_KAEAPEA_W@Z 000000018016b64c f i libucrt:environment_initialization.obj
 0001:0016a65c       ??$tcslen@AEAPEAD@?$__crt_char_traits@D@@SA_KAEAPEAD@Z 000000018016b65c f i libucrt:environment_initialization.obj
 0001:0016a670       ??$tcslen@AEAPEA_W@?$__crt_char_traits@_W@@SA_KAEAPEA_W@Z 000000018016b670 f i libucrt:environment_initialization.obj
 0001:0016a684       ??$uninitialize@A6AXAEAPEAPEAD@_E@?$dual_state_global@PEAPEAD@__crt_state_management@@QEAAXA6AXAEAPEAPEAD@_E@Z 000000018016b684 f i libucrt:environment_initialization.obj
 0001:0016a6dc       ??$uninitialize@A6AXAEAPEAPEA_W@_E@?$dual_state_global@PEAPEA_W@__crt_state_management@@QEAAXA6AXAEAPEAPEA_W@_E@Z 000000018016b6dc f i libucrt:environment_initialization.obj
 0001:0016a76c       ??0?$__crt_unique_heap_ptr@_WU__crt_internal_free_policy@@@@QEAA@QEA_W@Z 000000018016b76c f i libucrt:environment_initialization.obj
 0001:0016a774       ??1?$__crt_unique_heap_ptr@_WU__crt_internal_free_policy@@@@QEAA@XZ 000000018016b774 f i libucrt:environment_initialization.obj
 0001:0016a790       ??B?$__crt_unique_heap_ptr@PEADU__crt_internal_free_policy@@@@QEBA_NXZ 000000018016b790 f i libucrt:environment_initialization.obj
 0001:0016a798       ??B?$__crt_unique_heap_ptr@PEA_WU__crt_internal_free_policy@@@@QEBA_NXZ 000000018016b798 f i libucrt:environment_initialization.obj
 0001:0016a7a0       ??B?$__crt_unique_heap_ptr@_WU__crt_internal_free_policy@@@@QEBA_NXZ 000000018016b7a0 f i libucrt:environment_initialization.obj
 0001:0016a7a8       ?__crt_compute_required_transform_buffer_count@@YA_KIQEBD@Z 000000018016b7a8 f i libucrt:environment_initialization.obj
 0001:0016a7cc       ?__crt_compute_required_transform_buffer_count@@YA_KIQEB_W@Z 000000018016b7cc f i libucrt:environment_initialization.obj
 0001:0016a7fc       ?__crt_transform_string@@YA_KIQEBDQEA_W_K@Z 000000018016b7fc f i libucrt:environment_initialization.obj
 0001:0016a820       ?__crt_transform_string@@YA_KIQEB_WQEAD_K@Z 000000018016b820 f i libucrt:environment_initialization.obj
 0001:0016a850       ?detach@?$__crt_unique_heap_ptr@DU__crt_internal_free_policy@@@@QEAAPEADXZ 000000018016b850 f i libucrt:environment_initialization.obj
 0001:0016a858       ?detach@?$__crt_unique_heap_ptr@_WU__crt_internal_free_policy@@@@QEAAPEA_WXZ 000000018016b858 f i libucrt:environment_initialization.obj
 0001:0016a860       ?get@?$__crt_unique_heap_ptr@_WU__crt_internal_free_policy@@@@QEBAPEA_WXZ 000000018016b860 f i libucrt:environment_initialization.obj
 0001:0016a864       ?get_current_state_index@__crt_state_management@@YA_KXZ 000000018016b864 f i libucrt:environment_initialization.obj
 0001:0016a898       ?initialize@?$dual_state_global@PEAPEAD@__crt_state_management@@QEAAXQEAPEAD@Z 000000018016b898 f i libucrt:environment_initialization.obj
 0001:0016a8a8       ?initialize@?$dual_state_global@PEAPEA_W@__crt_state_management@@QEAAXQEAPEA_W@Z 000000018016b8a8 f i libucrt:environment_initialization.obj
 0001:0016a8b8       ?is_valid@?$__crt_unique_heap_ptr@PEADU__crt_internal_free_policy@@@@QEBA_NXZ 000000018016b8b8 f i libucrt:environment_initialization.obj
 0001:0016a8c0       ?is_valid@?$__crt_unique_heap_ptr@PEA_WU__crt_internal_free_policy@@@@QEBA_NXZ 000000018016b8c0 f i libucrt:environment_initialization.obj
 0001:0016a8c8       ?is_valid@?$__crt_unique_heap_ptr@_WU__crt_internal_free_policy@@@@QEBA_NXZ 000000018016b8c8 f i libucrt:environment_initialization.obj
 0001:0016a8dc       ?release@?$__crt_unique_heap_ptr@_WU__crt_internal_free_policy@@@@QEAAXXZ 000000018016b8dc f i libucrt:environment_initialization.obj
 0001:0016a8f8       ?value@?$dual_state_global@PEAPEAD@__crt_state_management@@QEAAAEAPEAPEADXZ 000000018016b8f8 f i libucrt:environment_initialization.obj
 0001:0016a8fc       ?value@?$dual_state_global@PEAPEA_W@__crt_state_management@@QEAAAEAPEAPEA_WXZ 000000018016b8fc f i libucrt:environment_initialization.obj
 0001:0016a900       __dcrt_get_or_create_narrow_environment_nolock 000000018016b900 f   libucrt:environment_initialization.obj
 0001:0016a93c       __dcrt_get_or_create_wide_environment_nolock 000000018016b93c f   libucrt:environment_initialization.obj
 0001:0016a978       __dcrt_uninitialize_environments_nolock 000000018016b978 f   libucrt:environment_initialization.obj
 0001:0016a9bc       __p__environ               000000018016b9bc f   libucrt:environment_initialization.obj
 0001:0016a9c4       __p__wenviron              000000018016b9c4 f   libucrt:environment_initialization.obj
 0001:0016a9cc       _get_initial_narrow_environment 000000018016b9cc f   libucrt:environment_initialization.obj
 0001:0016aa1c       _get_initial_wide_environment 000000018016ba1c f   libucrt:environment_initialization.obj
 0001:0016aa6c       _initialize_narrow_environment 000000018016ba6c f   libucrt:environment_initialization.obj
 0001:0016aa74       _initialize_wide_environment 000000018016ba74 f   libucrt:environment_initialization.obj
 0001:0016aa7c       _invoke_watson_if_error    000000018016ba7c f i libucrt:environment_initialization.obj
 0001:0016aab0       ??$?B$$A6AXXZ@__crt_fast_encoded_nullptr_t@@QEBAP6AXXZXZ 000000018016bab0 f i libucrt:onexit.obj
 0001:0016aab8       ??$?BP6AXXZ@__crt_fast_encoded_nullptr_t@@QEBAPEAP6AXXZXZ 000000018016bab8 f i libucrt:onexit.obj
 0001:0016aac0       ??$?RP6AXXZ@__crt_internal_free_policy@@QEBAXQEBQ6AXXZ@Z 000000018016bac0 f i libucrt:onexit.obj
 0001:0016ab98       ??$__crt_fast_decode_pointer@P6AXXZ@@YAP6AXXZQ6AXXZ@Z 000000018016bb98 f i libucrt:onexit.obj
 0001:0016abb0       ??$__crt_fast_decode_pointer@PEAP6AXXZ@@YAPEAP6AXXZQEAP6AXXZ@Z 000000018016bbb0 f i libucrt:onexit.obj
 0001:0016abc8       ??$__crt_fast_encode_pointer@P6AHXZ@@YAP6AHXZQ6AHXZ@Z 000000018016bbc8 f i libucrt:onexit.obj
 0001:0016abe8       ??$__crt_fast_encode_pointer@P6AXXZ@@YAP6AXXZQ6AXXZ@Z 000000018016bbe8 f i libucrt:onexit.obj
 0001:0016ac08       ??$__crt_fast_encode_pointer@PEAP6AXXZ@@YAPEAP6AXXZQEAP6AXXZ@Z 000000018016bc08 f i libucrt:onexit.obj
 0001:0016ac5c       ??0?$__crt_unique_heap_ptr@P6AXXZU__crt_internal_free_policy@@@@QEAA@QEAP6AXXZ@Z 000000018016bc5c f i libucrt:onexit.obj
 0001:0016ac64       ??1?$__crt_unique_heap_ptr@P6AXXZU__crt_internal_free_policy@@@@QEAA@XZ 000000018016bc64 f i libucrt:onexit.obj
 0001:0016ac80       ??1scoped_global_state_reset@__crt_state_management@@QEAA@XZ 000000018016bc80 f i libucrt:onexit.obj
 0001:0016af74       ?detach@?$__crt_unique_heap_ptr@P6AXXZU__crt_internal_free_policy@@@@QEAAPEAP6AXXZXZ 000000018016bf74 f i libucrt:onexit.obj
 0001:0016af7c       ?release@?$__crt_unique_heap_ptr@P6AXXZU__crt_internal_free_policy@@@@QEAAXXZ 000000018016bf7c f i libucrt:onexit.obj
 0001:0016af98       _crt_at_quick_exit         000000018016bf98 f   libucrt:onexit.obj
 0001:0016afa8       _crt_atexit                000000018016bfa8 f   libucrt:onexit.obj
 0001:0016afb8       _execute_onexit_table      000000018016bfb8 f   libucrt:onexit.obj
 0001:0016affc       _initialize_onexit_table   000000018016bffc f   libucrt:onexit.obj
 0001:0016b024       _register_onexit_function  000000018016c024 f   libucrt:onexit.obj
 0001:0016b1ac       ??$?BX@__crt_fast_encoded_nullptr_t@@QEBAPEAXXZ 000000018016c1ac f i libucrt:initialization.obj
 0001:0016b1b4       ??$__crt_fast_encode_pointer@PEAX@@YAPEAXQEAX@Z 000000018016c1b4 f i libucrt:initialization.obj
 0001:0016b270       ?__acrt_stdio_is_initialized@@YA_NXZ 000000018016c270 f i libucrt:initialization.obj
 0001:0016b27c       ?initialize@?$dual_state_global@PEAU__crt_locale_data@@@__crt_state_management@@QEAAXQEAU__crt_locale_data@@@Z 000000018016c27c f i libucrt:initialization.obj
 0001:0016b28c       __acrt_initialize          000000018016c28c f   libucrt:initialization.obj
 0001:0016b2a0       __acrt_thread_attach       000000018016c2a0 f   libucrt:initialization.obj
 0001:0016b2b4       __acrt_thread_detach       000000018016c2b4 f   libucrt:initialization.obj
 0001:0016b2c4       __acrt_uninitialize        000000018016c2c4 f   libucrt:initialization.obj
 0001:0016b2fc       __acrt_uninitialize_critical 000000018016c2fc f   libucrt:initialization.obj
 0001:0016b320       _get_terminate             000000018016c320 f   libucrt:terminate.obj
 0001:0016b344       set_terminate              000000018016c344 f   libucrt:terminate.obj
 0001:0016b370       terminate                  000000018016c370 f   libucrt:terminate.obj
 0001:0016b39c       _set_abort_behavior        000000018016c39c f   libucrt:abort.obj
 0001:0016b3b8       abort                      000000018016c3b8 f   libucrt:abort.obj
 0001:0016b410       malloc                     000000018016c410 f   libucrt:malloc.obj
 0001:0016b47c       strcpy_s                   000000018016c47c f   libucrt:strcpy_s.obj
 0001:0016b4dc       ??$?0AEBV?$stream_output_adapter@D@__crt_stdio_output@@AEB_KAEBQEBDAEAV__crt_cached_ptd_host@@AEBQEAD@?$format_validation_base@DV?$stream_output_adapter@D@__crt_stdio_output@@@__crt_stdio_output@@IEAA@AEBV?$stream_output_adapter@D@1@AEB_KAEBQEBDAEAV__crt_cached_ptd_host@@AEBQEAD@Z 000000018016c4dc f i libucrt:output.obj
 0001:0016b54c       ??$?0AEBV?$stream_output_adapter@D@__crt_stdio_output@@AEB_KAEBQEBDAEAV__crt_cached_ptd_host@@AEBQEAD@?$positional_parameter_base@DV?$stream_output_adapter@D@__crt_stdio_output@@@__crt_stdio_output@@IEAA@AEBV?$stream_output_adapter@D@1@AEB_KAEBQEBDAEAV__crt_cached_ptd_host@@AEBQEAD@Z 000000018016c54c f i libucrt:output.obj
 0001:0016b5dc       ??$?0AEBV?$stream_output_adapter@D@__crt_stdio_output@@AEB_KAEBQEBDAEAV__crt_cached_ptd_host@@AEBQEAD@?$standard_base@DV?$stream_output_adapter@D@__crt_stdio_output@@@__crt_stdio_output@@IEAA@AEBV?$stream_output_adapter@D@1@AEB_KAEBQEBDAEAV__crt_cached_ptd_host@@AEBQEAD@Z 000000018016c5dc f i libucrt:output.obj
 0001:0016b64c       ??$?0AEBV?$stream_output_adapter@_W@__crt_stdio_output@@AEB_KAEBQEB_WAEAV__crt_cached_ptd_host@@AEBQEAD@?$format_validation_base@_WV?$stream_output_adapter@_W@__crt_stdio_output@@@__crt_stdio_output@@IEAA@AEBV?$stream_output_adapter@_W@1@AEB_KAEBQEB_WAEAV__crt_cached_ptd_host@@AEBQEAD@Z 000000018016c64c f i libucrt:output.obj
 0001:0016b6c0       ??$?0AEBV?$stream_output_adapter@_W@__crt_stdio_output@@AEB_KAEBQEB_WAEAV__crt_cached_ptd_host@@AEBQEAD@?$positional_parameter_base@_WV?$stream_output_adapter@_W@__crt_stdio_output@@@__crt_stdio_output@@IEAA@AEBV?$stream_output_adapter@_W@1@AEB_KAEBQEB_WAEAV__crt_cached_ptd_host@@AEBQEAD@Z 000000018016c6c0 f i libucrt:output.obj
 0001:0016b754       ??$?0AEBV?$stream_output_adapter@_W@__crt_stdio_output@@AEB_KAEBQEB_WAEAV__crt_cached_ptd_host@@AEBQEAD@?$standard_base@_WV?$stream_output_adapter@_W@__crt_stdio_output@@@__crt_stdio_output@@IEAA@AEBV?$stream_output_adapter@_W@1@AEB_KAEBQEB_WAEAV__crt_cached_ptd_host@@AEBQEAD@Z 000000018016c754 f i libucrt:output.obj
 0001:0016b7c8       ??$?0AEBV?$string_output_adapter@D@__crt_stdio_output@@AEB_KAEBQEBDAEAV__crt_cached_ptd_host@@AEBQEAD@?$format_validation_base@DV?$string_output_adapter@D@__crt_stdio_output@@@__crt_stdio_output@@IEAA@AEBV?$string_output_adapter@D@1@AEB_KAEBQEBDAEAV__crt_cached_ptd_host@@AEBQEAD@Z 000000018016c7c8 f i libucrt:output.obj
 0001:0016b838       ??$?0AEBV?$string_output_adapter@D@__crt_stdio_output@@AEB_KAEBQEBDAEAV__crt_cached_ptd_host@@AEBQEAD@?$positional_parameter_base@DV?$string_output_adapter@D@__crt_stdio_output@@@__crt_stdio_output@@IEAA@AEBV?$string_output_adapter@D@1@AEB_KAEBQEBDAEAV__crt_cached_ptd_host@@AEBQEAD@Z 000000018016c838 f i libucrt:output.obj
 0001:0016b8c8       ??$?0AEBV?$string_output_adapter@D@__crt_stdio_output@@AEB_KAEBQEBDAEAV__crt_cached_ptd_host@@AEBQEAD@?$standard_base@DV?$string_output_adapter@D@__crt_stdio_output@@@__crt_stdio_output@@IEAA@AEBV?$string_output_adapter@D@1@AEB_KAEBQEBDAEAV__crt_cached_ptd_host@@AEBQEAD@Z 000000018016c8c8 f i libucrt:output.obj
 0001:0016b938       ??$?0AEBV?$string_output_adapter@_W@__crt_stdio_output@@AEB_KAEBQEB_WAEAV__crt_cached_ptd_host@@AEBQEAD@?$format_validation_base@_WV?$string_output_adapter@_W@__crt_stdio_output@@@__crt_stdio_output@@IEAA@AEBV?$string_output_adapter@_W@1@AEB_KAEBQEB_WAEAV__crt_cached_ptd_host@@AEBQEAD@Z 000000018016c938 f i libucrt:output.obj
 0001:0016b9ac       ??$?0AEBV?$string_output_adapter@_W@__crt_stdio_output@@AEB_KAEBQEB_WAEAV__crt_cached_ptd_host@@AEBQEAD@?$positional_parameter_base@_WV?$string_output_adapter@_W@__crt_stdio_output@@@__crt_stdio_output@@IEAA@AEBV?$string_output_adapter@_W@1@AEB_KAEBQEB_WAEAV__crt_cached_ptd_host@@AEBQEAD@Z 000000018016c9ac f i libucrt:output.obj
 0001:0016ba40       ??$?0AEBV?$string_output_adapter@_W@__crt_stdio_output@@AEB_KAEBQEB_WAEAV__crt_cached_ptd_host@@AEBQEAD@?$standard_base@_WV?$string_output_adapter@_W@__crt_stdio_output@@@__crt_stdio_output@@IEAA@AEBV?$string_output_adapter@_W@1@AEB_KAEBQEB_WAEAV__crt_cached_ptd_host@@AEBQEAD@Z 000000018016ca40 f i libucrt:output.obj
 0001:0016bd24       ??$_tcstol_internal@DPEAPEAD$0A@@@YAJAEAV__crt_cached_ptd_host@@QEBDQEAPEADH@Z 000000018016cd24 f i libucrt:output.obj
 0001:0016bd54       ??$_tcstol_internal@_WPEAPEA_W$0A@@@YAJAEAV__crt_cached_ptd_host@@QEB_WQEAPEA_WH@Z 000000018016cd54 f i libucrt:output.obj
 0001:0016ce94       ??$count@D@formatting_buffer@__crt_stdio_output@@QEBA_KXZ 000000018016de94 f i libucrt:output.obj
 0001:0016ceb0       ??$count@_W@formatting_buffer@__crt_stdio_output@@QEBA_KXZ 000000018016deb0 f i libucrt:output.obj
 0001:0016cecc       ??$data@D@formatting_buffer@__crt_stdio_output@@QEAAPEADXZ 000000018016decc f i libucrt:output.obj
 0001:0016cedc       ??$data@_W@formatting_buffer@__crt_stdio_output@@QEAAPEA_WXZ 000000018016dedc f i libucrt:output.obj
 0001:0016ceec       ??$ensure_buffer_is_big_enough@D@formatting_buffer@__crt_stdio_output@@QEAA_N_KAEAV__crt_cached_ptd_host@@@Z 000000018016deec f i libucrt:output.obj
 0001:0016cf94       ??$ensure_buffer_is_big_enough@_W@formatting_buffer@__crt_stdio_output@@QEAA_N_KAEAV__crt_cached_ptd_host@@@Z 000000018016df94 f i libucrt:output.obj
 0001:0016d040       ??$extract_argument_from_va_list@C_J@?$positional_parameter_base@DV?$stream_output_adapter@D@__crt_stdio_output@@@__crt_stdio_output@@IEAA_NAEA_J@Z 000000018016e040 f i libucrt:output.obj
 0001:0016d148       ??$extract_argument_from_va_list@C_J@?$positional_parameter_base@DV?$string_output_adapter@D@__crt_stdio_output@@@__crt_stdio_output@@IEAA_NAEA_J@Z 000000018016e148 f i libucrt:output.obj
 0001:0016d250       ??$extract_argument_from_va_list@C_J@?$positional_parameter_base@_WV?$stream_output_adapter@_W@__crt_stdio_output@@@__crt_stdio_output@@IEAA_NAEA_J@Z 000000018016e250 f i libucrt:output.obj
 0001:0016d35c       ??$extract_argument_from_va_list@C_J@?$positional_parameter_base@_WV?$string_output_adapter@_W@__crt_stdio_output@@@__crt_stdio_output@@IEAA_NAEA_J@Z 000000018016e35c f i libucrt:output.obj
 0001:0016d468       ??$extract_argument_from_va_list@C_J@?$standard_base@DV?$stream_output_adapter@D@__crt_stdio_output@@@__crt_stdio_output@@IEAA_NAEA_J@Z 000000018016e468 f i libucrt:output.obj
 0001:0016d47c       ??$extract_argument_from_va_list@C_J@?$standard_base@DV?$string_output_adapter@D@__crt_stdio_output@@@__crt_stdio_output@@IEAA_NAEA_J@Z 000000018016e47c f i libucrt:output.obj
 0001:0016d490       ??$extract_argument_from_va_list@C_J@?$standard_base@_WV?$stream_output_adapter@_W@__crt_stdio_output@@@__crt_stdio_output@@IEAA_NAEA_J@Z 000000018016e490 f i libucrt:output.obj
 0001:0016d4a4       ??$extract_argument_from_va_list@C_J@?$standard_base@_WV?$string_output_adapter@_W@__crt_stdio_output@@@__crt_stdio_output@@IEAA_NAEA_J@Z 000000018016e4a4 f i libucrt:output.obj
 0001:0016d4b8       ??$extract_argument_from_va_list@E_J@?$positional_parameter_base@DV?$stream_output_adapter@D@__crt_stdio_output@@@__crt_stdio_output@@IEAA_NAEA_J@Z 000000018016e4b8 f i libucrt:output.obj
 0001:0016d5c0       ??$extract_argument_from_va_list@E_J@?$positional_parameter_base@DV?$string_output_adapter@D@__crt_stdio_output@@@__crt_stdio_output@@IEAA_NAEA_J@Z 000000018016e5c0 f i libucrt:output.obj
 0001:0016d6c8       ??$extract_argument_from_va_list@E_J@?$positional_parameter_base@_WV?$stream_output_adapter@_W@__crt_stdio_output@@@__crt_stdio_output@@IEAA_NAEA_J@Z 000000018016e6c8 f i libucrt:output.obj
 0001:0016d7d0       ??$extract_argument_from_va_list@E_J@?$positional_parameter_base@_WV?$string_output_adapter@_W@__crt_stdio_output@@@__crt_stdio_output@@IEAA_NAEA_J@Z 000000018016e7d0 f i libucrt:output.obj
 0001:0016d8d8       ??$extract_argument_from_va_list@E_J@?$standard_base@DV?$stream_output_adapter@D@__crt_stdio_output@@@__crt_stdio_output@@IEAA_NAEA_J@Z 000000018016e8d8 f i libucrt:output.obj
 0001:0016d8ec       ??$extract_argument_from_va_list@E_J@?$standard_base@DV?$string_output_adapter@D@__crt_stdio_output@@@__crt_stdio_output@@IEAA_NAEA_J@Z 000000018016e8ec f i libucrt:output.obj
 0001:0016d900       ??$extract_argument_from_va_list@E_J@?$standard_base@_WV?$stream_output_adapter@_W@__crt_stdio_output@@@__crt_stdio_output@@IEAA_NAEA_J@Z 000000018016e900 f i libucrt:output.obj
 0001:0016d914       ??$extract_argument_from_va_list@E_J@?$standard_base@_WV?$string_output_adapter@_W@__crt_stdio_output@@@__crt_stdio_output@@IEAA_NAEA_J@Z 000000018016e914 f i libucrt:output.obj
 0001:0016d928       ??$extract_argument_from_va_list@F_J@?$positional_parameter_base@DV?$stream_output_adapter@D@__crt_stdio_output@@@__crt_stdio_output@@IEAA_NAEA_J@Z 000000018016e928 f i libucrt:output.obj
 0001:0016da30       ??$extract_argument_from_va_list@F_J@?$positional_parameter_base@DV?$string_output_adapter@D@__crt_stdio_output@@@__crt_stdio_output@@IEAA_NAEA_J@Z 000000018016ea30 f i libucrt:output.obj
 0001:0016db38       ??$extract_argument_from_va_list@F_J@?$positional_parameter_base@_WV?$stream_output_adapter@_W@__crt_stdio_output@@@__crt_stdio_output@@IEAA_NAEA_J@Z 000000018016eb38 f i libucrt:output.obj
 0001:0016dc44       ??$extract_argument_from_va_list@F_J@?$positional_parameter_base@_WV?$string_output_adapter@_W@__crt_stdio_output@@@__crt_stdio_output@@IEAA_NAEA_J@Z 000000018016ec44 f i libucrt:output.obj
 0001:0016dd50       ??$extract_argument_from_va_list@F_J@?$standard_base@DV?$stream_output_adapter@D@__crt_stdio_output@@@__crt_stdio_output@@IEAA_NAEA_J@Z 000000018016ed50 f i libucrt:output.obj
 0001:0016dd64       ??$extract_argument_from_va_list@F_J@?$standard_base@DV?$string_output_adapter@D@__crt_stdio_output@@@__crt_stdio_output@@IEAA_NAEA_J@Z 000000018016ed64 f i libucrt:output.obj
 0001:0016dd78       ??$extract_argument_from_va_list@F_J@?$standard_base@_WV?$stream_output_adapter@_W@__crt_stdio_output@@@__crt_stdio_output@@IEAA_NAEA_J@Z 000000018016ed78 f i libucrt:output.obj
 0001:0016dd8c       ??$extract_argument_from_va_list@F_J@?$standard_base@_WV?$string_output_adapter@_W@__crt_stdio_output@@@__crt_stdio_output@@IEAA_NAEA_J@Z 000000018016ed8c f i libucrt:output.obj
 0001:0016dda0       ??$extract_argument_from_va_list@GD@?$positional_parameter_base@DV?$stream_output_adapter@D@__crt_stdio_output@@@__crt_stdio_output@@IEAA_NAEAD@Z 000000018016eda0 f i libucrt:output.obj
 0001:0016dea4       ??$extract_argument_from_va_list@GD@?$positional_parameter_base@DV?$string_output_adapter@D@__crt_stdio_output@@@__crt_stdio_output@@IEAA_NAEAD@Z 000000018016eea4 f i libucrt:output.obj
 0001:0016dfa8       ??$extract_argument_from_va_list@GD@?$standard_base@DV?$stream_output_adapter@D@__crt_stdio_output@@@__crt_stdio_output@@IEAA_NAEAD@Z 000000018016efa8 f i libucrt:output.obj
 0001:0016dfbc       ??$extract_argument_from_va_list@GD@?$standard_base@DV?$string_output_adapter@D@__crt_stdio_output@@@__crt_stdio_output@@IEAA_NAEAD@Z 000000018016efbc f i libucrt:output.obj
 0001:0016dfd0       ??$extract_argument_from_va_list@G_J@?$positional_parameter_base@DV?$stream_output_adapter@D@__crt_stdio_output@@@__crt_stdio_output@@IEAA_NAEA_J@Z 000000018016efd0 f i libucrt:output.obj
 0001:0016e0d8       ??$extract_argument_from_va_list@G_J@?$positional_parameter_base@DV?$string_output_adapter@D@__crt_stdio_output@@@__crt_stdio_output@@IEAA_NAEA_J@Z 000000018016f0d8 f i libucrt:output.obj
 0001:0016e1e0       ??$extract_argument_from_va_list@G_J@?$positional_parameter_base@_WV?$stream_output_adapter@_W@__crt_stdio_output@@@__crt_stdio_output@@IEAA_NAEA_J@Z 000000018016f1e0 f i libucrt:output.obj
 0001:0016e2e8       ??$extract_argument_from_va_list@G_J@?$positional_parameter_base@_WV?$string_output_adapter@_W@__crt_stdio_output@@@__crt_stdio_output@@IEAA_NAEA_J@Z 000000018016f2e8 f i libucrt:output.obj
 0001:0016e3f0       ??$extract_argument_from_va_list@G_J@?$standard_base@DV?$stream_output_adapter@D@__crt_stdio_output@@@__crt_stdio_output@@IEAA_NAEA_J@Z 000000018016f3f0 f i libucrt:output.obj
 0001:0016e404       ??$extract_argument_from_va_list@G_J@?$standard_base@DV?$string_output_adapter@D@__crt_stdio_output@@@__crt_stdio_output@@IEAA_NAEA_J@Z 000000018016f404 f i libucrt:output.obj
 0001:0016e418       ??$extract_argument_from_va_list@G_J@?$standard_base@_WV?$stream_output_adapter@_W@__crt_stdio_output@@@__crt_stdio_output@@IEAA_NAEA_J@Z 000000018016f418 f i libucrt:output.obj
 0001:0016e42c       ??$extract_argument_from_va_list@G_J@?$standard_base@_WV?$string_output_adapter@_W@__crt_stdio_output@@@__crt_stdio_output@@IEAA_NAEA_J@Z 000000018016f42c f i libucrt:output.obj
 0001:0016e440       ??$extract_argument_from_va_list@H_J@?$positional_parameter_base@DV?$stream_output_adapter@D@__crt_stdio_output@@@__crt_stdio_output@@IEAA_NAEA_J@Z 000000018016f440 f i libucrt:output.obj
 0001:0016e548       ??$extract_argument_from_va_list@H_J@?$positional_parameter_base@DV?$string_output_adapter@D@__crt_stdio_output@@@__crt_stdio_output@@IEAA_NAEA_J@Z 000000018016f548 f i libucrt:output.obj
 0001:0016e650       ??$extract_argument_from_va_list@H_J@?$positional_parameter_base@_WV?$stream_output_adapter@_W@__crt_stdio_output@@@__crt_stdio_output@@IEAA_NAEA_J@Z 000000018016f650 f i libucrt:output.obj
 0001:0016e758       ??$extract_argument_from_va_list@H_J@?$positional_parameter_base@_WV?$string_output_adapter@_W@__crt_stdio_output@@@__crt_stdio_output@@IEAA_NAEA_J@Z 000000018016f758 f i libucrt:output.obj
 0001:0016e860       ??$extract_argument_from_va_list@H_J@?$standard_base@DV?$stream_output_adapter@D@__crt_stdio_output@@@__crt_stdio_output@@IEAA_NAEA_J@Z 000000018016f860 f i libucrt:output.obj
 0001:0016e874       ??$extract_argument_from_va_list@H_J@?$standard_base@DV?$string_output_adapter@D@__crt_stdio_output@@@__crt_stdio_output@@IEAA_NAEA_J@Z 000000018016f874 f i libucrt:output.obj
 0001:0016e888       ??$extract_argument_from_va_list@H_J@?$standard_base@_WV?$stream_output_adapter@_W@__crt_stdio_output@@@__crt_stdio_output@@IEAA_NAEA_J@Z 000000018016f888 f i libucrt:output.obj
 0001:0016e89c       ??$extract_argument_from_va_list@H_J@?$standard_base@_WV?$string_output_adapter@_W@__crt_stdio_output@@@__crt_stdio_output@@IEAA_NAEA_J@Z 000000018016f89c f i libucrt:output.obj
 0001:0016e8b0       ??$extract_argument_from_va_list@I_J@?$positional_parameter_base@DV?$stream_output_adapter@D@__crt_stdio_output@@@__crt_stdio_output@@IEAA_NAEA_J@Z 000000018016f8b0 f i libucrt:output.obj
 0001:0016e9b4       ??$extract_argument_from_va_list@I_J@?$positional_parameter_base@DV?$string_output_adapter@D@__crt_stdio_output@@@__crt_stdio_output@@IEAA_NAEA_J@Z 000000018016f9b4 f i libucrt:output.obj
 0001:0016eab8       ??$extract_argument_from_va_list@I_J@?$positional_parameter_base@_WV?$stream_output_adapter@_W@__crt_stdio_output@@@__crt_stdio_output@@IEAA_NAEA_J@Z 000000018016fab8 f i libucrt:output.obj
 0001:0016ebc0       ??$extract_argument_from_va_list@I_J@?$positional_parameter_base@_WV?$string_output_adapter@_W@__crt_stdio_output@@@__crt_stdio_output@@IEAA_NAEA_J@Z 000000018016fbc0 f i libucrt:output.obj
 0001:0016ecc8       ??$extract_argument_from_va_list@I_J@?$standard_base@DV?$stream_output_adapter@D@__crt_stdio_output@@@__crt_stdio_output@@IEAA_NAEA_J@Z 000000018016fcc8 f i libucrt:output.obj
 0001:0016ecdc       ??$extract_argument_from_va_list@I_J@?$standard_base@DV?$string_output_adapter@D@__crt_stdio_output@@@__crt_stdio_output@@IEAA_NAEA_J@Z 000000018016fcdc f i libucrt:output.obj
 0001:0016ecf0       ??$extract_argument_from_va_list@I_J@?$standard_base@_WV?$stream_output_adapter@_W@__crt_stdio_output@@@__crt_stdio_output@@IEAA_NAEA_J@Z 000000018016fcf0 f i libucrt:output.obj
 0001:0016ed04       ??$extract_argument_from_va_list@I_J@?$standard_base@_WV?$string_output_adapter@_W@__crt_stdio_output@@@__crt_stdio_output@@IEAA_NAEA_J@Z 000000018016fd04 f i libucrt:output.obj
 0001:0016ed18       ??$extract_argument_from_va_list@PEADPEAD@?$positional_parameter_base@DV?$stream_output_adapter@D@__crt_stdio_output@@@__crt_stdio_output@@IEAA_NAEAPEAD@Z 000000018016fd18 f i libucrt:output.obj
 0001:0016ee20       ??$extract_argument_from_va_list@PEADPEAD@?$positional_parameter_base@DV?$string_output_adapter@D@__crt_stdio_output@@@__crt_stdio_output@@IEAA_NAEAPEAD@Z 000000018016fe20 f i libucrt:output.obj
 0001:0016ef28       ??$extract_argument_from_va_list@PEADPEAD@?$positional_parameter_base@_WV?$stream_output_adapter@_W@__crt_stdio_output@@@__crt_stdio_output@@IEAA_NAEAPEAD@Z 000000018016ff28 f i libucrt:output.obj
 0001:0016f030       ??$extract_argument_from_va_list@PEADPEAD@?$positional_parameter_base@_WV?$string_output_adapter@_W@__crt_stdio_output@@@__crt_stdio_output@@IEAA_NAEAPEAD@Z 0000000180170030 f i libucrt:output.obj
 0001:0016f138       ??$extract_argument_from_va_list@PEADPEAD@?$standard_base@DV?$stream_output_adapter@D@__crt_stdio_output@@@__crt_stdio_output@@IEAA_NAEAPEAD@Z 0000000180170138 f i libucrt:output.obj
 0001:0016f14c       ??$extract_argument_from_va_list@PEADPEAD@?$standard_base@DV?$string_output_adapter@D@__crt_stdio_output@@@__crt_stdio_output@@IEAA_NAEAPEAD@Z 000000018017014c f i libucrt:output.obj
 0001:0016f160       ??$extract_argument_from_va_list@PEADPEAD@?$standard_base@_WV?$stream_output_adapter@_W@__crt_stdio_output@@@__crt_stdio_output@@IEAA_NAEAPEAD@Z 0000000180170160 f i libucrt:output.obj
 0001:0016f174       ??$extract_argument_from_va_list@PEADPEAD@?$standard_base@_WV?$string_output_adapter@_W@__crt_stdio_output@@@__crt_stdio_output@@IEAA_NAEAPEAD@Z 0000000180170174 f i libucrt:output.obj
 0001:0016f188       ??$extract_argument_from_va_list@PEAUansi_string@?1??type_case_Z@?$output_processor@DV?$stream_output_adapter@D@__crt_stdio_output@@V?$format_validation_base@DV?$stream_output_adapter@D@__crt_stdio_output@@@2@@__crt_stdio_output@@AEAA_NXZ@PEAU1?1??234@AEAA_NXZ@@?$standard_base@DV?$stream_output_adapter@D@__crt_stdio_output@@@__crt_stdio_output@@IEAA_NAEAPEAUansi_string@?1??type_case_Z@?$output_processor@DV?$stream_output_adapter@D@__crt_stdio_output@@V?$format_validation_base@DV?$stream_output_adapter@D@__crt_stdio_output@@@2@@1@AEAA_NXZ@@Z 0000000180170188 f i libucrt:output.obj
 0001:0016f19c       ??$extract_argument_from_va_list@PEAUansi_string@?1??type_case_Z@?$output_processor@DV?$stream_output_adapter@D@__crt_stdio_output@@V?$positional_parameter_base@DV?$stream_output_adapter@D@__crt_stdio_output@@@2@@__crt_stdio_output@@AEAA_NXZ@PEAU1?1??234@AEAA_NXZ@@?$positional_parameter_base@DV?$stream_output_adapter@D@__crt_stdio_output@@@__crt_stdio_output@@IEAA_NAEAPEAUansi_string@?1??type_case_Z@?$output_processor@DV?$stream_output_adapter@D@__crt_stdio_output@@V?$positional_parameter_base@DV?$stream_output_adapter@D@__crt_stdio_output@@@2@@1@AEAA_NXZ@@Z 000000018017019c f i libucrt:output.obj
 0001:0016f2a4       ??$extract_argument_from_va_list@PEAUansi_string@?1??type_case_Z@?$output_processor@DV?$stream_output_adapter@D@__crt_stdio_output@@V?$positional_parameter_base@DV?$stream_output_adapter@D@__crt_stdio_output@@@2@@__crt_stdio_output@@AEAA_NXZ@PEAU1?1??234@AEAA_NXZ@@?$standard_base@DV?$stream_output_adapter@D@__crt_stdio_output@@@__crt_stdio_output@@IEAA_NAEAPEAUansi_string@?1??type_case_Z@?$output_processor@DV?$stream_output_adapter@D@__crt_stdio_output@@V?$positional_parameter_base@DV?$stream_output_adapter@D@__crt_stdio_output@@@2@@1@AEAA_NXZ@@Z 00000001801702a4 f i libucrt:output.obj
 0001:0016f2b8       ??$extract_argument_from_va_list@PEAUansi_string@?1??type_case_Z@?$output_processor@DV?$stream_output_adapter@D@__crt_stdio_output@@V?$standard_base@DV?$stream_output_adapter@D@__crt_stdio_output@@@2@@__crt_stdio_output@@AEAA_NXZ@PEAU1?1??234@AEAA_NXZ@@?$standard_base@DV?$stream_output_adapter@D@__crt_stdio_output@@@__crt_stdio_output@@IEAA_NAEAPEAUansi_string@?1??type_case_Z@?$output_processor@DV?$stream_output_adapter@D@__crt_stdio_output@@V?$standard_base@DV?$stream_output_adapter@D@__crt_stdio_output@@@2@@1@AEAA_NXZ@@Z 00000001801702b8 f i libucrt:output.obj
 0001:0016f2cc       ??$extract_argument_from_va_list@PEAUansi_string@?1??type_case_Z@?$output_processor@DV?$string_output_adapter@D@__crt_stdio_output@@V?$format_validation_base@DV?$string_output_adapter@D@__crt_stdio_output@@@2@@__crt_stdio_output@@AEAA_NXZ@PEAU1?1??234@AEAA_NXZ@@?$standard_base@DV?$string_output_adapter@D@__crt_stdio_output@@@__crt_stdio_output@@IEAA_NAEAPEAUansi_string@?1??type_case_Z@?$output_processor@DV?$string_output_adapter@D@__crt_stdio_output@@V?$format_validation_base@DV?$string_output_adapter@D@__crt_stdio_output@@@2@@1@AEAA_NXZ@@Z 00000001801702cc f i libucrt:output.obj
 0001:0016f2e0       ??$extract_argument_from_va_list@PEAUansi_string@?1??type_case_Z@?$output_processor@DV?$string_output_adapter@D@__crt_stdio_output@@V?$positional_parameter_base@DV?$string_output_adapter@D@__crt_stdio_output@@@2@@__crt_stdio_output@@AEAA_NXZ@PEAU1?1??234@AEAA_NXZ@@?$positional_parameter_base@DV?$string_output_adapter@D@__crt_stdio_output@@@__crt_stdio_output@@IEAA_NAEAPEAUansi_string@?1??type_case_Z@?$output_processor@DV?$string_output_adapter@D@__crt_stdio_output@@V?$positional_parameter_base@DV?$string_output_adapter@D@__crt_stdio_output@@@2@@1@AEAA_NXZ@@Z 00000001801702e0 f i libucrt:output.obj
 0001:0016f3e8       ??$extract_argument_from_va_list@PEAUansi_string@?1??type_case_Z@?$output_processor@DV?$string_output_adapter@D@__crt_stdio_output@@V?$positional_parameter_base@DV?$string_output_adapter@D@__crt_stdio_output@@@2@@__crt_stdio_output@@AEAA_NXZ@PEAU1?1??234@AEAA_NXZ@@?$standard_base@DV?$string_output_adapter@D@__crt_stdio_output@@@__crt_stdio_output@@IEAA_NAEAPEAUansi_string@?1??type_case_Z@?$output_processor@DV?$string_output_adapter@D@__crt_stdio_output@@V?$positional_parameter_base@DV?$string_output_adapter@D@__crt_stdio_output@@@2@@1@AEAA_NXZ@@Z 00000001801703e8 f i libucrt:output.obj
 0001:0016f3fc       ??$extract_argument_from_va_list@PEAUansi_string@?1??type_case_Z@?$output_processor@DV?$string_output_adapter@D@__crt_stdio_output@@V?$standard_base@DV?$string_output_adapter@D@__crt_stdio_output@@@2@@__crt_stdio_output@@AEAA_NXZ@PEAU1?1??234@AEAA_NXZ@@?$standard_base@DV?$string_output_adapter@D@__crt_stdio_output@@@__crt_stdio_output@@IEAA_NAEAPEAUansi_string@?1??type_case_Z@?$output_processor@DV?$string_output_adapter@D@__crt_stdio_output@@V?$standard_base@DV?$string_output_adapter@D@__crt_stdio_output@@@2@@1@AEAA_NXZ@@Z 00000001801703fc f i libucrt:output.obj
 0001:0016f410       ??$extract_argument_from_va_list@PEAUansi_string@?1??type_case_Z@?$output_processor@_WV?$stream_output_adapter@_W@__crt_stdio_output@@V?$format_validation_base@_WV?$stream_output_adapter@_W@__crt_stdio_output@@@2@@__crt_stdio_output@@AEAA_NXZ@PEAU1?1??234@AEAA_NXZ@@?$standard_base@_WV?$stream_output_adapter@_W@__crt_stdio_output@@@__crt_stdio_output@@IEAA_NAEAPEAUansi_string@?1??type_case_Z@?$output_processor@_WV?$stream_output_adapter@_W@__crt_stdio_output@@V?$format_validation_base@_WV?$stream_output_adapter@_W@__crt_stdio_output@@@2@@1@AEAA_NXZ@@Z 0000000180170410 f i libucrt:output.obj
 0001:0016f424       ??$extract_argument_from_va_list@PEAUansi_string@?1??type_case_Z@?$output_processor@_WV?$stream_output_adapter@_W@__crt_stdio_output@@V?$positional_parameter_base@_WV?$stream_output_adapter@_W@__crt_stdio_output@@@2@@__crt_stdio_output@@AEAA_NXZ@PEAU1?1??234@AEAA_NXZ@@?$positional_parameter_base@_WV?$stream_output_adapter@_W@__crt_stdio_output@@@__crt_stdio_output@@IEAA_NAEAPEAUansi_string@?1??type_case_Z@?$output_processor@_WV?$stream_output_adapter@_W@__crt_stdio_output@@V?$positional_parameter_base@_WV?$stream_output_adapter@_W@__crt_stdio_output@@@2@@1@AEAA_NXZ@@Z 0000000180170424 f i libucrt:output.obj
 0001:0016f52c       ??$extract_argument_from_va_list@PEAUansi_string@?1??type_case_Z@?$output_processor@_WV?$stream_output_adapter@_W@__crt_stdio_output@@V?$positional_parameter_base@_WV?$stream_output_adapter@_W@__crt_stdio_output@@@2@@__crt_stdio_output@@AEAA_NXZ@PEAU1?1??234@AEAA_NXZ@@?$standard_base@_WV?$stream_output_adapter@_W@__crt_stdio_output@@@__crt_stdio_output@@IEAA_NAEAPEAUansi_string@?1??type_case_Z@?$output_processor@_WV?$stream_output_adapter@_W@__crt_stdio_output@@V?$positional_parameter_base@_WV?$stream_output_adapter@_W@__crt_stdio_output@@@2@@1@AEAA_NXZ@@Z 000000018017052c f i libucrt:output.obj
 0001:0016f540       ??$extract_argument_from_va_list@PEAUansi_string@?1??type_case_Z@?$output_processor@_WV?$stream_output_adapter@_W@__crt_stdio_output@@V?$standard_base@_WV?$stream_output_adapter@_W@__crt_stdio_output@@@2@@__crt_stdio_output@@AEAA_NXZ@PEAU1?1??234@AEAA_NXZ@@?$standard_base@_WV?$stream_output_adapter@_W@__crt_stdio_output@@@__crt_stdio_output@@IEAA_NAEAPEAUansi_string@?1??type_case_Z@?$output_processor@_WV?$stream_output_adapter@_W@__crt_stdio_output@@V?$standard_base@_WV?$stream_output_adapter@_W@__crt_stdio_output@@@2@@1@AEAA_NXZ@@Z 0000000180170540 f i libucrt:output.obj
 0001:0016f554       ??$extract_argument_from_va_list@PEAUansi_string@?1??type_case_Z@?$output_processor@_WV?$string_output_adapter@_W@__crt_stdio_output@@V?$format_validation_base@_WV?$string_output_adapter@_W@__crt_stdio_output@@@2@@__crt_stdio_output@@AEAA_NXZ@PEAU1?1??234@AEAA_NXZ@@?$standard_base@_WV?$string_output_adapter@_W@__crt_stdio_output@@@__crt_stdio_output@@IEAA_NAEAPEAUansi_string@?1??type_case_Z@?$output_processor@_WV?$string_output_adapter@_W@__crt_stdio_output@@V?$format_validation_base@_WV?$string_output_adapter@_W@__crt_stdio_output@@@2@@1@AEAA_NXZ@@Z 0000000180170554 f i libucrt:output.obj
 0001:0016f568       ??$extract_argument_from_va_list@PEAUansi_string@?1??type_case_Z@?$output_processor@_WV?$string_output_adapter@_W@__crt_stdio_output@@V?$positional_parameter_base@_WV?$string_output_adapter@_W@__crt_stdio_output@@@2@@__crt_stdio_output@@AEAA_NXZ@PEAU1?1??234@AEAA_NXZ@@?$positional_parameter_base@_WV?$string_output_adapter@_W@__crt_stdio_output@@@__crt_stdio_output@@IEAA_NAEAPEAUansi_string@?1??type_case_Z@?$output_processor@_WV?$string_output_adapter@_W@__crt_stdio_output@@V?$positional_parameter_base@_WV?$string_output_adapter@_W@__crt_stdio_output@@@2@@1@AEAA_NXZ@@Z 0000000180170568 f i libucrt:output.obj
 0001:0016f670       ??$extract_argument_from_va_list@PEAUansi_string@?1??type_case_Z@?$output_processor@_WV?$string_output_adapter@_W@__crt_stdio_output@@V?$positional_parameter_base@_WV?$string_output_adapter@_W@__crt_stdio_output@@@2@@__crt_stdio_output@@AEAA_NXZ@PEAU1?1??234@AEAA_NXZ@@?$standard_base@_WV?$string_output_adapter@_W@__crt_stdio_output@@@__crt_stdio_output@@IEAA_NAEAPEAUansi_string@?1??type_case_Z@?$output_processor@_WV?$string_output_adapter@_W@__crt_stdio_output@@V?$positional_parameter_base@_WV?$string_output_adapter@_W@__crt_stdio_output@@@2@@1@AEAA_NXZ@@Z 0000000180170670 f i libucrt:output.obj
 0001:0016f684       ??$extract_argument_from_va_list@PEAUansi_string@?1??type_case_Z@?$output_processor@_WV?$string_output_adapter@_W@__crt_stdio_output@@V?$standard_base@_WV?$string_output_adapter@_W@__crt_stdio_output@@@2@@__crt_stdio_output@@AEAA_NXZ@PEAU1?1??234@AEAA_NXZ@@?$standard_base@_WV?$string_output_adapter@_W@__crt_stdio_output@@@__crt_stdio_output@@IEAA_NAEAPEAUansi_string@?1??type_case_Z@?$output_processor@_WV?$string_output_adapter@_W@__crt_stdio_output@@V?$standard_base@_WV?$string_output_adapter@_W@__crt_stdio_output@@@2@@1@AEAA_NXZ@@Z 0000000180170684 f i libucrt:output.obj
 0001:0016f698       ??$extract_argument_from_va_list@PEAXPEAX@?$positional_parameter_base@DV?$stream_output_adapter@D@__crt_stdio_output@@@__crt_stdio_output@@IEAA_NAEAPEAX@Z 0000000180170698 f i libucrt:output.obj
 0001:0016f7a0       ??$extract_argument_from_va_list@PEAXPEAX@?$positional_parameter_base@DV?$string_output_adapter@D@__crt_stdio_output@@@__crt_stdio_output@@IEAA_NAEAPEAX@Z 00000001801707a0 f i libucrt:output.obj
 0001:0016f8a8       ??$extract_argument_from_va_list@PEAXPEAX@?$positional_parameter_base@_WV?$stream_output_adapter@_W@__crt_stdio_output@@@__crt_stdio_output@@IEAA_NAEAPEAX@Z 00000001801708a8 f i libucrt:output.obj
 0001:0016f9b0       ??$extract_argument_from_va_list@PEAXPEAX@?$positional_parameter_base@_WV?$string_output_adapter@_W@__crt_stdio_output@@@__crt_stdio_output@@IEAA_NAEAPEAX@Z 00000001801709b0 f i libucrt:output.obj
 0001:0016fab8       ??$extract_argument_from_va_list@PEAXPEAX@?$standard_base@DV?$stream_output_adapter@D@__crt_stdio_output@@@__crt_stdio_output@@IEAA_NAEAPEAX@Z 0000000180170ab8 f i libucrt:output.obj
 0001:0016facc       ??$extract_argument_from_va_list@PEAXPEAX@?$standard_base@DV?$string_output_adapter@D@__crt_stdio_output@@@__crt_stdio_output@@IEAA_NAEAPEAX@Z 0000000180170acc f i libucrt:output.obj
 0001:0016fae0       ??$extract_argument_from_va_list@PEAXPEAX@?$standard_base@_WV?$stream_output_adapter@_W@__crt_stdio_output@@@__crt_stdio_output@@IEAA_NAEAPEAX@Z 0000000180170ae0 f i libucrt:output.obj
 0001:0016faf4       ??$extract_argument_from_va_list@PEAXPEAX@?$standard_base@_WV?$string_output_adapter@_W@__crt_stdio_output@@@__crt_stdio_output@@IEAA_NAEAPEAX@Z 0000000180170af4 f i libucrt:output.obj
 0001:0016fb08       ??$extract_argument_from_va_list@U_CRT_DOUBLE@@U1@@?$positional_parameter_base@DV?$stream_output_adapter@D@__crt_stdio_output@@@__crt_stdio_output@@IEAA_NAEAU_CRT_DOUBLE@@@Z 0000000180170b08 f i libucrt:output.obj
 0001:0016fc10       ??$extract_argument_from_va_list@U_CRT_DOUBLE@@U1@@?$positional_parameter_base@DV?$string_output_adapter@D@__crt_stdio_output@@@__crt_stdio_output@@IEAA_NAEAU_CRT_DOUBLE@@@Z 0000000180170c10 f i libucrt:output.obj
 0001:0016fd18       ??$extract_argument_from_va_list@U_CRT_DOUBLE@@U1@@?$positional_parameter_base@_WV?$stream_output_adapter@_W@__crt_stdio_output@@@__crt_stdio_output@@IEAA_NAEAU_CRT_DOUBLE@@@Z 0000000180170d18 f i libucrt:output.obj
 0001:0016fe20       ??$extract_argument_from_va_list@U_CRT_DOUBLE@@U1@@?$positional_parameter_base@_WV?$string_output_adapter@_W@__crt_stdio_output@@@__crt_stdio_output@@IEAA_NAEAU_CRT_DOUBLE@@@Z 0000000180170e20 f i libucrt:output.obj
 0001:0016ff28       ??$extract_argument_from_va_list@U_CRT_DOUBLE@@U1@@?$standard_base@DV?$stream_output_adapter@D@__crt_stdio_output@@@__crt_stdio_output@@IEAA_NAEAU_CRT_DOUBLE@@@Z 0000000180170f28 f i libucrt:output.obj
 0001:0016ff40       ??$extract_argument_from_va_list@U_CRT_DOUBLE@@U1@@?$standard_base@DV?$string_output_adapter@D@__crt_stdio_output@@@__crt_stdio_output@@IEAA_NAEAU_CRT_DOUBLE@@@Z 0000000180170f40 f i libucrt:output.obj
 0001:0016ff58       ??$extract_argument_from_va_list@U_CRT_DOUBLE@@U1@@?$standard_base@_WV?$stream_output_adapter@_W@__crt_stdio_output@@@__crt_stdio_output@@IEAA_NAEAU_CRT_DOUBLE@@@Z 0000000180170f58 f i libucrt:output.obj
 0001:0016ff70       ??$extract_argument_from_va_list@U_CRT_DOUBLE@@U1@@?$standard_base@_WV?$string_output_adapter@_W@__crt_stdio_output@@@__crt_stdio_output@@IEAA_NAEAU_CRT_DOUBLE@@@Z 0000000180170f70 f i libucrt:output.obj
 0001:0016ff88       ??$extract_argument_from_va_list@_J_J@?$positional_parameter_base@DV?$stream_output_adapter@D@__crt_stdio_output@@@__crt_stdio_output@@IEAA_NAEA_J@Z 0000000180170f88 f i libucrt:output.obj
 0001:00170090       ??$extract_argument_from_va_list@_J_J@?$positional_parameter_base@DV?$string_output_adapter@D@__crt_stdio_output@@@__crt_stdio_output@@IEAA_NAEA_J@Z 0000000180171090 f i libucrt:output.obj
 0001:00170198       ??$extract_argument_from_va_list@_J_J@?$positional_parameter_base@_WV?$stream_output_adapter@_W@__crt_stdio_output@@@__crt_stdio_output@@IEAA_NAEA_J@Z 0000000180171198 f i libucrt:output.obj
 0001:001702a0       ??$extract_argument_from_va_list@_J_J@?$positional_parameter_base@_WV?$string_output_adapter@_W@__crt_stdio_output@@@__crt_stdio_output@@IEAA_NAEA_J@Z 00000001801712a0 f i libucrt:output.obj
 0001:001703a8       ??$extract_argument_from_va_list@_J_J@?$standard_base@DV?$stream_output_adapter@D@__crt_stdio_output@@@__crt_stdio_output@@IEAA_NAEA_J@Z 00000001801713a8 f i libucrt:output.obj
 0001:001703bc       ??$extract_argument_from_va_list@_J_J@?$standard_base@DV?$string_output_adapter@D@__crt_stdio_output@@@__crt_stdio_output@@IEAA_NAEA_J@Z 00000001801713bc f i libucrt:output.obj
 0001:001703d0       ??$extract_argument_from_va_list@_J_J@?$standard_base@_WV?$stream_output_adapter@_W@__crt_stdio_output@@@__crt_stdio_output@@IEAA_NAEA_J@Z 00000001801713d0 f i libucrt:output.obj
 0001:001703e4       ??$extract_argument_from_va_list@_J_J@?$standard_base@_WV?$string_output_adapter@_W@__crt_stdio_output@@@__crt_stdio_output@@IEAA_NAEA_J@Z 00000001801713e4 f i libucrt:output.obj
 0001:001703f8       ??$extract_argument_from_va_list@_K_J@?$positional_parameter_base@DV?$stream_output_adapter@D@__crt_stdio_output@@@__crt_stdio_output@@IEAA_NAEA_J@Z 00000001801713f8 f i libucrt:output.obj
 0001:00170500       ??$extract_argument_from_va_list@_K_J@?$positional_parameter_base@DV?$string_output_adapter@D@__crt_stdio_output@@@__crt_stdio_output@@IEAA_NAEA_J@Z 0000000180171500 f i libucrt:output.obj
 0001:00170608       ??$extract_argument_from_va_list@_K_J@?$positional_parameter_base@_WV?$stream_output_adapter@_W@__crt_stdio_output@@@__crt_stdio_output@@IEAA_NAEA_J@Z 0000000180171608 f i libucrt:output.obj
 0001:00170710       ??$extract_argument_from_va_list@_K_J@?$positional_parameter_base@_WV?$string_output_adapter@_W@__crt_stdio_output@@@__crt_stdio_output@@IEAA_NAEA_J@Z 0000000180171710 f i libucrt:output.obj
 0001:00170818       ??$extract_argument_from_va_list@_K_J@?$standard_base@DV?$stream_output_adapter@D@__crt_stdio_output@@@__crt_stdio_output@@IEAA_NAEA_J@Z 0000000180171818 f i libucrt:output.obj
 0001:0017082c       ??$extract_argument_from_va_list@_K_J@?$standard_base@DV?$string_output_adapter@D@__crt_stdio_output@@@__crt_stdio_output@@IEAA_NAEA_J@Z 000000018017182c f i libucrt:output.obj
 0001:00170840       ??$extract_argument_from_va_list@_K_J@?$standard_base@_WV?$stream_output_adapter@_W@__crt_stdio_output@@@__crt_stdio_output@@IEAA_NAEA_J@Z 0000000180171840 f i libucrt:output.obj
 0001:00170854       ??$extract_argument_from_va_list@_K_J@?$standard_base@_WV?$string_output_adapter@_W@__crt_stdio_output@@@__crt_stdio_output@@IEAA_NAEA_J@Z 0000000180171854 f i libucrt:output.obj
 0001:00170868       ??$extract_argument_from_va_list@_W_W@?$positional_parameter_base@DV?$stream_output_adapter@D@__crt_stdio_output@@@__crt_stdio_output@@IEAA_NAEA_W@Z 0000000180171868 f i libucrt:output.obj
 0001:00170970       ??$extract_argument_from_va_list@_W_W@?$positional_parameter_base@DV?$string_output_adapter@D@__crt_stdio_output@@@__crt_stdio_output@@IEAA_NAEA_W@Z 0000000180171970 f i libucrt:output.obj
 0001:00170a78       ??$extract_argument_from_va_list@_W_W@?$positional_parameter_base@_WV?$stream_output_adapter@_W@__crt_stdio_output@@@__crt_stdio_output@@IEAA_NAEA_W@Z 0000000180171a78 f i libucrt:output.obj
 0001:00170b84       ??$extract_argument_from_va_list@_W_W@?$positional_parameter_base@_WV?$string_output_adapter@_W@__crt_stdio_output@@@__crt_stdio_output@@IEAA_NAEA_W@Z 0000000180171b84 f i libucrt:output.obj
 0001:00170c90       ??$extract_argument_from_va_list@_W_W@?$standard_base@DV?$stream_output_adapter@D@__crt_stdio_output@@@__crt_stdio_output@@IEAA_NAEA_W@Z 0000000180171c90 f i libucrt:output.obj
 0001:00170ca4       ??$extract_argument_from_va_list@_W_W@?$standard_base@DV?$string_output_adapter@D@__crt_stdio_output@@@__crt_stdio_output@@IEAA_NAEA_W@Z 0000000180171ca4 f i libucrt:output.obj
 0001:00170cb8       ??$extract_argument_from_va_list@_W_W@?$standard_base@_WV?$stream_output_adapter@_W@__crt_stdio_output@@@__crt_stdio_output@@IEAA_NAEA_W@Z 0000000180171cb8 f i libucrt:output.obj
 0001:00170ccc       ??$extract_argument_from_va_list@_W_W@?$standard_base@_WV?$string_output_adapter@_W@__crt_stdio_output@@@__crt_stdio_output@@IEAA_NAEA_W@Z 0000000180171ccc f i libucrt:output.obj
 0001:00170ce0       ??$get_parameter_type@D@?$positional_parameter_base@DV?$stream_output_adapter@D@__crt_stdio_output@@@__crt_stdio_output@@CA?AW4parameter_type@01@PEAD@Z 0000000180171ce0 f i libucrt:output.obj
 0001:00170ce8       ??$get_parameter_type@D@?$positional_parameter_base@DV?$string_output_adapter@D@__crt_stdio_output@@@__crt_stdio_output@@CA?AW4parameter_type@01@PEAD@Z 0000000180171ce8 f i libucrt:output.obj
 0001:00170cf0       ??$get_parameter_type@D@?$positional_parameter_base@_WV?$stream_output_adapter@_W@__crt_stdio_output@@@__crt_stdio_output@@CA?AW4parameter_type@01@PEAD@Z 0000000180171cf0 f i libucrt:output.obj
 0001:00170cf8       ??$get_parameter_type@D@?$positional_parameter_base@_WV?$string_output_adapter@_W@__crt_stdio_output@@@__crt_stdio_output@@CA?AW4parameter_type@01@PEAD@Z 0000000180171cf8 f i libucrt:output.obj
 0001:00170d00       ??$get_parameter_type@Uansi_string@?1??type_case_Z@?$output_processor@DV?$stream_output_adapter@D@__crt_stdio_output@@V?$positional_parameter_base@DV?$stream_output_adapter@D@__crt_stdio_output@@@2@@__crt_stdio_output@@AEAA_NXZ@@?$positional_parameter_base@DV?$stream_output_adapter@D@__crt_stdio_output@@@__crt_stdio_output@@CA?AW4parameter_type@01@PEAUansi_string@?1??type_case_Z@?$output_processor@DV?$stream_output_adapter@D@__crt_stdio_output@@V?$positional_parameter_base@DV?$stream_output_adapter@D@__crt_stdio_output@@@2@@1@AEAA_NXZ@@Z 0000000180171d00 f i libucrt:output.obj
 0001:00170d08       ??$get_parameter_type@Uansi_string@?1??type_case_Z@?$output_processor@DV?$string_output_adapter@D@__crt_stdio_output@@V?$positional_parameter_base@DV?$string_output_adapter@D@__crt_stdio_output@@@2@@__crt_stdio_output@@AEAA_NXZ@@?$positional_parameter_base@DV?$string_output_adapter@D@__crt_stdio_output@@@__crt_stdio_output@@CA?AW4parameter_type@01@PEAUansi_string@?1??type_case_Z@?$output_processor@DV?$string_output_adapter@D@__crt_stdio_output@@V?$positional_parameter_base@DV?$string_output_adapter@D@__crt_stdio_output@@@2@@1@AEAA_NXZ@@Z 0000000180171d08 f i libucrt:output.obj
 0001:00170d10       ??$get_parameter_type@Uansi_string@?1??type_case_Z@?$output_processor@_WV?$stream_output_adapter@_W@__crt_stdio_output@@V?$positional_parameter_base@_WV?$stream_output_adapter@_W@__crt_stdio_output@@@2@@__crt_stdio_output@@AEAA_NXZ@@?$positional_parameter_base@_WV?$stream_output_adapter@_W@__crt_stdio_output@@@__crt_stdio_output@@CA?AW4parameter_type@01@PEAUansi_string@?1??type_case_Z@?$output_processor@_WV?$stream_output_adapter@_W@__crt_stdio_output@@V?$positional_parameter_base@_WV?$stream_output_adapter@_W@__crt_stdio_output@@@2@@1@AEAA_NXZ@@Z 0000000180171d10 f i libucrt:output.obj
 0001:00170d18       ??$get_parameter_type@Uansi_string@?1??type_case_Z@?$output_processor@_WV?$string_output_adapter@_W@__crt_stdio_output@@V?$positional_parameter_base@_WV?$string_output_adapter@_W@__crt_stdio_output@@@2@@__crt_stdio_output@@AEAA_NXZ@@?$positional_parameter_base@_WV?$string_output_adapter@_W@__crt_stdio_output@@@__crt_stdio_output@@CA?AW4parameter_type@01@PEAUansi_string@?1??type_case_Z@?$output_processor@_WV?$string_output_adapter@_W@__crt_stdio_output@@V?$positional_parameter_base@_WV?$string_output_adapter@_W@__crt_stdio_output@@@2@@1@AEAA_NXZ@@Z 0000000180171d18 f i libucrt:output.obj
 0001:00170d20       ??$get_parameter_type@X@?$positional_parameter_base@DV?$stream_output_adapter@D@__crt_stdio_output@@@__crt_stdio_output@@CA?AW4parameter_type@01@PEAX@Z 0000000180171d20 f i libucrt:output.obj
 0001:00170d28       ??$get_parameter_type@X@?$positional_parameter_base@DV?$string_output_adapter@D@__crt_stdio_output@@@__crt_stdio_output@@CA?AW4parameter_type@01@PEAX@Z 0000000180171d28 f i libucrt:output.obj
 0001:00170d30       ??$get_parameter_type@X@?$positional_parameter_base@_WV?$stream_output_adapter@_W@__crt_stdio_output@@@__crt_stdio_output@@CA?AW4parameter_type@01@PEAX@Z 0000000180171d30 f i libucrt:output.obj
 0001:00170d38       ??$get_parameter_type@X@?$positional_parameter_base@_WV?$string_output_adapter@_W@__crt_stdio_output@@@__crt_stdio_output@@CA?AW4parameter_type@01@PEAX@Z 0000000180171d38 f i libucrt:output.obj
 0001:00170d40       ??$is_character_specifier@D@?$positional_parameter_base@DV?$stream_output_adapter@D@__crt_stdio_output@@@__crt_stdio_output@@CA_ND@Z 0000000180171d40 f i libucrt:output.obj
 0001:00170d4c       ??$is_character_specifier@D@?$positional_parameter_base@DV?$string_output_adapter@D@__crt_stdio_output@@@__crt_stdio_output@@CA_ND@Z 0000000180171d4c f i libucrt:output.obj
 0001:00170d58       ??$is_character_specifier@_W@?$positional_parameter_base@_WV?$stream_output_adapter@_W@__crt_stdio_output@@@__crt_stdio_output@@CA_N_W@Z 0000000180171d58 f i libucrt:output.obj
 0001:00170d68       ??$is_character_specifier@_W@?$positional_parameter_base@_WV?$string_output_adapter@_W@__crt_stdio_output@@@__crt_stdio_output@@CA_N_W@Z 0000000180171d68 f i libucrt:output.obj
 0001:00170d78       ??$is_integral_specifier@D@?$positional_parameter_base@DV?$stream_output_adapter@D@__crt_stdio_output@@@__crt_stdio_output@@CA_ND@Z 0000000180171d78 f i libucrt:output.obj
 0001:00170d9c       ??$is_integral_specifier@D@?$positional_parameter_base@DV?$string_output_adapter@D@__crt_stdio_output@@@__crt_stdio_output@@CA_ND@Z 0000000180171d9c f i libucrt:output.obj
 0001:00170dc0       ??$is_integral_specifier@_W@?$positional_parameter_base@_WV?$stream_output_adapter@_W@__crt_stdio_output@@@__crt_stdio_output@@CA_N_W@Z 0000000180171dc0 f i libucrt:output.obj
 0001:00170de8       ??$is_integral_specifier@_W@?$positional_parameter_base@_WV?$string_output_adapter@_W@__crt_stdio_output@@@__crt_stdio_output@@CA_N_W@Z 0000000180171de8 f i libucrt:output.obj
 0001:00170e10       ??$is_overflow_condition@K@__crt_strtox@@YA_NIK@Z 0000000180171e10 f i libucrt:output.obj
 0001:00170e34       ??$is_pointer_specifier@D@?$positional_parameter_base@DV?$stream_output_adapter@D@__crt_stdio_output@@@__crt_stdio_output@@CA_ND@Z 0000000180171e34 f i libucrt:output.obj
 0001:00170e3c       ??$is_pointer_specifier@D@?$positional_parameter_base@DV?$string_output_adapter@D@__crt_stdio_output@@@__crt_stdio_output@@CA_ND@Z 0000000180171e3c f i libucrt:output.obj
 0001:00170e44       ??$is_pointer_specifier@_W@?$positional_parameter_base@_WV?$stream_output_adapter@_W@__crt_stdio_output@@@__crt_stdio_output@@CA_N_W@Z 0000000180171e44 f i libucrt:output.obj
 0001:00170e4c       ??$is_pointer_specifier@_W@?$positional_parameter_base@_WV?$string_output_adapter@_W@__crt_stdio_output@@@__crt_stdio_output@@CA_N_W@Z 0000000180171e4c f i libucrt:output.obj
 0001:00170e54       ??$is_string_specifier@D@?$positional_parameter_base@DV?$stream_output_adapter@D@__crt_stdio_output@@@__crt_stdio_output@@CA_ND@Z 0000000180171e54 f i libucrt:output.obj
 0001:00170e60       ??$is_string_specifier@D@?$positional_parameter_base@DV?$string_output_adapter@D@__crt_stdio_output@@@__crt_stdio_output@@CA_ND@Z 0000000180171e60 f i libucrt:output.obj
 0001:00170e6c       ??$is_string_specifier@_W@?$positional_parameter_base@_WV?$stream_output_adapter@_W@__crt_stdio_output@@@__crt_stdio_output@@CA_N_W@Z 0000000180171e6c f i libucrt:output.obj
 0001:00170e7c       ??$is_string_specifier@_W@?$positional_parameter_base@_WV?$string_output_adapter@_W@__crt_stdio_output@@@__crt_stdio_output@@CA_N_W@Z 0000000180171e7c f i libucrt:output.obj
 0001:00170e8c       ??$is_wide_character_specifier@D@__crt_stdio_output@@YA_N_KDW4length_modifier@0@@Z 0000000180171e8c f i libucrt:output.obj
 0001:00170eb4       ??$is_wide_character_specifier@_W@__crt_stdio_output@@YA_N_K_WW4length_modifier@0@@Z 0000000180171eb4 f i libucrt:output.obj
 0001:00170ef4       ??$make_c_string_character_source@DPEAPEAD@__crt_strtox@@YA?AV?$c_string_character_source@D@0@QEBDQEAPEAD@Z 0000000180171ef4 f i libucrt:output.obj
 0001:00170f08       ??$make_c_string_character_source@_WPEAPEA_W@__crt_strtox@@YA?AV?$c_string_character_source@_W@0@QEB_WQEAPEA_W@Z 0000000180171f08 f i libucrt:output.obj
 0001:00170f1c       ??$parse_integer@KV?$c_string_character_source@D@__crt_strtox@@$0A@@__crt_strtox@@YAKAEAV__crt_cached_ptd_host@@V?$c_string_character_source@D@0@H_N@Z 0000000180171f1c f i libucrt:output.obj
 0001:001711cc       ??$parse_integer@KV?$c_string_character_source@_W@__crt_strtox@@$0A@@__crt_strtox@@YAKAEAV__crt_cached_ptd_host@@V?$c_string_character_source@_W@0@H_N@Z 00000001801721cc f i libucrt:output.obj
 0001:00171924       ??$peek_va_arg@C@__crt_stdio_output@@YACPEAD@Z 0000000180172924 f i libucrt:output.obj
 0001:00171928       ??$peek_va_arg@E@__crt_stdio_output@@YAEPEAD@Z 0000000180172928 f i libucrt:output.obj
 0001:0017192c       ??$peek_va_arg@F@__crt_stdio_output@@YAFPEAD@Z 000000018017292c f i libucrt:output.obj
 0001:00171930       ??$peek_va_arg@G@__crt_stdio_output@@YAGPEAD@Z 0000000180172930 f i libucrt:output.obj
 0001:00171934       ??$peek_va_arg@H@__crt_stdio_output@@YAHPEAD@Z 0000000180172934 f i libucrt:output.obj
 0001:00171938       ??$peek_va_arg@I@__crt_stdio_output@@YAIPEAD@Z 0000000180172938 f i libucrt:output.obj
 0001:0017193c       ??$peek_va_arg@PEAD@__crt_stdio_output@@YAPEADPEAD@Z 000000018017293c f i libucrt:output.obj
 0001:00171940       ??$peek_va_arg@PEAUansi_string@?1??type_case_Z@?$output_processor@DV?$stream_output_adapter@D@__crt_stdio_output@@V?$positional_parameter_base@DV?$stream_output_adapter@D@__crt_stdio_output@@@2@@__crt_stdio_output@@AEAA_NXZ@@__crt_stdio_output@@YAPEAUansi_string@?1??type_case_Z@?$output_processor@DV?$stream_output_adapter@D@__crt_stdio_output@@V?$positional_parameter_base@DV?$stream_output_adapter@D@__crt_stdio_output@@@2@@0@AEAA_NXZ@PEAD@Z 0000000180172940 f i libucrt:output.obj
 0001:00171944       ??$peek_va_arg@PEAUansi_string@?1??type_case_Z@?$output_processor@DV?$string_output_adapter@D@__crt_stdio_output@@V?$positional_parameter_base@DV?$string_output_adapter@D@__crt_stdio_output@@@2@@__crt_stdio_output@@AEAA_NXZ@@__crt_stdio_output@@YAPEAUansi_string@?1??type_case_Z@?$output_processor@DV?$string_output_adapter@D@__crt_stdio_output@@V?$positional_parameter_base@DV?$string_output_adapter@D@__crt_stdio_output@@@2@@0@AEAA_NXZ@PEAD@Z 0000000180172944 f i libucrt:output.obj
 0001:00171948       ??$peek_va_arg@PEAUansi_string@?1??type_case_Z@?$output_processor@_WV?$stream_output_adapter@_W@__crt_stdio_output@@V?$positional_parameter_base@_WV?$stream_output_adapter@_W@__crt_stdio_output@@@2@@__crt_stdio_output@@AEAA_NXZ@@__crt_stdio_output@@YAPEAUansi_string@?1??type_case_Z@?$output_processor@_WV?$stream_output_adapter@_W@__crt_stdio_output@@V?$positional_parameter_base@_WV?$stream_output_adapter@_W@__crt_stdio_output@@@2@@0@AEAA_NXZ@PEAD@Z 0000000180172948 f i libucrt:output.obj
 0001:0017194c       ??$peek_va_arg@PEAUansi_string@?1??type_case_Z@?$output_processor@_WV?$string_output_adapter@_W@__crt_stdio_output@@V?$positional_parameter_base@_WV?$string_output_adapter@_W@__crt_stdio_output@@@2@@__crt_stdio_output@@AEAA_NXZ@@__crt_stdio_output@@YAPEAUansi_string@?1??type_case_Z@?$output_processor@_WV?$string_output_adapter@_W@__crt_stdio_output@@V?$positional_parameter_base@_WV?$string_output_adapter@_W@__crt_stdio_output@@@2@@0@AEAA_NXZ@PEAD@Z 000000018017294c f i libucrt:output.obj
 0001:00171950       ??$peek_va_arg@PEAX@__crt_stdio_output@@YAPEAXPEAD@Z 0000000180172950 f i libucrt:output.obj
 0001:00171954       ??$peek_va_arg@U_CRT_DOUBLE@@@__crt_stdio_output@@YA?AU_CRT_DOUBLE@@PEAD@Z 0000000180172954 f i libucrt:output.obj
 0001:00171958       ??$peek_va_arg@_J@__crt_stdio_output@@YA_JPEAD@Z 0000000180172958 f i libucrt:output.obj
 0001:0017195c       ??$peek_va_arg@_K@__crt_stdio_output@@YA_KPEAD@Z 000000018017295c f i libucrt:output.obj
 0001:00171960       ??$peek_va_arg@_W@__crt_stdio_output@@YA_WPEAD@Z 0000000180172960 f i libucrt:output.obj
 0001:00171964       ??$puttc_nolock_internal@AEBDPEAU_iobuf@@AEAV__crt_cached_ptd_host@@@?$__crt_char_traits@D@@SAHAEBD$$QEAPEAU_iobuf@@AEAV__crt_cached_ptd_host@@@Z 0000000180172964 f i libucrt:output.obj
 0001:00171970       ??$puttc_nolock_internal@AEB_WPEAU_iobuf@@AEAV__crt_cached_ptd_host@@@?$__crt_char_traits@_W@@SAGAEB_W$$QEAPEAU_iobuf@@AEAV__crt_cached_ptd_host@@@Z 0000000180172970 f i libucrt:output.obj
 0001:0017197c       ??$read_va_arg@C@__crt_stdio_output@@YACAEAPEAD@Z 000000018017297c f i libucrt:output.obj
 0001:00171988       ??$read_va_arg@E@__crt_stdio_output@@YAEAEAPEAD@Z 0000000180172988 f i libucrt:output.obj
 0001:00171994       ??$read_va_arg@F@__crt_stdio_output@@YAFAEAPEAD@Z 0000000180172994 f i libucrt:output.obj
 0001:001719a0       ??$read_va_arg@G@__crt_stdio_output@@YAGAEAPEAD@Z 00000001801729a0 f i libucrt:output.obj
 0001:001719ac       ??$read_va_arg@H@__crt_stdio_output@@YAHAEAPEAD@Z 00000001801729ac f i libucrt:output.obj
 0001:001719b8       ??$read_va_arg@I@__crt_stdio_output@@YAIAEAPEAD@Z 00000001801729b8 f i libucrt:output.obj
 0001:001719c4       ??$read_va_arg@PEAD@__crt_stdio_output@@YAPEADAEAPEAD@Z 00000001801729c4 f i libucrt:output.obj
 0001:001719d0       ??$read_va_arg@PEAUansi_string@?1??type_case_Z@?$output_processor@DV?$stream_output_adapter@D@__crt_stdio_output@@V?$format_validation_base@DV?$stream_output_adapter@D@__crt_stdio_output@@@2@@__crt_stdio_output@@AEAA_NXZ@@__crt_stdio_output@@YAPEAUansi_string@?1??type_case_Z@?$output_processor@DV?$stream_output_adapter@D@__crt_stdio_output@@V?$format_validation_base@DV?$stream_output_adapter@D@__crt_stdio_output@@@2@@0@AEAA_NXZ@AEAPEAD@Z 00000001801729d0 f i libucrt:output.obj
 0001:001719dc       ??$read_va_arg@PEAUansi_string@?1??type_case_Z@?$output_processor@DV?$stream_output_adapter@D@__crt_stdio_output@@V?$positional_parameter_base@DV?$stream_output_adapter@D@__crt_stdio_output@@@2@@__crt_stdio_output@@AEAA_NXZ@@__crt_stdio_output@@YAPEAUansi_string@?1??type_case_Z@?$output_processor@DV?$stream_output_adapter@D@__crt_stdio_output@@V?$positional_parameter_base@DV?$stream_output_adapter@D@__crt_stdio_output@@@2@@0@AEAA_NXZ@AEAPEAD@Z 00000001801729dc f i libucrt:output.obj
 0001:001719e8       ??$read_va_arg@PEAUansi_string@?1??type_case_Z@?$output_processor@DV?$stream_output_adapter@D@__crt_stdio_output@@V?$standard_base@DV?$stream_output_adapter@D@__crt_stdio_output@@@2@@__crt_stdio_output@@AEAA_NXZ@@__crt_stdio_output@@YAPEAUansi_string@?1??type_case_Z@?$output_processor@DV?$stream_output_adapter@D@__crt_stdio_output@@V?$standard_base@DV?$stream_output_adapter@D@__crt_stdio_output@@@2@@0@AEAA_NXZ@AEAPEAD@Z 00000001801729e8 f i libucrt:output.obj
 0001:001719f4       ??$read_va_arg@PEAUansi_string@?1??type_case_Z@?$output_processor@DV?$string_output_adapter@D@__crt_stdio_output@@V?$format_validation_base@DV?$string_output_adapter@D@__crt_stdio_output@@@2@@__crt_stdio_output@@AEAA_NXZ@@__crt_stdio_output@@YAPEAUansi_string@?1??type_case_Z@?$output_processor@DV?$string_output_adapter@D@__crt_stdio_output@@V?$format_validation_base@DV?$string_output_adapter@D@__crt_stdio_output@@@2@@0@AEAA_NXZ@AEAPEAD@Z 00000001801729f4 f i libucrt:output.obj
 0001:00171a00       ??$read_va_arg@PEAUansi_string@?1??type_case_Z@?$output_processor@DV?$string_output_adapter@D@__crt_stdio_output@@V?$positional_parameter_base@DV?$string_output_adapter@D@__crt_stdio_output@@@2@@__crt_stdio_output@@AEAA_NXZ@@__crt_stdio_output@@YAPEAUansi_string@?1??type_case_Z@?$output_processor@DV?$string_output_adapter@D@__crt_stdio_output@@V?$positional_parameter_base@DV?$string_output_adapter@D@__crt_stdio_output@@@2@@0@AEAA_NXZ@AEAPEAD@Z 0000000180172a00 f i libucrt:output.obj
 0001:00171a0c       ??$read_va_arg@PEAUansi_string@?1??type_case_Z@?$output_processor@DV?$string_output_adapter@D@__crt_stdio_output@@V?$standard_base@DV?$string_output_adapter@D@__crt_stdio_output@@@2@@__crt_stdio_output@@AEAA_NXZ@@__crt_stdio_output@@YAPEAUansi_string@?1??type_case_Z@?$output_processor@DV?$string_output_adapter@D@__crt_stdio_output@@V?$standard_base@DV?$string_output_adapter@D@__crt_stdio_output@@@2@@0@AEAA_NXZ@AEAPEAD@Z 0000000180172a0c f i libucrt:output.obj
 0001:00171a18       ??$read_va_arg@PEAUansi_string@?1??type_case_Z@?$output_processor@_WV?$stream_output_adapter@_W@__crt_stdio_output@@V?$format_validation_base@_WV?$stream_output_adapter@_W@__crt_stdio_output@@@2@@__crt_stdio_output@@AEAA_NXZ@@__crt_stdio_output@@YAPEAUansi_string@?1??type_case_Z@?$output_processor@_WV?$stream_output_adapter@_W@__crt_stdio_output@@V?$format_validation_base@_WV?$stream_output_adapter@_W@__crt_stdio_output@@@2@@0@AEAA_NXZ@AEAPEAD@Z 0000000180172a18 f i libucrt:output.obj
 0001:00171a24       ??$read_va_arg@PEAUansi_string@?1??type_case_Z@?$output_processor@_WV?$stream_output_adapter@_W@__crt_stdio_output@@V?$positional_parameter_base@_WV?$stream_output_adapter@_W@__crt_stdio_output@@@2@@__crt_stdio_output@@AEAA_NXZ@@__crt_stdio_output@@YAPEAUansi_string@?1??type_case_Z@?$output_processor@_WV?$stream_output_adapter@_W@__crt_stdio_output@@V?$positional_parameter_base@_WV?$stream_output_adapter@_W@__crt_stdio_output@@@2@@0@AEAA_NXZ@AEAPEAD@Z 0000000180172a24 f i libucrt:output.obj
 0001:00171a30       ??$read_va_arg@PEAUansi_string@?1??type_case_Z@?$output_processor@_WV?$stream_output_adapter@_W@__crt_stdio_output@@V?$standard_base@_WV?$stream_output_adapter@_W@__crt_stdio_output@@@2@@__crt_stdio_output@@AEAA_NXZ@@__crt_stdio_output@@YAPEAUansi_string@?1??type_case_Z@?$output_processor@_WV?$stream_output_adapter@_W@__crt_stdio_output@@V?$standard_base@_WV?$stream_output_adapter@_W@__crt_stdio_output@@@2@@0@AEAA_NXZ@AEAPEAD@Z 0000000180172a30 f i libucrt:output.obj
 0001:00171a3c       ??$read_va_arg@PEAUansi_string@?1??type_case_Z@?$output_processor@_WV?$string_output_adapter@_W@__crt_stdio_output@@V?$format_validation_base@_WV?$string_output_adapter@_W@__crt_stdio_output@@@2@@__crt_stdio_output@@AEAA_NXZ@@__crt_stdio_output@@YAPEAUansi_string@?1??type_case_Z@?$output_processor@_WV?$string_output_adapter@_W@__crt_stdio_output@@V?$format_validation_base@_WV?$string_output_adapter@_W@__crt_stdio_output@@@2@@0@AEAA_NXZ@AEAPEAD@Z 0000000180172a3c f i libucrt:output.obj
 0001:00171a48       ??$read_va_arg@PEAUansi_string@?1??type_case_Z@?$output_processor@_WV?$string_output_adapter@_W@__crt_stdio_output@@V?$positional_parameter_base@_WV?$string_output_adapter@_W@__crt_stdio_output@@@2@@__crt_stdio_output@@AEAA_NXZ@@__crt_stdio_output@@YAPEAUansi_string@?1??type_case_Z@?$output_processor@_WV?$string_output_adapter@_W@__crt_stdio_output@@V?$positional_parameter_base@_WV?$string_output_adapter@_W@__crt_stdio_output@@@2@@0@AEAA_NXZ@AEAPEAD@Z 0000000180172a48 f i libucrt:output.obj
 0001:00171a54       ??$read_va_arg@PEAUansi_string@?1??type_case_Z@?$output_processor@_WV?$string_output_adapter@_W@__crt_stdio_output@@V?$standard_base@_WV?$string_output_adapter@_W@__crt_stdio_output@@@2@@__crt_stdio_output@@AEAA_NXZ@@__crt_stdio_output@@YAPEAUansi_string@?1??type_case_Z@?$output_processor@_WV?$string_output_adapter@_W@__crt_stdio_output@@V?$standard_base@_WV?$string_output_adapter@_W@__crt_stdio_output@@@2@@0@AEAA_NXZ@AEAPEAD@Z 0000000180172a54 f i libucrt:output.obj
 0001:00171a60       ??$read_va_arg@PEAX@__crt_stdio_output@@YAPEAXAEAPEAD@Z 0000000180172a60 f i libucrt:output.obj
 0001:00171a6c       ??$read_va_arg@U_CRT_DOUBLE@@@__crt_stdio_output@@YA?AU_CRT_DOUBLE@@AEAPEAD@Z 0000000180172a6c f i libucrt:output.obj
 0001:00171a7c       ??$read_va_arg@_J@__crt_stdio_output@@YA_JAEAPEAD@Z 0000000180172a7c f i libucrt:output.obj
 0001:00171a88       ??$read_va_arg@_K@__crt_stdio_output@@YA_KAEAPEAD@Z 0000000180172a88 f i libucrt:output.obj
 0001:00171a94       ??$read_va_arg@_W@__crt_stdio_output@@YA_WAEAPEAD@Z 0000000180172a94 f i libucrt:output.obj
 0001:00171aa0       ??$scratch_count@D@formatting_buffer@__crt_stdio_output@@QEBA_KXZ 0000000180172aa0 f i libucrt:output.obj
 0001:00171abc       ??$scratch_data@D@formatting_buffer@__crt_stdio_output@@QEAAPEADXZ 0000000180172abc f i libucrt:output.obj
 0001:00171ae0       ??$type_case_integer@$07@?$output_processor@DV?$stream_output_adapter@D@__crt_stdio_output@@V?$format_validation_base@DV?$stream_output_adapter@D@__crt_stdio_output@@@2@@__crt_stdio_output@@AEAA_N_N@Z 0000000180172ae0 f i libucrt:output.obj
 0001:00171cc8       ??$type_case_integer@$07@?$output_processor@DV?$stream_output_adapter@D@__crt_stdio_output@@V?$positional_parameter_base@DV?$stream_output_adapter@D@__crt_stdio_output@@@2@@__crt_stdio_output@@AEAA_N_N@Z 0000000180172cc8 f i libucrt:output.obj
 0001:00171ef4       ??$type_case_integer@$07@?$output_processor@DV?$stream_output_adapter@D@__crt_stdio_output@@V?$standard_base@DV?$stream_output_adapter@D@__crt_stdio_output@@@2@@__crt_stdio_output@@AEAA_N_N@Z 0000000180172ef4 f i libucrt:output.obj
 0001:001720dc       ??$type_case_integer@$07@?$output_processor@DV?$string_output_adapter@D@__crt_stdio_output@@V?$format_validation_base@DV?$string_output_adapter@D@__crt_stdio_output@@@2@@__crt_stdio_output@@AEAA_N_N@Z 00000001801730dc f i libucrt:output.obj
 0001:001722c4       ??$type_case_integer@$07@?$output_processor@DV?$string_output_adapter@D@__crt_stdio_output@@V?$positional_parameter_base@DV?$string_output_adapter@D@__crt_stdio_output@@@2@@__crt_stdio_output@@AEAA_N_N@Z 00000001801732c4 f i libucrt:output.obj
 0001:001724f0       ??$type_case_integer@$07@?$output_processor@DV?$string_output_adapter@D@__crt_stdio_output@@V?$standard_base@DV?$string_output_adapter@D@__crt_stdio_output@@@2@@__crt_stdio_output@@AEAA_N_N@Z 00000001801734f0 f i libucrt:output.obj
 0001:001726d8       ??$type_case_integer@$07@?$output_processor@_WV?$stream_output_adapter@_W@__crt_stdio_output@@V?$format_validation_base@_WV?$stream_output_adapter@_W@__crt_stdio_output@@@2@@__crt_stdio_output@@AEAA_N_N@Z 00000001801736d8 f i libucrt:output.obj
 0001:001728c4       ??$type_case_integer@$07@?$output_processor@_WV?$stream_output_adapter@_W@__crt_stdio_output@@V?$positional_parameter_base@_WV?$stream_output_adapter@_W@__crt_stdio_output@@@2@@__crt_stdio_output@@AEAA_N_N@Z 00000001801738c4 f i libucrt:output.obj
 0001:00172af4       ??$type_case_integer@$07@?$output_processor@_WV?$stream_output_adapter@_W@__crt_stdio_output@@V?$standard_base@_WV?$stream_output_adapter@_W@__crt_stdio_output@@@2@@__crt_stdio_output@@AEAA_N_N@Z 0000000180173af4 f i libucrt:output.obj
 0001:00172ce0       ??$type_case_integer@$07@?$output_processor@_WV?$string_output_adapter@_W@__crt_stdio_output@@V?$format_validation_base@_WV?$string_output_adapter@_W@__crt_stdio_output@@@2@@__crt_stdio_output@@AEAA_N_N@Z 0000000180173ce0 f i libucrt:output.obj
 0001:00172ecc       ??$type_case_integer@$07@?$output_processor@_WV?$string_output_adapter@_W@__crt_stdio_output@@V?$positional_parameter_base@_WV?$string_output_adapter@_W@__crt_stdio_output@@@2@@__crt_stdio_output@@AEAA_N_N@Z 0000000180173ecc f i libucrt:output.obj
 0001:001730fc       ??$type_case_integer@$07@?$output_processor@_WV?$string_output_adapter@_W@__crt_stdio_output@@V?$standard_base@_WV?$string_output_adapter@_W@__crt_stdio_output@@@2@@__crt_stdio_output@@AEAA_N_N@Z 00000001801740fc f i libucrt:output.obj
 0001:001732e8       ??$type_case_integer@$09@?$output_processor@DV?$stream_output_adapter@D@__crt_stdio_output@@V?$format_validation_base@DV?$stream_output_adapter@D@__crt_stdio_output@@@2@@__crt_stdio_output@@AEAA_N_N@Z 00000001801742e8 f i libucrt:output.obj
 0001:001734d0       ??$type_case_integer@$09@?$output_processor@DV?$stream_output_adapter@D@__crt_stdio_output@@V?$positional_parameter_base@DV?$stream_output_adapter@D@__crt_stdio_output@@@2@@__crt_stdio_output@@AEAA_N_N@Z 00000001801744d0 f i libucrt:output.obj
 0001:001736fc       ??$type_case_integer@$09@?$output_processor@DV?$stream_output_adapter@D@__crt_stdio_output@@V?$standard_base@DV?$stream_output_adapter@D@__crt_stdio_output@@@2@@__crt_stdio_output@@AEAA_N_N@Z 00000001801746fc f i libucrt:output.obj
 0001:001738e4       ??$type_case_integer@$09@?$output_processor@DV?$string_output_adapter@D@__crt_stdio_output@@V?$format_validation_base@DV?$string_output_adapter@D@__crt_stdio_output@@@2@@__crt_stdio_output@@AEAA_N_N@Z 00000001801748e4 f i libucrt:output.obj
 0001:00173acc       ??$type_case_integer@$09@?$output_processor@DV?$string_output_adapter@D@__crt_stdio_output@@V?$positional_parameter_base@DV?$string_output_adapter@D@__crt_stdio_output@@@2@@__crt_stdio_output@@AEAA_N_N@Z 0000000180174acc f i libucrt:output.obj
 0001:00173cf8       ??$type_case_integer@$09@?$output_processor@DV?$string_output_adapter@D@__crt_stdio_output@@V?$standard_base@DV?$string_output_adapter@D@__crt_stdio_output@@@2@@__crt_stdio_output@@AEAA_N_N@Z 0000000180174cf8 f i libucrt:output.obj
 0001:00173ee0       ??$type_case_integer@$09@?$output_processor@_WV?$stream_output_adapter@_W@__crt_stdio_output@@V?$format_validation_base@_WV?$stream_output_adapter@_W@__crt_stdio_output@@@2@@__crt_stdio_output@@AEAA_N_N@Z 0000000180174ee0 f i libucrt:output.obj
 0001:001740cc       ??$type_case_integer@$09@?$output_processor@_WV?$stream_output_adapter@_W@__crt_stdio_output@@V?$positional_parameter_base@_WV?$stream_output_adapter@_W@__crt_stdio_output@@@2@@__crt_stdio_output@@AEAA_N_N@Z 00000001801750cc f i libucrt:output.obj
 0001:001742fc       ??$type_case_integer@$09@?$output_processor@_WV?$stream_output_adapter@_W@__crt_stdio_output@@V?$standard_base@_WV?$stream_output_adapter@_W@__crt_stdio_output@@@2@@__crt_stdio_output@@AEAA_N_N@Z 00000001801752fc f i libucrt:output.obj
 0001:001744e8       ??$type_case_integer@$09@?$output_processor@_WV?$string_output_adapter@_W@__crt_stdio_output@@V?$format_validation_base@_WV?$string_output_adapter@_W@__crt_stdio_output@@@2@@__crt_stdio_output@@AEAA_N_N@Z 00000001801754e8 f i libucrt:output.obj
 0001:001746d4       ??$type_case_integer@$09@?$output_processor@_WV?$string_output_adapter@_W@__crt_stdio_output@@V?$positional_parameter_base@_WV?$string_output_adapter@_W@__crt_stdio_output@@@2@@__crt_stdio_output@@AEAA_N_N@Z 00000001801756d4 f i libucrt:output.obj
 0001:00174904       ??$type_case_integer@$09@?$output_processor@_WV?$string_output_adapter@_W@__crt_stdio_output@@V?$standard_base@_WV?$string_output_adapter@_W@__crt_stdio_output@@@2@@__crt_stdio_output@@AEAA_N_N@Z 0000000180175904 f i libucrt:output.obj
 0001:00174af0       ??$type_case_integer@$0BA@@?$output_processor@DV?$stream_output_adapter@D@__crt_stdio_output@@V?$format_validation_base@DV?$stream_output_adapter@D@__crt_stdio_output@@@2@@__crt_stdio_output@@AEAA_N_N@Z 0000000180175af0 f i libucrt:output.obj
 0001:00174cd8       ??$type_case_integer@$0BA@@?$output_processor@DV?$stream_output_adapter@D@__crt_stdio_output@@V?$positional_parameter_base@DV?$stream_output_adapter@D@__crt_stdio_output@@@2@@__crt_stdio_output@@AEAA_N_N@Z 0000000180175cd8 f i libucrt:output.obj
 0001:00174f04       ??$type_case_integer@$0BA@@?$output_processor@DV?$stream_output_adapter@D@__crt_stdio_output@@V?$standard_base@DV?$stream_output_adapter@D@__crt_stdio_output@@@2@@__crt_stdio_output@@AEAA_N_N@Z 0000000180175f04 f i libucrt:output.obj
 0001:001750ec       ??$type_case_integer@$0BA@@?$output_processor@DV?$string_output_adapter@D@__crt_stdio_output@@V?$format_validation_base@DV?$string_output_adapter@D@__crt_stdio_output@@@2@@__crt_stdio_output@@AEAA_N_N@Z 00000001801760ec f i libucrt:output.obj
 0001:001752d4       ??$type_case_integer@$0BA@@?$output_processor@DV?$string_output_adapter@D@__crt_stdio_output@@V?$positional_parameter_base@DV?$string_output_adapter@D@__crt_stdio_output@@@2@@__crt_stdio_output@@AEAA_N_N@Z 00000001801762d4 f i libucrt:output.obj
 0001:00175500       ??$type_case_integer@$0BA@@?$output_processor@DV?$string_output_adapter@D@__crt_stdio_output@@V?$standard_base@DV?$string_output_adapter@D@__crt_stdio_output@@@2@@__crt_stdio_output@@AEAA_N_N@Z 0000000180176500 f i libucrt:output.obj
 0001:001756e8       ??$type_case_integer@$0BA@@?$output_processor@_WV?$stream_output_adapter@_W@__crt_stdio_output@@V?$format_validation_base@_WV?$stream_output_adapter@_W@__crt_stdio_output@@@2@@__crt_stdio_output@@AEAA_N_N@Z 00000001801766e8 f i libucrt:output.obj
 0001:001758d4       ??$type_case_integer@$0BA@@?$output_processor@_WV?$stream_output_adapter@_W@__crt_stdio_output@@V?$positional_parameter_base@_WV?$stream_output_adapter@_W@__crt_stdio_output@@@2@@__crt_stdio_output@@AEAA_N_N@Z 00000001801768d4 f i libucrt:output.obj
 0001:00175b04       ??$type_case_integer@$0BA@@?$output_processor@_WV?$stream_output_adapter@_W@__crt_stdio_output@@V?$standard_base@_WV?$stream_output_adapter@_W@__crt_stdio_output@@@2@@__crt_stdio_output@@AEAA_N_N@Z 0000000180176b04 f i libucrt:output.obj
 0001:00175cf0       ??$type_case_integer@$0BA@@?$output_processor@_WV?$string_output_adapter@_W@__crt_stdio_output@@V?$format_validation_base@_WV?$string_output_adapter@_W@__crt_stdio_output@@@2@@__crt_stdio_output@@AEAA_N_N@Z 0000000180176cf0 f i libucrt:output.obj
 0001:00175edc       ??$type_case_integer@$0BA@@?$output_processor@_WV?$string_output_adapter@_W@__crt_stdio_output@@V?$positional_parameter_base@_WV?$string_output_adapter@_W@__crt_stdio_output@@@2@@__crt_stdio_output@@AEAA_N_N@Z 0000000180176edc f i libucrt:output.obj
 0001:0017610c       ??$type_case_integer@$0BA@@?$output_processor@_WV?$string_output_adapter@_W@__crt_stdio_output@@V?$standard_base@_WV?$string_output_adapter@_W@__crt_stdio_output@@@2@@__crt_stdio_output@@AEAA_N_N@Z 000000018017710c f i libucrt:output.obj
 0001:001762f8       ??$type_case_integer_parse_into_buffer@I$07@?$output_processor@DV?$stream_output_adapter@D@__crt_stdio_output@@V?$format_validation_base@DV?$stream_output_adapter@D@__crt_stdio_output@@@2@@__crt_stdio_output@@AEAAXI_N@Z 00000001801772f8 f i libucrt:output.obj
 0001:00176374       ??$type_case_integer_parse_into_buffer@I$07@?$output_processor@DV?$stream_output_adapter@D@__crt_stdio_output@@V?$positional_parameter_base@DV?$stream_output_adapter@D@__crt_stdio_output@@@2@@__crt_stdio_output@@AEAAXI_N@Z 0000000180177374 f i libucrt:output.obj
 0001:001763f0       ??$type_case_integer_parse_into_buffer@I$07@?$output_processor@DV?$stream_output_adapter@D@__crt_stdio_output@@V?$standard_base@DV?$stream_output_adapter@D@__crt_stdio_output@@@2@@__crt_stdio_output@@AEAAXI_N@Z 00000001801773f0 f i libucrt:output.obj
 0001:0017646c       ??$type_case_integer_parse_into_buffer@I$07@?$output_processor@DV?$string_output_adapter@D@__crt_stdio_output@@V?$format_validation_base@DV?$string_output_adapter@D@__crt_stdio_output@@@2@@__crt_stdio_output@@AEAAXI_N@Z 000000018017746c f i libucrt:output.obj
 0001:001764e8       ??$type_case_integer_parse_into_buffer@I$07@?$output_processor@DV?$string_output_adapter@D@__crt_stdio_output@@V?$positional_parameter_base@DV?$string_output_adapter@D@__crt_stdio_output@@@2@@__crt_stdio_output@@AEAAXI_N@Z 00000001801774e8 f i libucrt:output.obj
 0001:00176564       ??$type_case_integer_parse_into_buffer@I$07@?$output_processor@DV?$string_output_adapter@D@__crt_stdio_output@@V?$standard_base@DV?$string_output_adapter@D@__crt_stdio_output@@@2@@__crt_stdio_output@@AEAAXI_N@Z 0000000180177564 f i libucrt:output.obj
 0001:001765e0       ??$type_case_integer_parse_into_buffer@I$07@?$output_processor@_WV?$stream_output_adapter@_W@__crt_stdio_output@@V?$format_validation_base@_WV?$stream_output_adapter@_W@__crt_stdio_output@@@2@@__crt_stdio_output@@AEAAXI_N@Z 00000001801775e0 f i libucrt:output.obj
 0001:00176668       ??$type_case_integer_parse_into_buffer@I$07@?$output_processor@_WV?$stream_output_adapter@_W@__crt_stdio_output@@V?$positional_parameter_base@_WV?$stream_output_adapter@_W@__crt_stdio_output@@@2@@__crt_stdio_output@@AEAAXI_N@Z 0000000180177668 f i libucrt:output.obj
 0001:001766f0       ??$type_case_integer_parse_into_buffer@I$07@?$output_processor@_WV?$stream_output_adapter@_W@__crt_stdio_output@@V?$standard_base@_WV?$stream_output_adapter@_W@__crt_stdio_output@@@2@@__crt_stdio_output@@AEAAXI_N@Z 00000001801776f0 f i libucrt:output.obj
 0001:00176778       ??$type_case_integer_parse_into_buffer@I$07@?$output_processor@_WV?$string_output_adapter@_W@__crt_stdio_output@@V?$format_validation_base@_WV?$string_output_adapter@_W@__crt_stdio_output@@@2@@__crt_stdio_output@@AEAAXI_N@Z 0000000180177778 f i libucrt:output.obj
 0001:00176800       ??$type_case_integer_parse_into_buffer@I$07@?$output_processor@_WV?$string_output_adapter@_W@__crt_stdio_output@@V?$positional_parameter_base@_WV?$string_output_adapter@_W@__crt_stdio_output@@@2@@__crt_stdio_output@@AEAAXI_N@Z 0000000180177800 f i libucrt:output.obj
 0001:00176888       ??$type_case_integer_parse_into_buffer@I$07@?$output_processor@_WV?$string_output_adapter@_W@__crt_stdio_output@@V?$standard_base@_WV?$string_output_adapter@_W@__crt_stdio_output@@@2@@__crt_stdio_output@@AEAAXI_N@Z 0000000180177888 f i libucrt:output.obj
 0001:00176910       ??$type_case_integer_parse_into_buffer@I$09@?$output_processor@DV?$stream_output_adapter@D@__crt_stdio_output@@V?$format_validation_base@DV?$stream_output_adapter@D@__crt_stdio_output@@@2@@__crt_stdio_output@@AEAAXI_N@Z 0000000180177910 f i libucrt:output.obj
 0001:001769b8       ??$type_case_integer_parse_into_buffer@I$09@?$output_processor@DV?$stream_output_adapter@D@__crt_stdio_output@@V?$positional_parameter_base@DV?$stream_output_adapter@D@__crt_stdio_output@@@2@@__crt_stdio_output@@AEAAXI_N@Z 00000001801779b8 f i libucrt:output.obj
 0001:00176a60       ??$type_case_integer_parse_into_buffer@I$09@?$output_processor@DV?$stream_output_adapter@D@__crt_stdio_output@@V?$standard_base@DV?$stream_output_adapter@D@__crt_stdio_output@@@2@@__crt_stdio_output@@AEAAXI_N@Z 0000000180177a60 f i libucrt:output.obj
 0001:00176b08       ??$type_case_integer_parse_into_buffer@I$09@?$output_processor@DV?$string_output_adapter@D@__crt_stdio_output@@V?$format_validation_base@DV?$string_output_adapter@D@__crt_stdio_output@@@2@@__crt_stdio_output@@AEAAXI_N@Z 0000000180177b08 f i libucrt:output.obj
 0001:00176bb0       ??$type_case_integer_parse_into_buffer@I$09@?$output_processor@DV?$string_output_adapter@D@__crt_stdio_output@@V?$positional_parameter_base@DV?$string_output_adapter@D@__crt_stdio_output@@@2@@__crt_stdio_output@@AEAAXI_N@Z 0000000180177bb0 f i libucrt:output.obj
 0001:00176c58       ??$type_case_integer_parse_into_buffer@I$09@?$output_processor@DV?$string_output_adapter@D@__crt_stdio_output@@V?$standard_base@DV?$string_output_adapter@D@__crt_stdio_output@@@2@@__crt_stdio_output@@AEAAXI_N@Z 0000000180177c58 f i libucrt:output.obj
 0001:00176d00       ??$type_case_integer_parse_into_buffer@I$09@?$output_processor@_WV?$stream_output_adapter@_W@__crt_stdio_output@@V?$format_validation_base@_WV?$stream_output_adapter@_W@__crt_stdio_output@@@2@@__crt_stdio_output@@AEAAXI_N@Z 0000000180177d00 f i libucrt:output.obj
 0001:00176db8       ??$type_case_integer_parse_into_buffer@I$09@?$output_processor@_WV?$stream_output_adapter@_W@__crt_stdio_output@@V?$positional_parameter_base@_WV?$stream_output_adapter@_W@__crt_stdio_output@@@2@@__crt_stdio_output@@AEAAXI_N@Z 0000000180177db8 f i libucrt:output.obj
 0001:00176e70       ??$type_case_integer_parse_into_buffer@I$09@?$output_processor@_WV?$stream_output_adapter@_W@__crt_stdio_output@@V?$standard_base@_WV?$stream_output_adapter@_W@__crt_stdio_output@@@2@@__crt_stdio_output@@AEAAXI_N@Z 0000000180177e70 f i libucrt:output.obj
 0001:00176f28       ??$type_case_integer_parse_into_buffer@I$09@?$output_processor@_WV?$string_output_adapter@_W@__crt_stdio_output@@V?$format_validation_base@_WV?$string_output_adapter@_W@__crt_stdio_output@@@2@@__crt_stdio_output@@AEAAXI_N@Z 0000000180177f28 f i libucrt:output.obj
 0001:00176fe0       ??$type_case_integer_parse_into_buffer@I$09@?$output_processor@_WV?$string_output_adapter@_W@__crt_stdio_output@@V?$positional_parameter_base@_WV?$string_output_adapter@_W@__crt_stdio_output@@@2@@__crt_stdio_output@@AEAAXI_N@Z 0000000180177fe0 f i libucrt:output.obj
 0001:00177098       ??$type_case_integer_parse_into_buffer@I$09@?$output_processor@_WV?$string_output_adapter@_W@__crt_stdio_output@@V?$standard_base@_WV?$string_output_adapter@_W@__crt_stdio_output@@@2@@__crt_stdio_output@@AEAAXI_N@Z 0000000180178098 f i libucrt:output.obj
 0001:00177150       ??$type_case_integer_parse_into_buffer@I$0BA@@?$output_processor@DV?$stream_output_adapter@D@__crt_stdio_output@@V?$format_validation_base@DV?$stream_output_adapter@D@__crt_stdio_output@@@2@@__crt_stdio_output@@AEAAXI_N@Z 0000000180178150 f i libucrt:output.obj
 0001:001771dc       ??$type_case_integer_parse_into_buffer@I$0BA@@?$output_processor@DV?$stream_output_adapter@D@__crt_stdio_output@@V?$positional_parameter_base@DV?$stream_output_adapter@D@__crt_stdio_output@@@2@@__crt_stdio_output@@AEAAXI_N@Z 00000001801781dc f i libucrt:output.obj
 0001:00177268       ??$type_case_integer_parse_into_buffer@I$0BA@@?$output_processor@DV?$stream_output_adapter@D@__crt_stdio_output@@V?$standard_base@DV?$stream_output_adapter@D@__crt_stdio_output@@@2@@__crt_stdio_output@@AEAAXI_N@Z 0000000180178268 f i libucrt:output.obj
 0001:001772f4       ??$type_case_integer_parse_into_buffer@I$0BA@@?$output_processor@DV?$string_output_adapter@D@__crt_stdio_output@@V?$format_validation_base@DV?$string_output_adapter@D@__crt_stdio_output@@@2@@__crt_stdio_output@@AEAAXI_N@Z 00000001801782f4 f i libucrt:output.obj
 0001:00177380       ??$type_case_integer_parse_into_buffer@I$0BA@@?$output_processor@DV?$string_output_adapter@D@__crt_stdio_output@@V?$positional_parameter_base@DV?$string_output_adapter@D@__crt_stdio_output@@@2@@__crt_stdio_output@@AEAAXI_N@Z 0000000180178380 f i libucrt:output.obj
 0001:0017740c       ??$type_case_integer_parse_into_buffer@I$0BA@@?$output_processor@DV?$string_output_adapter@D@__crt_stdio_output@@V?$standard_base@DV?$string_output_adapter@D@__crt_stdio_output@@@2@@__crt_stdio_output@@AEAAXI_N@Z 000000018017840c f i libucrt:output.obj
 0001:00177498       ??$type_case_integer_parse_into_buffer@I$0BA@@?$output_processor@_WV?$stream_output_adapter@_W@__crt_stdio_output@@V?$format_validation_base@_WV?$stream_output_adapter@_W@__crt_stdio_output@@@2@@__crt_stdio_output@@AEAAXI_N@Z 0000000180178498 f i libucrt:output.obj
 0001:0017753c       ??$type_case_integer_parse_into_buffer@I$0BA@@?$output_processor@_WV?$stream_output_adapter@_W@__crt_stdio_output@@V?$positional_parameter_base@_WV?$stream_output_adapter@_W@__crt_stdio_output@@@2@@__crt_stdio_output@@AEAAXI_N@Z 000000018017853c f i libucrt:output.obj
 0001:001775e0       ??$type_case_integer_parse_into_buffer@I$0BA@@?$output_processor@_WV?$stream_output_adapter@_W@__crt_stdio_output@@V?$standard_base@_WV?$stream_output_adapter@_W@__crt_stdio_output@@@2@@__crt_stdio_output@@AEAAXI_N@Z 00000001801785e0 f i libucrt:output.obj
 0001:00177684       ??$type_case_integer_parse_into_buffer@I$0BA@@?$output_processor@_WV?$string_output_adapter@_W@__crt_stdio_output@@V?$format_validation_base@_WV?$string_output_adapter@_W@__crt_stdio_output@@@2@@__crt_stdio_output@@AEAAXI_N@Z 0000000180178684 f i libucrt:output.obj
 0001:00177728       ??$type_case_integer_parse_into_buffer@I$0BA@@?$output_processor@_WV?$string_output_adapter@_W@__crt_stdio_output@@V?$positional_parameter_base@_WV?$string_output_adapter@_W@__crt_stdio_output@@@2@@__crt_stdio_output@@AEAAXI_N@Z 0000000180178728 f i libucrt:output.obj
 0001:001777cc       ??$type_case_integer_parse_into_buffer@I$0BA@@?$output_processor@_WV?$string_output_adapter@_W@__crt_stdio_output@@V?$standard_base@_WV?$string_output_adapter@_W@__crt_stdio_output@@@2@@__crt_stdio_output@@AEAAXI_N@Z 00000001801787cc f i libucrt:output.obj
 0001:00177870       ??$type_case_integer_parse_into_buffer@_K$07@?$output_processor@DV?$stream_output_adapter@D@__crt_stdio_output@@V?$format_validation_base@DV?$stream_output_adapter@D@__crt_stdio_output@@@2@@__crt_stdio_output@@AEAAX_K_N@Z 0000000180178870 f i libucrt:output.obj
 0001:001778ec       ??$type_case_integer_parse_into_buffer@_K$07@?$output_processor@DV?$stream_output_adapter@D@__crt_stdio_output@@V?$positional_parameter_base@DV?$stream_output_adapter@D@__crt_stdio_output@@@2@@__crt_stdio_output@@AEAAX_K_N@Z 00000001801788ec f i libucrt:output.obj
 0001:00177968       ??$type_case_integer_parse_into_buffer@_K$07@?$output_processor@DV?$stream_output_adapter@D@__crt_stdio_output@@V?$standard_base@DV?$stream_output_adapter@D@__crt_stdio_output@@@2@@__crt_stdio_output@@AEAAX_K_N@Z 0000000180178968 f i libucrt:output.obj
 0001:001779e4       ??$type_case_integer_parse_into_buffer@_K$07@?$output_processor@DV?$string_output_adapter@D@__crt_stdio_output@@V?$format_validation_base@DV?$string_output_adapter@D@__crt_stdio_output@@@2@@__crt_stdio_output@@AEAAX_K_N@Z 00000001801789e4 f i libucrt:output.obj
 0001:00177a60       ??$type_case_integer_parse_into_buffer@_K$07@?$output_processor@DV?$string_output_adapter@D@__crt_stdio_output@@V?$positional_parameter_base@DV?$string_output_adapter@D@__crt_stdio_output@@@2@@__crt_stdio_output@@AEAAX_K_N@Z 0000000180178a60 f i libucrt:output.obj
 0001:00177adc       ??$type_case_integer_parse_into_buffer@_K$07@?$output_processor@DV?$string_output_adapter@D@__crt_stdio_output@@V?$standard_base@DV?$string_output_adapter@D@__crt_stdio_output@@@2@@__crt_stdio_output@@AEAAX_K_N@Z 0000000180178adc f i libucrt:output.obj
 0001:00177b58       ??$type_case_integer_parse_into_buffer@_K$07@?$output_processor@_WV?$stream_output_adapter@_W@__crt_stdio_output@@V?$format_validation_base@_WV?$stream_output_adapter@_W@__crt_stdio_output@@@2@@__crt_stdio_output@@AEAAX_K_N@Z 0000000180178b58 f i libucrt:output.obj
 0001:00177be0       ??$type_case_integer_parse_into_buffer@_K$07@?$output_processor@_WV?$stream_output_adapter@_W@__crt_stdio_output@@V?$positional_parameter_base@_WV?$stream_output_adapter@_W@__crt_stdio_output@@@2@@__crt_stdio_output@@AEAAX_K_N@Z 0000000180178be0 f i libucrt:output.obj
 0001:00177c68       ??$type_case_integer_parse_into_buffer@_K$07@?$output_processor@_WV?$stream_output_adapter@_W@__crt_stdio_output@@V?$standard_base@_WV?$stream_output_adapter@_W@__crt_stdio_output@@@2@@__crt_stdio_output@@AEAAX_K_N@Z 0000000180178c68 f i libucrt:output.obj
 0001:00177cf0       ??$type_case_integer_parse_into_buffer@_K$07@?$output_processor@_WV?$string_output_adapter@_W@__crt_stdio_output@@V?$format_validation_base@_WV?$string_output_adapter@_W@__crt_stdio_output@@@2@@__crt_stdio_output@@AEAAX_K_N@Z 0000000180178cf0 f i libucrt:output.obj
 0001:00177d78       ??$type_case_integer_parse_into_buffer@_K$07@?$output_processor@_WV?$string_output_adapter@_W@__crt_stdio_output@@V?$positional_parameter_base@_WV?$string_output_adapter@_W@__crt_stdio_output@@@2@@__crt_stdio_output@@AEAAX_K_N@Z 0000000180178d78 f i libucrt:output.obj
 0001:00177e00       ??$type_case_integer_parse_into_buffer@_K$07@?$output_processor@_WV?$string_output_adapter@_W@__crt_stdio_output@@V?$standard_base@_WV?$string_output_adapter@_W@__crt_stdio_output@@@2@@__crt_stdio_output@@AEAAX_K_N@Z 0000000180178e00 f i libucrt:output.obj
 0001:00177e88       ??$type_case_integer_parse_into_buffer@_K$09@?$output_processor@DV?$stream_output_adapter@D@__crt_stdio_output@@V?$format_validation_base@DV?$stream_output_adapter@D@__crt_stdio_output@@@2@@__crt_stdio_output@@AEAAX_K_N@Z 0000000180178e88 f i libucrt:output.obj
 0001:00177f34       ??$type_case_integer_parse_into_buffer@_K$09@?$output_processor@DV?$stream_output_adapter@D@__crt_stdio_output@@V?$positional_parameter_base@DV?$stream_output_adapter@D@__crt_stdio_output@@@2@@__crt_stdio_output@@AEAAX_K_N@Z 0000000180178f34 f i libucrt:output.obj
 0001:00177fe0       ??$type_case_integer_parse_into_buffer@_K$09@?$output_processor@DV?$stream_output_adapter@D@__crt_stdio_output@@V?$standard_base@DV?$stream_output_adapter@D@__crt_stdio_output@@@2@@__crt_stdio_output@@AEAAX_K_N@Z 0000000180178fe0 f i libucrt:output.obj
 0001:0017808c       ??$type_case_integer_parse_into_buffer@_K$09@?$output_processor@DV?$string_output_adapter@D@__crt_stdio_output@@V?$format_validation_base@DV?$string_output_adapter@D@__crt_stdio_output@@@2@@__crt_stdio_output@@AEAAX_K_N@Z 000000018017908c f i libucrt:output.obj
 0001:00178138       ??$type_case_integer_parse_into_buffer@_K$09@?$output_processor@DV?$string_output_adapter@D@__crt_stdio_output@@V?$positional_parameter_base@DV?$string_output_adapter@D@__crt_stdio_output@@@2@@__crt_stdio_output@@AEAAX_K_N@Z 0000000180179138 f i libucrt:output.obj
 0001:001781e4       ??$type_case_integer_parse_into_buffer@_K$09@?$output_processor@DV?$string_output_adapter@D@__crt_stdio_output@@V?$standard_base@DV?$string_output_adapter@D@__crt_stdio_output@@@2@@__crt_stdio_output@@AEAAX_K_N@Z 00000001801791e4 f i libucrt:output.obj
 0001:00178290       ??$type_case_integer_parse_into_buffer@_K$09@?$output_processor@_WV?$stream_output_adapter@_W@__crt_stdio_output@@V?$format_validation_base@_WV?$stream_output_adapter@_W@__crt_stdio_output@@@2@@__crt_stdio_output@@AEAAX_K_N@Z 0000000180179290 f i libucrt:output.obj
 0001:00178350       ??$type_case_integer_parse_into_buffer@_K$09@?$output_processor@_WV?$stream_output_adapter@_W@__crt_stdio_output@@V?$positional_parameter_base@_WV?$stream_output_adapter@_W@__crt_stdio_output@@@2@@__crt_stdio_output@@AEAAX_K_N@Z 0000000180179350 f i libucrt:output.obj
 0001:00178410       ??$type_case_integer_parse_into_buffer@_K$09@?$output_processor@_WV?$stream_output_adapter@_W@__crt_stdio_output@@V?$standard_base@_WV?$stream_output_adapter@_W@__crt_stdio_output@@@2@@__crt_stdio_output@@AEAAX_K_N@Z 0000000180179410 f i libucrt:output.obj
 0001:001784d0       ??$type_case_integer_parse_into_buffer@_K$09@?$output_processor@_WV?$string_output_adapter@_W@__crt_stdio_output@@V?$format_validation_base@_WV?$string_output_adapter@_W@__crt_stdio_output@@@2@@__crt_stdio_output@@AEAAX_K_N@Z 00000001801794d0 f i libucrt:output.obj
 0001:00178590       ??$type_case_integer_parse_into_buffer@_K$09@?$output_processor@_WV?$string_output_adapter@_W@__crt_stdio_output@@V?$positional_parameter_base@_WV?$string_output_adapter@_W@__crt_stdio_output@@@2@@__crt_stdio_output@@AEAAX_K_N@Z 0000000180179590 f i libucrt:output.obj
 0001:00178650       ??$type_case_integer_parse_into_buffer@_K$09@?$output_processor@_WV?$string_output_adapter@_W@__crt_stdio_output@@V?$standard_base@_WV?$string_output_adapter@_W@__crt_stdio_output@@@2@@__crt_stdio_output@@AEAAX_K_N@Z 0000000180179650 f i libucrt:output.obj
 0001:00178710       ??$type_case_integer_parse_into_buffer@_K$0BA@@?$output_processor@DV?$stream_output_adapter@D@__crt_stdio_output@@V?$format_validation_base@DV?$stream_output_adapter@D@__crt_stdio_output@@@2@@__crt_stdio_output@@AEAAX_K_N@Z 0000000180179710 f i libucrt:output.obj
 0001:0017879c       ??$type_case_integer_parse_into_buffer@_K$0BA@@?$output_processor@DV?$stream_output_adapter@D@__crt_stdio_output@@V?$positional_parameter_base@DV?$stream_output_adapter@D@__crt_stdio_output@@@2@@__crt_stdio_output@@AEAAX_K_N@Z 000000018017979c f i libucrt:output.obj
 0001:00178828       ??$type_case_integer_parse_into_buffer@_K$0BA@@?$output_processor@DV?$stream_output_adapter@D@__crt_stdio_output@@V?$standard_base@DV?$stream_output_adapter@D@__crt_stdio_output@@@2@@__crt_stdio_output@@AEAAX_K_N@Z 0000000180179828 f i libucrt:output.obj
 0001:001788b4       ??$type_case_integer_parse_into_buffer@_K$0BA@@?$output_processor@DV?$string_output_adapter@D@__crt_stdio_output@@V?$format_validation_base@DV?$string_output_adapter@D@__crt_stdio_output@@@2@@__crt_stdio_output@@AEAAX_K_N@Z 00000001801798b4 f i libucrt:output.obj
 0001:00178940       ??$type_case_integer_parse_into_buffer@_K$0BA@@?$output_processor@DV?$string_output_adapter@D@__crt_stdio_output@@V?$positional_parameter_base@DV?$string_output_adapter@D@__crt_stdio_output@@@2@@__crt_stdio_output@@AEAAX_K_N@Z 0000000180179940 f i libucrt:output.obj
 0001:001789cc       ??$type_case_integer_parse_into_buffer@_K$0BA@@?$output_processor@DV?$string_output_adapter@D@__crt_stdio_output@@V?$standard_base@DV?$string_output_adapter@D@__crt_stdio_output@@@2@@__crt_stdio_output@@AEAAX_K_N@Z 00000001801799cc f i libucrt:output.obj
 0001:00178a58       ??$type_case_integer_parse_into_buffer@_K$0BA@@?$output_processor@_WV?$stream_output_adapter@_W@__crt_stdio_output@@V?$format_validation_base@_WV?$stream_output_adapter@_W@__crt_stdio_output@@@2@@__crt_stdio_output@@AEAAX_K_N@Z 0000000180179a58 f i libucrt:output.obj
 0001:00178afc       ??$type_case_integer_parse_into_buffer@_K$0BA@@?$output_processor@_WV?$stream_output_adapter@_W@__crt_stdio_output@@V?$positional_parameter_base@_WV?$stream_output_adapter@_W@__crt_stdio_output@@@2@@__crt_stdio_output@@AEAAX_K_N@Z 0000000180179afc f i libucrt:output.obj
 0001:00178ba0       ??$type_case_integer_parse_into_buffer@_K$0BA@@?$output_processor@_WV?$stream_output_adapter@_W@__crt_stdio_output@@V?$standard_base@_WV?$stream_output_adapter@_W@__crt_stdio_output@@@2@@__crt_stdio_output@@AEAAX_K_N@Z 0000000180179ba0 f i libucrt:output.obj
 0001:00178c44       ??$type_case_integer_parse_into_buffer@_K$0BA@@?$output_processor@_WV?$string_output_adapter@_W@__crt_stdio_output@@V?$format_validation_base@_WV?$string_output_adapter@_W@__crt_stdio_output@@@2@@__crt_stdio_output@@AEAAX_K_N@Z 0000000180179c44 f i libucrt:output.obj
 0001:00178ce8       ??$type_case_integer_parse_into_buffer@_K$0BA@@?$output_processor@_WV?$string_output_adapter@_W@__crt_stdio_output@@V?$positional_parameter_base@_WV?$string_output_adapter@_W@__crt_stdio_output@@@2@@__crt_stdio_output@@AEAAX_K_N@Z 0000000180179ce8 f i libucrt:output.obj
 0001:00178d8c       ??$type_case_integer_parse_into_buffer@_K$0BA@@?$output_processor@_WV?$string_output_adapter@_W@__crt_stdio_output@@V?$standard_base@_WV?$string_output_adapter@_W@__crt_stdio_output@@@2@@__crt_stdio_output@@AEAAX_K_N@Z 0000000180179d8c f i libucrt:output.obj
 0001:00178e30       ??$write_multiple_characters@V?$stream_output_adapter@D@__crt_stdio_output@@D@__crt_stdio_output@@YAXAEBV?$stream_output_adapter@D@0@DHQEAHAEAV__crt_cached_ptd_host@@@Z 0000000180179e30 f i libucrt:output.obj
 0001:00178ec0       ??$write_multiple_characters@V?$stream_output_adapter@_W@__crt_stdio_output@@D@__crt_stdio_output@@YAXAEBV?$stream_output_adapter@_W@0@DHQEAHAEAV__crt_cached_ptd_host@@@Z 0000000180179ec0 f i libucrt:output.obj
 0001:00178f58       ??$write_multiple_characters@V?$string_output_adapter@D@__crt_stdio_output@@D@__crt_stdio_output@@YAXAEBV?$string_output_adapter@D@0@DHQEAHAEAV__crt_cached_ptd_host@@@Z 0000000180179f58 f i libucrt:output.obj
 0001:00178fd0       ??$write_multiple_characters@V?$string_output_adapter@_W@__crt_stdio_output@@D@__crt_stdio_output@@YAXAEBV?$string_output_adapter@_W@0@DHQEAHAEAV__crt_cached_ptd_host@@@Z 0000000180179fd0 f i libucrt:output.obj
 0001:001791b0       ??0?$c_string_character_source@D@__crt_strtox@@QEAA@QEBDQEAPEBD@Z 000000018017a1b0 f i libucrt:output.obj
 0001:001791c4       ??0?$c_string_character_source@_W@__crt_strtox@@QEAA@QEB_WQEAPEB_W@Z 000000018017a1c4 f i libucrt:output.obj
 0001:001791d8       ??0?$cached@H@__crt_cached_ptd_host@@QEAA@XZ 000000018017a1d8 f i libucrt:output.obj
 0001:001791e0       ??0?$cached@K@__crt_cached_ptd_host@@QEAA@XZ 000000018017a1e0 f i libucrt:output.obj
 0001:001791e8       ??0?$common_data@D@__crt_stdio_output@@IEAA@AEAV__crt_cached_ptd_host@@@Z 000000018017a1e8 f i libucrt:output.obj
 0001:00179224       ??0?$common_data@_W@__crt_stdio_output@@IEAA@AEAV__crt_cached_ptd_host@@@Z 000000018017a224 f i libucrt:output.obj
 0001:00179264       ??0?$output_adapter_data@DV?$stream_output_adapter@D@__crt_stdio_output@@@__crt_stdio_output@@IEAA@AEBV?$stream_output_adapter@D@1@_KQEBDAEAV__crt_cached_ptd_host@@QEAD@Z 000000018017a264 f i libucrt:output.obj
 0001:001792c4       ??0?$output_adapter_data@DV?$string_output_adapter@D@__crt_stdio_output@@@__crt_stdio_output@@IEAA@AEBV?$string_output_adapter@D@1@_KQEBDAEAV__crt_cached_ptd_host@@QEAD@Z 000000018017a2c4 f i libucrt:output.obj
 0001:00179324       ??0?$output_adapter_data@_WV?$stream_output_adapter@_W@__crt_stdio_output@@@__crt_stdio_output@@IEAA@AEBV?$stream_output_adapter@_W@1@_KQEB_WAEAV__crt_cached_ptd_host@@QEAD@Z 000000018017a324 f i libucrt:output.obj
 0001:00179388       ??0?$output_adapter_data@_WV?$string_output_adapter@_W@__crt_stdio_output@@@__crt_stdio_output@@IEAA@AEBV?$string_output_adapter@_W@1@_KQEB_WAEAV__crt_cached_ptd_host@@QEAD@Z 000000018017a388 f i libucrt:output.obj
 0001:001793ec       ??0?$output_processor@DV?$stream_output_adapter@D@__crt_stdio_output@@V?$format_validation_base@DV?$stream_output_adapter@D@__crt_stdio_output@@@2@@__crt_stdio_output@@QEAA@AEBV?$stream_output_adapter@D@1@_KQEBDAEAV__crt_cached_ptd_host@@QEAD@Z 000000018017a3ec f i libucrt:output.obj
 0001:00179454       ??0?$output_processor@DV?$stream_output_adapter@D@__crt_stdio_output@@V?$positional_parameter_base@DV?$stream_output_adapter@D@__crt_stdio_output@@@2@@__crt_stdio_output@@QEAA@AEBV?$stream_output_adapter@D@1@_KQEBDAEAV__crt_cached_ptd_host@@QEAD@Z 000000018017a454 f i libucrt:output.obj
 0001:001794d8       ??0?$output_processor@DV?$stream_output_adapter@D@__crt_stdio_output@@V?$standard_base@DV?$stream_output_adapter@D@__crt_stdio_output@@@2@@__crt_stdio_output@@QEAA@AEBV?$stream_output_adapter@D@1@_KQEBDAEAV__crt_cached_ptd_host@@QEAD@Z 000000018017a4d8 f i libucrt:output.obj
 0001:00179540       ??0?$output_processor@DV?$string_output_adapter@D@__crt_stdio_output@@V?$format_validation_base@DV?$string_output_adapter@D@__crt_stdio_output@@@2@@__crt_stdio_output@@QEAA@AEBV?$string_output_adapter@D@1@_KQEBDAEAV__crt_cached_ptd_host@@QEAD@Z 000000018017a540 f i libucrt:output.obj
 0001:001795a8       ??0?$output_processor@DV?$string_output_adapter@D@__crt_stdio_output@@V?$positional_parameter_base@DV?$string_output_adapter@D@__crt_stdio_output@@@2@@__crt_stdio_output@@QEAA@AEBV?$string_output_adapter@D@1@_KQEBDAEAV__crt_cached_ptd_host@@QEAD@Z 000000018017a5a8 f i libucrt:output.obj
 0001:0017962c       ??0?$output_processor@DV?$string_output_adapter@D@__crt_stdio_output@@V?$standard_base@DV?$string_output_adapter@D@__crt_stdio_output@@@2@@__crt_stdio_output@@QEAA@AEBV?$string_output_adapter@D@1@_KQEBDAEAV__crt_cached_ptd_host@@QEAD@Z 000000018017a62c f i libucrt:output.obj
 0001:00179694       ??0?$output_processor@_WV?$stream_output_adapter@_W@__crt_stdio_output@@V?$format_validation_base@_WV?$stream_output_adapter@_W@__crt_stdio_output@@@2@@__crt_stdio_output@@QEAA@AEBV?$stream_output_adapter@_W@1@_KQEB_WAEAV__crt_cached_ptd_host@@QEAD@Z 000000018017a694 f i libucrt:output.obj
 0001:00179700       ??0?$output_processor@_WV?$stream_output_adapter@_W@__crt_stdio_output@@V?$positional_parameter_base@_WV?$stream_output_adapter@_W@__crt_stdio_output@@@2@@__crt_stdio_output@@QEAA@AEBV?$stream_output_adapter@_W@1@_KQEB_WAEAV__crt_cached_ptd_host@@QEAD@Z 000000018017a700 f i libucrt:output.obj
 0001:00179788       ??0?$output_processor@_WV?$stream_output_adapter@_W@__crt_stdio_output@@V?$standard_base@_WV?$stream_output_adapter@_W@__crt_stdio_output@@@2@@__crt_stdio_output@@QEAA@AEBV?$stream_output_adapter@_W@1@_KQEB_WAEAV__crt_cached_ptd_host@@QEAD@Z 000000018017a788 f i libucrt:output.obj
 0001:001797f4       ??0?$output_processor@_WV?$string_output_adapter@_W@__crt_stdio_output@@V?$format_validation_base@_WV?$string_output_adapter@_W@__crt_stdio_output@@@2@@__crt_stdio_output@@QEAA@AEBV?$string_output_adapter@_W@1@_KQEB_WAEAV__crt_cached_ptd_host@@QEAD@Z 000000018017a7f4 f i libucrt:output.obj
 0001:00179860       ??0?$output_processor@_WV?$string_output_adapter@_W@__crt_stdio_output@@V?$positional_parameter_base@_WV?$string_output_adapter@_W@__crt_stdio_output@@@2@@__crt_stdio_output@@QEAA@AEBV?$string_output_adapter@_W@1@_KQEB_WAEAV__crt_cached_ptd_host@@QEAD@Z 000000018017a860 f i libucrt:output.obj
 0001:001798e8       ??0?$output_processor@_WV?$string_output_adapter@_W@__crt_stdio_output@@V?$standard_base@_WV?$string_output_adapter@_W@__crt_stdio_output@@@2@@__crt_stdio_output@@QEAA@AEBV?$string_output_adapter@_W@1@_KQEB_WAEAV__crt_cached_ptd_host@@QEAD@Z 000000018017a8e8 f i libucrt:output.obj
 0001:00179954       ??0?$stream_output_adapter@D@__crt_stdio_output@@QEAA@QEAU_iobuf@@@Z 000000018017a954 f i libucrt:output.obj
 0001:0017995c       ??0?$stream_output_adapter@_W@__crt_stdio_output@@QEAA@QEAU_iobuf@@@Z 000000018017a95c f i libucrt:output.obj
 0001:00179964       ??0?$string_output_adapter@D@__crt_stdio_output@@QEAA@QEAU?$string_output_adapter_context@D@1@@Z 000000018017a964 f i libucrt:output.obj
 0001:0017996c       ??0?$string_output_adapter@_W@__crt_stdio_output@@QEAA@QEAU?$string_output_adapter_context@_W@1@@Z 000000018017a96c f i libucrt:output.obj
 0001:00179974       ??0__acrt_stdio_temporary_buffering_guard@@QEAA@QEAU_iobuf@@AEAV__crt_cached_ptd_host@@@Z 000000018017a974 f i libucrt:output.obj
 0001:001799a0       ??0__crt_cached_ptd_host@@QEAA@QEAU__crt_locale_pointers@@@Z 000000018017a9a0 f i libucrt:output.obj
 0001:001799e8       ??0__crt_scoped_get_last_error_reset@@QEAA@XZ 000000018017a9e8 f i libucrt:output.obj
 0001:00179a04       ??0__crt_stdio_stream@@QEAA@QEAU_iobuf@@@Z 000000018017aa04 f i libucrt:output.obj
 0001:00179a0c       ??0formatting_buffer@__crt_stdio_output@@QEAA@XZ 000000018017aa0c f i libucrt:output.obj
 0001:00179a20       ??0guard@?$cached@H@__crt_cached_ptd_host@@QEAA@AEAU12@@Z 000000018017aa20 f i libucrt:output.obj
 0001:00179a34       ??1?$c_string_character_source@D@__crt_strtox@@QEAA@XZ 000000018017aa34 f i libucrt:output.obj
 0001:00179a44       ??1?$c_string_character_source@_W@__crt_strtox@@QEAA@XZ 000000018017aa44 f i libucrt:output.obj
 0001:00179a54       ??1?$common_data@D@__crt_stdio_output@@QEAA@XZ 000000018017aa54 f i libucrt:output.obj
 0001:00179a78       ??1?$common_data@_W@__crt_stdio_output@@QEAA@XZ 000000018017aa78 f i libucrt:output.obj
 0001:00179a9c       ??1?$format_validation_base@DV?$stream_output_adapter@D@__crt_stdio_output@@@__crt_stdio_output@@QEAA@XZ 000000018017aa9c f i libucrt:output.obj
 0001:00179ac0       ??1?$format_validation_base@DV?$string_output_adapter@D@__crt_stdio_output@@@__crt_stdio_output@@QEAA@XZ 000000018017aac0 f i libucrt:output.obj
 0001:00179ae4       ??1?$format_validation_base@_WV?$stream_output_adapter@_W@__crt_stdio_output@@@__crt_stdio_output@@QEAA@XZ 000000018017aae4 f i libucrt:output.obj
 0001:00179b08       ??1?$format_validation_base@_WV?$string_output_adapter@_W@__crt_stdio_output@@@__crt_stdio_output@@QEAA@XZ 000000018017ab08 f i libucrt:output.obj
 0001:00179b2c       ??1?$output_adapter_data@DV?$stream_output_adapter@D@__crt_stdio_output@@@__crt_stdio_output@@QEAA@XZ 000000018017ab2c f i libucrt:output.obj
 0001:00179b50       ??1?$output_adapter_data@DV?$string_output_adapter@D@__crt_stdio_output@@@__crt_stdio_output@@QEAA@XZ 000000018017ab50 f i libucrt:output.obj
 0001:00179b74       ??1?$output_adapter_data@_WV?$stream_output_adapter@_W@__crt_stdio_output@@@__crt_stdio_output@@QEAA@XZ 000000018017ab74 f i libucrt:output.obj
 0001:00179b98       ??1?$output_adapter_data@_WV?$string_output_adapter@_W@__crt_stdio_output@@@__crt_stdio_output@@QEAA@XZ 000000018017ab98 f i libucrt:output.obj
 0001:00179bbc       ??1?$output_processor@DV?$stream_output_adapter@D@__crt_stdio_output@@V?$format_validation_base@DV?$stream_output_adapter@D@__crt_stdio_output@@@2@@__crt_stdio_output@@QEAA@XZ 000000018017abbc f i libucrt:output.obj
 0001:00179be0       ??1?$output_processor@DV?$stream_output_adapter@D@__crt_stdio_output@@V?$positional_parameter_base@DV?$stream_output_adapter@D@__crt_stdio_output@@@2@@__crt_stdio_output@@QEAA@XZ 000000018017abe0 f i libucrt:output.obj
 0001:00179c04       ??1?$output_processor@DV?$stream_output_adapter@D@__crt_stdio_output@@V?$standard_base@DV?$stream_output_adapter@D@__crt_stdio_output@@@2@@__crt_stdio_output@@QEAA@XZ 000000018017ac04 f i libucrt:output.obj
 0001:00179c28       ??1?$output_processor@DV?$string_output_adapter@D@__crt_stdio_output@@V?$format_validation_base@DV?$string_output_adapter@D@__crt_stdio_output@@@2@@__crt_stdio_output@@QEAA@XZ 000000018017ac28 f i libucrt:output.obj
 0001:00179c4c       ??1?$output_processor@DV?$string_output_adapter@D@__crt_stdio_output@@V?$positional_parameter_base@DV?$string_output_adapter@D@__crt_stdio_output@@@2@@__crt_stdio_output@@QEAA@XZ 000000018017ac4c f i libucrt:output.obj
 0001:00179c70       ??1?$output_processor@DV?$string_output_adapter@D@__crt_stdio_output@@V?$standard_base@DV?$string_output_adapter@D@__crt_stdio_output@@@2@@__crt_stdio_output@@QEAA@XZ 000000018017ac70 f i libucrt:output.obj
 0001:00179c94       ??1?$output_processor@_WV?$stream_output_adapter@_W@__crt_stdio_output@@V?$format_validation_base@_WV?$stream_output_adapter@_W@__crt_stdio_output@@@2@@__crt_stdio_output@@QEAA@XZ 000000018017ac94 f i libucrt:output.obj
 0001:00179cb8       ??1?$output_processor@_WV?$stream_output_adapter@_W@__crt_stdio_output@@V?$positional_parameter_base@_WV?$stream_output_adapter@_W@__crt_stdio_output@@@2@@__crt_stdio_output@@QEAA@XZ 000000018017acb8 f i libucrt:output.obj
 0001:00179cdc       ??1?$output_processor@_WV?$stream_output_adapter@_W@__crt_stdio_output@@V?$standard_base@_WV?$stream_output_adapter@_W@__crt_stdio_output@@@2@@__crt_stdio_output@@QEAA@XZ 000000018017acdc f i libucrt:output.obj
 0001:00179d00       ??1?$output_processor@_WV?$string_output_adapter@_W@__crt_stdio_output@@V?$format_validation_base@_WV?$string_output_adapter@_W@__crt_stdio_output@@@2@@__crt_stdio_output@@QEAA@XZ 000000018017ad00 f i libucrt:output.obj
 0001:00179d24       ??1?$output_processor@_WV?$string_output_adapter@_W@__crt_stdio_output@@V?$positional_parameter_base@_WV?$string_output_adapter@_W@__crt_stdio_output@@@2@@__crt_stdio_output@@QEAA@XZ 000000018017ad24 f i libucrt:output.obj
 0001:00179d48       ??1?$output_processor@_WV?$string_output_adapter@_W@__crt_stdio_output@@V?$standard_base@_WV?$string_output_adapter@_W@__crt_stdio_output@@@2@@__crt_stdio_output@@QEAA@XZ 000000018017ad48 f i libucrt:output.obj
 0001:00179d6c       ??1?$positional_parameter_base@DV?$stream_output_adapter@D@__crt_stdio_output@@@__crt_stdio_output@@QEAA@XZ 000000018017ad6c f i libucrt:output.obj
 0001:00179d90       ??1?$positional_parameter_base@DV?$string_output_adapter@D@__crt_stdio_output@@@__crt_stdio_output@@QEAA@XZ 000000018017ad90 f i libucrt:output.obj
 0001:00179db4       ??1?$positional_parameter_base@_WV?$stream_output_adapter@_W@__crt_stdio_output@@@__crt_stdio_output@@QEAA@XZ 000000018017adb4 f i libucrt:output.obj
 0001:00179dd8       ??1?$positional_parameter_base@_WV?$string_output_adapter@_W@__crt_stdio_output@@@__crt_stdio_output@@QEAA@XZ 000000018017add8 f i libucrt:output.obj
 0001:00179dfc       ??1?$standard_base@DV?$stream_output_adapter@D@__crt_stdio_output@@@__crt_stdio_output@@QEAA@XZ 000000018017adfc f i libucrt:output.obj
 0001:00179e20       ??1?$standard_base@DV?$string_output_adapter@D@__crt_stdio_output@@@__crt_stdio_output@@QEAA@XZ 000000018017ae20 f i libucrt:output.obj
 0001:00179e44       ??1?$standard_base@_WV?$stream_output_adapter@_W@__crt_stdio_output@@@__crt_stdio_output@@QEAA@XZ 000000018017ae44 f i libucrt:output.obj
 0001:00179e68       ??1?$standard_base@_WV?$string_output_adapter@_W@__crt_stdio_output@@@__crt_stdio_output@@QEAA@XZ 000000018017ae68 f i libucrt:output.obj
 0001:00179e8c       ??1__acrt_stdio_temporary_buffering_guard@@QEAA@XZ 000000018017ae8c f i libucrt:output.obj
 0001:00179ea0       ??1__crt_cached_ptd_host@@QEAA@XZ 000000018017aea0 f i libucrt:output.obj
 0001:00179ef0       ??1__crt_scoped_get_last_error_reset@@QEAA@XZ 000000018017aef0 f i libucrt:output.obj
 0001:00179efc       ??1formatting_buffer@__crt_stdio_output@@QEAA@XZ 000000018017aefc f i libucrt:output.obj
 0001:00179f20       ??1guard@?$cached@H@__crt_cached_ptd_host@@QEAA@XZ 000000018017af20 f i libucrt:output.obj
 0001:00179f34       ??4?$__crt_unique_heap_ptr@DU__crt_internal_free_policy@@@@QEAAAEAV0@$$QEAV0@@Z 000000018017af34 f i libucrt:output.obj
 0001:00179f68       ??A?$spectre_mitigated_lookup_table@Ustate_transition_pair@__crt_stdio_output@@$0IA@@__crt_stdio_output@@QEBAAEBUstate_transition_pair@1@_K@Z 000000018017af68 f i libucrt:output.obj
 0001:00179f70       ??C__crt_stdio_stream@@QEBAPEAU__crt_stdio_stream_data@@XZ 000000018017af70 f i libucrt:output.obj
 0001:0017a6b8       ?adjust_hexit@?$output_processor@DV?$stream_output_adapter@D@__crt_stdio_output@@V?$format_validation_base@DV?$stream_output_adapter@D@__crt_stdio_output@@@2@@__crt_stdio_output@@CADH_N@Z 000000018017b6b8 f i libucrt:output.obj
 0001:0017a6c4       ?adjust_hexit@?$output_processor@DV?$stream_output_adapter@D@__crt_stdio_output@@V?$positional_parameter_base@DV?$stream_output_adapter@D@__crt_stdio_output@@@2@@__crt_stdio_output@@CADH_N@Z 000000018017b6c4 f i libucrt:output.obj
 0001:0017a6d0       ?adjust_hexit@?$output_processor@DV?$stream_output_adapter@D@__crt_stdio_output@@V?$standard_base@DV?$stream_output_adapter@D@__crt_stdio_output@@@2@@__crt_stdio_output@@CADH_N@Z 000000018017b6d0 f i libucrt:output.obj
 0001:0017a6dc       ?adjust_hexit@?$output_processor@DV?$string_output_adapter@D@__crt_stdio_output@@V?$format_validation_base@DV?$string_output_adapter@D@__crt_stdio_output@@@2@@__crt_stdio_output@@CADH_N@Z 000000018017b6dc f i libucrt:output.obj
 0001:0017a6e8       ?adjust_hexit@?$output_processor@DV?$string_output_adapter@D@__crt_stdio_output@@V?$positional_parameter_base@DV?$string_output_adapter@D@__crt_stdio_output@@@2@@__crt_stdio_output@@CADH_N@Z 000000018017b6e8 f i libucrt:output.obj
 0001:0017a6f4       ?adjust_hexit@?$output_processor@DV?$string_output_adapter@D@__crt_stdio_output@@V?$standard_base@DV?$string_output_adapter@D@__crt_stdio_output@@@2@@__crt_stdio_output@@CADH_N@Z 000000018017b6f4 f i libucrt:output.obj
 0001:0017a700       ?adjust_hexit@?$output_processor@_WV?$stream_output_adapter@_W@__crt_stdio_output@@V?$format_validation_base@_WV?$stream_output_adapter@_W@__crt_stdio_output@@@2@@__crt_stdio_output@@CADH_N@Z 000000018017b700 f i libucrt:output.obj
 0001:0017a70c       ?adjust_hexit@?$output_processor@_WV?$stream_output_adapter@_W@__crt_stdio_output@@V?$positional_parameter_base@_WV?$stream_output_adapter@_W@__crt_stdio_output@@@2@@__crt_stdio_output@@CADH_N@Z 000000018017b70c f i libucrt:output.obj
 0001:0017a718       ?adjust_hexit@?$output_processor@_WV?$stream_output_adapter@_W@__crt_stdio_output@@V?$standard_base@_WV?$stream_output_adapter@_W@__crt_stdio_output@@@2@@__crt_stdio_output@@CADH_N@Z 000000018017b718 f i libucrt:output.obj
 0001:0017a724       ?adjust_hexit@?$output_processor@_WV?$string_output_adapter@_W@__crt_stdio_output@@V?$format_validation_base@_WV?$string_output_adapter@_W@__crt_stdio_output@@@2@@__crt_stdio_output@@CADH_N@Z 000000018017b724 f i libucrt:output.obj
 0001:0017a730       ?adjust_hexit@?$output_processor@_WV?$string_output_adapter@_W@__crt_stdio_output@@V?$positional_parameter_base@_WV?$string_output_adapter@_W@__crt_stdio_output@@@2@@__crt_stdio_output@@CADH_N@Z 000000018017b730 f i libucrt:output.obj
 0001:0017a73c       ?adjust_hexit@?$output_processor@_WV?$string_output_adapter@_W@__crt_stdio_output@@V?$standard_base@_WV?$string_output_adapter@_W@__crt_stdio_output@@@2@@__crt_stdio_output@@CADH_N@Z 000000018017b73c f i libucrt:output.obj
 0001:0017a748       ?advance_to_next_pass@?$positional_parameter_base@DV?$stream_output_adapter@D@__crt_stdio_output@@@__crt_stdio_output@@IEAA_NXZ 000000018017b748 f i libucrt:output.obj
 0001:0017a798       ?advance_to_next_pass@?$positional_parameter_base@DV?$string_output_adapter@D@__crt_stdio_output@@@__crt_stdio_output@@IEAA_NXZ 000000018017b798 f i libucrt:output.obj
 0001:0017a7e8       ?advance_to_next_pass@?$positional_parameter_base@_WV?$stream_output_adapter@_W@__crt_stdio_output@@@__crt_stdio_output@@IEAA_NXZ 000000018017b7e8 f i libucrt:output.obj
 0001:0017a838       ?advance_to_next_pass@?$positional_parameter_base@_WV?$string_output_adapter@_W@__crt_stdio_output@@@__crt_stdio_output@@IEAA_NXZ 000000018017b838 f i libucrt:output.obj
 0001:0017a888       ?advance_to_next_pass@?$standard_base@DV?$stream_output_adapter@D@__crt_stdio_output@@@__crt_stdio_output@@IEAA_NXZ 000000018017b888 f i libucrt:output.obj
 0001:0017a89c       ?advance_to_next_pass@?$standard_base@DV?$string_output_adapter@D@__crt_stdio_output@@@__crt_stdio_output@@IEAA_NXZ 000000018017b89c f i libucrt:output.obj
 0001:0017a8b0       ?advance_to_next_pass@?$standard_base@_WV?$stream_output_adapter@_W@__crt_stdio_output@@@__crt_stdio_output@@IEAA_NXZ 000000018017b8b0 f i libucrt:output.obj
 0001:0017a8c4       ?advance_to_next_pass@?$standard_base@_WV?$string_output_adapter@_W@__crt_stdio_output@@@__crt_stdio_output@@IEAA_NXZ 000000018017b8c4 f i libucrt:output.obj
 0001:0017a8d8       ?check@?$cached@H@__crt_cached_ptd_host@@QEBA_NH@Z 000000018017b8d8 f i libucrt:output.obj
 0001:0017a8f0       ?check_synchronize_global_state_index@__crt_cached_ptd_host@@AEAA_KAEBV__crt_scoped_get_last_error_reset@@@Z 000000018017b8f0 f i libucrt:output.obj
 0001:0017a910       ?check_synchronize_per_thread_data@__crt_cached_ptd_host@@AEAAPEAU__acrt_ptd@@XZ 000000018017b910 f i libucrt:output.obj
 0001:0017a978       ?create_guard@?$cached@H@__crt_cached_ptd_host@@QEAA?AVguard@12@XZ 000000018017b978 f i libucrt:output.obj
 0001:0017a98c       ?crop_zeroes@__crt_stdio_output@@YAXPEADQEAU__crt_locale_pointers@@@Z 000000018017b98c f i libucrt:output.obj
 0001:0017a9f8       ?disable@guard@?$cached@H@__crt_cached_ptd_host@@QEAAXXZ 000000018017b9f8 f i libucrt:output.obj
 0001:0017aa00       ?enable@guard@?$cached@H@__crt_cached_ptd_host@@QEAAXXZ 000000018017ba00 f i libucrt:output.obj
 0001:0017aa08       ?find_next_state@?$output_processor@DV?$stream_output_adapter@D@__crt_stdio_output@@V?$format_validation_base@DV?$stream_output_adapter@D@__crt_stdio_output@@@2@@__crt_stdio_output@@AEBA?AW4state@2@DW432@@Z 000000018017ba08 f i libucrt:output.obj
 0001:0017aa40       ?find_next_state@?$output_processor@DV?$stream_output_adapter@D@__crt_stdio_output@@V?$positional_parameter_base@DV?$stream_output_adapter@D@__crt_stdio_output@@@2@@__crt_stdio_output@@AEBA?AW4state@2@DW432@@Z 000000018017ba40 f i libucrt:output.obj
 0001:0017aa78       ?find_next_state@?$output_processor@DV?$stream_output_adapter@D@__crt_stdio_output@@V?$standard_base@DV?$stream_output_adapter@D@__crt_stdio_output@@@2@@__crt_stdio_output@@AEBA?AW4state@2@DW432@@Z 000000018017ba78 f i libucrt:output.obj
 0001:0017aaac       ?find_next_state@?$output_processor@DV?$string_output_adapter@D@__crt_stdio_output@@V?$format_validation_base@DV?$string_output_adapter@D@__crt_stdio_output@@@2@@__crt_stdio_output@@AEBA?AW4state@2@DW432@@Z 000000018017baac f i libucrt:output.obj
 0001:0017aae4       ?find_next_state@?$output_processor@DV?$string_output_adapter@D@__crt_stdio_output@@V?$positional_parameter_base@DV?$string_output_adapter@D@__crt_stdio_output@@@2@@__crt_stdio_output@@AEBA?AW4state@2@DW432@@Z 000000018017bae4 f i libucrt:output.obj
 0001:0017ab1c       ?find_next_state@?$output_processor@DV?$string_output_adapter@D@__crt_stdio_output@@V?$standard_base@DV?$string_output_adapter@D@__crt_stdio_output@@@2@@__crt_stdio_output@@AEBA?AW4state@2@DW432@@Z 000000018017bb1c f i libucrt:output.obj
 0001:0017ab50       ?find_next_state@?$output_processor@_WV?$stream_output_adapter@_W@__crt_stdio_output@@V?$format_validation_base@_WV?$stream_output_adapter@_W@__crt_stdio_output@@@2@@__crt_stdio_output@@AEBA?AW4state@2@_WW432@@Z 000000018017bb50 f i libucrt:output.obj
 0001:0017ab90       ?find_next_state@?$output_processor@_WV?$stream_output_adapter@_W@__crt_stdio_output@@V?$positional_parameter_base@_WV?$stream_output_adapter@_W@__crt_stdio_output@@@2@@__crt_stdio_output@@AEBA?AW4state@2@_WW432@@Z 000000018017bb90 f i libucrt:output.obj
 0001:0017abd0       ?find_next_state@?$output_processor@_WV?$stream_output_adapter@_W@__crt_stdio_output@@V?$standard_base@_WV?$stream_output_adapter@_W@__crt_stdio_output@@@2@@__crt_stdio_output@@AEBA?AW4state@2@_WW432@@Z 000000018017bbd0 f i libucrt:output.obj
 0001:0017ac0c       ?find_next_state@?$output_processor@_WV?$string_output_adapter@_W@__crt_stdio_output@@V?$format_validation_base@_WV?$string_output_adapter@_W@__crt_stdio_output@@@2@@__crt_stdio_output@@AEBA?AW4state@2@_WW432@@Z 000000018017bc0c f i libucrt:output.obj
 0001:0017ac4c       ?find_next_state@?$output_processor@_WV?$string_output_adapter@_W@__crt_stdio_output@@V?$positional_parameter_base@_WV?$string_output_adapter@_W@__crt_stdio_output@@@2@@__crt_stdio_output@@AEBA?AW4state@2@_WW432@@Z 000000018017bc4c f i libucrt:output.obj
 0001:0017ac8c       ?find_next_state@?$output_processor@_WV?$string_output_adapter@_W@__crt_stdio_output@@V?$standard_base@_WV?$string_output_adapter@_W@__crt_stdio_output@@@2@@__crt_stdio_output@@AEBA?AW4state@2@_WW432@@Z 000000018017bc8c f i libucrt:output.obj
 0001:0017acc8       ?force_decimal_point@__crt_stdio_output@@YAXPEADQEAU__crt_locale_pointers@@@Z 000000018017bcc8 f i libucrt:output.obj
 0001:0017ad30       ?force_synchronize_global_state_index@__crt_cached_ptd_host@@AEAA_KAEBV__crt_scoped_get_last_error_reset@@@Z 000000018017bd30 f i libucrt:output.obj
 0001:0017ad40       ?force_synchronize_per_thread_data@__crt_cached_ptd_host@@AEAAPEAU__acrt_ptd@@XZ 000000018017bd40 f i libucrt:output.obj
 0001:0017ad98       ?get@?$c_string_character_source@D@__crt_strtox@@QEAADXZ 000000018017bd98 f i libucrt:output.obj
 0001:0017ada4       ?get@?$c_string_character_source@_W@__crt_strtox@@QEAA_WXZ 000000018017bda4 f i libucrt:output.obj
 0001:0017adb4       ?get_current_state_index@__crt_state_management@@YA_KAEBV__crt_scoped_get_last_error_reset@@@Z 000000018017bdb4 f i libucrt:output.obj
 0001:0017adc0       ?get_errno@__crt_cached_ptd_host@@QEAAAEAU?$cached@H@1@XZ 000000018017bdc0 f i libucrt:output.obj
 0001:0017adc8       ?get_flags@__crt_stdio_stream@@QEBAJXZ 000000018017bdc8 f i libucrt:output.obj
 0001:0017add0       ?get_locale@__crt_cached_ptd_host@@QEAAPEAU__crt_locale_pointers@@XZ 000000018017bdd0 f i libucrt:output.obj
 0001:0017adf8       ?get_parameter_type@?$positional_parameter_base@DV?$stream_output_adapter@D@__crt_stdio_output@@@__crt_stdio_output@@CA?AW4parameter_type@12@F@Z 000000018017bdf8 f i libucrt:output.obj
 0001:0017ae00       ?get_parameter_type@?$positional_parameter_base@DV?$stream_output_adapter@D@__crt_stdio_output@@@__crt_stdio_output@@CA?AW4parameter_type@12@G@Z 000000018017be00 f i libucrt:output.obj
 0001:0017ae08       ?get_parameter_type@?$positional_parameter_base@DV?$stream_output_adapter@D@__crt_stdio_output@@@__crt_stdio_output@@CA?AW4parameter_type@12@H@Z 000000018017be08 f i libucrt:output.obj
 0001:0017ae10       ?get_parameter_type@?$positional_parameter_base@DV?$stream_output_adapter@D@__crt_stdio_output@@@__crt_stdio_output@@CA?AW4parameter_type@12@I@Z 000000018017be10 f i libucrt:output.obj
 0001:0017ae18       ?get_parameter_type@?$positional_parameter_base@DV?$stream_output_adapter@D@__crt_stdio_output@@@__crt_stdio_output@@CA?AW4parameter_type@12@U_CRT_DOUBLE@@@Z 000000018017be18 f i libucrt:output.obj
 0001:0017ae20       ?get_parameter_type@?$positional_parameter_base@DV?$stream_output_adapter@D@__crt_stdio_output@@@__crt_stdio_output@@CA?AW4parameter_type@12@_J@Z 000000018017be20 f i libucrt:output.obj
 0001:0017ae28       ?get_parameter_type@?$positional_parameter_base@DV?$stream_output_adapter@D@__crt_stdio_output@@@__crt_stdio_output@@CA?AW4parameter_type@12@_K@Z 000000018017be28 f i libucrt:output.obj
 0001:0017ae30       ?get_parameter_type@?$positional_parameter_base@DV?$stream_output_adapter@D@__crt_stdio_output@@@__crt_stdio_output@@CA?AW4parameter_type@12@_W@Z 000000018017be30 f i libucrt:output.obj
 0001:0017ae38       ?get_parameter_type@?$positional_parameter_base@DV?$string_output_adapter@D@__crt_stdio_output@@@__crt_stdio_output@@CA?AW4parameter_type@12@F@Z 000000018017be38 f i libucrt:output.obj
 0001:0017ae40       ?get_parameter_type@?$positional_parameter_base@DV?$string_output_adapter@D@__crt_stdio_output@@@__crt_stdio_output@@CA?AW4parameter_type@12@G@Z 000000018017be40 f i libucrt:output.obj
 0001:0017ae48       ?get_parameter_type@?$positional_parameter_base@DV?$string_output_adapter@D@__crt_stdio_output@@@__crt_stdio_output@@CA?AW4parameter_type@12@H@Z 000000018017be48 f i libucrt:output.obj
 0001:0017ae50       ?get_parameter_type@?$positional_parameter_base@DV?$string_output_adapter@D@__crt_stdio_output@@@__crt_stdio_output@@CA?AW4parameter_type@12@I@Z 000000018017be50 f i libucrt:output.obj
 0001:0017ae58       ?get_parameter_type@?$positional_parameter_base@DV?$string_output_adapter@D@__crt_stdio_output@@@__crt_stdio_output@@CA?AW4parameter_type@12@U_CRT_DOUBLE@@@Z 000000018017be58 f i libucrt:output.obj
 0001:0017ae60       ?get_parameter_type@?$positional_parameter_base@DV?$string_output_adapter@D@__crt_stdio_output@@@__crt_stdio_output@@CA?AW4parameter_type@12@_J@Z 000000018017be60 f i libucrt:output.obj
 0001:0017ae68       ?get_parameter_type@?$positional_parameter_base@DV?$string_output_adapter@D@__crt_stdio_output@@@__crt_stdio_output@@CA?AW4parameter_type@12@_K@Z 000000018017be68 f i libucrt:output.obj
 0001:0017ae70       ?get_parameter_type@?$positional_parameter_base@DV?$string_output_adapter@D@__crt_stdio_output@@@__crt_stdio_output@@CA?AW4parameter_type@12@_W@Z 000000018017be70 f i libucrt:output.obj
 0001:0017ae78       ?get_parameter_type@?$positional_parameter_base@_WV?$stream_output_adapter@_W@__crt_stdio_output@@@__crt_stdio_output@@CA?AW4parameter_type@12@F@Z 000000018017be78 f i libucrt:output.obj
 0001:0017ae80       ?get_parameter_type@?$positional_parameter_base@_WV?$stream_output_adapter@_W@__crt_stdio_output@@@__crt_stdio_output@@CA?AW4parameter_type@12@G@Z 000000018017be80 f i libucrt:output.obj
 0001:0017ae88       ?get_parameter_type@?$positional_parameter_base@_WV?$stream_output_adapter@_W@__crt_stdio_output@@@__crt_stdio_output@@CA?AW4parameter_type@12@H@Z 000000018017be88 f i libucrt:output.obj
 0001:0017ae90       ?get_parameter_type@?$positional_parameter_base@_WV?$stream_output_adapter@_W@__crt_stdio_output@@@__crt_stdio_output@@CA?AW4parameter_type@12@I@Z 000000018017be90 f i libucrt:output.obj
 0001:0017ae98       ?get_parameter_type@?$positional_parameter_base@_WV?$stream_output_adapter@_W@__crt_stdio_output@@@__crt_stdio_output@@CA?AW4parameter_type@12@U_CRT_DOUBLE@@@Z 000000018017be98 f i libucrt:output.obj
 0001:0017aea0       ?get_parameter_type@?$positional_parameter_base@_WV?$stream_output_adapter@_W@__crt_stdio_output@@@__crt_stdio_output@@CA?AW4parameter_type@12@_J@Z 000000018017bea0 f i libucrt:output.obj
 0001:0017aea8       ?get_parameter_type@?$positional_parameter_base@_WV?$stream_output_adapter@_W@__crt_stdio_output@@@__crt_stdio_output@@CA?AW4parameter_type@12@_K@Z 000000018017bea8 f i libucrt:output.obj
 0001:0017aeb0       ?get_parameter_type@?$positional_parameter_base@_WV?$stream_output_adapter@_W@__crt_stdio_output@@@__crt_stdio_output@@CA?AW4parameter_type@12@_W@Z 000000018017beb0 f i libucrt:output.obj
 0001:0017aeb8       ?get_parameter_type@?$positional_parameter_base@_WV?$string_output_adapter@_W@__crt_stdio_output@@@__crt_stdio_output@@CA?AW4parameter_type@12@F@Z 000000018017beb8 f i libucrt:output.obj
 0001:0017aec0       ?get_parameter_type@?$positional_parameter_base@_WV?$string_output_adapter@_W@__crt_stdio_output@@@__crt_stdio_output@@CA?AW4parameter_type@12@G@Z 000000018017bec0 f i libucrt:output.obj
 0001:0017aec8       ?get_parameter_type@?$positional_parameter_base@_WV?$string_output_adapter@_W@__crt_stdio_output@@@__crt_stdio_output@@CA?AW4parameter_type@12@H@Z 000000018017bec8 f i libucrt:output.obj
 0001:0017aed0       ?get_parameter_type@?$positional_parameter_base@_WV?$string_output_adapter@_W@__crt_stdio_output@@@__crt_stdio_output@@CA?AW4parameter_type@12@I@Z 000000018017bed0 f i libucrt:output.obj
 0001:0017aed8       ?get_parameter_type@?$positional_parameter_base@_WV?$string_output_adapter@_W@__crt_stdio_output@@@__crt_stdio_output@@CA?AW4parameter_type@12@U_CRT_DOUBLE@@@Z 000000018017bed8 f i libucrt:output.obj
 0001:0017aee0       ?get_parameter_type@?$positional_parameter_base@_WV?$string_output_adapter@_W@__crt_stdio_output@@@__crt_stdio_output@@CA?AW4parameter_type@12@_J@Z 000000018017bee0 f i libucrt:output.obj
 0001:0017aee8       ?get_parameter_type@?$positional_parameter_base@_WV?$string_output_adapter@_W@__crt_stdio_output@@@__crt_stdio_output@@CA?AW4parameter_type@12@_K@Z 000000018017bee8 f i libucrt:output.obj
 0001:0017aef0       ?get_parameter_type@?$positional_parameter_base@_WV?$string_output_adapter@_W@__crt_stdio_output@@@__crt_stdio_output@@CA?AW4parameter_type@12@_W@Z 000000018017bef0 f i libucrt:output.obj
 0001:0017af00       ?get_raw_ptd@__crt_cached_ptd_host@@QEAAPEAU__acrt_ptd@@XZ 000000018017bf00 f i libucrt:output.obj
 0001:0017af68       ?has_flag@?$output_processor@DV?$stream_output_adapter@D@__crt_stdio_output@@V?$format_validation_base@DV?$stream_output_adapter@D@__crt_stdio_output@@@2@@__crt_stdio_output@@AEBA_NI@Z 000000018017bf68 f i libucrt:output.obj
 0001:0017af70       ?has_flag@?$output_processor@DV?$stream_output_adapter@D@__crt_stdio_output@@V?$positional_parameter_base@DV?$stream_output_adapter@D@__crt_stdio_output@@@2@@__crt_stdio_output@@AEBA_NI@Z 000000018017bf70 f i libucrt:output.obj
 0001:0017af78       ?has_flag@?$output_processor@DV?$stream_output_adapter@D@__crt_stdio_output@@V?$standard_base@DV?$stream_output_adapter@D@__crt_stdio_output@@@2@@__crt_stdio_output@@AEBA_NI@Z 000000018017bf78 f i libucrt:output.obj
 0001:0017af80       ?has_flag@?$output_processor@DV?$string_output_adapter@D@__crt_stdio_output@@V?$format_validation_base@DV?$string_output_adapter@D@__crt_stdio_output@@@2@@__crt_stdio_output@@AEBA_NI@Z 000000018017bf80 f i libucrt:output.obj
 0001:0017af88       ?has_flag@?$output_processor@DV?$string_output_adapter@D@__crt_stdio_output@@V?$positional_parameter_base@DV?$string_output_adapter@D@__crt_stdio_output@@@2@@__crt_stdio_output@@AEBA_NI@Z 000000018017bf88 f i libucrt:output.obj
 0001:0017af90       ?has_flag@?$output_processor@DV?$string_output_adapter@D@__crt_stdio_output@@V?$standard_base@DV?$string_output_adapter@D@__crt_stdio_output@@@2@@__crt_stdio_output@@AEBA_NI@Z 000000018017bf90 f i libucrt:output.obj
 0001:0017af98       ?has_flag@?$output_processor@_WV?$stream_output_adapter@_W@__crt_stdio_output@@V?$format_validation_base@_WV?$stream_output_adapter@_W@__crt_stdio_output@@@2@@__crt_stdio_output@@AEBA_NI@Z 000000018017bf98 f i libucrt:output.obj
 0001:0017afa0       ?has_flag@?$output_processor@_WV?$stream_output_adapter@_W@__crt_stdio_output@@V?$positional_parameter_base@_WV?$stream_output_adapter@_W@__crt_stdio_output@@@2@@__crt_stdio_output@@AEBA_NI@Z 000000018017bfa0 f i libucrt:output.obj
 0001:0017afa8       ?has_flag@?$output_processor@_WV?$stream_output_adapter@_W@__crt_stdio_output@@V?$standard_base@_WV?$stream_output_adapter@_W@__crt_stdio_output@@@2@@__crt_stdio_output@@AEBA_NI@Z 000000018017bfa8 f i libucrt:output.obj
 0001:0017afb0       ?has_flag@?$output_processor@_WV?$string_output_adapter@_W@__crt_stdio_output@@V?$format_validation_base@_WV?$string_output_adapter@_W@__crt_stdio_output@@@2@@__crt_stdio_output@@AEBA_NI@Z 000000018017bfb0 f i libucrt:output.obj
 0001:0017afb8       ?has_flag@?$output_processor@_WV?$string_output_adapter@_W@__crt_stdio_output@@V?$positional_parameter_base@_WV?$string_output_adapter@_W@__crt_stdio_output@@@2@@__crt_stdio_output@@AEBA_NI@Z 000000018017bfb8 f i libucrt:output.obj
 0001:0017afc0       ?has_flag@?$output_processor@_WV?$string_output_adapter@_W@__crt_stdio_output@@V?$standard_base@_WV?$string_output_adapter@_W@__crt_stdio_output@@@2@@__crt_stdio_output@@AEBA_NI@Z 000000018017bfc0 f i libucrt:output.obj
 0001:0017afc8       ?is_positional_parameter_reappearance_consistent@?$positional_parameter_base@DV?$stream_output_adapter@D@__crt_stdio_output@@@__crt_stdio_output@@AEAA_NAEBUparameter_data@12@W4parameter_type@12@DW4length_modifier@2@@Z 000000018017bfc8 f i libucrt:output.obj
 0001:0017b1fc       ?is_positional_parameter_reappearance_consistent@?$positional_parameter_base@DV?$string_output_adapter@D@__crt_stdio_output@@@__crt_stdio_output@@AEAA_NAEBUparameter_data@12@W4parameter_type@12@DW4length_modifier@2@@Z 000000018017c1fc f i libucrt:output.obj
 0001:0017b430       ?is_positional_parameter_reappearance_consistent@?$positional_parameter_base@_WV?$stream_output_adapter@_W@__crt_stdio_output@@@__crt_stdio_output@@AEAA_NAEBUparameter_data@12@W4parameter_type@12@_WW4length_modifier@2@@Z 000000018017c430 f i libucrt:output.obj
 0001:0017b634       ?is_positional_parameter_reappearance_consistent@?$positional_parameter_base@_WV?$string_output_adapter@_W@__crt_stdio_output@@@__crt_stdio_output@@AEAA_NAEBUparameter_data@12@W4parameter_type@12@_WW4length_modifier@2@@Z 000000018017c634 f i libucrt:output.obj
 0001:0017b838       ?is_string_backed@__crt_stdio_stream@@QEBA_NXZ 000000018017c838 f i libucrt:output.obj
 0001:0017b844       ?maximum_signed_value@__crt_strtox@@YAJK@Z 000000018017c844 f i libucrt:output.obj
 0001:0017b84c       ?minimum_signed_value@__crt_strtox@@YAJK@Z 000000018017c84c f i libucrt:output.obj
 0001:0017b854       ?narrow_null_string@?$output_processor@DV?$stream_output_adapter@D@__crt_stdio_output@@V?$format_validation_base@DV?$stream_output_adapter@D@__crt_stdio_output@@@2@@__crt_stdio_output@@CAPEADXZ 000000018017c854 f i libucrt:output.obj
 0001:0017b85c       ?narrow_null_string@?$output_processor@DV?$stream_output_adapter@D@__crt_stdio_output@@V?$positional_parameter_base@DV?$stream_output_adapter@D@__crt_stdio_output@@@2@@__crt_stdio_output@@CAPEADXZ 000000018017c85c f i libucrt:output.obj
 0001:0017b864       ?narrow_null_string@?$output_processor@DV?$stream_output_adapter@D@__crt_stdio_output@@V?$standard_base@DV?$stream_output_adapter@D@__crt_stdio_output@@@2@@__crt_stdio_output@@CAPEADXZ 000000018017c864 f i libucrt:output.obj
 0001:0017b86c       ?narrow_null_string@?$output_processor@DV?$string_output_adapter@D@__crt_stdio_output@@V?$format_validation_base@DV?$string_output_adapter@D@__crt_stdio_output@@@2@@__crt_stdio_output@@CAPEADXZ 000000018017c86c f i libucrt:output.obj
 0001:0017b874       ?narrow_null_string@?$output_processor@DV?$string_output_adapter@D@__crt_stdio_output@@V?$positional_parameter_base@DV?$string_output_adapter@D@__crt_stdio_output@@@2@@__crt_stdio_output@@CAPEADXZ 000000018017c874 f i libucrt:output.obj
 0001:0017b87c       ?narrow_null_string@?$output_processor@DV?$string_output_adapter@D@__crt_stdio_output@@V?$standard_base@DV?$string_output_adapter@D@__crt_stdio_output@@@2@@__crt_stdio_output@@CAPEADXZ 000000018017c87c f i libucrt:output.obj
 0001:0017b884       ?narrow_null_string@?$output_processor@_WV?$stream_output_adapter@_W@__crt_stdio_output@@V?$format_validation_base@_WV?$stream_output_adapter@_W@__crt_stdio_output@@@2@@__crt_stdio_output@@CAPEADXZ 000000018017c884 f i libucrt:output.obj
 0001:0017b88c       ?narrow_null_string@?$output_processor@_WV?$stream_output_adapter@_W@__crt_stdio_output@@V?$positional_parameter_base@_WV?$stream_output_adapter@_W@__crt_stdio_output@@@2@@__crt_stdio_output@@CAPEADXZ 000000018017c88c f i libucrt:output.obj
 0001:0017b894       ?narrow_null_string@?$output_processor@_WV?$stream_output_adapter@_W@__crt_stdio_output@@V?$standard_base@_WV?$stream_output_adapter@_W@__crt_stdio_output@@@2@@__crt_stdio_output@@CAPEADXZ 000000018017c894 f i libucrt:output.obj
 0001:0017b89c       ?narrow_null_string@?$output_processor@_WV?$string_output_adapter@_W@__crt_stdio_output@@V?$format_validation_base@_WV?$string_output_adapter@_W@__crt_stdio_output@@@2@@__crt_stdio_output@@CAPEADXZ 000000018017c89c f i libucrt:output.obj
 0001:0017b8a4       ?narrow_null_string@?$output_processor@_WV?$string_output_adapter@_W@__crt_stdio_output@@V?$positional_parameter_base@_WV?$string_output_adapter@_W@__crt_stdio_output@@@2@@__crt_stdio_output@@CAPEADXZ 000000018017c8a4 f i libucrt:output.obj
 0001:0017b8ac       ?narrow_null_string@?$output_processor@_WV?$string_output_adapter@_W@__crt_stdio_output@@V?$standard_base@_WV?$string_output_adapter@_W@__crt_stdio_output@@@2@@__crt_stdio_output@@CAPEADXZ 000000018017c8ac f i libucrt:output.obj
 0001:0017b8b4       ?parse_digit@__crt_strtox@@YAID@Z 000000018017c8b4 f i libucrt:output.obj
 0001:0017b8e4       ?parse_digit@__crt_strtox@@YAI_W@Z 000000018017c8e4 f i libucrt:output.obj
 0001:0017baa0       ?parse_int_from_format_string@?$output_processor@DV?$stream_output_adapter@D@__crt_stdio_output@@V?$format_validation_base@DV?$stream_output_adapter@D@__crt_stdio_output@@@2@@__crt_stdio_output@@AEAA_NQEAH@Z 000000018017caa0 f i libucrt:output.obj
 0001:0017bb30       ?parse_int_from_format_string@?$output_processor@DV?$stream_output_adapter@D@__crt_stdio_output@@V?$positional_parameter_base@DV?$stream_output_adapter@D@__crt_stdio_output@@@2@@__crt_stdio_output@@AEAA_NQEAH@Z 000000018017cb30 f i libucrt:output.obj
 0001:0017bbc0       ?parse_int_from_format_string@?$output_processor@DV?$stream_output_adapter@D@__crt_stdio_output@@V?$standard_base@DV?$stream_output_adapter@D@__crt_stdio_output@@@2@@__crt_stdio_output@@AEAA_NQEAH@Z 000000018017cbc0 f i libucrt:output.obj
 0001:0017bc50       ?parse_int_from_format_string@?$output_processor@DV?$string_output_adapter@D@__crt_stdio_output@@V?$format_validation_base@DV?$string_output_adapter@D@__crt_stdio_output@@@2@@__crt_stdio_output@@AEAA_NQEAH@Z 000000018017cc50 f i libucrt:output.obj
 0001:0017bce0       ?parse_int_from_format_string@?$output_processor@DV?$string_output_adapter@D@__crt_stdio_output@@V?$positional_parameter_base@DV?$string_output_adapter@D@__crt_stdio_output@@@2@@__crt_stdio_output@@AEAA_NQEAH@Z 000000018017cce0 f i libucrt:output.obj
 0001:0017bd70       ?parse_int_from_format_string@?$output_processor@DV?$string_output_adapter@D@__crt_stdio_output@@V?$standard_base@DV?$string_output_adapter@D@__crt_stdio_output@@@2@@__crt_stdio_output@@AEAA_NQEAH@Z 000000018017cd70 f i libucrt:output.obj
 0001:0017be00       ?parse_int_from_format_string@?$output_processor@_WV?$stream_output_adapter@_W@__crt_stdio_output@@V?$format_validation_base@_WV?$stream_output_adapter@_W@__crt_stdio_output@@@2@@__crt_stdio_output@@AEAA_NQEAH@Z 000000018017ce00 f i libucrt:output.obj
 0001:0017be90       ?parse_int_from_format_string@?$output_processor@_WV?$stream_output_adapter@_W@__crt_stdio_output@@V?$positional_parameter_base@_WV?$stream_output_adapter@_W@__crt_stdio_output@@@2@@__crt_stdio_output@@AEAA_NQEAH@Z 000000018017ce90 f i libucrt:output.obj
 0001:0017bf20       ?parse_int_from_format_string@?$output_processor@_WV?$stream_output_adapter@_W@__crt_stdio_output@@V?$standard_base@_WV?$stream_output_adapter@_W@__crt_stdio_output@@@2@@__crt_stdio_output@@AEAA_NQEAH@Z 000000018017cf20 f i libucrt:output.obj
 0001:0017bfb0       ?parse_int_from_format_string@?$output_processor@_WV?$string_output_adapter@_W@__crt_stdio_output@@V?$format_validation_base@_WV?$string_output_adapter@_W@__crt_stdio_output@@@2@@__crt_stdio_output@@AEAA_NQEAH@Z 000000018017cfb0 f i libucrt:output.obj
 0001:0017c040       ?parse_int_from_format_string@?$output_processor@_WV?$string_output_adapter@_W@__crt_stdio_output@@V?$positional_parameter_base@_WV?$string_output_adapter@_W@__crt_stdio_output@@@2@@__crt_stdio_output@@AEAA_NQEAH@Z 000000018017d040 f i libucrt:output.obj
 0001:0017c0d0       ?parse_int_from_format_string@?$output_processor@_WV?$string_output_adapter@_W@__crt_stdio_output@@V?$standard_base@_WV?$string_output_adapter@_W@__crt_stdio_output@@@2@@__crt_stdio_output@@AEAA_NQEAH@Z 000000018017d0d0 f i libucrt:output.obj
 0001:0017c160       ?process@?$output_processor@DV?$stream_output_adapter@D@__crt_stdio_output@@V?$format_validation_base@DV?$stream_output_adapter@D@__crt_stdio_output@@@2@@__crt_stdio_output@@QEAAHXZ 000000018017d160 f i libucrt:output.obj
 0001:0017c4f4       ?process@?$output_processor@DV?$stream_output_adapter@D@__crt_stdio_output@@V?$positional_parameter_base@DV?$stream_output_adapter@D@__crt_stdio_output@@@2@@__crt_stdio_output@@QEAAHXZ 000000018017d4f4 f i libucrt:output.obj
 0001:0017c91c       ?process@?$output_processor@DV?$stream_output_adapter@D@__crt_stdio_output@@V?$standard_base@DV?$stream_output_adapter@D@__crt_stdio_output@@@2@@__crt_stdio_output@@QEAAHXZ 000000018017d91c f i libucrt:output.obj
 0001:0017cca8       ?process@?$output_processor@DV?$string_output_adapter@D@__crt_stdio_output@@V?$format_validation_base@DV?$string_output_adapter@D@__crt_stdio_output@@@2@@__crt_stdio_output@@QEAAHXZ 000000018017dca8 f i libucrt:output.obj
 0001:0017d038       ?process@?$output_processor@DV?$string_output_adapter@D@__crt_stdio_output@@V?$positional_parameter_base@DV?$string_output_adapter@D@__crt_stdio_output@@@2@@__crt_stdio_output@@QEAAHXZ 000000018017e038 f i libucrt:output.obj
 0001:0017d444       ?process@?$output_processor@DV?$string_output_adapter@D@__crt_stdio_output@@V?$standard_base@DV?$string_output_adapter@D@__crt_stdio_output@@@2@@__crt_stdio_output@@QEAAHXZ 000000018017e444 f i libucrt:output.obj
 0001:0017d7c8       ?process@?$output_processor@_WV?$stream_output_adapter@_W@__crt_stdio_output@@V?$format_validation_base@_WV?$stream_output_adapter@_W@__crt_stdio_output@@@2@@__crt_stdio_output@@QEAAHXZ 000000018017e7c8 f i libucrt:output.obj
 0001:0017daac       ?process@?$output_processor@_WV?$stream_output_adapter@_W@__crt_stdio_output@@V?$positional_parameter_base@_WV?$stream_output_adapter@_W@__crt_stdio_output@@@2@@__crt_stdio_output@@QEAAHXZ 000000018017eaac f i libucrt:output.obj
 0001:0017de28       ?process@?$output_processor@_WV?$stream_output_adapter@_W@__crt_stdio_output@@V?$standard_base@_WV?$stream_output_adapter@_W@__crt_stdio_output@@@2@@__crt_stdio_output@@QEAAHXZ 000000018017ee28 f i libucrt:output.obj
 0001:0017e0e4       ?process@?$output_processor@_WV?$string_output_adapter@_W@__crt_stdio_output@@V?$format_validation_base@_WV?$string_output_adapter@_W@__crt_stdio_output@@@2@@__crt_stdio_output@@QEAAHXZ 000000018017f0e4 f i libucrt:output.obj
 0001:0017e3c0       ?process@?$output_processor@_WV?$string_output_adapter@_W@__crt_stdio_output@@V?$positional_parameter_base@_WV?$string_output_adapter@_W@__crt_stdio_output@@@2@@__crt_stdio_output@@QEAAHXZ 000000018017f3c0 f i libucrt:output.obj
 0001:0017e73c       ?process@?$output_processor@_WV?$string_output_adapter@_W@__crt_stdio_output@@V?$standard_base@_WV?$string_output_adapter@_W@__crt_stdio_output@@@2@@__crt_stdio_output@@QEAAHXZ 000000018017f73c f i libucrt:output.obj
 0001:0017ea00       ?public_stream@__crt_stdio_stream@@QEBAPEAU_iobuf@@XZ 000000018017fa00 f i libucrt:output.obj
 0001:0017ea04       ?restore_state@?$c_string_character_source@D@__crt_strtox@@QEAA_NQEBD@Z 000000018017fa04 f i libucrt:output.obj
 0001:0017ea0c       ?restore_state@?$c_string_character_source@_W@__crt_strtox@@QEAA_NQEB_W@Z 000000018017fa0c f i libucrt:output.obj
 0001:0017ea14       ?save_state@?$c_string_character_source@D@__crt_strtox@@QEBAPEBDXZ 000000018017fa14 f i libucrt:output.obj
 0001:0017ea18       ?save_state@?$c_string_character_source@_W@__crt_strtox@@QEBAPEB_WXZ 000000018017fa18 f i libucrt:output.obj
 0001:0017ea1c       ?set@?$cached@H@__crt_cached_ptd_host@@QEAAHH@Z 000000018017fa1c f i libucrt:output.obj
 0001:0017ea28       ?set_flag@?$output_processor@DV?$stream_output_adapter@D@__crt_stdio_output@@V?$format_validation_base@DV?$stream_output_adapter@D@__crt_stdio_output@@@2@@__crt_stdio_output@@AEAAXI@Z 000000018017fa28 f i libucrt:output.obj
 0001:0017ea2c       ?set_flag@?$output_processor@DV?$stream_output_adapter@D@__crt_stdio_output@@V?$positional_parameter_base@DV?$stream_output_adapter@D@__crt_stdio_output@@@2@@__crt_stdio_output@@AEAAXI@Z 000000018017fa2c f i libucrt:output.obj
 0001:0017ea30       ?set_flag@?$output_processor@DV?$stream_output_adapter@D@__crt_stdio_output@@V?$standard_base@DV?$stream_output_adapter@D@__crt_stdio_output@@@2@@__crt_stdio_output@@AEAAXI@Z 000000018017fa30 f i libucrt:output.obj
 0001:0017ea34       ?set_flag@?$output_processor@DV?$string_output_adapter@D@__crt_stdio_output@@V?$format_validation_base@DV?$string_output_adapter@D@__crt_stdio_output@@@2@@__crt_stdio_output@@AEAAXI@Z 000000018017fa34 f i libucrt:output.obj
 0001:0017ea38       ?set_flag@?$output_processor@DV?$string_output_adapter@D@__crt_stdio_output@@V?$positional_parameter_base@DV?$string_output_adapter@D@__crt_stdio_output@@@2@@__crt_stdio_output@@AEAAXI@Z 000000018017fa38 f i libucrt:output.obj
 0001:0017ea3c       ?set_flag@?$output_processor@DV?$string_output_adapter@D@__crt_stdio_output@@V?$standard_base@DV?$string_output_adapter@D@__crt_stdio_output@@@2@@__crt_stdio_output@@AEAAXI@Z 000000018017fa3c f i libucrt:output.obj
 0001:0017ea40       ?set_flag@?$output_processor@_WV?$stream_output_adapter@_W@__crt_stdio_output@@V?$format_validation_base@_WV?$stream_output_adapter@_W@__crt_stdio_output@@@2@@__crt_stdio_output@@AEAAXI@Z 000000018017fa40 f i libucrt:output.obj
 0001:0017ea44       ?set_flag@?$output_processor@_WV?$stream_output_adapter@_W@__crt_stdio_output@@V?$positional_parameter_base@_WV?$stream_output_adapter@_W@__crt_stdio_output@@@2@@__crt_stdio_output@@AEAAXI@Z 000000018017fa44 f i libucrt:output.obj
 0001:0017ea48       ?set_flag@?$output_processor@_WV?$stream_output_adapter@_W@__crt_stdio_output@@V?$standard_base@_WV?$stream_output_adapter@_W@__crt_stdio_output@@@2@@__crt_stdio_output@@AEAAXI@Z 000000018017fa48 f i libucrt:output.obj
 0001:0017ea4c       ?set_flag@?$output_processor@_WV?$string_output_adapter@_W@__crt_stdio_output@@V?$format_validation_base@_WV?$string_output_adapter@_W@__crt_stdio_output@@@2@@__crt_stdio_output@@AEAAXI@Z 000000018017fa4c f i libucrt:output.obj
 0001:0017ea50       ?set_flag@?$output_processor@_WV?$string_output_adapter@_W@__crt_stdio_output@@V?$positional_parameter_base@_WV?$string_output_adapter@_W@__crt_stdio_output@@@2@@__crt_stdio_output@@AEAAXI@Z 000000018017fa50 f i libucrt:output.obj
 0001:0017ea54       ?set_flag@?$output_processor@_WV?$string_output_adapter@_W@__crt_stdio_output@@V?$standard_base@_WV?$string_output_adapter@_W@__crt_stdio_output@@@2@@__crt_stdio_output@@AEAAXI@Z 000000018017fa54 f i libucrt:output.obj
 0001:0017ea58       ?should_format@?$positional_parameter_base@DV?$stream_output_adapter@D@__crt_stdio_output@@@__crt_stdio_output@@IEAA_NXZ 000000018017fa58 f i libucrt:output.obj
 0001:0017ea70       ?should_format@?$positional_parameter_base@DV?$string_output_adapter@D@__crt_stdio_output@@@__crt_stdio_output@@IEAA_NXZ 000000018017fa70 f i libucrt:output.obj
 0001:0017ea88       ?should_format@?$positional_parameter_base@_WV?$stream_output_adapter@_W@__crt_stdio_output@@@__crt_stdio_output@@IEAA_NXZ 000000018017fa88 f i libucrt:output.obj
 0001:0017eaa0       ?should_format@?$positional_parameter_base@_WV?$string_output_adapter@_W@__crt_stdio_output@@@__crt_stdio_output@@IEAA_NXZ 000000018017faa0 f i libucrt:output.obj
 0001:0017eab8       ?should_format@?$standard_base@DV?$stream_output_adapter@D@__crt_stdio_output@@@__crt_stdio_output@@IEAA_NXZ 000000018017fab8 f i libucrt:output.obj
 0001:0017eabc       ?should_format@?$standard_base@DV?$string_output_adapter@D@__crt_stdio_output@@@__crt_stdio_output@@IEAA_NXZ 000000018017fabc f i libucrt:output.obj
 0001:0017eac0       ?should_format@?$standard_base@_WV?$stream_output_adapter@_W@__crt_stdio_output@@@__crt_stdio_output@@IEAA_NXZ 000000018017fac0 f i libucrt:output.obj
 0001:0017eac4       ?should_format@?$standard_base@_WV?$string_output_adapter@_W@__crt_stdio_output@@@__crt_stdio_output@@IEAA_NXZ 000000018017fac4 f i libucrt:output.obj
 0001:0017eac8       ?should_skip_normal_state_processing@?$positional_parameter_base@DV?$stream_output_adapter@D@__crt_stdio_output@@@__crt_stdio_output@@IEAA_NXZ 000000018017fac8 f i libucrt:output.obj
 0001:0017eaf0       ?should_skip_normal_state_processing@?$positional_parameter_base@DV?$string_output_adapter@D@__crt_stdio_output@@@__crt_stdio_output@@IEAA_NXZ 000000018017faf0 f i libucrt:output.obj
 0001:0017eb18       ?should_skip_normal_state_processing@?$positional_parameter_base@_WV?$stream_output_adapter@_W@__crt_stdio_output@@@__crt_stdio_output@@IEAA_NXZ 000000018017fb18 f i libucrt:output.obj
 0001:0017eb40       ?should_skip_normal_state_processing@?$positional_parameter_base@_WV?$string_output_adapter@_W@__crt_stdio_output@@@__crt_stdio_output@@IEAA_NXZ 000000018017fb40 f i libucrt:output.obj
 0001:0017eb68       ?should_skip_normal_state_processing@?$standard_base@DV?$stream_output_adapter@D@__crt_stdio_output@@@__crt_stdio_output@@IEAA_NXZ 000000018017fb68 f i libucrt:output.obj
 0001:0017eb6c       ?should_skip_normal_state_processing@?$standard_base@DV?$string_output_adapter@D@__crt_stdio_output@@@__crt_stdio_output@@IEAA_NXZ 000000018017fb6c f i libucrt:output.obj
 0001:0017eb70       ?should_skip_normal_state_processing@?$standard_base@_WV?$stream_output_adapter@_W@__crt_stdio_output@@@__crt_stdio_output@@IEAA_NXZ 000000018017fb70 f i libucrt:output.obj
 0001:0017eb74       ?should_skip_normal_state_processing@?$standard_base@_WV?$string_output_adapter@_W@__crt_stdio_output@@@__crt_stdio_output@@IEAA_NXZ 000000018017fb74 f i libucrt:output.obj
 0001:0017eb78       ?should_skip_type_state_output@?$positional_parameter_base@DV?$stream_output_adapter@D@__crt_stdio_output@@@__crt_stdio_output@@IEBA_NXZ 000000018017fb78 f i libucrt:output.obj
 0001:0017eb94       ?should_skip_type_state_output@?$positional_parameter_base@DV?$string_output_adapter@D@__crt_stdio_output@@@__crt_stdio_output@@IEBA_NXZ 000000018017fb94 f i libucrt:output.obj
 0001:0017ebb0       ?should_skip_type_state_output@?$positional_parameter_base@_WV?$stream_output_adapter@_W@__crt_stdio_output@@@__crt_stdio_output@@IEBA_NXZ 000000018017fbb0 f i libucrt:output.obj
 0001:0017ebcc       ?should_skip_type_state_output@?$positional_parameter_base@_WV?$string_output_adapter@_W@__crt_stdio_output@@@__crt_stdio_output@@IEBA_NXZ 000000018017fbcc f i libucrt:output.obj
 0001:0017ebe8       ?should_skip_type_state_output@?$standard_base@DV?$stream_output_adapter@D@__crt_stdio_output@@@__crt_stdio_output@@IEBA_NXZ 000000018017fbe8 f i libucrt:output.obj
 0001:0017ebec       ?should_skip_type_state_output@?$standard_base@DV?$string_output_adapter@D@__crt_stdio_output@@@__crt_stdio_output@@IEBA_NXZ 000000018017fbec f i libucrt:output.obj
 0001:0017ebf0       ?should_skip_type_state_output@?$standard_base@_WV?$stream_output_adapter@_W@__crt_stdio_output@@@__crt_stdio_output@@IEBA_NXZ 000000018017fbf0 f i libucrt:output.obj
 0001:0017ebf4       ?should_skip_type_state_output@?$standard_base@_WV?$string_output_adapter@_W@__crt_stdio_output@@@__crt_stdio_output@@IEBA_NXZ 000000018017fbf4 f i libucrt:output.obj
 0001:0017ebf8       ?state_case_dot@?$output_processor@DV?$stream_output_adapter@D@__crt_stdio_output@@V?$format_validation_base@DV?$stream_output_adapter@D@__crt_stdio_output@@@2@@__crt_stdio_output@@AEAA_NXZ 000000018017fbf8 f i libucrt:output.obj
 0001:0017ec00       ?state_case_dot@?$output_processor@DV?$stream_output_adapter@D@__crt_stdio_output@@V?$positional_parameter_base@DV?$stream_output_adapter@D@__crt_stdio_output@@@2@@__crt_stdio_output@@AEAA_NXZ 000000018017fc00 f i libucrt:output.obj
 0001:0017ec08       ?state_case_dot@?$output_processor@DV?$stream_output_adapter@D@__crt_stdio_output@@V?$standard_base@DV?$stream_output_adapter@D@__crt_stdio_output@@@2@@__crt_stdio_output@@AEAA_NXZ 000000018017fc08 f i libucrt:output.obj
 0001:0017ec10       ?state_case_dot@?$output_processor@DV?$string_output_adapter@D@__crt_stdio_output@@V?$format_validation_base@DV?$string_output_adapter@D@__crt_stdio_output@@@2@@__crt_stdio_output@@AEAA_NXZ 000000018017fc10 f i libucrt:output.obj
 0001:0017ec18       ?state_case_dot@?$output_processor@DV?$string_output_adapter@D@__crt_stdio_output@@V?$positional_parameter_base@DV?$string_output_adapter@D@__crt_stdio_output@@@2@@__crt_stdio_output@@AEAA_NXZ 000000018017fc18 f i libucrt:output.obj
 0001:0017ec20       ?state_case_dot@?$output_processor@DV?$string_output_adapter@D@__crt_stdio_output@@V?$standard_base@DV?$string_output_adapter@D@__crt_stdio_output@@@2@@__crt_stdio_output@@AEAA_NXZ 000000018017fc20 f i libucrt:output.obj
 0001:0017ec28       ?state_case_dot@?$output_processor@_WV?$stream_output_adapter@_W@__crt_stdio_output@@V?$format_validation_base@_WV?$stream_output_adapter@_W@__crt_stdio_output@@@2@@__crt_stdio_output@@AEAA_NXZ 000000018017fc28 f i libucrt:output.obj
 0001:0017ec30       ?state_case_dot@?$output_processor@_WV?$stream_output_adapter@_W@__crt_stdio_output@@V?$positional_parameter_base@_WV?$stream_output_adapter@_W@__crt_stdio_output@@@2@@__crt_stdio_output@@AEAA_NXZ 000000018017fc30 f i libucrt:output.obj
 0001:0017ec38       ?state_case_dot@?$output_processor@_WV?$stream_output_adapter@_W@__crt_stdio_output@@V?$standard_base@_WV?$stream_output_adapter@_W@__crt_stdio_output@@@2@@__crt_stdio_output@@AEAA_NXZ 000000018017fc38 f i libucrt:output.obj
 0001:0017ec40       ?state_case_dot@?$output_processor@_WV?$string_output_adapter@_W@__crt_stdio_output@@V?$format_validation_base@_WV?$string_output_adapter@_W@__crt_stdio_output@@@2@@__crt_stdio_output@@AEAA_NXZ 000000018017fc40 f i libucrt:output.obj
 0001:0017ec48       ?state_case_dot@?$output_processor@_WV?$string_output_adapter@_W@__crt_stdio_output@@V?$positional_parameter_base@_WV?$string_output_adapter@_W@__crt_stdio_output@@@2@@__crt_stdio_output@@AEAA_NXZ 000000018017fc48 f i libucrt:output.obj
 0001:0017ec50       ?state_case_dot@?$output_processor@_WV?$string_output_adapter@_W@__crt_stdio_output@@V?$standard_base@_WV?$string_output_adapter@_W@__crt_stdio_output@@@2@@__crt_stdio_output@@AEAA_NXZ 000000018017fc50 f i libucrt:output.obj
 0001:0017ec58       ?state_case_flag@?$output_processor@DV?$stream_output_adapter@D@__crt_stdio_output@@V?$format_validation_base@DV?$stream_output_adapter@D@__crt_stdio_output@@@2@@__crt_stdio_output@@AEAA_NXZ 000000018017fc58 f i libucrt:output.obj
 0001:0017ec90       ?state_case_flag@?$output_processor@DV?$stream_output_adapter@D@__crt_stdio_output@@V?$positional_parameter_base@DV?$stream_output_adapter@D@__crt_stdio_output@@@2@@__crt_stdio_output@@AEAA_NXZ 000000018017fc90 f i libucrt:output.obj
 0001:0017ecc8       ?state_case_flag@?$output_processor@DV?$stream_output_adapter@D@__crt_stdio_output@@V?$standard_base@DV?$stream_output_adapter@D@__crt_stdio_output@@@2@@__crt_stdio_output@@AEAA_NXZ 000000018017fcc8 f i libucrt:output.obj
 0001:0017ed00       ?state_case_flag@?$output_processor@DV?$string_output_adapter@D@__crt_stdio_output@@V?$format_validation_base@DV?$string_output_adapter@D@__crt_stdio_output@@@2@@__crt_stdio_output@@AEAA_NXZ 000000018017fd00 f i libucrt:output.obj
 0001:0017ed38       ?state_case_flag@?$output_processor@DV?$string_output_adapter@D@__crt_stdio_output@@V?$positional_parameter_base@DV?$string_output_adapter@D@__crt_stdio_output@@@2@@__crt_stdio_output@@AEAA_NXZ 000000018017fd38 f i libucrt:output.obj
 0001:0017ed70       ?state_case_flag@?$output_processor@DV?$string_output_adapter@D@__crt_stdio_output@@V?$standard_base@DV?$string_output_adapter@D@__crt_stdio_output@@@2@@__crt_stdio_output@@AEAA_NXZ 000000018017fd70 f i libucrt:output.obj
 0001:0017eda8       ?state_case_flag@?$output_processor@_WV?$stream_output_adapter@_W@__crt_stdio_output@@V?$format_validation_base@_WV?$stream_output_adapter@_W@__crt_stdio_output@@@2@@__crt_stdio_output@@AEAA_NXZ 000000018017fda8 f i libucrt:output.obj
 0001:0017edec       ?state_case_flag@?$output_processor@_WV?$stream_output_adapter@_W@__crt_stdio_output@@V?$positional_parameter_base@_WV?$stream_output_adapter@_W@__crt_stdio_output@@@2@@__crt_stdio_output@@AEAA_NXZ 000000018017fdec f i libucrt:output.obj
 0001:0017ee30       ?state_case_flag@?$output_processor@_WV?$stream_output_adapter@_W@__crt_stdio_output@@V?$standard_base@_WV?$stream_output_adapter@_W@__crt_stdio_output@@@2@@__crt_stdio_output@@AEAA_NXZ 000000018017fe30 f i libucrt:output.obj
 0001:0017ee74       ?state_case_flag@?$output_processor@_WV?$string_output_adapter@_W@__crt_stdio_output@@V?$format_validation_base@_WV?$string_output_adapter@_W@__crt_stdio_output@@@2@@__crt_stdio_output@@AEAA_NXZ 000000018017fe74 f i libucrt:output.obj
 0001:0017eeb8       ?state_case_flag@?$output_processor@_WV?$string_output_adapter@_W@__crt_stdio_output@@V?$positional_parameter_base@_WV?$string_output_adapter@_W@__crt_stdio_output@@@2@@__crt_stdio_output@@AEAA_NXZ 000000018017feb8 f i libucrt:output.obj
 0001:0017eefc       ?state_case_flag@?$output_processor@_WV?$string_output_adapter@_W@__crt_stdio_output@@V?$standard_base@_WV?$string_output_adapter@_W@__crt_stdio_output@@@2@@__crt_stdio_output@@AEAA_NXZ 000000018017fefc f i libucrt:output.obj
 0001:0017ef40       ?state_case_normal@?$output_processor@DV?$stream_output_adapter@D@__crt_stdio_output@@V?$format_validation_base@DV?$stream_output_adapter@D@__crt_stdio_output@@@2@@__crt_stdio_output@@AEAA_NXZ 000000018017ff40 f i libucrt:output.obj
 0001:0017f094       ?state_case_normal@?$output_processor@DV?$stream_output_adapter@D@__crt_stdio_output@@V?$positional_parameter_base@DV?$stream_output_adapter@D@__crt_stdio_output@@@2@@__crt_stdio_output@@AEAA_NXZ 0000000180180094 f i libucrt:output.obj
 0001:0017f210       ?state_case_normal@?$output_processor@DV?$stream_output_adapter@D@__crt_stdio_output@@V?$standard_base@DV?$stream_output_adapter@D@__crt_stdio_output@@@2@@__crt_stdio_output@@AEAA_NXZ 0000000180180210 f i libucrt:output.obj
 0001:0017f364       ?state_case_normal@?$output_processor@DV?$string_output_adapter@D@__crt_stdio_output@@V?$format_validation_base@DV?$string_output_adapter@D@__crt_stdio_output@@@2@@__crt_stdio_output@@AEAA_NXZ 0000000180180364 f i libucrt:output.obj
 0001:0017f4b0       ?state_case_normal@?$output_processor@DV?$string_output_adapter@D@__crt_stdio_output@@V?$positional_parameter_base@DV?$string_output_adapter@D@__crt_stdio_output@@@2@@__crt_stdio_output@@AEAA_NXZ 00000001801804b0 f i libucrt:output.obj
 0001:0017f628       ?state_case_normal@?$output_processor@DV?$string_output_adapter@D@__crt_stdio_output@@V?$standard_base@DV?$string_output_adapter@D@__crt_stdio_output@@@2@@__crt_stdio_output@@AEAA_NXZ 0000000180180628 f i libucrt:output.obj
 0001:0017f774       ?state_case_normal@?$output_processor@_WV?$stream_output_adapter@_W@__crt_stdio_output@@V?$format_validation_base@_WV?$stream_output_adapter@_W@__crt_stdio_output@@@2@@__crt_stdio_output@@AEAA_NXZ 0000000180180774 f i libucrt:output.obj
 0001:0017f7d0       ?state_case_normal@?$output_processor@_WV?$stream_output_adapter@_W@__crt_stdio_output@@V?$positional_parameter_base@_WV?$stream_output_adapter@_W@__crt_stdio_output@@@2@@__crt_stdio_output@@AEAA_NXZ 00000001801807d0 f i libucrt:output.obj
 0001:0017f850       ?state_case_normal@?$output_processor@_WV?$stream_output_adapter@_W@__crt_stdio_output@@V?$standard_base@_WV?$stream_output_adapter@_W@__crt_stdio_output@@@2@@__crt_stdio_output@@AEAA_NXZ 0000000180180850 f i libucrt:output.obj
 0001:0017f8ac       ?state_case_normal@?$output_processor@_WV?$string_output_adapter@_W@__crt_stdio_output@@V?$format_validation_base@_WV?$string_output_adapter@_W@__crt_stdio_output@@@2@@__crt_stdio_output@@AEAA_NXZ 00000001801808ac f i libucrt:output.obj
 0001:0017f900       ?state_case_normal@?$output_processor@_WV?$string_output_adapter@_W@__crt_stdio_output@@V?$positional_parameter_base@_WV?$string_output_adapter@_W@__crt_stdio_output@@@2@@__crt_stdio_output@@AEAA_NXZ 0000000180180900 f i libucrt:output.obj
 0001:0017f978       ?state_case_normal@?$output_processor@_WV?$string_output_adapter@_W@__crt_stdio_output@@V?$standard_base@_WV?$string_output_adapter@_W@__crt_stdio_output@@@2@@__crt_stdio_output@@AEAA_NXZ 0000000180180978 f i libucrt:output.obj
 0001:0017f9cc       ?state_case_normal_common@?$output_processor@DV?$stream_output_adapter@D@__crt_stdio_output@@V?$format_validation_base@DV?$stream_output_adapter@D@__crt_stdio_output@@@2@@__crt_stdio_output@@AEAA_NXZ 00000001801809cc f i libucrt:output.obj
 0001:0017faf4       ?state_case_normal_common@?$output_processor@DV?$stream_output_adapter@D@__crt_stdio_output@@V?$positional_parameter_base@DV?$stream_output_adapter@D@__crt_stdio_output@@@2@@__crt_stdio_output@@AEAA_NXZ 0000000180180af4 f i libucrt:output.obj
 0001:0017fc1c       ?state_case_normal_common@?$output_processor@DV?$stream_output_adapter@D@__crt_stdio_output@@V?$standard_base@DV?$stream_output_adapter@D@__crt_stdio_output@@@2@@__crt_stdio_output@@AEAA_NXZ 0000000180180c1c f i libucrt:output.obj
 0001:0017fd44       ?state_case_normal_common@?$output_processor@DV?$string_output_adapter@D@__crt_stdio_output@@V?$format_validation_base@DV?$string_output_adapter@D@__crt_stdio_output@@@2@@__crt_stdio_output@@AEAA_NXZ 0000000180180d44 f i libucrt:output.obj
 0001:0017fe68       ?state_case_normal_common@?$output_processor@DV?$string_output_adapter@D@__crt_stdio_output@@V?$positional_parameter_base@DV?$string_output_adapter@D@__crt_stdio_output@@@2@@__crt_stdio_output@@AEAA_NXZ 0000000180180e68 f i libucrt:output.obj
 0001:0017ff8c       ?state_case_normal_common@?$output_processor@DV?$string_output_adapter@D@__crt_stdio_output@@V?$standard_base@DV?$string_output_adapter@D@__crt_stdio_output@@@2@@__crt_stdio_output@@AEAA_NXZ 0000000180180f8c f i libucrt:output.obj
 0001:001800b0       ?state_case_normal_common@?$output_processor@_WV?$stream_output_adapter@_W@__crt_stdio_output@@V?$format_validation_base@_WV?$stream_output_adapter@_W@__crt_stdio_output@@@2@@__crt_stdio_output@@AEAA_NXZ 00000001801810b0 f i libucrt:output.obj
 0001:0018010c       ?state_case_normal_common@?$output_processor@_WV?$stream_output_adapter@_W@__crt_stdio_output@@V?$positional_parameter_base@_WV?$stream_output_adapter@_W@__crt_stdio_output@@@2@@__crt_stdio_output@@AEAA_NXZ 000000018018110c f i libucrt:output.obj
 0001:00180168       ?state_case_normal_common@?$output_processor@_WV?$stream_output_adapter@_W@__crt_stdio_output@@V?$standard_base@_WV?$stream_output_adapter@_W@__crt_stdio_output@@@2@@__crt_stdio_output@@AEAA_NXZ 0000000180181168 f i libucrt:output.obj
 0001:001801c4       ?state_case_normal_common@?$output_processor@_WV?$string_output_adapter@_W@__crt_stdio_output@@V?$format_validation_base@_WV?$string_output_adapter@_W@__crt_stdio_output@@@2@@__crt_stdio_output@@AEAA_NXZ 00000001801811c4 f i libucrt:output.obj
 0001:00180218       ?state_case_normal_common@?$output_processor@_WV?$string_output_adapter@_W@__crt_stdio_output@@V?$positional_parameter_base@_WV?$string_output_adapter@_W@__crt_stdio_output@@@2@@__crt_stdio_output@@AEAA_NXZ 0000000180181218 f i libucrt:output.obj
 0001:0018026c       ?state_case_normal_common@?$output_processor@_WV?$string_output_adapter@_W@__crt_stdio_output@@V?$standard_base@_WV?$string_output_adapter@_W@__crt_stdio_output@@@2@@__crt_stdio_output@@AEAA_NXZ 000000018018126c f i libucrt:output.obj
 0001:001802c0       ?state_case_normal_tchar@?$output_processor@DV?$stream_output_adapter@D@__crt_stdio_output@@V?$format_validation_base@DV?$stream_output_adapter@D@__crt_stdio_output@@@2@@__crt_stdio_output@@AEAA_ND@Z 00000001801812c0 f i libucrt:output.obj
 0001:0018039c       ?state_case_normal_tchar@?$output_processor@DV?$stream_output_adapter@D@__crt_stdio_output@@V?$positional_parameter_base@DV?$stream_output_adapter@D@__crt_stdio_output@@@2@@__crt_stdio_output@@AEAA_ND@Z 000000018018139c f i libucrt:output.obj
 0001:00180478       ?state_case_normal_tchar@?$output_processor@DV?$stream_output_adapter@D@__crt_stdio_output@@V?$standard_base@DV?$stream_output_adapter@D@__crt_stdio_output@@@2@@__crt_stdio_output@@AEAA_ND@Z 0000000180181478 f i libucrt:output.obj
 0001:00180554       ?state_case_normal_tchar@?$output_processor@DV?$string_output_adapter@D@__crt_stdio_output@@V?$format_validation_base@DV?$string_output_adapter@D@__crt_stdio_output@@@2@@__crt_stdio_output@@AEAA_ND@Z 0000000180181554 f i libucrt:output.obj
 0001:00180630       ?state_case_normal_tchar@?$output_processor@DV?$string_output_adapter@D@__crt_stdio_output@@V?$positional_parameter_base@DV?$string_output_adapter@D@__crt_stdio_output@@@2@@__crt_stdio_output@@AEAA_ND@Z 0000000180181630 f i libucrt:output.obj
 0001:0018070c       ?state_case_normal_tchar@?$output_processor@DV?$string_output_adapter@D@__crt_stdio_output@@V?$standard_base@DV?$string_output_adapter@D@__crt_stdio_output@@@2@@__crt_stdio_output@@AEAA_ND@Z 000000018018170c f i libucrt:output.obj
 0001:001807e8       ?state_case_normal_tchar@?$output_processor@_WV?$stream_output_adapter@_W@__crt_stdio_output@@V?$format_validation_base@_WV?$stream_output_adapter@_W@__crt_stdio_output@@@2@@__crt_stdio_output@@AEAA_N_W@Z 00000001801817e8 f i libucrt:output.obj
 0001:001807f0       ?state_case_normal_tchar@?$output_processor@_WV?$stream_output_adapter@_W@__crt_stdio_output@@V?$positional_parameter_base@_WV?$stream_output_adapter@_W@__crt_stdio_output@@@2@@__crt_stdio_output@@AEAA_N_W@Z 00000001801817f0 f i libucrt:output.obj
 0001:001807f8       ?state_case_normal_tchar@?$output_processor@_WV?$stream_output_adapter@_W@__crt_stdio_output@@V?$standard_base@_WV?$stream_output_adapter@_W@__crt_stdio_output@@@2@@__crt_stdio_output@@AEAA_N_W@Z 00000001801817f8 f i libucrt:output.obj
 0001:00180800       ?state_case_normal_tchar@?$output_processor@_WV?$string_output_adapter@_W@__crt_stdio_output@@V?$format_validation_base@_WV?$string_output_adapter@_W@__crt_stdio_output@@@2@@__crt_stdio_output@@AEAA_N_W@Z 0000000180181800 f i libucrt:output.obj
 0001:00180808       ?state_case_normal_tchar@?$output_processor@_WV?$string_output_adapter@_W@__crt_stdio_output@@V?$positional_parameter_base@_WV?$string_output_adapter@_W@__crt_stdio_output@@@2@@__crt_stdio_output@@AEAA_N_W@Z 0000000180181808 f i libucrt:output.obj
 0001:00180810       ?state_case_normal_tchar@?$output_processor@_WV?$string_output_adapter@_W@__crt_stdio_output@@V?$standard_base@_WV?$string_output_adapter@_W@__crt_stdio_output@@@2@@__crt_stdio_output@@AEAA_N_W@Z 0000000180181810 f i libucrt:output.obj
 0001:00180818       ?state_case_percent@?$output_processor@DV?$stream_output_adapter@D@__crt_stdio_output@@V?$format_validation_base@DV?$stream_output_adapter@D@__crt_stdio_output@@@2@@__crt_stdio_output@@AEAA_NXZ 0000000180181818 f i libucrt:output.obj
 0001:00180830       ?state_case_percent@?$output_processor@DV?$stream_output_adapter@D@__crt_stdio_output@@V?$positional_parameter_base@DV?$stream_output_adapter@D@__crt_stdio_output@@@2@@__crt_stdio_output@@AEAA_NXZ 0000000180181830 f i libucrt:output.obj
 0001:00180848       ?state_case_percent@?$output_processor@DV?$stream_output_adapter@D@__crt_stdio_output@@V?$standard_base@DV?$stream_output_adapter@D@__crt_stdio_output@@@2@@__crt_stdio_output@@AEAA_NXZ 0000000180181848 f i libucrt:output.obj
 0001:00180860       ?state_case_percent@?$output_processor@DV?$string_output_adapter@D@__crt_stdio_output@@V?$format_validation_base@DV?$string_output_adapter@D@__crt_stdio_output@@@2@@__crt_stdio_output@@AEAA_NXZ 0000000180181860 f i libucrt:output.obj
 0001:00180878       ?state_case_percent@?$output_processor@DV?$string_output_adapter@D@__crt_stdio_output@@V?$positional_parameter_base@DV?$string_output_adapter@D@__crt_stdio_output@@@2@@__crt_stdio_output@@AEAA_NXZ 0000000180181878 f i libucrt:output.obj
 0001:00180890       ?state_case_percent@?$output_processor@DV?$string_output_adapter@D@__crt_stdio_output@@V?$standard_base@DV?$string_output_adapter@D@__crt_stdio_output@@@2@@__crt_stdio_output@@AEAA_NXZ 0000000180181890 f i libucrt:output.obj
 0001:001808a8       ?state_case_percent@?$output_processor@_WV?$stream_output_adapter@_W@__crt_stdio_output@@V?$format_validation_base@_WV?$stream_output_adapter@_W@__crt_stdio_output@@@2@@__crt_stdio_output@@AEAA_NXZ 00000001801818a8 f i libucrt:output.obj
 0001:001808c0       ?state_case_percent@?$output_processor@_WV?$stream_output_adapter@_W@__crt_stdio_output@@V?$positional_parameter_base@_WV?$stream_output_adapter@_W@__crt_stdio_output@@@2@@__crt_stdio_output@@AEAA_NXZ 00000001801818c0 f i libucrt:output.obj
 0001:001808d8       ?state_case_percent@?$output_processor@_WV?$stream_output_adapter@_W@__crt_stdio_output@@V?$standard_base@_WV?$stream_output_adapter@_W@__crt_stdio_output@@@2@@__crt_stdio_output@@AEAA_NXZ 00000001801818d8 f i libucrt:output.obj
 0001:001808f0       ?state_case_percent@?$output_processor@_WV?$string_output_adapter@_W@__crt_stdio_output@@V?$format_validation_base@_WV?$string_output_adapter@_W@__crt_stdio_output@@@2@@__crt_stdio_output@@AEAA_NXZ 00000001801818f0 f i libucrt:output.obj
 0001:00180908       ?state_case_percent@?$output_processor@_WV?$string_output_adapter@_W@__crt_stdio_output@@V?$positional_parameter_base@_WV?$string_output_adapter@_W@__crt_stdio_output@@@2@@__crt_stdio_output@@AEAA_NXZ 0000000180181908 f i libucrt:output.obj
 0001:00180920       ?state_case_percent@?$output_processor@_WV?$string_output_adapter@_W@__crt_stdio_output@@V?$standard_base@_WV?$string_output_adapter@_W@__crt_stdio_output@@@2@@__crt_stdio_output@@AEAA_NXZ 0000000180181920 f i libucrt:output.obj
 0001:00180938       ?state_case_precision@?$output_processor@DV?$stream_output_adapter@D@__crt_stdio_output@@V?$format_validation_base@DV?$stream_output_adapter@D@__crt_stdio_output@@@2@@__crt_stdio_output@@AEAA_NXZ 0000000180181938 f i libucrt:output.obj
 0001:00180960       ?state_case_precision@?$output_processor@DV?$stream_output_adapter@D@__crt_stdio_output@@V?$positional_parameter_base@DV?$stream_output_adapter@D@__crt_stdio_output@@@2@@__crt_stdio_output@@AEAA_NXZ 0000000180181960 f i libucrt:output.obj
 0001:001809ac       ?state_case_precision@?$output_processor@DV?$stream_output_adapter@D@__crt_stdio_output@@V?$standard_base@DV?$stream_output_adapter@D@__crt_stdio_output@@@2@@__crt_stdio_output@@AEAA_NXZ 00000001801819ac f i libucrt:output.obj
 0001:001809d4       ?state_case_precision@?$output_processor@DV?$string_output_adapter@D@__crt_stdio_output@@V?$format_validation_base@DV?$string_output_adapter@D@__crt_stdio_output@@@2@@__crt_stdio_output@@AEAA_NXZ 00000001801819d4 f i libucrt:output.obj
 0001:001809fc       ?state_case_precision@?$output_processor@DV?$string_output_adapter@D@__crt_stdio_output@@V?$positional_parameter_base@DV?$string_output_adapter@D@__crt_stdio_output@@@2@@__crt_stdio_output@@AEAA_NXZ 00000001801819fc f i libucrt:output.obj
 0001:00180a48       ?state_case_precision@?$output_processor@DV?$string_output_adapter@D@__crt_stdio_output@@V?$standard_base@DV?$string_output_adapter@D@__crt_stdio_output@@@2@@__crt_stdio_output@@AEAA_NXZ 0000000180181a48 f i libucrt:output.obj
 0001:00180a70       ?state_case_precision@?$output_processor@_WV?$stream_output_adapter@_W@__crt_stdio_output@@V?$format_validation_base@_WV?$stream_output_adapter@_W@__crt_stdio_output@@@2@@__crt_stdio_output@@AEAA_NXZ 0000000180181a70 f i libucrt:output.obj
 0001:00180a98       ?state_case_precision@?$output_processor@_WV?$stream_output_adapter@_W@__crt_stdio_output@@V?$positional_parameter_base@_WV?$stream_output_adapter@_W@__crt_stdio_output@@@2@@__crt_stdio_output@@AEAA_NXZ 0000000180181a98 f i libucrt:output.obj
 0001:00180ae4       ?state_case_precision@?$output_processor@_WV?$stream_output_adapter@_W@__crt_stdio_output@@V?$standard_base@_WV?$stream_output_adapter@_W@__crt_stdio_output@@@2@@__crt_stdio_output@@AEAA_NXZ 0000000180181ae4 f i libucrt:output.obj
 0001:00180b0c       ?state_case_precision@?$output_processor@_WV?$string_output_adapter@_W@__crt_stdio_output@@V?$format_validation_base@_WV?$string_output_adapter@_W@__crt_stdio_output@@@2@@__crt_stdio_output@@AEAA_NXZ 0000000180181b0c f i libucrt:output.obj
 0001:00180b34       ?state_case_precision@?$output_processor@_WV?$string_output_adapter@_W@__crt_stdio_output@@V?$positional_parameter_base@_WV?$string_output_adapter@_W@__crt_stdio_output@@@2@@__crt_stdio_output@@AEAA_NXZ 0000000180181b34 f i libucrt:output.obj
 0001:00180b80       ?state_case_precision@?$output_processor@_WV?$string_output_adapter@_W@__crt_stdio_output@@V?$standard_base@_WV?$string_output_adapter@_W@__crt_stdio_output@@@2@@__crt_stdio_output@@AEAA_NXZ 0000000180181b80 f i libucrt:output.obj
 0001:00180ba8       ?state_case_size@?$output_processor@DV?$stream_output_adapter@D@__crt_stdio_output@@V?$format_validation_base@DV?$stream_output_adapter@D@__crt_stdio_output@@@2@@__crt_stdio_output@@AEAA_NXZ 0000000180181ba8 f i libucrt:output.obj
 0001:00180d2c       ?state_case_size@?$output_processor@DV?$stream_output_adapter@D@__crt_stdio_output@@V?$positional_parameter_base@DV?$stream_output_adapter@D@__crt_stdio_output@@@2@@__crt_stdio_output@@AEAA_NXZ 0000000180181d2c f i libucrt:output.obj
 0001:00180eb0       ?state_case_size@?$output_processor@DV?$stream_output_adapter@D@__crt_stdio_output@@V?$standard_base@DV?$stream_output_adapter@D@__crt_stdio_output@@@2@@__crt_stdio_output@@AEAA_NXZ 0000000180181eb0 f i libucrt:output.obj
 0001:00181034       ?state_case_size@?$output_processor@DV?$string_output_adapter@D@__crt_stdio_output@@V?$format_validation_base@DV?$string_output_adapter@D@__crt_stdio_output@@@2@@__crt_stdio_output@@AEAA_NXZ 0000000180182034 f i libucrt:output.obj
 0001:001811b8       ?state_case_size@?$output_processor@DV?$string_output_adapter@D@__crt_stdio_output@@V?$positional_parameter_base@DV?$string_output_adapter@D@__crt_stdio_output@@@2@@__crt_stdio_output@@AEAA_NXZ 00000001801821b8 f i libucrt:output.obj
 0001:0018133c       ?state_case_size@?$output_processor@DV?$string_output_adapter@D@__crt_stdio_output@@V?$standard_base@DV?$string_output_adapter@D@__crt_stdio_output@@@2@@__crt_stdio_output@@AEAA_NXZ 000000018018233c f i libucrt:output.obj
 0001:001814c0       ?state_case_size@?$output_processor@_WV?$stream_output_adapter@_W@__crt_stdio_output@@V?$format_validation_base@_WV?$stream_output_adapter@_W@__crt_stdio_output@@@2@@__crt_stdio_output@@AEAA_NXZ 00000001801824c0 f i libucrt:output.obj
 0001:0018166c       ?state_case_size@?$output_processor@_WV?$stream_output_adapter@_W@__crt_stdio_output@@V?$positional_parameter_base@_WV?$stream_output_adapter@_W@__crt_stdio_output@@@2@@__crt_stdio_output@@AEAA_NXZ 000000018018266c f i libucrt:output.obj
 0001:00181818       ?state_case_size@?$output_processor@_WV?$stream_output_adapter@_W@__crt_stdio_output@@V?$standard_base@_WV?$stream_output_adapter@_W@__crt_stdio_output@@@2@@__crt_stdio_output@@AEAA_NXZ 0000000180182818 f i libucrt:output.obj
 0001:001819c4       ?state_case_size@?$output_processor@_WV?$string_output_adapter@_W@__crt_stdio_output@@V?$format_validation_base@_WV?$string_output_adapter@_W@__crt_stdio_output@@@2@@__crt_stdio_output@@AEAA_NXZ 00000001801829c4 f i libucrt:output.obj
 0001:00181b70       ?state_case_size@?$output_processor@_WV?$string_output_adapter@_W@__crt_stdio_output@@V?$positional_parameter_base@_WV?$string_output_adapter@_W@__crt_stdio_output@@@2@@__crt_stdio_output@@AEAA_NXZ 0000000180182b70 f i libucrt:output.obj
 0001:00181d1c       ?state_case_size@?$output_processor@_WV?$string_output_adapter@_W@__crt_stdio_output@@V?$standard_base@_WV?$string_output_adapter@_W@__crt_stdio_output@@@2@@__crt_stdio_output@@AEAA_NXZ 0000000180182d1c f i libucrt:output.obj
 0001:00181ec8       ?state_case_type@?$output_processor@DV?$stream_output_adapter@D@__crt_stdio_output@@V?$format_validation_base@DV?$stream_output_adapter@D@__crt_stdio_output@@@2@@__crt_stdio_output@@AEAA_NXZ 0000000180182ec8 f i libucrt:output.obj
 0001:001822fc       ?state_case_type@?$output_processor@DV?$stream_output_adapter@D@__crt_stdio_output@@V?$positional_parameter_base@DV?$stream_output_adapter@D@__crt_stdio_output@@@2@@__crt_stdio_output@@AEAA_NXZ 00000001801832fc f i libucrt:output.obj
 0001:00182748       ?state_case_type@?$output_processor@DV?$stream_output_adapter@D@__crt_stdio_output@@V?$standard_base@DV?$stream_output_adapter@D@__crt_stdio_output@@@2@@__crt_stdio_output@@AEAA_NXZ 0000000180183748 f i libucrt:output.obj
 0001:00182b7c       ?state_case_type@?$output_processor@DV?$string_output_adapter@D@__crt_stdio_output@@V?$format_validation_base@DV?$string_output_adapter@D@__crt_stdio_output@@@2@@__crt_stdio_output@@AEAA_NXZ 0000000180183b7c f i libucrt:output.obj
 0001:00182f48       ?state_case_type@?$output_processor@DV?$string_output_adapter@D@__crt_stdio_output@@V?$positional_parameter_base@DV?$string_output_adapter@D@__crt_stdio_output@@@2@@__crt_stdio_output@@AEAA_NXZ 0000000180183f48 f i libucrt:output.obj
 0001:0018332c       ?state_case_type@?$output_processor@DV?$string_output_adapter@D@__crt_stdio_output@@V?$standard_base@DV?$string_output_adapter@D@__crt_stdio_output@@@2@@__crt_stdio_output@@AEAA_NXZ 000000018018432c f i libucrt:output.obj
 0001:001836f8       ?state_case_type@?$output_processor@_WV?$stream_output_adapter@_W@__crt_stdio_output@@V?$format_validation_base@_WV?$stream_output_adapter@_W@__crt_stdio_output@@@2@@__crt_stdio_output@@AEAA_NXZ 00000001801846f8 f i libucrt:output.obj
 0001:00183bc8       ?state_case_type@?$output_processor@_WV?$stream_output_adapter@_W@__crt_stdio_output@@V?$positional_parameter_base@_WV?$stream_output_adapter@_W@__crt_stdio_output@@@2@@__crt_stdio_output@@AEAA_NXZ 0000000180184bc8 f i libucrt:output.obj
 0001:001840ac       ?state_case_type@?$output_processor@_WV?$stream_output_adapter@_W@__crt_stdio_output@@V?$standard_base@_WV?$stream_output_adapter@_W@__crt_stdio_output@@@2@@__crt_stdio_output@@AEAA_NXZ 00000001801850ac f i libucrt:output.obj
 0001:0018457c       ?state_case_type@?$output_processor@_WV?$string_output_adapter@_W@__crt_stdio_output@@V?$format_validation_base@_WV?$string_output_adapter@_W@__crt_stdio_output@@@2@@__crt_stdio_output@@AEAA_NXZ 000000018018557c f i libucrt:output.obj
 0001:001849d8       ?state_case_type@?$output_processor@_WV?$string_output_adapter@_W@__crt_stdio_output@@V?$positional_parameter_base@_WV?$string_output_adapter@_W@__crt_stdio_output@@@2@@__crt_stdio_output@@AEAA_NXZ 00000001801859d8 f i libucrt:output.obj
 0001:00184e4c       ?state_case_type@?$output_processor@_WV?$string_output_adapter@_W@__crt_stdio_output@@V?$standard_base@_WV?$string_output_adapter@_W@__crt_stdio_output@@@2@@__crt_stdio_output@@AEAA_NXZ 0000000180185e4c f i libucrt:output.obj
 0001:001852a8       ?state_case_width@?$output_processor@DV?$stream_output_adapter@D@__crt_stdio_output@@V?$format_validation_base@DV?$stream_output_adapter@D@__crt_stdio_output@@@2@@__crt_stdio_output@@AEAA_NXZ 00000001801862a8 f i libucrt:output.obj
 0001:001852dc       ?state_case_width@?$output_processor@DV?$stream_output_adapter@D@__crt_stdio_output@@V?$positional_parameter_base@DV?$stream_output_adapter@D@__crt_stdio_output@@@2@@__crt_stdio_output@@AEAA_NXZ 00000001801862dc f i libucrt:output.obj
 0001:0018532c       ?state_case_width@?$output_processor@DV?$stream_output_adapter@D@__crt_stdio_output@@V?$standard_base@DV?$stream_output_adapter@D@__crt_stdio_output@@@2@@__crt_stdio_output@@AEAA_NXZ 000000018018632c f i libucrt:output.obj
 0001:00185360       ?state_case_width@?$output_processor@DV?$string_output_adapter@D@__crt_stdio_output@@V?$format_validation_base@DV?$string_output_adapter@D@__crt_stdio_output@@@2@@__crt_stdio_output@@AEAA_NXZ 0000000180186360 f i libucrt:output.obj
 0001:00185394       ?state_case_width@?$output_processor@DV?$string_output_adapter@D@__crt_stdio_output@@V?$positional_parameter_base@DV?$string_output_adapter@D@__crt_stdio_output@@@2@@__crt_stdio_output@@AEAA_NXZ 0000000180186394 f i libucrt:output.obj
 0001:001853e4       ?state_case_width@?$output_processor@DV?$string_output_adapter@D@__crt_stdio_output@@V?$standard_base@DV?$string_output_adapter@D@__crt_stdio_output@@@2@@__crt_stdio_output@@AEAA_NXZ 00000001801863e4 f i libucrt:output.obj
 0001:00185418       ?state_case_width@?$output_processor@_WV?$stream_output_adapter@_W@__crt_stdio_output@@V?$format_validation_base@_WV?$stream_output_adapter@_W@__crt_stdio_output@@@2@@__crt_stdio_output@@AEAA_NXZ 0000000180186418 f i libucrt:output.obj
 0001:0018544c       ?state_case_width@?$output_processor@_WV?$stream_output_adapter@_W@__crt_stdio_output@@V?$positional_parameter_base@_WV?$stream_output_adapter@_W@__crt_stdio_output@@@2@@__crt_stdio_output@@AEAA_NXZ 000000018018644c f i libucrt:output.obj
 0001:001854a0       ?state_case_width@?$output_processor@_WV?$stream_output_adapter@_W@__crt_stdio_output@@V?$standard_base@_WV?$stream_output_adapter@_W@__crt_stdio_output@@@2@@__crt_stdio_output@@AEAA_NXZ 00000001801864a0 f i libucrt:output.obj
 0001:001854d4       ?state_case_width@?$output_processor@_WV?$string_output_adapter@_W@__crt_stdio_output@@V?$format_validation_base@_WV?$string_output_adapter@_W@__crt_stdio_output@@@2@@__crt_stdio_output@@AEAA_NXZ 00000001801864d4 f i libucrt:output.obj
 0001:00185508       ?state_case_width@?$output_processor@_WV?$string_output_adapter@_W@__crt_stdio_output@@V?$positional_parameter_base@_WV?$string_output_adapter@_W@__crt_stdio_output@@@2@@__crt_stdio_output@@AEAA_NXZ 0000000180186508 f i libucrt:output.obj
 0001:0018555c       ?state_case_width@?$output_processor@_WV?$string_output_adapter@_W@__crt_stdio_output@@V?$standard_base@_WV?$string_output_adapter@_W@__crt_stdio_output@@@2@@__crt_stdio_output@@AEAA_NXZ 000000018018655c f i libucrt:output.obj
 0001:00185590       ?state_count@?$format_validation_base@DV?$stream_output_adapter@D@__crt_stdio_output@@@__crt_stdio_output@@KAIXZ 0000000180186590 f i libucrt:output.obj
 0001:00185598       ?state_count@?$format_validation_base@DV?$string_output_adapter@D@__crt_stdio_output@@@__crt_stdio_output@@KAIXZ 0000000180186598 f i libucrt:output.obj
 0001:001855a0       ?state_count@?$format_validation_base@_WV?$stream_output_adapter@_W@__crt_stdio_output@@@__crt_stdio_output@@KAIXZ 00000001801865a0 f i libucrt:output.obj
 0001:001855a8       ?state_count@?$format_validation_base@_WV?$string_output_adapter@_W@__crt_stdio_output@@@__crt_stdio_output@@KAIXZ 00000001801865a8 f i libucrt:output.obj
 0001:001855b0       ?state_count@?$standard_base@DV?$stream_output_adapter@D@__crt_stdio_output@@@__crt_stdio_output@@KAIXZ 00000001801865b0 f i libucrt:output.obj
 0001:001855b8       ?state_count@?$standard_base@DV?$string_output_adapter@D@__crt_stdio_output@@@__crt_stdio_output@@KAIXZ 00000001801865b8 f i libucrt:output.obj
 0001:001855c0       ?state_count@?$standard_base@_WV?$stream_output_adapter@_W@__crt_stdio_output@@@__crt_stdio_output@@KAIXZ 00000001801865c0 f i libucrt:output.obj
 0001:001855c8       ?state_count@?$standard_base@_WV?$string_output_adapter@_W@__crt_stdio_output@@@__crt_stdio_output@@KAIXZ 00000001801865c8 f i libucrt:output.obj
 0001:001855d0       ?state_transition_table@?$format_validation_base@DV?$stream_output_adapter@D@__crt_stdio_output@@@__crt_stdio_output@@KAAEBV?$spectre_mitigated_lookup_table@Ustate_transition_pair@__crt_stdio_output@@$0IA@@2@XZ 00000001801865d0 f i libucrt:output.obj
 0001:001855d8       ?state_transition_table@?$format_validation_base@DV?$string_output_adapter@D@__crt_stdio_output@@@__crt_stdio_output@@KAAEBV?$spectre_mitigated_lookup_table@Ustate_transition_pair@__crt_stdio_output@@$0IA@@2@XZ 00000001801865d8 f i libucrt:output.obj
 0001:001855e0       ?state_transition_table@?$format_validation_base@_WV?$stream_output_adapter@_W@__crt_stdio_output@@@__crt_stdio_output@@KAAEBV?$spectre_mitigated_lookup_table@Ustate_transition_pair@__crt_stdio_output@@$0IA@@2@XZ 00000001801865e0 f i libucrt:output.obj
 0001:001855e8       ?state_transition_table@?$format_validation_base@_WV?$string_output_adapter@_W@__crt_stdio_output@@@__crt_stdio_output@@KAAEBV?$spectre_mitigated_lookup_table@Ustate_transition_pair@__crt_stdio_output@@$0IA@@2@XZ 00000001801865e8 f i libucrt:output.obj
 0001:001855f0       ?state_transition_table@?$standard_base@DV?$stream_output_adapter@D@__crt_stdio_output@@@__crt_stdio_output@@KAAEBV?$spectre_mitigated_lookup_table@Ustate_transition_pair@__crt_stdio_output@@$0IA@@2@XZ 00000001801865f0 f i libucrt:output.obj
 0001:001855f8       ?state_transition_table@?$standard_base@DV?$string_output_adapter@D@__crt_stdio_output@@@__crt_stdio_output@@KAAEBV?$spectre_mitigated_lookup_table@Ustate_transition_pair@__crt_stdio_output@@$0IA@@2@XZ 00000001801865f8 f i libucrt:output.obj
 0001:00185600       ?state_transition_table@?$standard_base@_WV?$stream_output_adapter@_W@__crt_stdio_output@@@__crt_stdio_output@@KAAEBV?$spectre_mitigated_lookup_table@Ustate_transition_pair@__crt_stdio_output@@$0IA@@2@XZ 0000000180186600 f i libucrt:output.obj
 0001:00185608       ?state_transition_table@?$standard_base@_WV?$string_output_adapter@_W@__crt_stdio_output@@@__crt_stdio_output@@KAAEBV?$spectre_mitigated_lookup_table@Ustate_transition_pair@__crt_stdio_output@@$0IA@@2@XZ 0000000180186608 f i libucrt:output.obj
 0001:00185610       ?tchar_string@?$common_data@D@__crt_stdio_output@@IEAAAEAPEADD@Z 0000000180186610 f i libucrt:output.obj
 0001:00185618       ?tchar_string@?$common_data@D@__crt_stdio_output@@IEAAAEAPEADXZ 0000000180186618 f i libucrt:output.obj
 0001:00185620       ?tchar_string@?$common_data@_W@__crt_stdio_output@@IEAAAEAPEA_WXZ 0000000180186620 f i libucrt:output.obj
 0001:00185628       ?tchar_string@?$common_data@_W@__crt_stdio_output@@IEAAAEAPEA_W_W@Z 0000000180186628 f i libucrt:output.obj
 0001:00185630       ?to_integer_size@__crt_stdio_output@@YA_KW4length_modifier@1@@Z 0000000180186630 f i libucrt:output.obj
 0001:00185678       ?type_case_X@?$output_processor@DV?$stream_output_adapter@D@__crt_stdio_output@@V?$format_validation_base@DV?$stream_output_adapter@D@__crt_stdio_output@@@2@@__crt_stdio_output@@AEAA_NXZ 0000000180186678 f i libucrt:output.obj
 0001:00185680       ?type_case_X@?$output_processor@DV?$stream_output_adapter@D@__crt_stdio_output@@V?$positional_parameter_base@DV?$stream_output_adapter@D@__crt_stdio_output@@@2@@__crt_stdio_output@@AEAA_NXZ 0000000180186680 f i libucrt:output.obj
 0001:00185688       ?type_case_X@?$output_processor@DV?$stream_output_adapter@D@__crt_stdio_output@@V?$standard_base@DV?$stream_output_adapter@D@__crt_stdio_output@@@2@@__crt_stdio_output@@AEAA_NXZ 0000000180186688 f i libucrt:output.obj
 0001:00185690       ?type_case_X@?$output_processor@DV?$string_output_adapter@D@__crt_stdio_output@@V?$format_validation_base@DV?$string_output_adapter@D@__crt_stdio_output@@@2@@__crt_stdio_output@@AEAA_NXZ 0000000180186690 f i libucrt:output.obj
 0001:00185698       ?type_case_X@?$output_processor@DV?$string_output_adapter@D@__crt_stdio_output@@V?$positional_parameter_base@DV?$string_output_adapter@D@__crt_stdio_output@@@2@@__crt_stdio_output@@AEAA_NXZ 0000000180186698 f i libucrt:output.obj
 0001:001856a0       ?type_case_X@?$output_processor@DV?$string_output_adapter@D@__crt_stdio_output@@V?$standard_base@DV?$string_output_adapter@D@__crt_stdio_output@@@2@@__crt_stdio_output@@AEAA_NXZ 00000001801866a0 f i libucrt:output.obj
 0001:001856a8       ?type_case_X@?$output_processor@_WV?$stream_output_adapter@_W@__crt_stdio_output@@V?$format_validation_base@_WV?$stream_output_adapter@_W@__crt_stdio_output@@@2@@__crt_stdio_output@@AEAA_NXZ 00000001801866a8 f i libucrt:output.obj
 0001:001856b0       ?type_case_X@?$output_processor@_WV?$stream_output_adapter@_W@__crt_stdio_output@@V?$positional_parameter_base@_WV?$stream_output_adapter@_W@__crt_stdio_output@@@2@@__crt_stdio_output@@AEAA_NXZ 00000001801866b0 f i libucrt:output.obj
 0001:001856b8       ?type_case_X@?$output_processor@_WV?$stream_output_adapter@_W@__crt_stdio_output@@V?$standard_base@_WV?$stream_output_adapter@_W@__crt_stdio_output@@@2@@__crt_stdio_output@@AEAA_NXZ 00000001801866b8 f i libucrt:output.obj
 0001:001856c0       ?type_case_X@?$output_processor@_WV?$string_output_adapter@_W@__crt_stdio_output@@V?$format_validation_base@_WV?$string_output_adapter@_W@__crt_stdio_output@@@2@@__crt_stdio_output@@AEAA_NXZ 00000001801866c0 f i libucrt:output.obj
 0001:001856c8       ?type_case_X@?$output_processor@_WV?$string_output_adapter@_W@__crt_stdio_output@@V?$positional_parameter_base@_WV?$string_output_adapter@_W@__crt_stdio_output@@@2@@__crt_stdio_output@@AEAA_NXZ 00000001801866c8 f i libucrt:output.obj
 0001:001856d0       ?type_case_X@?$output_processor@_WV?$string_output_adapter@_W@__crt_stdio_output@@V?$standard_base@_WV?$string_output_adapter@_W@__crt_stdio_output@@@2@@__crt_stdio_output@@AEAA_NXZ 00000001801866d0 f i libucrt:output.obj
 0001:001856d8       ?type_case_Z@?$output_processor@DV?$stream_output_adapter@D@__crt_stdio_output@@V?$format_validation_base@DV?$stream_output_adapter@D@__crt_stdio_output@@@2@@__crt_stdio_output@@AEAA_NXZ 00000001801866d8 f i libucrt:output.obj
 0001:00185750       ?type_case_Z@?$output_processor@DV?$stream_output_adapter@D@__crt_stdio_output@@V?$positional_parameter_base@DV?$stream_output_adapter@D@__crt_stdio_output@@@2@@__crt_stdio_output@@AEAA_NXZ 0000000180186750 f i libucrt:output.obj
 0001:001857f8       ?type_case_Z@?$output_processor@DV?$stream_output_adapter@D@__crt_stdio_output@@V?$standard_base@DV?$stream_output_adapter@D@__crt_stdio_output@@@2@@__crt_stdio_output@@AEAA_NXZ 00000001801867f8 f i libucrt:output.obj
 0001:00185870       ?type_case_Z@?$output_processor@DV?$string_output_adapter@D@__crt_stdio_output@@V?$format_validation_base@DV?$string_output_adapter@D@__crt_stdio_output@@@2@@__crt_stdio_output@@AEAA_NXZ 0000000180186870 f i libucrt:output.obj
 0001:001858e8       ?type_case_Z@?$output_processor@DV?$string_output_adapter@D@__crt_stdio_output@@V?$positional_parameter_base@DV?$string_output_adapter@D@__crt_stdio_output@@@2@@__crt_stdio_output@@AEAA_NXZ 00000001801868e8 f i libucrt:output.obj
 0001:00185990       ?type_case_Z@?$output_processor@DV?$string_output_adapter@D@__crt_stdio_output@@V?$standard_base@DV?$string_output_adapter@D@__crt_stdio_output@@@2@@__crt_stdio_output@@AEAA_NXZ 0000000180186990 f i libucrt:output.obj
 0001:00185a08       ?type_case_Z@?$output_processor@_WV?$stream_output_adapter@_W@__crt_stdio_output@@V?$format_validation_base@_WV?$stream_output_adapter@_W@__crt_stdio_output@@@2@@__crt_stdio_output@@AEAA_NXZ 0000000180186a08 f i libucrt:output.obj
 0001:00185a84       ?type_case_Z@?$output_processor@_WV?$stream_output_adapter@_W@__crt_stdio_output@@V?$positional_parameter_base@_WV?$stream_output_adapter@_W@__crt_stdio_output@@@2@@__crt_stdio_output@@AEAA_NXZ 0000000180186a84 f i libucrt:output.obj
 0001:00185b1c       ?type_case_Z@?$output_processor@_WV?$stream_output_adapter@_W@__crt_stdio_output@@V?$standard_base@_WV?$stream_output_adapter@_W@__crt_stdio_output@@@2@@__crt_stdio_output@@AEAA_NXZ 0000000180186b1c f i libucrt:output.obj
 0001:00185b98       ?type_case_Z@?$output_processor@_WV?$string_output_adapter@_W@__crt_stdio_output@@V?$format_validation_base@_WV?$string_output_adapter@_W@__crt_stdio_output@@@2@@__crt_stdio_output@@AEAA_NXZ 0000000180186b98 f i libucrt:output.obj
 0001:00185c14       ?type_case_Z@?$output_processor@_WV?$string_output_adapter@_W@__crt_stdio_output@@V?$positional_parameter_base@_WV?$string_output_adapter@_W@__crt_stdio_output@@@2@@__crt_stdio_output@@AEAA_NXZ 0000000180186c14 f i libucrt:output.obj
 0001:00185cac       ?type_case_Z@?$output_processor@_WV?$string_output_adapter@_W@__crt_stdio_output@@V?$standard_base@_WV?$string_output_adapter@_W@__crt_stdio_output@@@2@@__crt_stdio_output@@AEAA_NXZ 0000000180186cac f i libucrt:output.obj
 0001:00185d28       ?type_case_a@?$output_processor@DV?$stream_output_adapter@D@__crt_stdio_output@@V?$format_validation_base@DV?$stream_output_adapter@D@__crt_stdio_output@@@2@@__crt_stdio_output@@AEAA_NXZ 0000000180186d28 f i libucrt:output.obj
 0001:00185f74       ?type_case_a@?$output_processor@DV?$stream_output_adapter@D@__crt_stdio_output@@V?$positional_parameter_base@DV?$stream_output_adapter@D@__crt_stdio_output@@@2@@__crt_stdio_output@@AEAA_NXZ 0000000180186f74 f i libucrt:output.obj
 0001:001861f0       ?type_case_a@?$output_processor@DV?$stream_output_adapter@D@__crt_stdio_output@@V?$standard_base@DV?$stream_output_adapter@D@__crt_stdio_output@@@2@@__crt_stdio_output@@AEAA_NXZ 00000001801871f0 f i libucrt:output.obj
 0001:0018643c       ?type_case_a@?$output_processor@DV?$string_output_adapter@D@__crt_stdio_output@@V?$format_validation_base@DV?$string_output_adapter@D@__crt_stdio_output@@@2@@__crt_stdio_output@@AEAA_NXZ 000000018018743c f i libucrt:output.obj
 0001:00186688       ?type_case_a@?$output_processor@DV?$string_output_adapter@D@__crt_stdio_output@@V?$positional_parameter_base@DV?$string_output_adapter@D@__crt_stdio_output@@@2@@__crt_stdio_output@@AEAA_NXZ 0000000180187688 f i libucrt:output.obj
 0001:00186904       ?type_case_a@?$output_processor@DV?$string_output_adapter@D@__crt_stdio_output@@V?$standard_base@DV?$string_output_adapter@D@__crt_stdio_output@@@2@@__crt_stdio_output@@AEAA_NXZ 0000000180187904 f i libucrt:output.obj
 0001:00186b50       ?type_case_a@?$output_processor@_WV?$stream_output_adapter@_W@__crt_stdio_output@@V?$format_validation_base@_WV?$stream_output_adapter@_W@__crt_stdio_output@@@2@@__crt_stdio_output@@AEAA_NXZ 0000000180187b50 f i libucrt:output.obj
 0001:00186db0       ?type_case_a@?$output_processor@_WV?$stream_output_adapter@_W@__crt_stdio_output@@V?$positional_parameter_base@_WV?$stream_output_adapter@_W@__crt_stdio_output@@@2@@__crt_stdio_output@@AEAA_NXZ 0000000180187db0 f i libucrt:output.obj
 0001:00187044       ?type_case_a@?$output_processor@_WV?$stream_output_adapter@_W@__crt_stdio_output@@V?$standard_base@_WV?$stream_output_adapter@_W@__crt_stdio_output@@@2@@__crt_stdio_output@@AEAA_NXZ 0000000180188044 f i libucrt:output.obj
 0001:001872a4       ?type_case_a@?$output_processor@_WV?$string_output_adapter@_W@__crt_stdio_output@@V?$format_validation_base@_WV?$string_output_adapter@_W@__crt_stdio_output@@@2@@__crt_stdio_output@@AEAA_NXZ 00000001801882a4 f i libucrt:output.obj
 0001:00187504       ?type_case_a@?$output_processor@_WV?$string_output_adapter@_W@__crt_stdio_output@@V?$positional_parameter_base@_WV?$string_output_adapter@_W@__crt_stdio_output@@@2@@__crt_stdio_output@@AEAA_NXZ 0000000180188504 f i libucrt:output.obj
 0001:00187798       ?type_case_a@?$output_processor@_WV?$string_output_adapter@_W@__crt_stdio_output@@V?$standard_base@_WV?$string_output_adapter@_W@__crt_stdio_output@@@2@@__crt_stdio_output@@AEAA_NXZ 0000000180188798 f i libucrt:output.obj
 0001:001879f8       ?type_case_c@?$output_processor@DV?$stream_output_adapter@D@__crt_stdio_output@@V?$format_validation_base@DV?$stream_output_adapter@D@__crt_stdio_output@@@2@@__crt_stdio_output@@AEAA_NXZ 00000001801889f8 f i libucrt:output.obj
 0001:00187a00       ?type_case_c@?$output_processor@DV?$stream_output_adapter@D@__crt_stdio_output@@V?$positional_parameter_base@DV?$stream_output_adapter@D@__crt_stdio_output@@@2@@__crt_stdio_output@@AEAA_NXZ 0000000180188a00 f i libucrt:output.obj
 0001:00187a08       ?type_case_c@?$output_processor@DV?$stream_output_adapter@D@__crt_stdio_output@@V?$standard_base@DV?$stream_output_adapter@D@__crt_stdio_output@@@2@@__crt_stdio_output@@AEAA_NXZ 0000000180188a08 f i libucrt:output.obj
 0001:00187a10       ?type_case_c@?$output_processor@DV?$string_output_adapter@D@__crt_stdio_output@@V?$format_validation_base@DV?$string_output_adapter@D@__crt_stdio_output@@@2@@__crt_stdio_output@@AEAA_NXZ 0000000180188a10 f i libucrt:output.obj
 0001:00187a18       ?type_case_c@?$output_processor@DV?$string_output_adapter@D@__crt_stdio_output@@V?$positional_parameter_base@DV?$string_output_adapter@D@__crt_stdio_output@@@2@@__crt_stdio_output@@AEAA_NXZ 0000000180188a18 f i libucrt:output.obj
 0001:00187a20       ?type_case_c@?$output_processor@DV?$string_output_adapter@D@__crt_stdio_output@@V?$standard_base@DV?$string_output_adapter@D@__crt_stdio_output@@@2@@__crt_stdio_output@@AEAA_NXZ 0000000180188a20 f i libucrt:output.obj
 0001:00187a28       ?type_case_c@?$output_processor@_WV?$stream_output_adapter@_W@__crt_stdio_output@@V?$format_validation_base@_WV?$stream_output_adapter@_W@__crt_stdio_output@@@2@@__crt_stdio_output@@AEAA_NXZ 0000000180188a28 f i libucrt:output.obj
 0001:00187a30       ?type_case_c@?$output_processor@_WV?$stream_output_adapter@_W@__crt_stdio_output@@V?$positional_parameter_base@_WV?$stream_output_adapter@_W@__crt_stdio_output@@@2@@__crt_stdio_output@@AEAA_NXZ 0000000180188a30 f i libucrt:output.obj
 0001:00187a38       ?type_case_c@?$output_processor@_WV?$stream_output_adapter@_W@__crt_stdio_output@@V?$standard_base@_WV?$stream_output_adapter@_W@__crt_stdio_output@@@2@@__crt_stdio_output@@AEAA_NXZ 0000000180188a38 f i libucrt:output.obj
 0001:00187a40       ?type_case_c@?$output_processor@_WV?$string_output_adapter@_W@__crt_stdio_output@@V?$format_validation_base@_WV?$string_output_adapter@_W@__crt_stdio_output@@@2@@__crt_stdio_output@@AEAA_NXZ 0000000180188a40 f i libucrt:output.obj
 0001:00187a48       ?type_case_c@?$output_processor@_WV?$string_output_adapter@_W@__crt_stdio_output@@V?$positional_parameter_base@_WV?$string_output_adapter@_W@__crt_stdio_output@@@2@@__crt_stdio_output@@AEAA_NXZ 0000000180188a48 f i libucrt:output.obj
 0001:00187a50       ?type_case_c@?$output_processor@_WV?$string_output_adapter@_W@__crt_stdio_output@@V?$standard_base@_WV?$string_output_adapter@_W@__crt_stdio_output@@@2@@__crt_stdio_output@@AEAA_NXZ 0000000180188a50 f i libucrt:output.obj
 0001:00187a58       ?type_case_c_tchar@?$output_processor@DV?$stream_output_adapter@D@__crt_stdio_output@@V?$format_validation_base@DV?$stream_output_adapter@D@__crt_stdio_output@@@2@@__crt_stdio_output@@AEAA_ND@Z 0000000180188a58 f i libucrt:output.obj
 0001:00187b1c       ?type_case_c_tchar@?$output_processor@DV?$stream_output_adapter@D@__crt_stdio_output@@V?$positional_parameter_base@DV?$stream_output_adapter@D@__crt_stdio_output@@@2@@__crt_stdio_output@@AEAA_ND@Z 0000000180188b1c f i libucrt:output.obj
 0001:00187c28       ?type_case_c_tchar@?$output_processor@DV?$stream_output_adapter@D@__crt_stdio_output@@V?$standard_base@DV?$stream_output_adapter@D@__crt_stdio_output@@@2@@__crt_stdio_output@@AEAA_ND@Z 0000000180188c28 f i libucrt:output.obj
 0001:00187cec       ?type_case_c_tchar@?$output_processor@DV?$string_output_adapter@D@__crt_stdio_output@@V?$format_validation_base@DV?$string_output_adapter@D@__crt_stdio_output@@@2@@__crt_stdio_output@@AEAA_ND@Z 0000000180188cec f i libucrt:output.obj
 0001:00187db0       ?type_case_c_tchar@?$output_processor@DV?$string_output_adapter@D@__crt_stdio_output@@V?$positional_parameter_base@DV?$string_output_adapter@D@__crt_stdio_output@@@2@@__crt_stdio_output@@AEAA_ND@Z 0000000180188db0 f i libucrt:output.obj
 0001:00187ebc       ?type_case_c_tchar@?$output_processor@DV?$string_output_adapter@D@__crt_stdio_output@@V?$standard_base@DV?$string_output_adapter@D@__crt_stdio_output@@@2@@__crt_stdio_output@@AEAA_ND@Z 0000000180188ebc f i libucrt:output.obj
 0001:00187f80       ?type_case_c_tchar@?$output_processor@_WV?$stream_output_adapter@_W@__crt_stdio_output@@V?$format_validation_base@_WV?$stream_output_adapter@_W@__crt_stdio_output@@@2@@__crt_stdio_output@@AEAA_N_W@Z 0000000180188f80 f i libucrt:output.obj
 0001:00188044       ?type_case_c_tchar@?$output_processor@_WV?$stream_output_adapter@_W@__crt_stdio_output@@V?$positional_parameter_base@_WV?$stream_output_adapter@_W@__crt_stdio_output@@@2@@__crt_stdio_output@@AEAA_N_W@Z 0000000180189044 f i libucrt:output.obj
 0001:0018813c       ?type_case_c_tchar@?$output_processor@_WV?$stream_output_adapter@_W@__crt_stdio_output@@V?$standard_base@_WV?$stream_output_adapter@_W@__crt_stdio_output@@@2@@__crt_stdio_output@@AEAA_N_W@Z 000000018018913c f i libucrt:output.obj
 0001:00188200       ?type_case_c_tchar@?$output_processor@_WV?$string_output_adapter@_W@__crt_stdio_output@@V?$format_validation_base@_WV?$string_output_adapter@_W@__crt_stdio_output@@@2@@__crt_stdio_output@@AEAA_N_W@Z 0000000180189200 f i libucrt:output.obj
 0001:001882c4       ?type_case_c_tchar@?$output_processor@_WV?$string_output_adapter@_W@__crt_stdio_output@@V?$positional_parameter_base@_WV?$string_output_adapter@_W@__crt_stdio_output@@@2@@__crt_stdio_output@@AEAA_N_W@Z 00000001801892c4 f i libucrt:output.obj
 0001:001883bc       ?type_case_c_tchar@?$output_processor@_WV?$string_output_adapter@_W@__crt_stdio_output@@V?$standard_base@_WV?$string_output_adapter@_W@__crt_stdio_output@@@2@@__crt_stdio_output@@AEAA_N_W@Z 00000001801893bc f i libucrt:output.obj
 0001:00188480       ?type_case_d@?$output_processor@DV?$stream_output_adapter@D@__crt_stdio_output@@V?$format_validation_base@DV?$stream_output_adapter@D@__crt_stdio_output@@@2@@__crt_stdio_output@@AEAA_NXZ 0000000180189480 f i libucrt:output.obj
 0001:0018848c       ?type_case_d@?$output_processor@DV?$stream_output_adapter@D@__crt_stdio_output@@V?$positional_parameter_base@DV?$stream_output_adapter@D@__crt_stdio_output@@@2@@__crt_stdio_output@@AEAA_NXZ 000000018018948c f i libucrt:output.obj
 0001:00188498       ?type_case_d@?$output_processor@DV?$stream_output_adapter@D@__crt_stdio_output@@V?$standard_base@DV?$stream_output_adapter@D@__crt_stdio_output@@@2@@__crt_stdio_output@@AEAA_NXZ 0000000180189498 f i libucrt:output.obj
 0001:001884a4       ?type_case_d@?$output_processor@DV?$string_output_adapter@D@__crt_stdio_output@@V?$format_validation_base@DV?$string_output_adapter@D@__crt_stdio_output@@@2@@__crt_stdio_output@@AEAA_NXZ 00000001801894a4 f i libucrt:output.obj
 0001:001884b0       ?type_case_d@?$output_processor@DV?$string_output_adapter@D@__crt_stdio_output@@V?$positional_parameter_base@DV?$string_output_adapter@D@__crt_stdio_output@@@2@@__crt_stdio_output@@AEAA_NXZ 00000001801894b0 f i libucrt:output.obj
 0001:001884bc       ?type_case_d@?$output_processor@DV?$string_output_adapter@D@__crt_stdio_output@@V?$standard_base@DV?$string_output_adapter@D@__crt_stdio_output@@@2@@__crt_stdio_output@@AEAA_NXZ 00000001801894bc f i libucrt:output.obj
 0001:001884c8       ?type_case_d@?$output_processor@_WV?$stream_output_adapter@_W@__crt_stdio_output@@V?$format_validation_base@_WV?$stream_output_adapter@_W@__crt_stdio_output@@@2@@__crt_stdio_output@@AEAA_NXZ 00000001801894c8 f i libucrt:output.obj
 0001:001884d4       ?type_case_d@?$output_processor@_WV?$stream_output_adapter@_W@__crt_stdio_output@@V?$positional_parameter_base@_WV?$stream_output_adapter@_W@__crt_stdio_output@@@2@@__crt_stdio_output@@AEAA_NXZ 00000001801894d4 f i libucrt:output.obj
 0001:001884e0       ?type_case_d@?$output_processor@_WV?$stream_output_adapter@_W@__crt_stdio_output@@V?$standard_base@_WV?$stream_output_adapter@_W@__crt_stdio_output@@@2@@__crt_stdio_output@@AEAA_NXZ 00000001801894e0 f i libucrt:output.obj
 0001:001884ec       ?type_case_d@?$output_processor@_WV?$string_output_adapter@_W@__crt_stdio_output@@V?$format_validation_base@_WV?$string_output_adapter@_W@__crt_stdio_output@@@2@@__crt_stdio_output@@AEAA_NXZ 00000001801894ec f i libucrt:output.obj
 0001:001884f8       ?type_case_d@?$output_processor@_WV?$string_output_adapter@_W@__crt_stdio_output@@V?$positional_parameter_base@_WV?$string_output_adapter@_W@__crt_stdio_output@@@2@@__crt_stdio_output@@AEAA_NXZ 00000001801894f8 f i libucrt:output.obj
 0001:00188504       ?type_case_d@?$output_processor@_WV?$string_output_adapter@_W@__crt_stdio_output@@V?$standard_base@_WV?$string_output_adapter@_W@__crt_stdio_output@@@2@@__crt_stdio_output@@AEAA_NXZ 0000000180189504 f i libucrt:output.obj
 0001:00188510       ?type_case_n@?$output_processor@DV?$stream_output_adapter@D@__crt_stdio_output@@V?$format_validation_base@DV?$stream_output_adapter@D@__crt_stdio_output@@@2@@__crt_stdio_output@@AEAA_NXZ 0000000180189510 f i libucrt:output.obj
 0001:001885c4       ?type_case_n@?$output_processor@DV?$stream_output_adapter@D@__crt_stdio_output@@V?$positional_parameter_base@DV?$stream_output_adapter@D@__crt_stdio_output@@@2@@__crt_stdio_output@@AEAA_NXZ 00000001801895c4 f i libucrt:output.obj
 0001:001886a8       ?type_case_n@?$output_processor@DV?$stream_output_adapter@D@__crt_stdio_output@@V?$standard_base@DV?$stream_output_adapter@D@__crt_stdio_output@@@2@@__crt_stdio_output@@AEAA_NXZ 00000001801896a8 f i libucrt:output.obj
 0001:0018875c       ?type_case_n@?$output_processor@DV?$string_output_adapter@D@__crt_stdio_output@@V?$format_validation_base@DV?$string_output_adapter@D@__crt_stdio_output@@@2@@__crt_stdio_output@@AEAA_NXZ 000000018018975c f i libucrt:output.obj
 0001:00188810       ?type_case_n@?$output_processor@DV?$string_output_adapter@D@__crt_stdio_output@@V?$positional_parameter_base@DV?$string_output_adapter@D@__crt_stdio_output@@@2@@__crt_stdio_output@@AEAA_NXZ 0000000180189810 f i libucrt:output.obj
 0001:001888f4       ?type_case_n@?$output_processor@DV?$string_output_adapter@D@__crt_stdio_output@@V?$standard_base@DV?$string_output_adapter@D@__crt_stdio_output@@@2@@__crt_stdio_output@@AEAA_NXZ 00000001801898f4 f i libucrt:output.obj
 0001:001889a8       ?type_case_n@?$output_processor@_WV?$stream_output_adapter@_W@__crt_stdio_output@@V?$format_validation_base@_WV?$stream_output_adapter@_W@__crt_stdio_output@@@2@@__crt_stdio_output@@AEAA_NXZ 00000001801899a8 f i libucrt:output.obj
 0001:00188a5c       ?type_case_n@?$output_processor@_WV?$stream_output_adapter@_W@__crt_stdio_output@@V?$positional_parameter_base@_WV?$stream_output_adapter@_W@__crt_stdio_output@@@2@@__crt_stdio_output@@AEAA_NXZ 0000000180189a5c f i libucrt:output.obj
 0001:00188b40       ?type_case_n@?$output_processor@_WV?$stream_output_adapter@_W@__crt_stdio_output@@V?$standard_base@_WV?$stream_output_adapter@_W@__crt_stdio_output@@@2@@__crt_stdio_output@@AEAA_NXZ 0000000180189b40 f i libucrt:output.obj
 0001:00188bf4       ?type_case_n@?$output_processor@_WV?$string_output_adapter@_W@__crt_stdio_output@@V?$format_validation_base@_WV?$string_output_adapter@_W@__crt_stdio_output@@@2@@__crt_stdio_output@@AEAA_NXZ 0000000180189bf4 f i libucrt:output.obj
 0001:00188ca8       ?type_case_n@?$output_processor@_WV?$string_output_adapter@_W@__crt_stdio_output@@V?$positional_parameter_base@_WV?$string_output_adapter@_W@__crt_stdio_output@@@2@@__crt_stdio_output@@AEAA_NXZ 0000000180189ca8 f i libucrt:output.obj
 0001:00188d8c       ?type_case_n@?$output_processor@_WV?$string_output_adapter@_W@__crt_stdio_output@@V?$standard_base@_WV?$string_output_adapter@_W@__crt_stdio_output@@@2@@__crt_stdio_output@@AEAA_NXZ 0000000180189d8c f i libucrt:output.obj
 0001:00188e40       ?type_case_o@?$output_processor@DV?$stream_output_adapter@D@__crt_stdio_output@@V?$format_validation_base@DV?$stream_output_adapter@D@__crt_stdio_output@@@2@@__crt_stdio_output@@AEAA_NXZ 0000000180189e40 f i libucrt:output.obj
 0001:00188e5c       ?type_case_o@?$output_processor@DV?$stream_output_adapter@D@__crt_stdio_output@@V?$positional_parameter_base@DV?$stream_output_adapter@D@__crt_stdio_output@@@2@@__crt_stdio_output@@AEAA_NXZ 0000000180189e5c f i libucrt:output.obj
 0001:00188e78       ?type_case_o@?$output_processor@DV?$stream_output_adapter@D@__crt_stdio_output@@V?$standard_base@DV?$stream_output_adapter@D@__crt_stdio_output@@@2@@__crt_stdio_output@@AEAA_NXZ 0000000180189e78 f i libucrt:output.obj
 0001:00188e94       ?type_case_o@?$output_processor@DV?$string_output_adapter@D@__crt_stdio_output@@V?$format_validation_base@DV?$string_output_adapter@D@__crt_stdio_output@@@2@@__crt_stdio_output@@AEAA_NXZ 0000000180189e94 f i libucrt:output.obj
 0001:00188eb0       ?type_case_o@?$output_processor@DV?$string_output_adapter@D@__crt_stdio_output@@V?$positional_parameter_base@DV?$string_output_adapter@D@__crt_stdio_output@@@2@@__crt_stdio_output@@AEAA_NXZ 0000000180189eb0 f i libucrt:output.obj
 0001:00188ecc       ?type_case_o@?$output_processor@DV?$string_output_adapter@D@__crt_stdio_output@@V?$standard_base@DV?$string_output_adapter@D@__crt_stdio_output@@@2@@__crt_stdio_output@@AEAA_NXZ 0000000180189ecc f i libucrt:output.obj
 0001:00188ee8       ?type_case_o@?$output_processor@_WV?$stream_output_adapter@_W@__crt_stdio_output@@V?$format_validation_base@_WV?$stream_output_adapter@_W@__crt_stdio_output@@@2@@__crt_stdio_output@@AEAA_NXZ 0000000180189ee8 f i libucrt:output.obj
 0001:00188f04       ?type_case_o@?$output_processor@_WV?$stream_output_adapter@_W@__crt_stdio_output@@V?$positional_parameter_base@_WV?$stream_output_adapter@_W@__crt_stdio_output@@@2@@__crt_stdio_output@@AEAA_NXZ 0000000180189f04 f i libucrt:output.obj
 0001:00188f20       ?type_case_o@?$output_processor@_WV?$stream_output_adapter@_W@__crt_stdio_output@@V?$standard_base@_WV?$stream_output_adapter@_W@__crt_stdio_output@@@2@@__crt_stdio_output@@AEAA_NXZ 0000000180189f20 f i libucrt:output.obj
 0001:00188f3c       ?type_case_o@?$output_processor@_WV?$string_output_adapter@_W@__crt_stdio_output@@V?$format_validation_base@_WV?$string_output_adapter@_W@__crt_stdio_output@@@2@@__crt_stdio_output@@AEAA_NXZ 0000000180189f3c f i libucrt:output.obj
 0001:00188f58       ?type_case_o@?$output_processor@_WV?$string_output_adapter@_W@__crt_stdio_output@@V?$positional_parameter_base@_WV?$string_output_adapter@_W@__crt_stdio_output@@@2@@__crt_stdio_output@@AEAA_NXZ 0000000180189f58 f i libucrt:output.obj
 0001:00188f74       ?type_case_o@?$output_processor@_WV?$string_output_adapter@_W@__crt_stdio_output@@V?$standard_base@_WV?$string_output_adapter@_W@__crt_stdio_output@@@2@@__crt_stdio_output@@AEAA_NXZ 0000000180189f74 f i libucrt:output.obj
 0001:00188f90       ?type_case_p@?$output_processor@DV?$stream_output_adapter@D@__crt_stdio_output@@V?$format_validation_base@DV?$stream_output_adapter@D@__crt_stdio_output@@@2@@__crt_stdio_output@@AEAA_NXZ 0000000180189f90 f i libucrt:output.obj
 0001:00188fa8       ?type_case_p@?$output_processor@DV?$stream_output_adapter@D@__crt_stdio_output@@V?$positional_parameter_base@DV?$stream_output_adapter@D@__crt_stdio_output@@@2@@__crt_stdio_output@@AEAA_NXZ 0000000180189fa8 f i libucrt:output.obj
 0001:00188fc0       ?type_case_p@?$output_processor@DV?$stream_output_adapter@D@__crt_stdio_output@@V?$standard_base@DV?$stream_output_adapter@D@__crt_stdio_output@@@2@@__crt_stdio_output@@AEAA_NXZ 0000000180189fc0 f i libucrt:output.obj
 0001:00188fd8       ?type_case_p@?$output_processor@DV?$string_output_adapter@D@__crt_stdio_output@@V?$format_validation_base@DV?$string_output_adapter@D@__crt_stdio_output@@@2@@__crt_stdio_output@@AEAA_NXZ 0000000180189fd8 f i libucrt:output.obj
 0001:00188ff0       ?type_case_p@?$output_processor@DV?$string_output_adapter@D@__crt_stdio_output@@V?$positional_parameter_base@DV?$string_output_adapter@D@__crt_stdio_output@@@2@@__crt_stdio_output@@AEAA_NXZ 0000000180189ff0 f i libucrt:output.obj
 0001:00189008       ?type_case_p@?$output_processor@DV?$string_output_adapter@D@__crt_stdio_output@@V?$standard_base@DV?$string_output_adapter@D@__crt_stdio_output@@@2@@__crt_stdio_output@@AEAA_NXZ 000000018018a008 f i libucrt:output.obj
 0001:00189020       ?type_case_p@?$output_processor@_WV?$stream_output_adapter@_W@__crt_stdio_output@@V?$format_validation_base@_WV?$stream_output_adapter@_W@__crt_stdio_output@@@2@@__crt_stdio_output@@AEAA_NXZ 000000018018a020 f i libucrt:output.obj
 0001:00189038       ?type_case_p@?$output_processor@_WV?$stream_output_adapter@_W@__crt_stdio_output@@V?$positional_parameter_base@_WV?$stream_output_adapter@_W@__crt_stdio_output@@@2@@__crt_stdio_output@@AEAA_NXZ 000000018018a038 f i libucrt:output.obj
 0001:00189050       ?type_case_p@?$output_processor@_WV?$stream_output_adapter@_W@__crt_stdio_output@@V?$standard_base@_WV?$stream_output_adapter@_W@__crt_stdio_output@@@2@@__crt_stdio_output@@AEAA_NXZ 000000018018a050 f i libucrt:output.obj
 0001:00189068       ?type_case_p@?$output_processor@_WV?$string_output_adapter@_W@__crt_stdio_output@@V?$format_validation_base@_WV?$string_output_adapter@_W@__crt_stdio_output@@@2@@__crt_stdio_output@@AEAA_NXZ 000000018018a068 f i libucrt:output.obj
 0001:00189080       ?type_case_p@?$output_processor@_WV?$string_output_adapter@_W@__crt_stdio_output@@V?$positional_parameter_base@_WV?$string_output_adapter@_W@__crt_stdio_output@@@2@@__crt_stdio_output@@AEAA_NXZ 000000018018a080 f i libucrt:output.obj
 0001:00189098       ?type_case_p@?$output_processor@_WV?$string_output_adapter@_W@__crt_stdio_output@@V?$standard_base@_WV?$string_output_adapter@_W@__crt_stdio_output@@@2@@__crt_stdio_output@@AEAA_NXZ 000000018018a098 f i libucrt:output.obj
 0001:001890b0       ?type_case_s@?$output_processor@DV?$stream_output_adapter@D@__crt_stdio_output@@V?$format_validation_base@DV?$stream_output_adapter@D@__crt_stdio_output@@@2@@__crt_stdio_output@@AEAA_NXZ 000000018018a0b0 f i libucrt:output.obj
 0001:00189148       ?type_case_s@?$output_processor@DV?$stream_output_adapter@D@__crt_stdio_output@@V?$positional_parameter_base@DV?$stream_output_adapter@D@__crt_stdio_output@@@2@@__crt_stdio_output@@AEAA_NXZ 000000018018a148 f i libucrt:output.obj
 0001:00189200       ?type_case_s@?$output_processor@DV?$stream_output_adapter@D@__crt_stdio_output@@V?$standard_base@DV?$stream_output_adapter@D@__crt_stdio_output@@@2@@__crt_stdio_output@@AEAA_NXZ 000000018018a200 f i libucrt:output.obj
 0001:00189298       ?type_case_s@?$output_processor@DV?$string_output_adapter@D@__crt_stdio_output@@V?$format_validation_base@DV?$string_output_adapter@D@__crt_stdio_output@@@2@@__crt_stdio_output@@AEAA_NXZ 000000018018a298 f i libucrt:output.obj
 0001:00189330       ?type_case_s@?$output_processor@DV?$string_output_adapter@D@__crt_stdio_output@@V?$positional_parameter_base@DV?$string_output_adapter@D@__crt_stdio_output@@@2@@__crt_stdio_output@@AEAA_NXZ 000000018018a330 f i libucrt:output.obj
 0001:001893e8       ?type_case_s@?$output_processor@DV?$string_output_adapter@D@__crt_stdio_output@@V?$standard_base@DV?$string_output_adapter@D@__crt_stdio_output@@@2@@__crt_stdio_output@@AEAA_NXZ 000000018018a3e8 f i libucrt:output.obj
