 PhysX3CharacterKinematicDEBUG_x64

 Timestamp is 64717ee6 (Sat May 27 11:54:14 2023)

 Preferred load address is 0000000180000000

 Start         Length     Name                   Class
 0001:00000000 0000c580H .text$di                CODE
 0001:0000c580 00104df0H .text$mn                CODE
 0001:00111370 00001040H .text$mn$00             CODE
 0001:001123b0 000022b8H .text$x                 CODE
 0002:00000000 00000110H .CRT$XCA                DATA
 0002:00000110 00000140H .CRT$XCU                DATA
 0002:00000250 00000110H .CRT$XCZ                DATA
 0002:00000360 00000110H .CRT$XIA                DATA
 0002:00000470 00000130H .CRT$XIC                DATA
 0002:000005a0 00000110H .CRT$XIZ                DATA
 0002:000006b0 00000110H .CRT$XPA                DATA
 0002:000007c0 00000120H .CRT$XPX                DATA
 0002:000008e0 00000110H .CRT$XPXA               DATA
 0002:000009f0 00000110H .CRT$XPZ                DATA
 0002:00000b00 00000110H .CRT$XTA                DATA
 0002:00000c10 00000110H .CRT$XTZ                DATA
 0002:00000d20 0002a6e0H .rdata                  DATA
 0002:0002b400 00000200H .rdata$CastGuardVftablesA DATA
 0002:0002b600 000001a0H .rdata$CastGuardVftablesC DATA
 0002:0002b7a0 0000060cH .rdata$r                DATA
 0002:0002bdac 000001bcH .rdata$zzzdbg           DATA
 0002:0002bf68 00000110H .rtc$IAA                DATA
 0002:0002c078 000001d0H .rtc$IMZ                DATA
 0002:0002c248 00000110H .rtc$IZZ                DATA
 0002:0002c358 00000110H .rtc$TAA                DATA
 0002:0002c468 000001d0H .rtc$TMZ                DATA
 0002:0002c638 00000118H .rtc$TZZ                DATA
 0002:0002c750 000095e0H .xdata                  DATA
 0002:00035d30 000001a0H .xdata$x                DATA
 0002:00035ed0 00000b11H .edata                  DATA
 0003:00000000 00000ed8H .data                   DATA
 0003:00000ed8 00000308H .data$r                 DATA
 0003:000011e0 00000230H .data$rs                DATA
 0003:00001410 000022b9H .bss                    DATA
 0004:00000000 0000bbecH .pdata                  DATA
 0005:00000000 000005e8H .idata$5                DATA
 0005:000005e8 0000003cH .idata$2                DATA
 0005:00000624 00000014H .idata$3                DATA
 0005:00000638 000005e8H .idata$4                DATA
 0005:00000c20 00001548H .idata$6                DATA
 0006:00000000 00000175H .00cfg                  DATA
 0007:00000000 0000029fH _RDATA                  DATA
 0008:00000000 000001c0H .rsrc$01                DATA
 0008:000001c0 00000700H .rsrc$02                DATA

  Address         Publics by Value              Rva+Base               Lib:Object

 0000:00000000       __AbsoluteZero             0000000000000000     <absolute>
 0000:00000000       ___safe_se_handler_count   0000000000000000     <absolute>
 0000:00000000       ___safe_se_handler_table   0000000000000000     <absolute>
 0000:00000000       __arm64x_extra_rfe_table   0000000000000000     <absolute>
 0000:00000000       __arm64x_extra_rfe_table_size 0000000000000000     <absolute>
 0000:00000000       __arm64x_native_entrypoint 0000000000000000     <absolute>
 0000:00000000       __arm64x_redirection_metadata 0000000000000000     <absolute>
 0000:00000000       __arm64x_redirection_metadata_count 0000000000000000     <absolute>
 0000:00000000       __dynamic_value_reloc_table 0000000000000000     <absolute>
 0000:00000000       __enclave_config           0000000000000000     <absolute>
 0000:00000000       __guard_check_icall_a64n_fptr 0000000000000000     <absolute>
 0000:00000000       __guard_eh_cont_count      0000000000000000     <absolute>
 0000:00000000       __guard_eh_cont_table      0000000000000000     <absolute>
 0000:00000000       __guard_fids_count         0000000000000000     <absolute>
 0000:00000000       __guard_fids_table         0000000000000000     <absolute>
 0000:00000000       __guard_iat_count          0000000000000000     <absolute>
 0000:00000000       __guard_iat_table          0000000000000000     <absolute>
 0000:00000000       __guard_longjmp_count      0000000000000000     <absolute>
 0000:00000000       __guard_longjmp_table      0000000000000000     <absolute>
 0000:00000000       __hybrid_auxiliary_iat     0000000000000000     <absolute>
 0000:00000000       __hybrid_auxiliary_iat_copy 0000000000000000     <absolute>
 0000:00000000       __hybrid_code_map          0000000000000000     <absolute>
 0000:00000000       __hybrid_code_map_count    0000000000000000     <absolute>
 0000:00000000       __volatile_metadata        0000000000000000     <absolute>
 0000:00000000       __x64_code_ranges_to_entry_points 0000000000000000     <absolute>
 0000:00000000       __x64_code_ranges_to_entry_points_count 0000000000000000     <absolute>
 0000:00000100       __guard_flags              0000000000000100     <absolute>
 0000:00000000       __ImageBase                0000000180000000     <linker-defined>
 0001:0000c580       ??0BoxController@Cct@physx@@QEAA@AEBVPxControllerDesc@2@AEAVPxPhysics@2@PEAVPxScene@2@@Z 000000018000d580 f   CctBoxController.obj
 0001:0000c6e0       ??1BoxController@Cct@physx@@UEAA@XZ 000000018000d6e0 f   CctBoxController.obj
 0001:0000c730       ?getWorldBox@BoxController@Cct@physx@@UEBA_NAEAUPxExtendedBounds3@3@@Z 000000018000d730 f   CctBoxController.obj
 0001:0000c7a0       ?setFootPosition@BoxController@Cct@physx@@UEAA_NAEBUPxExtendedVec3@3@@Z 000000018000d7a0 f   CctBoxController.obj
 0001:0000c830       ?getFootPosition@BoxController@Cct@physx@@UEBA?AUPxExtendedVec3@3@XZ 000000018000d830 f   CctBoxController.obj
 0001:0000c8c0       ?invalidateCache@BoxController@Cct@physx@@UEAAXXZ 000000018000d8c0 f   CctBoxController.obj
 0001:0000c940       ?resize@BoxController@Cct@physx@@UEAAXM@Z 000000018000d940 f   CctBoxController.obj
 0001:0000ca10       ?getHalfHeight@BoxController@Cct@physx@@UEBAMXZ 000000018000da10 f   CctBoxController.obj
 0001:0000ca30       ?getHalfSideExtent@BoxController@Cct@physx@@UEBAMXZ 000000018000da30 f   CctBoxController.obj
 0001:0000ca50       ?getHalfForwardExtent@BoxController@Cct@physx@@UEBAMXZ 000000018000da50 f   CctBoxController.obj
 0001:0000ca70       ?setHalfHeight@BoxController@Cct@physx@@UEAA_NM@Z 000000018000da70 f   CctBoxController.obj
 0001:0000cac0       ?setHalfSideExtent@BoxController@Cct@physx@@UEAA_NM@Z 000000018000dac0 f   CctBoxController.obj
 0001:0000cb10       ?setHalfForwardExtent@BoxController@Cct@physx@@UEAA_NM@Z 000000018000db10 f   CctBoxController.obj
 0001:0000cb60       ?updateKinematicProxy@BoxController@Cct@physx@@QEAA_NXZ 000000018000db60 f   CctBoxController.obj
 0001:0000cc80       ?getOBB@BoxController@Cct@physx@@QEBAXAEAVPxExtendedBox@3@@Z 000000018000dc80 f   CctBoxController.obj
 0001:0000cf80       ??0Allocator@shdfnd@physx@@QEAA@PEBD@Z 000000018000df80 f i CctBoxController.obj
 0001:0000cfa0       ??0NonTrackingAllocator@shdfnd@physx@@QEAA@PEBD@Z 000000018000dfa0 f i CctBoxController.obj
 0001:0000cfc0       ??0PxBoxController@physx@@IEAA@XZ 000000018000dfc0 f i CctBoxController.obj
 0001:0000d000       ??0PxBoxGeometry@physx@@QEAA@XZ 000000018000e000 f i CctBoxController.obj
 0001:0000d050       ??0PxController@physx@@IEAA@XZ 000000018000e050 f i CctBoxController.obj
 0001:0000d070       ??0PxControllerManager@physx@@IEAA@XZ 000000018000e070 f i CctBoxController.obj
 0001:0000d090       ??0PxControllerManager@physx@@QEAA@AEBV01@@Z 000000018000e090 f i CctBoxController.obj
 0001:0000d0c0       ??0PxExtendedBounds3@physx@@QEAA@XZ 000000018000e0c0 f i CctBoxController.obj
 0001:0000d100       ??0PxExtendedVec3@physx@@QEAA@NNN@Z 000000018000e100 f i CctBoxController.obj
 0001:0000d160       ??0PxExtendedVec3@physx@@QEAA@XZ 000000018000e160 f i CctBoxController.obj
 0001:0000d170       ??0PxFoundation@physx@@QEAA@AEBV01@@Z 000000018000e170 f i CctBoxController.obj
 0001:0000d1a0       ??0PxFoundation@physx@@QEAA@XZ 000000018000e1a0 f i CctBoxController.obj
 0001:0000d1c0       ??0PxGeometry@physx@@IEAA@W4Enum@PxGeometryType@1@@Z 000000018000e1c0 f i CctBoxController.obj
 0001:0000d1e0       ??0PxVec3@physx@@QEAA@AEBV01@@Z 000000018000e1e0 f i CctBoxController.obj
 0001:0000d240       ??0PxVec3@physx@@QEAA@MMM@Z 000000018000e240 f i CctBoxController.obj
 0001:0000d2a0       ??1PxBoxController@physx@@MEAA@XZ 000000018000e2a0 f i CctBoxController.obj
 0001:0000d2d0       ??1PxController@physx@@MEAA@XZ 000000018000e2d0 f i CctBoxController.obj
 0001:0000d2f0       ??1PxControllerManager@physx@@MEAA@XZ 000000018000e2f0 f i CctBoxController.obj
 0001:0000d310       ??1PxFoundation@physx@@MEAA@XZ 000000018000e310 f i CctBoxController.obj
 0001:0000d330       ??3UserAllocated@shdfnd@physx@@SAXPEAX@Z 000000018000e330 f i CctBoxController.obj
 0001:0000d360       ??4Allocator@shdfnd@physx@@QEAAAEAV012@$$QEAV012@@Z 000000018000e360 f i CctBoxController.obj
 0001:0000d380       ??4Allocator@shdfnd@physx@@QEAAAEAV012@AEBV012@@Z 000000018000e380 f i CctBoxController.obj
 0001:0000d3a0       ??4MutexImpl@shdfnd@physx@@QEAAAEAV012@AEBV012@@Z 000000018000e3a0 f i CctBoxController.obj
 0001:0000d3c0       ??4PxControllerManager@physx@@QEAAAEAV01@AEBV01@@Z 000000018000e3c0 f i CctBoxController.obj
 0001:0000d3e0       ??4PxFoundation@physx@@QEAAAEAV01@AEBV01@@Z 000000018000e3e0 f i CctBoxController.obj
 0001:0000d400       ??4PxQuat@physx@@QEAAAEAV01@AEBV01@@Z 000000018000e400 f i CctBoxController.obj
 0001:0000d480       ??4PxVec3@physx@@QEAAAEAV01@AEBV01@@Z 000000018000e480 f i CctBoxController.obj
 0001:0000d4e0       ??DPxVec3@physx@@QEBA?AV01@M@Z 000000018000e4e0 f i CctBoxController.obj
 0001:0000d570       ??GPxExtendedVec3@physx@@QEBA?AVPxVec3@1@AEBU01@@Z 000000018000e570 f i CctBoxController.obj
 0001:0000d620       ??HPxExtendedVec3@physx@@QEBA?AU01@AEBU01@@Z 000000018000e620 f i CctBoxController.obj
 0001:0000d6c0       ??XPxExtendedVec3@physx@@QEAAAEAU01@AEBM@Z 000000018000e6c0 f i CctBoxController.obj
 0001:0000d760       ??XPxVec3@physx@@QEAAAEAV01@M@Z 000000018000e760 f i CctBoxController.obj
 0001:0000d7e0       ??YPxExtendedVec3@physx@@QEAAAEAU01@AEBVPxVec3@1@@Z 000000018000e7e0 f i CctBoxController.obj
 0001:0000d880       ??ZPxExtendedVec3@physx@@QEAAAEAU01@AEBVPxVec3@1@@Z 000000018000e880 f i CctBoxController.obj
 0001:0000d91c       ??_EBoxController@Cct@physx@@W7EAAPEAXI@Z 000000018000e91c f i CctBoxController.obj
 0001:0000d930       ??_EPxControllerManager@physx@@MEAAPEAXI@Z 000000018000e930 f i CctBoxController.obj
 0001:0000da00       ??_EPxFoundation@physx@@MEAAPEAXI@Z 000000018000ea00 f i CctBoxController.obj
 0001:0000dad0       ??_FAllocator@shdfnd@physx@@QEAAXXZ 000000018000ead0 f i CctBoxController.obj
 0001:0000daf0       ??_FNamedAllocator@shdfnd@physx@@QEAAXXZ 000000018000eaf0 f i CctBoxController.obj
 0001:0000db10       ??_EBoxController@Cct@physx@@UEAAPEAXI@Z 000000018000eb10 f i CctBoxController.obj
 0001:0000db10       ??_GBoxController@Cct@physx@@UEAAPEAXI@Z 000000018000eb10 f i CctBoxController.obj
 0001:0000db80       ??_EPxBoxController@physx@@MEAAPEAXI@Z 000000018000eb80 f i CctBoxController.obj
 0001:0000db80       ??_GPxBoxController@physx@@MEAAPEAXI@Z 000000018000eb80 f i CctBoxController.obj
 0001:0000dbd0       ??_EPxController@physx@@MEAAPEAXI@Z 000000018000ebd0 f i CctBoxController.obj
 0001:0000dbd0       ??_GPxController@physx@@MEAAPEAXI@Z 000000018000ebd0 f i CctBoxController.obj
 0001:0000dc20       ??_GPxControllerManager@physx@@MEAAPEAXI@Z 000000018000ec20 f i CctBoxController.obj
 0001:0000dc70       ??_GPxFoundation@physx@@MEAAPEAXI@Z 000000018000ec70 f i CctBoxController.obj
 0001:0000dcc0       ??_H@YAXPEAX_K1P6APEAX0@Z@Z 000000018000ecc0 f i CctBoxController.obj
 0001:0000dd60       ??_I@YAXPEAX_K1P6AX0@Z@Z   000000018000ed60 f i CctBoxController.obj
 0001:0000de20       ?__empty_global_delete@@YAXPEAX@Z 000000018000ee20 f i CctBoxController.obj
 0001:0000de30       ?__empty_global_delete@@YAXPEAX_K@Z 000000018000ee30 f i CctBoxController.obj
 0001:0000de30       ?__global_delete@@YAXPEAX_K@Z 000000018000ee30 f i CctBoxController.obj
 0001:0000de40       ?deallocate@NonTrackingAllocator@shdfnd@physx@@QEAAXPEAX@Z 000000018000ee40 f i CctBoxController.obj
 0001:0000de90       ?getActor@BoxController@Cct@physx@@UEBAPEAVPxRigidDynamic@3@XZ 000000018000ee90 f i CctBoxController.obj
 0001:0000deb0       ?getCenter@physx@@YAXAEBUPxExtendedBounds3@1@AEAUPxExtendedVec3@1@@Z 000000018000eeb0 f i CctBoxController.obj
 0001:0000df30       ?getContactOffset@BoxController@Cct@physx@@UEBAMXZ 000000018000ef30 f i CctBoxController.obj
 0001:0000df50       ?getExtents@physx@@YAXAEBUPxExtendedBounds3@1@AEAVPxVec3@1@@Z 000000018000ef50 f i CctBoxController.obj
 0001:0000dfb0       ?getHalfHeightInternal@BoxController@Cct@physx@@UEBAMXZ 000000018000efb0 f i CctBoxController.obj
 0001:0000dfd0       ?getNonWalkableMode@BoxController@Cct@physx@@UEBA?AW4Enum@PxControllerNonWalkableMode@3@XZ 000000018000efd0 f i CctBoxController.obj
 0001:0000dff0       ?getPosition@BoxController@Cct@physx@@UEBAAEBUPxExtendedVec3@3@XZ 000000018000eff0 f i CctBoxController.obj
 0001:0000e010       ?getPxController@BoxController@Cct@physx@@UEAAPEAVPxController@3@XZ 000000018000f010 f i CctBoxController.obj
 0001:0000e030       ?getScene@BoxController@Cct@physx@@UEAAPEAVPxScene@3@XZ 000000018000f030 f i CctBoxController.obj
 0001:0000e050       ?getSlopeLimit@BoxController@Cct@physx@@UEBAMXZ 000000018000f050 f i CctBoxController.obj
 0001:0000e070       ?getState@BoxController@Cct@physx@@UEBAXAEAUPxControllerState@3@@Z 000000018000f070 f i CctBoxController.obj
 0001:0000e0b0       ?getStats@BoxController@Cct@physx@@UEBAXAEAUPxControllerStats@3@@Z 000000018000f0b0 f i CctBoxController.obj
 0001:0000e0f0       ?getStepOffset@BoxController@Cct@physx@@UEBAMXZ 000000018000f0f0 f i CctBoxController.obj
 0001:0000e110       ?getType@BoxController@Cct@physx@@UEBA?AW4Enum@PxControllerShapeType@3@XZ 000000018000f110 f i CctBoxController.obj
 0001:0000e130       ?getUpDirection@BoxController@Cct@physx@@UEBA?AVPxVec3@3@XZ 000000018000f130 f i CctBoxController.obj
 0001:0000e170       ?getUserData@BoxController@Cct@physx@@UEBAPEAXXZ 000000018000f170 f i CctBoxController.obj
 0001:0000e190       ?lock@?$MutexT@V?$ReflectionAllocator@VMutexImpl@shdfnd@physx@@@shdfnd@physx@@@shdfnd@physx@@QEBAXXZ 000000018000f190 f i CctBoxController.obj
 0001:0000e1c0       ?release@BoxController@Cct@physx@@UEAAXXZ 000000018000f1c0 f i CctBoxController.obj
 0001:0000e1f0       ?setCenterExtents@physx@@YAXAEAUPxExtendedBounds3@1@AEBUPxExtendedVec3@1@AEBVPxVec3@1@@Z 000000018000f1f0 f i CctBoxController.obj
 0001:0000e280       ?setContactOffset@BoxController@Cct@physx@@UEAAXM@Z 000000018000f280 f i CctBoxController.obj
 0001:0000e2c0       ?setNonWalkableMode@BoxController@Cct@physx@@UEAAXW4Enum@PxControllerNonWalkableMode@3@@Z 000000018000f2c0 f i CctBoxController.obj
 0001:0000e2e0       ?setPosition@BoxController@Cct@physx@@UEAA_NAEBUPxExtendedVec3@3@@Z 000000018000f2e0 f i CctBoxController.obj
 0001:0000e320       ?setSlopeLimit@BoxController@Cct@physx@@UEAAXM@Z 000000018000f320 f i CctBoxController.obj
 0001:0000e360       ?setStepOffset@BoxController@Cct@physx@@UEAAXM@Z 000000018000f360 f i CctBoxController.obj
 0001:0000e3a0       ?setUpDirection@BoxController@Cct@physx@@UEAAXAEBVPxVec3@3@@Z 000000018000f3a0 f i CctBoxController.obj
 0001:0000e3e0       ?setUserData@BoxController@Cct@physx@@UEAAXPEAX@Z 000000018000f3e0 f i CctBoxController.obj
 0001:0000e400       ?unlock@?$MutexT@V?$ReflectionAllocator@VMutexImpl@shdfnd@physx@@@shdfnd@physx@@@shdfnd@physx@@QEBAXXZ 000000018000f400 f i CctBoxController.obj
 0001:0000e430       ??0CapsuleController@Cct@physx@@QEAA@AEBVPxControllerDesc@2@AEAVPxPhysics@2@PEAVPxScene@2@@Z 000000018000f430 f   CctCapsuleController.obj
 0001:0000e580       ??1CapsuleController@Cct@physx@@UEAA@XZ 000000018000f580 f   CctCapsuleController.obj
 0001:0000e5d0       ?getWorldBox@CapsuleController@Cct@physx@@UEBA_NAEAUPxExtendedBounds3@3@@Z 000000018000f5d0 f   CctCapsuleController.obj
 0001:0000e660       ?setFootPosition@CapsuleController@Cct@physx@@UEAA_NAEBUPxExtendedVec3@3@@Z 000000018000f660 f   CctCapsuleController.obj
 0001:0000e700       ?getFootPosition@CapsuleController@Cct@physx@@UEBA?AUPxExtendedVec3@3@XZ 000000018000f700 f   CctCapsuleController.obj
 0001:0000e7b0       ?invalidateCache@CapsuleController@Cct@physx@@UEAAXXZ 000000018000f7b0 f   CctCapsuleController.obj
 0001:0000e830       ?resize@CapsuleController@Cct@physx@@UEAAXM@Z 000000018000f830 f   CctCapsuleController.obj
 0001:0000e930       ?getClimbingMode@CapsuleController@Cct@physx@@UEBA?AW4Enum@PxCapsuleClimbingMode@3@XZ 000000018000f930 f   CctCapsuleController.obj
 0001:0000e950       ?setRadius@CapsuleController@Cct@physx@@UEAA_NM@Z 000000018000f950 f   CctCapsuleController.obj
 0001:0000ea60       ?setHeight@CapsuleController@Cct@physx@@UEAA_NM@Z 000000018000fa60 f   CctCapsuleController.obj
 0001:0000eb70       ?setClimbingMode@CapsuleController@Cct@physx@@UEAA_NW4Enum@PxCapsuleClimbingMode@3@@Z 000000018000fb70 f   CctCapsuleController.obj
 0001:0000eba0       ?getCapsule@CapsuleController@Cct@physx@@QEBAXAEAUPxExtendedCapsule@3@@Z 000000018000fba0 f   CctCapsuleController.obj
 0001:0000ef30       ??0PxCapsuleController@physx@@IEAA@XZ 000000018000ff30 f i CctCapsuleController.obj
 0001:0000ef70       ??0PxCapsuleGeometry@physx@@QEAA@XZ 000000018000ff70 f i CctCapsuleController.obj
 0001:0000efc0       ??1PxCapsuleController@physx@@MEAA@XZ 000000018000ffc0 f i CctCapsuleController.obj
 0001:0000eff0       ??_ECapsuleController@Cct@physx@@W7EAAPEAXI@Z 000000018000fff0 f i CctCapsuleController.obj
 0001:0000f000       ??_ECapsuleController@Cct@physx@@UEAAPEAXI@Z 0000000180010000 f i CctCapsuleController.obj
 0001:0000f000       ??_GCapsuleController@Cct@physx@@UEAAPEAXI@Z 0000000180010000 f i CctCapsuleController.obj
 0001:0000f070       ??_EPxCapsuleController@physx@@MEAAPEAXI@Z 0000000180010070 f i CctCapsuleController.obj
 0001:0000f070       ??_GPxCapsuleController@physx@@MEAAPEAXI@Z 0000000180010070 f i CctCapsuleController.obj
 0001:0000f0c0       ?getActor@CapsuleController@Cct@physx@@UEBAPEAVPxRigidDynamic@3@XZ 00000001800100c0 f i CctCapsuleController.obj
 0001:0000f0e0       ?getContactOffset@CapsuleController@Cct@physx@@UEBAMXZ 00000001800100e0 f i CctCapsuleController.obj
 0001:0000f100       ?getHalfHeightInternal@CapsuleController@Cct@physx@@UEBAMXZ 0000000180010100 f i CctCapsuleController.obj
 0001:0000f140       ?getHeight@CapsuleController@Cct@physx@@UEBAMXZ 0000000180010140 f i CctCapsuleController.obj
 0001:0000f160       ?getNonWalkableMode@CapsuleController@Cct@physx@@UEBA?AW4Enum@PxControllerNonWalkableMode@3@XZ 0000000180010160 f i CctCapsuleController.obj
 0001:0000f180       ?getPosition@CapsuleController@Cct@physx@@UEBAAEBUPxExtendedVec3@3@XZ 0000000180010180 f i CctCapsuleController.obj
 0001:0000f1a0       ?getPxController@CapsuleController@Cct@physx@@UEAAPEAVPxController@3@XZ 00000001800101a0 f i CctCapsuleController.obj
 0001:0000f1c0       ?getRadius@CapsuleController@Cct@physx@@UEBAMXZ 00000001800101c0 f i CctCapsuleController.obj
 0001:0000f1e0       ?getScene@CapsuleController@Cct@physx@@UEAAPEAVPxScene@3@XZ 00000001800101e0 f i CctCapsuleController.obj
 0001:0000f200       ?getSlopeLimit@CapsuleController@Cct@physx@@UEBAMXZ 0000000180010200 f i CctCapsuleController.obj
 0001:0000f220       ?getState@CapsuleController@Cct@physx@@UEBAXAEAUPxControllerState@3@@Z 0000000180010220 f i CctCapsuleController.obj
 0001:0000f260       ?getStats@CapsuleController@Cct@physx@@UEBAXAEAUPxControllerStats@3@@Z 0000000180010260 f i CctCapsuleController.obj
 0001:0000f2a0       ?getStepOffset@CapsuleController@Cct@physx@@UEBAMXZ 00000001800102a0 f i CctCapsuleController.obj
 0001:0000f2c0       ?getType@CapsuleController@Cct@physx@@UEBA?AW4Enum@PxControllerShapeType@3@XZ 00000001800102c0 f i CctCapsuleController.obj
 0001:0000f2e0       ?getUpDirection@CapsuleController@Cct@physx@@UEBA?AVPxVec3@3@XZ 00000001800102e0 f i CctCapsuleController.obj
 0001:0000f320       ?getUserData@CapsuleController@Cct@physx@@UEBAPEAXXZ 0000000180010320 f i CctCapsuleController.obj
 0001:0000f340       ?release@CapsuleController@Cct@physx@@UEAAXXZ 0000000180010340 f i CctCapsuleController.obj
 0001:0000f370       ?setContactOffset@CapsuleController@Cct@physx@@UEAAXM@Z 0000000180010370 f i CctCapsuleController.obj
 0001:0000f3b0       ?setNonWalkableMode@CapsuleController@Cct@physx@@UEAAXW4Enum@PxControllerNonWalkableMode@3@@Z 00000001800103b0 f i CctCapsuleController.obj
 0001:0000f3d0       ?setPosition@CapsuleController@Cct@physx@@UEAA_NAEBUPxExtendedVec3@3@@Z 00000001800103d0 f i CctCapsuleController.obj
 0001:0000f410       ?setSlopeLimit@CapsuleController@Cct@physx@@UEAAXM@Z 0000000180010410 f i CctCapsuleController.obj
 0001:0000f450       ?setStepOffset@CapsuleController@Cct@physx@@UEAAXM@Z 0000000180010450 f i CctCapsuleController.obj
 0001:0000f490       ?setUpDirection@CapsuleController@Cct@physx@@UEAAXAEBVPxVec3@3@@Z 0000000180010490 f i CctCapsuleController.obj
 0001:0000f4d0       ?setUserData@CapsuleController@Cct@physx@@UEAAXPEAX@Z 00000001800104d0 f i CctCapsuleController.obj
 0001:0000f4f0       ??0CCTParams@Cct@physx@@QEAA@XZ 00000001800104f0 f   CctCharacterController.obj
 0001:0000f5c0       ??0SweepTest@Cct@physx@@QEAA@_N@Z 00000001800105c0 f   CctCharacterController.obj
 0001:0000f9f0       ??1SweepTest@Cct@physx@@QEAA@XZ 00000001800109f0 f   CctCharacterController.obj
 0001:0000fa70       ?moveCharacter@SweepTest@Cct@physx@@QEAA?AV?$PxFlags@W4Enum@PxControllerCollisionFlag@physx@@E@3@PEBUInternalCBData_FindTouchedGeom@23@PEAUInternalCBData_OnHit@23@AEAVSweptVolume@23@AEBVPxVec3@3@AEBUUserObstacles@23@MAEBVPxControllerFilters@3@_N6AEAPEBVPxRigidActor@3@AEAPEBVPxShape@3@_K@Z 0000000180010a70 f   CctCharacterController.obj
 0001:000109b0       ?doSweepTest@SweepTest@Cct@physx@@QEAA_NPEBUInternalCBData_FindTouchedGeom@23@PEAUInternalCBData_OnHit@23@AEBUUserObstacles@23@AEAVSweptVolume@23@AEBVPxVec3@3@4IPEAIMAEBVPxControllerFilters@3@W4SweepPass@23@AEAPEBVPxRigidActor@3@AEAPEBVPxShape@3@_K@Z 00000001800119b0 f   CctCharacterController.obj
 0001:000117c0       ?findTouchedObstacles@SweepTest@Cct@physx@@QEAAXAEBUUserObstacles@23@AEBUPxExtendedBounds3@3@@Z 00000001800127c0 f   CctCharacterController.obj
 0001:00011e20       ?voidTestCache@SweepTest@Cct@physx@@QEAAXXZ 0000000180012e20 f   CctCharacterController.obj
 0001:00011e80       ?onRelease@SweepTest@Cct@physx@@QEAAXAEBVPxBase@3@@Z 0000000180012e80 f   CctCharacterController.obj
 0001:00011f50       ?updateCachedShapesRegistration@SweepTest@Cct@physx@@QEAAXI_N@Z 0000000180012f50 f   CctCharacterController.obj
 0001:000120f0       ?onObstacleRemoved@SweepTest@Cct@physx@@QEAAXI@Z 00000001800130f0 f   CctCharacterController.obj
 0001:00012120       ?onObstacleUpdated@SweepTest@Cct@physx@@QEAAXIPEBVPxObstacleContext@3@AEBVPxVec3@3@1M@Z 0000000180013120 f   CctCharacterController.obj
 0001:00012310       ?onObstacleAdded@SweepTest@Cct@physx@@QEAAXIPEBVPxObstacleContext@3@AEBVPxVec3@3@1M@Z 0000000180013310 f   CctCharacterController.obj
 0001:00012530       ?onOriginShift@SweepTest@Cct@physx@@QEAAXAEBVPxVec3@3@@Z 0000000180013530 f   CctCharacterController.obj
 0001:000126b0       ?updateTouchedGeoms@SweepTest@Cct@physx@@AEAAXPEBUInternalCBData_FindTouchedGeom@23@AEBUUserObstacles@23@AEBUPxExtendedBounds3@3@AEBVPxControllerFilters@3@AEBVPxVec3@3@@Z 00000001800136b0 f   CctCharacterController.obj
 0001:00013050       ?findTouchedObject@Controller@Cct@physx@@IEAAXAEBVPxControllerFilters@3@PEBVPxObstacleContext@3@AEBVPxVec3@3@@Z 0000000180014050 f   CctCharacterController.obj
 0001:000138c0       ?rideOnTouchedObject@Controller@Cct@physx@@IEAA_NAEAVSweptVolume@23@AEBVPxVec3@3@AEAV53@PEBVPxObstacleContext@3@@Z 00000001800148c0 f   CctCharacterController.obj
 0001:00013f40       ?move@Controller@Cct@physx@@IEAA?AV?$PxFlags@W4Enum@PxControllerCollisionFlag@physx@@E@3@AEAVSweptVolume@23@AEBVPxVec3@3@MMAEBVPxControllerFilters@3@PEBVPxObstacleContext@3@_N@Z 0000000180014f40 f   CctCharacterController.obj
 0001:00015680       ?filterTouchedShape@Controller@Cct@physx@@IEAA_NAEBVPxControllerFilters@3@@Z 0000000180016680 f   CctCharacterController.obj
 0001:00018d40       ?move@BoxController@Cct@physx@@UEAA?AV?$PxFlags@W4Enum@PxControllerCollisionFlag@physx@@E@3@AEBVPxVec3@3@MMAEBVPxControllerFilters@3@PEBVPxObstacleContext@3@@Z 0000000180019d40 f   CctCharacterController.obj
 0001:00018ec0       ?move@CapsuleController@Cct@physx@@UEAA?AV?$PxFlags@W4Enum@PxControllerCollisionFlag@physx@@E@3@AEBVPxVec3@3@MMAEBVPxControllerFilters@3@PEBVPxObstacleContext@3@@Z 0000000180019ec0 f   CctCharacterController.obj
 0001:0001b740       ??$PX_UNUSED@I@@YAXAEBI@Z  000000018001c740 f i CctCharacterController.obj
 0001:0001b750       ??$PX_UNUSED@PEBUPxRaycastHit@physx@@@@YAXAEBQEBUPxRaycastHit@physx@@@Z 000000018001c750 f i CctCharacterController.obj
 0001:0001b760       ??$PX_UNUSED@W4PxIDENTITY@physx@@@@YAXAEBW4PxIDENTITY@physx@@@Z 000000018001c760 f i CctCharacterController.obj
 0001:0001b770       ??$PX_UNUSED@_K@@YAXAEB_K@Z 000000018001c770 f i CctCharacterController.obj
 0001:0001b780       ??$PxMax@I@physx@@YAIII@Z  000000018001c780 f i CctCharacterController.obj
 0001:0001b7c0       ??$PxMax@N@physx@@YANNN@Z  000000018001c7c0 f i CctCharacterController.obj
 0001:0001b810       ??$PxMin@N@physx@@YANNN@Z  000000018001c810 f i CctCharacterController.obj
 0001:0001b860       ??$PxUnionCast@PEBVPxGeometry@physx@@PEAY03$$CBE@physx@@YAPEBVPxGeometry@0@PEAY03$$CBE@Z 000000018001c860 f i CctCharacterController.obj
 0001:0001b890       ??0?$Array@IVNamedAllocator@shdfnd@physx@@@shdfnd@physx@@QEAA@AEBVNamedAllocator@12@@Z 000000018001c890 f i CctCharacterController.obj
 0001:0001b8f0       ??0?$Array@VPxTriangle@physx@@VNamedAllocator@shdfnd@2@@shdfnd@physx@@QEAA@AEBVNamedAllocator@12@@Z 000000018001c8f0 f i CctCharacterController.obj
 0001:0001b950       ??0?$PxFlags@W4Enum@PxControllerCollisionFlag@physx@@E@physx@@QEAA@AEBV01@@Z 000000018001c950 f i CctCharacterController.obj
 0001:0001b980       ??0?$PxFlags@W4Enum@PxControllerCollisionFlag@physx@@E@physx@@QEAA@E@Z 000000018001c980 f i CctCharacterController.obj
 0001:0001b9b0       ??0?$PxFlags@W4Enum@PxHitFlag@physx@@G@physx@@QEAA@AEBV01@@Z 000000018001c9b0 f i CctCharacterController.obj
 0001:0001b9e0       ??0?$PxFlags@W4Enum@PxHitFlag@physx@@G@physx@@QEAA@G@Z 000000018001c9e0 f i CctCharacterController.obj
 0001:0001ba10       ??0?$PxFlags@W4Enum@PxHitFlag@physx@@G@physx@@QEAA@W4Enum@PxHitFlag@1@@Z 000000018001ca10 f i CctCharacterController.obj
 0001:0001ba40       ??0?$PxFlags@W4Enum@PxQueryFlag@physx@@G@physx@@QEAA@AEBV01@@Z 000000018001ca40 f i CctCharacterController.obj
 0001:0001ba70       ??0?$PxFlags@W4Enum@PxQueryFlag@physx@@G@physx@@QEAA@W4Enum@PxQueryFlag@1@@Z 000000018001ca70 f i CctCharacterController.obj
 0001:0001baa0       ??0?$PxFlags@W4Enum@PxQueryFlag@physx@@G@physx@@QEAA@XZ 000000018001caa0 f i CctCharacterController.obj
 0001:0001bac0       ??0?$PxFlags@W4Enum@PxRigidBodyFlag@physx@@E@physx@@QEAA@AEBV01@@Z 000000018001cac0 f i CctCharacterController.obj
 0001:0001baf0       ??0?$PxFlags@W4Enum@PxShapeFlag@physx@@E@physx@@QEAA@AEBV01@@Z 000000018001caf0 f i CctCharacterController.obj
 0001:0001bb20       ??0?$PxHitBuffer@UPxRaycastHit@physx@@@physx@@QEAA@PEAUPxRaycastHit@1@I@Z 000000018001cb20 f i CctCharacterController.obj
 0001:0001bb70       ??0?$PxHitCallback@UPxRaycastHit@physx@@@physx@@QEAA@PEAUPxRaycastHit@1@I@Z 000000018001cb70 f i CctCharacterController.obj
 0001:0001bc00       ??0?$TouchedObject@VPxRigidActor@physx@@@Cct@physx@@QEAA@_N@Z 000000018001cc00 f i CctCharacterController.obj
 0001:0001bc50       ??0?$TouchedObject@VPxShape@physx@@@Cct@physx@@QEAA@_N@Z 000000018001cc50 f i CctCharacterController.obj
 0001:0001bca0       ??0AB@?1???$PxUnionCast@PEBVPxGeometry@physx@@PEAY03$$CBE@physx@@YAPEBVPxGeometry@1@PEAY03$$CBE@Z@QEAA@0@Z 000000018001cca0 f i CctCharacterController.obj
 0001:0001bcd0       ??0CCTFilter@Cct@physx@@QEAA@XZ 000000018001ccd0 f i CctCharacterController.obj
 0001:0001bd40       ??0ControllerFilter@@QEAA@XZ 000000018001cd40 f i CctCharacterController.obj
 0001:0001bd90       ??0DebugBox@Cm@physx@@QEAA@AEBVPxBounds3@2@_N@Z 000000018001cd90 f i CctCharacterController.obj
 0001:0001be00       ??0DebugBox@Cm@physx@@QEAA@AEBVPxVec3@2@_N@Z 000000018001ce00 f i CctCharacterController.obj
 0001:0001be70       ??0PxActorShape@physx@@QEAA@XZ 000000018001ce70 f i CctCharacterController.obj
 0001:0001bea0       ??0PxBounds3@physx@@QEAA@AEBVPxVec3@1@0@Z 000000018001cea0 f i CctCharacterController.obj
 0001:0001bf00       ??0PxBoxGeometry@physx@@QEAA@VPxVec3@1@@Z 000000018001cf00 f i CctCharacterController.obj
 0001:0001bf50       ??0PxCapsuleGeometry@physx@@QEAA@MM@Z 000000018001cf50 f i CctCharacterController.obj
 0001:0001bfc0       ??0PxExtendedBox@physx@@QEAA@AEBV01@@Z 000000018001cfc0 f i CctCharacterController.obj
 0001:0001c040       ??0PxExtendedBox@physx@@QEAA@XZ 000000018001d040 f i CctCharacterController.obj
 0001:0001c0a0       ??0PxExtendedCapsule@physx@@QEAA@XZ 000000018001d0a0 f i CctCharacterController.obj
 0001:0001c0d0       ??0PxExtendedSegment@physx@@QEAA@XZ 000000018001d0d0 f i CctCharacterController.obj
 0001:0001c110       ??0PxFilterData@physx@@QEAA@AEBU01@@Z 000000018001d110 f i CctCharacterController.obj
 0001:0001c180       ??0PxFilterData@physx@@QEAA@XZ 000000018001d180 f i CctCharacterController.obj
 0001:0001c1d0       ??0PxLocationHit@physx@@QEAA@XZ 000000018001d1d0 f i CctCharacterController.obj
 0001:0001c260       ??0PxMat33@physx@@QEAA@AEBVPxQuat@1@@Z 000000018001d260 f i CctCharacterController.obj
 0001:0001c5a0       ??0PxMat33@physx@@QEAA@W4PxIDENTITY@1@@Z 000000018001d5a0 f i CctCharacterController.obj
 0001:0001c640       ??0PxMat44@physx@@QEAA@AEBVPxMat33@1@AEBVPxVec3@1@@Z 000000018001d640 f i CctCharacterController.obj
 0001:0001c6f0       ??0PxMat44@physx@@QEAA@AEBVPxTransform@1@@Z 000000018001d6f0 f i CctCharacterController.obj
 0001:0001c7e0       ??0PxProfileScoped@physx@@QEAA@PEBD_N_K@Z 000000018001d7e0 f i CctCharacterController.obj
 0001:0001c8b0       ??0PxQuat@physx@@QEAA@AEBV01@@Z 000000018001d8b0 f i CctCharacterController.obj
 0001:0001c930       ??0PxQuat@physx@@QEAA@MMMM@Z 000000018001d930 f i CctCharacterController.obj
 0001:0001c9b0       ??0PxQuat@physx@@QEAA@W4PxIDENTITY@1@@Z 000000018001d9b0 f i CctCharacterController.obj
 0001:0001ca20       ??0PxQuat@physx@@QEAA@XZ   000000018001da20 f i CctCharacterController.obj
 0001:0001ca30       ??0PxQueryFilterCallback@physx@@QEAA@XZ 000000018001da30 f i CctCharacterController.obj
 0001:0001ca50       ??0PxQueryFilterData@physx@@QEAA@AEBUPxFilterData@1@V?$PxFlags@W4Enum@PxQueryFlag@physx@@G@1@@Z 000000018001da50 f i CctCharacterController.obj
 0001:0001cac0       ??0PxQueryHit@physx@@QEAA@XZ 000000018001dac0 f i CctCharacterController.obj
 0001:0001cb00       ??0PxRaycastHit@physx@@QEAA@XZ 000000018001db00 f i CctCharacterController.obj
 0001:0001cb50       ??0PxSphereGeometry@physx@@QEAA@XZ 000000018001db50 f i CctCharacterController.obj
 0001:0001cb90       ??0PxSweepHit@physx@@QEAA@XZ 000000018001db90 f i CctCharacterController.obj
 0001:0001cbc0       ??0PxTransform@physx@@QEAA@AEBVPxVec3@1@AEBVPxQuat@1@@Z 000000018001dbc0 f i CctCharacterController.obj
 0001:0001cc90       ??0PxTransform@physx@@QEAA@XZ 000000018001dc90 f i CctCharacterController.obj
 0001:0001ccd0       ??0PxVec3@physx@@QEAA@M@Z  000000018001dcd0 f i CctCharacterController.obj
 0001:0001cd20       ??0PxVec3@physx@@QEAA@XZ   000000018001dd20 f i CctCharacterController.obj
 0001:0001cd30       ??0PxVec4@physx@@QEAA@AEBVPxVec3@1@M@Z 000000018001dd30 f i CctCharacterController.obj
 0001:0001cdb0       ??0PxVec4@physx@@QEAA@XZ   000000018001ddb0 f i CctCharacterController.obj
 0001:0001cdc0       ??0SIMDGuard@shdfnd@physx@@QEAA@XZ 000000018001ddc0 f i CctCharacterController.obj
 0001:0001ce00       ??0SweptContact@Cct@physx@@QEAA@XZ 000000018001de00 f i CctCharacterController.obj
 0001:0001ce40       ??0TriArray@Cct@physx@@QEAA@XZ 000000018001de40 f i CctCharacterController.obj
 0001:0001ce90       ??1?$Array@IVNamedAllocator@shdfnd@physx@@@shdfnd@physx@@QEAA@XZ 000000018001de90 f i CctCharacterController.obj
 0001:0001cf20       ??1?$Array@VPxTriangle@physx@@VNamedAllocator@shdfnd@2@@shdfnd@physx@@QEAA@XZ 000000018001df20 f i CctCharacterController.obj
 0001:0001cfb0       ??1?$PxHitBuffer@UPxRaycastHit@physx@@@physx@@UEAA@XZ 000000018001dfb0 f i CctCharacterController.obj
 0001:0001cfe0       ??1?$PxHitCallback@UPxRaycastHit@physx@@@physx@@UEAA@XZ 000000018001dfe0 f i CctCharacterController.obj
 0001:0001d000       ??1ControllerFilter@@UEAA@XZ 000000018001e000 f i CctCharacterController.obj
 0001:0001d020       ??1PxExtendedBox@physx@@QEAA@XZ 000000018001e020 f i CctCharacterController.obj
 0001:0001d030       ??1PxProfileScoped@physx@@QEAA@XZ 000000018001e030 f i CctCharacterController.obj
 0001:0001d0a0       ??1PxQueryFilterCallback@physx@@UEAA@XZ 000000018001e0a0 f i CctCharacterController.obj
 0001:0001d0c0       ??1PxTriangle@physx@@QEAA@XZ 000000018001e0c0 f i CctCharacterController.obj
 0001:0001d0d0       ??1SIMDGuard@shdfnd@physx@@QEAA@XZ 000000018001e0d0 f i CctCharacterController.obj
 0001:0001d100       ??1TriArray@Cct@physx@@QEAA@XZ 000000018001e100 f i CctCharacterController.obj
 0001:0001d120       ??2@YAPEAX_KPEAX@Z         000000018001e120 f i CctCharacterController.obj
 0001:0001d140       ??4?$PxFlags@W4Enum@PxControllerCollisionFlag@physx@@E@physx@@QEAAAEAV01@AEBV01@@Z 000000018001e140 f i CctCharacterController.obj
 0001:0001d170       ??4?$PxFlags@W4Enum@PxHitFlag@physx@@G@physx@@QEAAAEAV01@AEBV01@@Z 000000018001e170 f i CctCharacterController.obj
 0001:0001d1a0       ??4?$PxFlags@W4Enum@PxQueryFlag@physx@@G@physx@@QEAAAEAV01@AEBV01@@Z 000000018001e1a0 f i CctCharacterController.obj
 0001:0001d1d0       ??4?$TouchedObject@VPxRigidActor@physx@@@Cct@physx@@QEAAAEAU012@PEBVPxRigidActor@2@@Z 000000018001e1d0 f i CctCharacterController.obj
 0001:0001d270       ??4?$TouchedObject@VPxShape@physx@@@Cct@physx@@QEAAAEAU012@PEBVPxShape@2@@Z 000000018001e270 f i CctCharacterController.obj
 0001:0001d310       ??4CCTParams@Cct@physx@@QEAAAEAU012@AEBU012@@Z 000000018001e310 f i CctCharacterController.obj
 0001:0001d480       ??4FPUGuard@shdfnd@physx@@QEAAAEAV012@AEBV012@@Z 000000018001e480 f i CctCharacterController.obj
 0001:0001d4b0       ??4PxExtendedBox@physx@@QEAAAEAV01@AEBV01@@Z 000000018001e4b0 f i CctCharacterController.obj
 0001:0001d530       ??4PxLocationHit@physx@@QEAAAEAU01@AEBU01@@Z 000000018001e530 f i CctCharacterController.obj
 0001:0001d5f0       ??4PxMat44@physx@@QEAAAEAV01@AEBV01@@Z 000000018001e5f0 f i CctCharacterController.obj
 0001:0001d690       ??4PxRaycastHit@physx@@QEAAAEAU01@AEBU01@@Z 000000018001e690 f i CctCharacterController.obj
 0001:0001d700       ??4PxTransform@physx@@QEAAAEAV01@$$QEAV01@@Z 000000018001e700 f i CctCharacterController.obj
 0001:0001d760       ??4PxVec4@physx@@QEAAAEAV01@AEBV01@@Z 000000018001e760 f i CctCharacterController.obj
 0001:0001d7e0       ??4SweptContact@Cct@physx@@QEAAAEAU012@AEBU012@@Z 000000018001e7e0 f i CctCharacterController.obj
 0001:0001d890       ??8?$TouchedObject@VPxRigidActor@physx@@@Cct@physx@@QEAA_NPEBVPxBase@2@@Z 000000018001e890 f i CctCharacterController.obj
 0001:0001d8e0       ??8?$TouchedObject@VPxShape@physx@@@Cct@physx@@QEAA_NPEBVPxBase@2@@Z 000000018001e8e0 f i CctCharacterController.obj
 0001:0001d930       ??8?$TouchedObject@VPxShape@physx@@@Cct@physx@@QEAA_NPEBVPxShape@2@@Z 000000018001e930 f i CctCharacterController.obj
 0001:0001d980       ??A?$Array@IVNamedAllocator@shdfnd@physx@@@shdfnd@physx@@QEAAAEAII@Z 000000018001e980 f i CctCharacterController.obj
 0001:0001da20       ??A?$Array@IVNamedAllocator@shdfnd@physx@@@shdfnd@physx@@QEBAAEBII@Z 000000018001ea20 f i CctCharacterController.obj
 0001:0001dac0       ??A?$Array@UInternalBoxObstacle@ObstacleContext@Cct@physx@@VNamedAllocator@shdfnd@4@@shdfnd@physx@@QEBAAEBUInternalBoxObstacle@ObstacleContext@Cct@2@I@Z 000000018001eac0 f i CctCharacterController.obj
 0001:0001db60       ??A?$Array@UInternalCapsuleObstacle@ObstacleContext@Cct@physx@@VNamedAllocator@shdfnd@4@@shdfnd@physx@@QEBAAEBUInternalCapsuleObstacle@ObstacleContext@Cct@2@I@Z 000000018001eb60 f i CctCharacterController.obj
 0001:0001dc00       ??A?$Array@VPxTriangle@physx@@VNamedAllocator@shdfnd@2@@shdfnd@physx@@QEBAAEBVPxTriangle@2@I@Z 000000018001ec00 f i CctCharacterController.obj
 0001:0001dca0       ??B?$PxFlags@W4Enum@PxControllerBehaviorFlag@physx@@E@physx@@QEBAIXZ 000000018001eca0 f i CctCharacterController.obj
 0001:0001dcc0       ??B?$PxFlags@W4Enum@PxControllerDebugRenderFlag@physx@@I@physx@@QEBAIXZ 000000018001ecc0 f i CctCharacterController.obj
 0001:0001dcd0       ??B?$PxFlags@W4Enum@PxQueryFlag@physx@@G@physx@@QEBA_NXZ 000000018001ecd0 f i CctCharacterController.obj
 0001:0001dd10       ??B?$PxFlags@W4Enum@PxRigidBodyFlag@physx@@E@physx@@QEBA_NXZ 000000018001ed10 f i CctCharacterController.obj
 0001:0001dd50       ??B?$PxFlags@W4Enum@PxShapeFlag@physx@@E@physx@@QEBA_NXZ 000000018001ed50 f i CctCharacterController.obj
 0001:0001dd90       ??B?$TouchedObject@VPxRigidActor@physx@@@Cct@physx@@QEBA_NXZ 000000018001ed90 f i CctCharacterController.obj
 0001:0001ddd0       ??B?$TouchedObject@VPxShape@physx@@@Cct@physx@@QEBA_NXZ 000000018001edd0 f i CctCharacterController.obj
 0001:0001de10       ??C?$TouchedObject@VPxRigidActor@physx@@@Cct@physx@@QEBAPEBVPxRigidActor@2@XZ 000000018001ee10 f i CctCharacterController.obj
 0001:0001de30       ??C?$TouchedObject@VPxShape@physx@@@Cct@physx@@QEBAPEBVPxShape@2@XZ 000000018001ee30 f i CctCharacterController.obj
 0001:0001de50       ??DPxQuat@physx@@QEBA?AV01@AEBV01@@Z 000000018001ee50 f i CctCharacterController.obj
 0001:0001e060       ??DPxTransform@physx@@QEBA?AV01@AEBV01@@Z 000000018001f060 f i CctCharacterController.obj
 0001:0001e110       ??GPxVec3@physx@@QEBA?AV01@AEBV01@@Z 000000018001f110 f i CctCharacterController.obj
 0001:0001e1b0       ??GPxVec3@physx@@QEBA?AV01@XZ 000000018001f1b0 f i CctCharacterController.obj
 0001:0001e240       ??HPxVec3@physx@@QEBA?AV01@AEBV01@@Z 000000018001f240 f i CctCharacterController.obj
 0001:0001e2e0       ??I?$PxFlags@W4Enum@PxQueryFlag@physx@@G@physx@@QEBA?AV01@W4Enum@PxQueryFlag@1@@Z 000000018001f2e0 f i CctCharacterController.obj
 0001:0001e350       ??I?$PxFlags@W4Enum@PxRigidBodyFlag@physx@@E@physx@@QEBA?AV01@W4Enum@PxRigidBodyFlag@1@@Z 000000018001f350 f i CctCharacterController.obj
 0001:0001e3b0       ??I?$PxFlags@W4Enum@PxShapeFlag@physx@@E@physx@@QEBA?AV01@W4Enum@PxShapeFlag@1@@Z 000000018001f3b0 f i CctCharacterController.obj
 0001:0001e410       ??R?$Hash@PEAVPxShape@physx@@@shdfnd@physx@@QEBAIAEBQEAVPxShape@2@@Z 000000018001f410 f i CctCharacterController.obj
 0001:0001e440       ??RGetKey@?$HashSetBase@PEAVPxShape@physx@@U?$Hash@PEAVPxShape@physx@@@shdfnd@2@VNonTrackingAllocator@42@$0A@@internal@shdfnd@physx@@QEAAAEBQEAVPxShape@4@AEBQEAV54@@Z 000000018001f440 f i CctCharacterController.obj
 0001:0001e460       ??U?$PxFlags@W4Enum@PxQueryFlag@physx@@G@physx@@QEBA?AV01@W4Enum@PxQueryFlag@1@@Z 000000018001f460 f i CctCharacterController.obj
 0001:0001e4c0       ??Uphysx@@YA?AV?$PxFlags@W4Enum@PxQueryFlag@physx@@G@0@W4Enum@PxQueryFlag@0@0@Z 000000018001f4c0 f i CctCharacterController.obj
 0001:0001e520       ??YPxVec3@physx@@QEAAAEAV01@AEBV01@@Z 000000018001f520 f i CctCharacterController.obj
 0001:0001e5a0       ??ZPxVec3@physx@@QEAAAEAV01@AEBV01@@Z 000000018001f5a0 f i CctCharacterController.obj
 0001:0001e620       ??_0PxVec3@physx@@QEAAAEAV01@M@Z 000000018001f620 f i CctCharacterController.obj
 0001:0001e6b0       ??_5?$PxFlags@W4Enum@PxControllerCollisionFlag@physx@@E@physx@@QEAAAEAV01@W4Enum@PxControllerCollisionFlag@1@@Z 000000018001f6b0 f i CctCharacterController.obj
 0001:0001e6e0       ??_5?$PxFlags@W4Enum@PxHitFlag@physx@@G@physx@@QEAAAEAV01@W4Enum@PxHitFlag@1@@Z 000000018001f6e0 f i CctCharacterController.obj
 0001:0001e720       ??_5?$PxFlags@W4Enum@PxQueryFlag@physx@@G@physx@@QEAAAEAV01@W4Enum@PxQueryFlag@1@@Z 000000018001f720 f i CctCharacterController.obj
 0001:0001e760       ??_E?$PxHitBuffer@UPxRaycastHit@physx@@@physx@@UEAAPEAXI@Z 000000018001f760 f i CctCharacterController.obj
 0001:0001e760       ??_G?$PxHitBuffer@UPxRaycastHit@physx@@@physx@@UEAAPEAXI@Z 000000018001f760 f i CctCharacterController.obj
 0001:0001e7b0       ??_E?$PxHitCallback@UPxRaycastHit@physx@@@physx@@UEAAPEAXI@Z 000000018001f7b0 f i CctCharacterController.obj
 0001:0001e7b0       ??_G?$PxHitCallback@UPxRaycastHit@physx@@@physx@@UEAAPEAXI@Z 000000018001f7b0 f i CctCharacterController.obj
 0001:0001e800       ??_EControllerFilter@@UEAAPEAXI@Z 000000018001f800 f i CctCharacterController.obj
 0001:0001e800       ??_GControllerFilter@@UEAAPEAXI@Z 000000018001f800 f i CctCharacterController.obj
 0001:0001e850       ??_GPxExtendedBox@physx@@QEAAPEAXI@Z 000000018001f850 f i CctCharacterController.obj
 0001:0001e8a0       ??_EPxQueryFilterCallback@physx@@UEAAPEAXI@Z 000000018001f8a0 f i CctCharacterController.obj
 0001:0001e8a0       ??_GPxQueryFilterCallback@physx@@UEAAPEAXI@Z 000000018001f8a0 f i CctCharacterController.obj
 0001:0001e8f0       ??_GPxTriangle@physx@@QEAAPEAXI@Z 000000018001f8f0 f i CctCharacterController.obj
 0001:0001e940       ?PxAbs@physx@@YAMM@Z       000000018001f940 f i CctCharacterController.obj
 0001:0001e960       ?PxIsFinite@physx@@YA_NM@Z 000000018001f960 f i CctCharacterController.obj
 0001:0001e980       ?PxRecipSqrt@physx@@YAMM@Z 000000018001f980 f i CctCharacterController.obj
 0001:0001e9a0       ?PxSqrt@physx@@YAMM@Z      000000018001f9a0 f i CctCharacterController.obj
 0001:0001e9c0       ?abs@intrinsics@physx@@YAMM@Z 000000018001f9c0 f i CctCharacterController.obj
 0001:0001e9e0       ?add@physx@@YAXAEAUPxExtendedBounds3@1@AEBU21@@Z 000000018001f9e0 f i CctCharacterController.obj
 0001:0001ea30       ?allocate@?$Array@IVNamedAllocator@shdfnd@physx@@@shdfnd@physx@@IEAAPEAII@Z 000000018001fa30 f i CctCharacterController.obj
 0001:0001eae0       ?allocate@?$Array@PEBXVNamedAllocator@shdfnd@physx@@@shdfnd@physx@@IEAAPEAPEBXI@Z 000000018001fae0 f i CctCharacterController.obj
 0001:0001eb90       ?allocate@?$Array@UPxExtendedCapsule@physx@@VNamedAllocator@shdfnd@2@@shdfnd@physx@@IEAAPEAUPxExtendedCapsule@3@I@Z 000000018001fb90 f i CctCharacterController.obj
 0001:0001ec40       ?allocate@?$Array@VPxExtendedBox@physx@@VNamedAllocator@shdfnd@2@@shdfnd@physx@@IEAAPEAVPxExtendedBox@3@I@Z 000000018001fc40 f i CctCharacterController.obj
 0001:0001ecf0       ?any@PxGeometryHolder@physx@@QEBAAEBVPxGeometry@2@XZ 000000018001fcf0 f i CctCharacterController.obj
 0001:0001ed20       ?begin@?$Array@IVNamedAllocator@shdfnd@physx@@@shdfnd@physx@@QEAAPEAIXZ 000000018001fd20 f i CctCharacterController.obj
 0001:0001ed40       ?begin@?$Array@IVNamedAllocator@shdfnd@physx@@@shdfnd@physx@@QEBAPEBIXZ 000000018001fd40 f i CctCharacterController.obj
 0001:0001ed60       ?begin@?$Array@PEBXVNamedAllocator@shdfnd@physx@@@shdfnd@physx@@QEAAPEAPEBXXZ 000000018001fd60 f i CctCharacterController.obj
 0001:0001ed80       ?begin@?$Array@UPxExtendedCapsule@physx@@VNamedAllocator@shdfnd@2@@shdfnd@physx@@QEAAPEAUPxExtendedCapsule@3@XZ 000000018001fd80 f i CctCharacterController.obj
 0001:0001eda0       ?begin@?$Array@VPxExtendedBox@physx@@VNamedAllocator@shdfnd@2@@shdfnd@physx@@QEAAPEAVPxExtendedBox@3@XZ 000000018001fda0 f i CctCharacterController.obj
 0001:0001edc0       ?capacity@?$Array@IVNamedAllocator@shdfnd@physx@@@shdfnd@physx@@QEBAIXZ 000000018001fdc0 f i CctCharacterController.obj
 0001:0001ede0       ?capacity@?$Array@PEBXVNamedAllocator@shdfnd@physx@@@shdfnd@physx@@QEBAIXZ 000000018001fde0 f i CctCharacterController.obj
 0001:0001ee00       ?capacity@?$Array@UPxExtendedCapsule@physx@@VNamedAllocator@shdfnd@2@@shdfnd@physx@@QEBAIXZ 000000018001fe00 f i CctCharacterController.obj
 0001:0001ee20       ?capacity@?$Array@VPxExtendedBox@physx@@VNamedAllocator@shdfnd@2@@shdfnd@physx@@QEBAIXZ 000000018001fe20 f i CctCharacterController.obj
 0001:0001ee40       ?capacity@?$Array@VPxTriangle@physx@@VNamedAllocator@shdfnd@2@@shdfnd@physx@@QEBAIXZ 000000018001fe40 f i CctCharacterController.obj
 0001:0001ee60       ?capacityIncrement@?$Array@PEBXVNamedAllocator@shdfnd@physx@@@shdfnd@physx@@IEBAIXZ 000000018001fe60 f i CctCharacterController.obj
 0001:0001eeb0       ?capacityIncrement@?$Array@UPxExtendedCapsule@physx@@VNamedAllocator@shdfnd@2@@shdfnd@physx@@IEBAIXZ 000000018001feb0 f i CctCharacterController.obj
 0001:0001ef00       ?capacityIncrement@?$Array@VPxExtendedBox@physx@@VNamedAllocator@shdfnd@2@@shdfnd@physx@@IEBAIXZ 000000018001ff00 f i CctCharacterController.obj
 0001:0001ef50       ?clear@?$Array@IVNamedAllocator@shdfnd@physx@@@shdfnd@physx@@QEAAXXZ 000000018001ff50 f i CctCharacterController.obj
 0001:0001efa0       ?clear@?$Array@VPxTriangle@physx@@VNamedAllocator@shdfnd@2@@shdfnd@physx@@QEAAXXZ 000000018001ffa0 f i CctCharacterController.obj
 0001:0001eff0       ?clear@TriArray@Cct@physx@@QEAAXXZ 000000018001fff0 f i CctCharacterController.obj
 0001:0001f010       ?computeTimeCoeff@Controller@Cct@physx@@IEAAMXZ 0000000180020010 f i CctCharacterController.obj
 0001:0001f080       ?contains@?$HashSetBase@PEAVPxShape@physx@@U?$Hash@PEAVPxShape@physx@@@shdfnd@2@VNonTrackingAllocator@42@$0A@@internal@shdfnd@physx@@QEBA_NAEBQEAVPxShape@4@@Z 0000000180020080 f i CctCharacterController.obj
 0001:0001f0e0       ?copy@?$Array@IVNamedAllocator@shdfnd@physx@@@shdfnd@physx@@KAXPEAI0PEBI@Z 00000001800200e0 f i CctCharacterController.obj
 0001:0001f180       ?copy@?$Array@PEBXVNamedAllocator@shdfnd@physx@@@shdfnd@physx@@KAXPEAPEBX0PEBQEBX@Z 0000000180020180 f i CctCharacterController.obj
 0001:0001f220       ?copy@?$Array@UPxExtendedCapsule@physx@@VNamedAllocator@shdfnd@2@@shdfnd@physx@@KAXPEAUPxExtendedCapsule@3@0PEBU43@@Z 0000000180020220 f i CctCharacterController.obj
 0001:0001f2c0       ?copy@?$Array@VPxExtendedBox@physx@@VNamedAllocator@shdfnd@2@@shdfnd@physx@@KAXPEAVPxExtendedBox@3@0PEBV43@@Z 00000001800202c0 f i CctCharacterController.obj
 0001:0001f360       ?cross@PxVec3@physx@@QEBA?AV12@AEBV12@@Z 0000000180020360 f i CctCharacterController.obj
 0001:0001f450       ?deallocate@?$Array@IVNamedAllocator@shdfnd@physx@@@shdfnd@physx@@IEAAXPEAX@Z 0000000180020450 f i CctCharacterController.obj
 0001:0001f480       ?deallocate@?$Array@PEBXVNamedAllocator@shdfnd@physx@@@shdfnd@physx@@IEAAXPEAX@Z 0000000180020480 f i CctCharacterController.obj
 0001:0001f4b0       ?deallocate@?$Array@UPxExtendedCapsule@physx@@VNamedAllocator@shdfnd@2@@shdfnd@physx@@IEAAXPEAX@Z 00000001800204b0 f i CctCharacterController.obj
 0001:0001f4e0       ?deallocate@?$Array@VPxExtendedBox@physx@@VNamedAllocator@shdfnd@2@@shdfnd@physx@@IEAAXPEAX@Z 00000001800204e0 f i CctCharacterController.obj
 0001:0001f510       ?deallocate@?$Array@VPxTriangle@physx@@VNamedAllocator@shdfnd@2@@shdfnd@physx@@IEAAXPEAX@Z 0000000180020510 f i CctCharacterController.obj
 0001:0001f540       ?decomposeVector@shdfnd@physx@@YAXAEAVPxVec3@2@0AEBV32@1@Z 0000000180020540 f i CctCharacterController.obj
 0001:0001f5d0       ?destroy@?$Array@IVNamedAllocator@shdfnd@physx@@@shdfnd@physx@@KAXPEAI0@Z 00000001800205d0 f i CctCharacterController.obj
 0001:0001f610       ?destroy@?$Array@PEBXVNamedAllocator@shdfnd@physx@@@shdfnd@physx@@KAXPEAPEBX0@Z 0000000180020610 f i CctCharacterController.obj
 0001:0001f650       ?destroy@?$Array@UPxExtendedCapsule@physx@@VNamedAllocator@shdfnd@2@@shdfnd@physx@@KAXPEAUPxExtendedCapsule@3@0@Z 0000000180020650 f i CctCharacterController.obj
 0001:0001f690       ?destroy@?$Array@VPxExtendedBox@physx@@VNamedAllocator@shdfnd@2@@shdfnd@physx@@KAXPEAVPxExtendedBox@3@0@Z 0000000180020690 f i CctCharacterController.obj
 0001:0001f6e0       ?destroy@?$Array@VPxTriangle@physx@@VNamedAllocator@shdfnd@2@@shdfnd@physx@@KAXPEAVPxTriangle@3@0@Z 00000001800206e0 f i CctCharacterController.obj
 0001:0001f730       ?dot@PxExtendedVec3@physx@@QEBANAEBVPxVec3@2@@Z 0000000180020730 f i CctCharacterController.obj
 0001:0001f7b0       ?dot@PxVec3@physx@@QEBAMAEBV12@@Z 00000001800207b0 f i CctCharacterController.obj
 0001:0001f810       ?encodeUserObject@Cct@physx@@YAIIW4UserObjectType@12@@Z 0000000180020810 f i CctCharacterController.obj
 0001:0001f900       ?end@?$Array@IVNamedAllocator@shdfnd@physx@@@shdfnd@physx@@QEAAPEAIXZ 0000000180020900 f i CctCharacterController.obj
 0001:0001f920       ?end@?$Array@IVNamedAllocator@shdfnd@physx@@@shdfnd@physx@@QEBAPEBIXZ 0000000180020920 f i CctCharacterController.obj
 0001:0001f940       ?equal@?$Hash@PEAVPxShape@physx@@@shdfnd@physx@@QEBA_NAEBQEAVPxShape@3@0@Z 0000000180020940 f i CctCharacterController.obj
 0001:0001f990       ?finalizeQuery@?$PxHitCallback@UPxRaycastHit@physx@@@physx@@UEAAXXZ 0000000180020990 f i CctCharacterController.obj
 0001:0001f9a0       ?find@?$HashBase@PEAVPxShape@physx@@PEAV12@U?$Hash@PEAVPxShape@physx@@@shdfnd@2@UGetKey@?$HashSetBase@PEAVPxShape@physx@@U?$Hash@PEAVPxShape@physx@@@shdfnd@2@VNonTrackingAllocator@42@$0A@@internal@42@VNonTrackingAllocator@42@$0A@@internal@shdfnd@physx@@QEBAPEBQEAVPxShape@4@AEBQEAV54@@Z 00000001800209a0 f i CctCharacterController.obj
 0001:0001faa0       ?forceSize_Unsafe@?$Array@IVNamedAllocator@shdfnd@physx@@@shdfnd@physx@@QEAAXI@Z 0000000180020aa0 f i CctCharacterController.obj
 0001:0001fb30       ?forceSize_Unsafe@?$Array@VPxTriangle@physx@@VNamedAllocator@shdfnd@2@@shdfnd@physx@@QEAAXI@Z 0000000180020b30 f i CctCharacterController.obj
 0001:0001fbc0       ?forceSize_Unsafe@TriArray@Cct@physx@@QEAAXI@Z 0000000180020bc0 f i CctCharacterController.obj
 0001:0001fbf0       ?get@?$TouchedObject@VPxRigidActor@physx@@@Cct@physx@@QEBAPEBVPxRigidActor@3@XZ 0000000180020bf0 f i CctCharacterController.obj
 0001:0001fc10       ?get@?$TouchedObject@VPxShape@physx@@@Cct@physx@@QEBAPEBVPxShape@3@XZ 0000000180020c10 f i CctCharacterController.obj
 0001:0001fc30       ?getAnyHit@?$PxHitBuffer@UPxRaycastHit@physx@@@physx@@QEBAAEBUPxRaycastHit@2@I@Z 0000000180020c30 f i CctCharacterController.obj
 0001:0001fd20       ?getBasisVector0@PxQuat@physx@@QEBA?AVPxVec3@2@XZ 0000000180020d20 f i CctCharacterController.obj
 0001:0001fe40       ?getCenter@PxBounds3@physx@@QEBA?AVPxVec3@2@XZ 0000000180020e40 f i CctCharacterController.obj
 0001:0001ff10       ?getConcreteType@PxBase@physx@@QEBAGXZ 0000000180020f10 f i CctCharacterController.obj
 0001:0001ff30       ?getContextId@Controller@Cct@physx@@QEBA_KXZ 0000000180020f30 f i CctCharacterController.obj
 0001:0001ff50       ?getDimensions@PxBounds3@physx@@QEBA?AVPxVec3@2@XZ 0000000180020f50 f i CctCharacterController.obj
 0001:00020000       ?getExtents@PxBounds3@physx@@QEBA?AVPxVec3@2@XZ 0000000180021000 f i CctCharacterController.obj
 0001:000200c0       ?getGlobalPose@PxShapeExt@physx@@SA?AVPxTransform@2@AEBVPxShape@2@AEBVPxRigidActor@2@@Z 00000001800210c0 f i CctCharacterController.obj
 0001:00020170       ?getNbTouches@?$PxHitBuffer@UPxRaycastHit@physx@@@physx@@QEBAIXZ 0000000180021170 f i CctCharacterController.obj
 0001:00020190       ?getNormalized@PxVec3@physx@@QEBA?AV12@XZ 0000000180021190 f i CctCharacterController.obj
 0001:00020240       ?getShapeGlobalPose@physx@@YA?AVPxTransform@1@AEBVPxShape@1@AEBVPxRigidActor@1@@Z 0000000180021240 f i CctCharacterController.obj
 0001:00020280       ?getTouches@?$PxHitBuffer@UPxRaycastHit@physx@@@physx@@QEBAPEBUPxRaycastHit@2@XZ 0000000180021280 f i CctCharacterController.obj
 0001:000202a0       ?getTriangle@TriArray@Cct@physx@@QEBAAEBVPxTriangle@3@I@Z 00000001800212a0 f i CctCharacterController.obj
 0001:000202d0       ?getType@SweptVolume@Cct@physx@@QEBA?AW4Enum@SweptVolumeType@23@XZ 00000001800212d0 f i CctCharacterController.obj
 0001:000202f0       ?grow@?$Array@IVNamedAllocator@shdfnd@physx@@@shdfnd@physx@@IEAAXI@Z 00000001800212f0 f i CctCharacterController.obj
 0001:00020390       ?growAndPushBack@?$Array@PEBXVNamedAllocator@shdfnd@physx@@@shdfnd@physx@@IEAAAEAPEBXAEBQEBX@Z 0000000180021390 f i CctCharacterController.obj
 0001:00020570       ?growAndPushBack@?$Array@UPxExtendedCapsule@physx@@VNamedAllocator@shdfnd@2@@shdfnd@physx@@IEAAAEAUPxExtendedCapsule@3@AEBU43@@Z 0000000180021570 f i CctCharacterController.obj
 0001:000207b0       ?growAndPushBack@?$Array@VPxExtendedBox@physx@@VNamedAllocator@shdfnd@2@@shdfnd@physx@@IEAAAEAVPxExtendedBox@3@AEBV43@@Z 00000001800217b0 f i CctCharacterController.obj
 0001:000209a0       ?hash@?$HashBase@PEAVPxShape@physx@@PEAV12@U?$Hash@PEAVPxShape@physx@@@shdfnd@2@UGetKey@?$HashSetBase@PEAVPxShape@physx@@U?$Hash@PEAVPxShape@physx@@@shdfnd@2@VNonTrackingAllocator@42@$0A@@internal@42@VNonTrackingAllocator@42@$0A@@internal@shdfnd@physx@@AEBAIAEBQEAVPxShape@4@@Z 00000001800219a0 f i CctCharacterController.obj
 0001:000209e0       ?hash@?$HashBase@PEAVPxShape@physx@@PEAV12@U?$Hash@PEAVPxShape@physx@@@shdfnd@2@UGetKey@?$HashSetBase@PEAVPxShape@physx@@U?$Hash@PEAVPxShape@physx@@@shdfnd@2@VNonTrackingAllocator@42@$0A@@internal@42@VNonTrackingAllocator@42@$0A@@internal@shdfnd@physx@@AEBAIAEBQEAVPxShape@4@I@Z 00000001800219e0 f i CctCharacterController.obj
 0001:00020a20       ?hash@shdfnd@physx@@YAIPEBX@Z 0000000180021a20 f i CctCharacterController.obj
 0001:00020a40       ?hash@shdfnd@physx@@YAI_K@Z 0000000180021a40 f i CctCharacterController.obj
 0001:00020b50       ?intersectOBBAABB@Gu@physx@@YA_NAEBVBox@12@AEBVPxBounds3@2@@Z 0000000180021b50 f i CctCharacterController.obj
 0001:00020c10       ?isAlmostZero@shdfnd@physx@@YA_NAEBVPxVec3@2@@Z 0000000180021c10 f i CctCharacterController.obj
 0001:00020c90       ?isFinite@PxBounds3@physx@@QEBA_NXZ 0000000180021c90 f i CctCharacterController.obj
 0001:00020d00       ?isFinite@PxQuat@physx@@QEBA_NXZ 0000000180021d00 f i CctCharacterController.obj
 0001:00020da0       ?isFinite@PxTransform@physx@@QEBA_NXZ 0000000180021da0 f i CctCharacterController.obj
 0001:00020e10       ?isFinite@PxVec3@physx@@QEBA_NXZ 0000000180021e10 f i CctCharacterController.obj
 0001:00020e90       ?isFinite@intrinsics@physx@@YA_NM@Z 0000000180021e90 f i CctCharacterController.obj
 0001:00020ee0       ?isInUserMemory@?$Array@IVNamedAllocator@shdfnd@physx@@@shdfnd@physx@@QEBAIXZ 0000000180021ee0 f i CctCharacterController.obj
 0001:00020f00       ?isInUserMemory@?$Array@PEBXVNamedAllocator@shdfnd@physx@@@shdfnd@physx@@QEBAIXZ 0000000180021f00 f i CctCharacterController.obj
 0001:00020f20       ?isInUserMemory@?$Array@UPxExtendedCapsule@physx@@VNamedAllocator@shdfnd@2@@shdfnd@physx@@QEBAIXZ 0000000180021f20 f i CctCharacterController.obj
 0001:00020f40       ?isInUserMemory@?$Array@VPxExtendedBox@physx@@VNamedAllocator@shdfnd@2@@shdfnd@physx@@QEBAIXZ 0000000180021f40 f i CctCharacterController.obj
 0001:00020f60       ?isInUserMemory@?$Array@VPxTriangle@physx@@VNamedAllocator@shdfnd@2@@shdfnd@physx@@QEBAIXZ 0000000180021f60 f i CctCharacterController.obj
 0001:00020f80       ?isInside@PxExtendedBounds3@physx@@QEBA_NAEBU12@@Z 0000000180021f80 f i CctCharacterController.obj
 0001:00021060       ?isSane@PxQuat@physx@@QEBA_NXZ 0000000180022060 f i CctCharacterController.obj
 0001:000210e0       ?isSane@PxTransform@physx@@QEBA_NXZ 00000001800220e0 f i CctCharacterController.obj
 0001:00021140       ?isValid@PxBounds3@physx@@QEBA_NXZ 0000000180022140 f i CctCharacterController.obj
 0001:00021270       ?isZero@PxVec3@physx@@QEBA_NXZ 0000000180022270 f i CctCharacterController.obj
 0001:000212d0       ?magnitude@PxQuat@physx@@QEBAMXZ 00000001800222d0 f i CctCharacterController.obj
 0001:00021300       ?magnitude@PxVec3@physx@@QEBAMXZ 0000000180022300 f i CctCharacterController.obj
 0001:00021330       ?magnitudeSquared@PxQuat@physx@@QEBAMXZ 0000000180022330 f i CctCharacterController.obj
 0001:000213b0       ?magnitudeSquared@PxVec3@physx@@QEBAMXZ 00000001800223b0 f i CctCharacterController.obj
 0001:00021410       ?maximum@PxExtendedVec3@physx@@QEAAXAEBU12@@Z 0000000180022410 f i CctCharacterController.obj
 0001:000214c0       ?minimum@PxExtendedVec3@physx@@QEAAXAEBU12@@Z 00000001800224c0 f i CctCharacterController.obj
 0001:00021570       ?normal@PxTriangle@physx@@QEBAXAEAVPxVec3@2@@Z 0000000180022570 f i CctCharacterController.obj
 0001:00021660       ?normalize@PxVec3@physx@@QEAAMXZ 0000000180022660 f i CctCharacterController.obj
 0001:000216c0       ?postFilter@ControllerFilter@@UEAA?AW4Enum@PxQueryHitType@physx@@AEBUPxFilterData@4@AEBUPxQueryHit@4@@Z 00000001800226c0 f i CctCharacterController.obj
 0001:000217c0       ?preFilter@ControllerFilter@@UEAA?AW4Enum@PxQueryHitType@physx@@AEBUPxFilterData@4@PEBVPxShape@4@PEBVPxRigidActor@4@AEAV?$PxFlags@W4Enum@PxHitFlag@physx@@G@4@@Z 00000001800227c0 f i CctCharacterController.obj
 0001:00021900       ?processTouches@?$PxHitBuffer@UPxRaycastHit@physx@@@physx@@MEAA_NPEBUPxRaycastHit@2@I@Z 0000000180022900 f i CctCharacterController.obj
 0001:00021940       ?pushBack@?$Array@PEBXVNamedAllocator@shdfnd@physx@@@shdfnd@physx@@QEAAAEAPEBXAEBQEBX@Z 0000000180022940 f i CctCharacterController.obj
 0001:00021a10       ?pushBack@?$Array@UPxExtendedCapsule@physx@@VNamedAllocator@shdfnd@2@@shdfnd@physx@@QEAAAEAUPxExtendedCapsule@3@AEBU43@@Z 0000000180022a10 f i CctCharacterController.obj
 0001:00021ae0       ?pushBack@?$Array@VPxExtendedBox@physx@@VNamedAllocator@shdfnd@2@@shdfnd@physx@@QEAAAEAVPxExtendedBox@3@AEBV43@@Z 0000000180022ae0 f i CctCharacterController.obj
 0001:00021bb0       ?recipSqrt@intrinsics@physx@@YAMM@Z 0000000180022bb0 f i CctCharacterController.obj
 0001:00021bf0       ?recreate@?$Array@IVNamedAllocator@shdfnd@physx@@@shdfnd@physx@@IEAAXI@Z 0000000180022bf0 f i CctCharacterController.obj
 0001:00021d40       ?reserve@?$Array@IVNamedAllocator@shdfnd@physx@@@shdfnd@physx@@QEAAXI@Z 0000000180022d40 f i CctCharacterController.obj
 0001:00021d80       ?resetStats@SweepTest@Cct@physx@@QEAAXXZ 0000000180022d80 f i CctCharacterController.obj
 0001:00021dd0       ?rotate@PxQuat@physx@@QEBA?BVPxVec3@2@AEBV32@@Z 0000000180022dd0 f i CctCharacterController.obj
 0001:00022020       ?rotateInv@PxQuat@physx@@QEBA?BVPxVec3@2@AEBV32@@Z 0000000180023020 f i CctCharacterController.obj
 0001:00022270       ?selectMax@intrinsics@physx@@YAMMM@Z 0000000180023270 f i CctCharacterController.obj
 0001:000222c0       ?selectMin@intrinsics@physx@@YAMMM@Z 00000001800232c0 f i CctCharacterController.obj
 0001:00022310       ?set@PxExtendedBounds3@physx@@QEAAXNNNNNN@Z 0000000180023310 f i CctCharacterController.obj
 0001:00022390       ?set@PxExtendedVec3@physx@@QEAAXNNN@Z 0000000180023390 f i CctCharacterController.obj
 0001:000223f0       ?setEmpty@PxExtendedBounds3@physx@@QEAAXXZ 00000001800233f0 f i CctCharacterController.obj
 0001:00022460       ?setWorldPos@SweptContact@Cct@physx@@QEAAXAEBVPxVec3@3@AEBUPxExtendedVec3@3@@Z 0000000180023460 f i CctCharacterController.obj
 0001:000224e0       ?size@?$Array@IVNamedAllocator@shdfnd@physx@@@shdfnd@physx@@QEBAIXZ 00000001800234e0 f i CctCharacterController.obj
 0001:00022500       ?size@?$Array@PEBXVNamedAllocator@shdfnd@physx@@@shdfnd@physx@@QEBAIXZ 0000000180023500 f i CctCharacterController.obj
 0001:00022520       ?size@?$Array@UInternalBoxObstacle@ObstacleContext@Cct@physx@@VNamedAllocator@shdfnd@4@@shdfnd@physx@@QEBAIXZ 0000000180023520 f i CctCharacterController.obj
 0001:00022540       ?size@?$Array@UInternalCapsuleObstacle@ObstacleContext@Cct@physx@@VNamedAllocator@shdfnd@4@@shdfnd@physx@@QEBAIXZ 0000000180023540 f i CctCharacterController.obj
 0001:00022560       ?size@?$Array@UPxExtendedCapsule@physx@@VNamedAllocator@shdfnd@2@@shdfnd@physx@@QEBAIXZ 0000000180023560 f i CctCharacterController.obj
 0001:00022580       ?size@?$Array@VPxExtendedBox@physx@@VNamedAllocator@shdfnd@2@@shdfnd@physx@@QEBAIXZ 0000000180023580 f i CctCharacterController.obj
 0001:000225a0       ?size@?$Array@VPxTriangle@physx@@VNamedAllocator@shdfnd@2@@shdfnd@physx@@QEBAIXZ 00000001800235a0 f i CctCharacterController.obj
 0001:000225c0       ?size@TriArray@Cct@physx@@QEBAIXZ 00000001800235c0 f i CctCharacterController.obj
 0001:000225e0       ?sqrt@intrinsics@physx@@YAMM@Z 00000001800235e0 f i CctCharacterController.obj
 0001:00022600       ?testSlope@physx@@YA_NAEBVPxVec3@1@0M@Z 0000000180023600 f i CctCharacterController.obj
 0001:00022680       ?toVec3@physx@@YA?AVPxVec3@1@AEBUPxExtendedVec3@1@@Z 0000000180023680 f i CctCharacterController.obj
 0001:000226f0       ?transform@PxTransform@physx@@QEBA?AV12@AEBV12@@Z 00000001800236f0 f i CctCharacterController.obj
 0001:000228c0       ?transform@PxTransform@physx@@QEBA?AVPxVec3@2@AEBV32@@Z 00000001800238c0 f i CctCharacterController.obj
 0001:000229a0       ?transformInv@PxTransform@physx@@QEBA?AVPxVec3@2@AEBV32@@Z 00000001800239a0 f i CctCharacterController.obj
 0001:00022a70       fabsf                      0000000180023a70 f i CctCharacterController.obj
 0001:00022b20       ?getSceneTimestamp@Cct@physx@@YAIPEBUInternalCBData_FindTouchedGeom@12@@Z 0000000180023b20 f   CctCharacterControllerCallbacks.obj
 0001:00022bb0       ?findTouchedGeometry@Cct@physx@@YAXPEBUInternalCBData_FindTouchedGeom@12@AEBUPxExtendedBounds3@2@AEAVTriArray@12@AEAV?$Array@IVNamedAllocator@shdfnd@physx@@@shdfnd@2@3AEBVCCTFilter@12@AEBUCCTParams@12@AEAG@Z 0000000180023bb0 f   CctCharacterControllerCallbacks.obj
 0001:000233a0       ?shapeHitCallback@Cct@physx@@YAIPEBUInternalCBData_OnHit@12@AEBUSweptContact@12@AEBVPxVec3@2@M@Z 00000001800243a0 f   CctCharacterControllerCallbacks.obj
 0001:000234d0       ?userHitCallback@Cct@physx@@YAIPEBUInternalCBData_OnHit@12@AEBUSweptContact@12@AEBVPxVec3@2@M@Z 00000001800244d0 f   CctCharacterControllerCallbacks.obj
 0001:00028c40       ??$PX_UNUSED@PEBUPxOverlapHit@physx@@@@YAXAEBQEBUPxOverlapHit@physx@@@Z 0000000180029c40 f i CctCharacterControllerCallbacks.obj
 0001:00028c50       ??0?$PxFlags@W4Enum@PxConvexMeshGeometryFlag@physx@@E@physx@@QEAA@XZ 0000000180029c50 f i CctCharacterControllerCallbacks.obj
 0001:00028c70       ??0?$PxFlags@W4Enum@PxMeshGeometryFlag@physx@@E@physx@@QEAA@E@Z 0000000180029c70 f i CctCharacterControllerCallbacks.obj
 0001:00028ca0       ??0?$PxFlags@W4Enum@PxMeshGeometryFlag@physx@@E@physx@@QEAA@XZ 0000000180029ca0 f i CctCharacterControllerCallbacks.obj
 0001:00028cc0       ??0?$PxHitBuffer@UPxOverlapHit@physx@@@physx@@QEAA@PEAUPxOverlapHit@1@I@Z 0000000180029cc0 f i CctCharacterControllerCallbacks.obj
 0001:00028d10       ??0?$PxHitCallback@UPxOverlapHit@physx@@@physx@@QEAA@PEAUPxOverlapHit@1@I@Z 0000000180029d10 f i CctCharacterControllerCallbacks.obj
 0001:00028da0       ??0?$PxPadding@$02@physx@@QEAA@XZ 0000000180029da0 f i CctCharacterControllerCallbacks.obj
 0001:00028df0       ??0PxControllerHit@physx@@QEAA@XZ 0000000180029df0 f i CctCharacterControllerCallbacks.obj
 0001:00028e50       ??0PxControllerObstacleHit@physx@@QEAA@XZ 0000000180029e50 f i CctCharacterControllerCallbacks.obj
 0001:00028e80       ??0PxControllerShapeHit@physx@@QEAA@XZ 0000000180029e80 f i CctCharacterControllerCallbacks.obj
 0001:00028eb0       ??0PxControllersHit@physx@@QEAA@XZ 0000000180029eb0 f i CctCharacterControllerCallbacks.obj
 0001:00028ee0       ??0PxConvexMeshGeometry@physx@@QEAA@XZ 0000000180029ee0 f i CctCharacterControllerCallbacks.obj
 0001:00028f80       ??0PxExtendedSphere@physx@@QEAA@XZ 0000000180029f80 f i CctCharacterControllerCallbacks.obj
 0001:00028fb0       ??0PxHeightFieldGeometry@physx@@QEAA@XZ 0000000180029fb0 f i CctCharacterControllerCallbacks.obj
 0001:00029060       ??0PxMat33@physx@@QEAA@AEBVPxVec3@1@00@Z 000000018002a060 f i CctCharacterControllerCallbacks.obj
 0001:000290e0       ??0PxMeshScale@physx@@QEAA@M@Z 000000018002a0e0 f i CctCharacterControllerCallbacks.obj
 0001:00029130       ??0PxMeshScale@physx@@QEAA@XZ 000000018002a130 f i CctCharacterControllerCallbacks.obj
 0001:00029180       ??0PxOverlapHit@physx@@QEAA@XZ 000000018002a180 f i CctCharacterControllerCallbacks.obj
 0001:000291b0       ??0PxPlane@physx@@QEAA@AEBVPxVec3@1@M@Z 000000018002a1b0 f i CctCharacterControllerCallbacks.obj
 0001:00029200       ??0PxPlane@physx@@QEAA@MMMM@Z 000000018002a200 f i CctCharacterControllerCallbacks.obj
 0001:00029270       ??0PxQueryFilterData@physx@@QEAA@$$QEAU01@@Z 000000018002a270 f i CctCharacterControllerCallbacks.obj
 0001:000292e0       ??0PxQueryFilterData@physx@@QEAA@V?$PxFlags@W4Enum@PxQueryFlag@physx@@G@1@@Z 000000018002a2e0 f i CctCharacterControllerCallbacks.obj
 0001:00029340       ??0PxTransform@physx@@QEAA@AEBVPxVec3@1@@Z 000000018002a340 f i CctCharacterControllerCallbacks.obj
 0001:00029390       ??0PxTriangle@physx@@QEAA@AEBV01@@Z 000000018002a390 f i CctCharacterControllerCallbacks.obj
 0001:00029490       ??0PxTriangle@physx@@QEAA@AEBVPxVec3@1@00@Z 000000018002a490 f i CctCharacterControllerCallbacks.obj
 0001:00029560       ??0PxTriangle@physx@@QEAA@XZ 000000018002a560 f i CctCharacterControllerCallbacks.obj
 0001:000295a0       ??0PxTriangleMeshGeometry@physx@@QEAA@XZ 000000018002a5a0 f i CctCharacterControllerCallbacks.obj
 0001:00029620       ??0PxVec4@physx@@QEAA@MMMM@Z 000000018002a620 f i CctCharacterControllerCallbacks.obj
 0001:000296a0       ??0TessParams@@QEAA@XZ     000000018002a6a0 f i CctCharacterControllerCallbacks.obj
 0001:000296f0       ??0TrianglePadded@Gu@physx@@QEAA@XZ 000000018002a6f0 f i CctCharacterControllerCallbacks.obj
 0001:00029720       ??0Vec3p@Gu@physx@@QEAA@AEBVPxVec3@2@@Z 000000018002a720 f i CctCharacterControllerCallbacks.obj
 0001:00029750       ??1?$PxHitBuffer@UPxOverlapHit@physx@@@physx@@UEAA@XZ 000000018002a750 f i CctCharacterControllerCallbacks.obj
 0001:00029780       ??1?$PxHitCallback@UPxOverlapHit@physx@@@physx@@UEAA@XZ 000000018002a780 f i CctCharacterControllerCallbacks.obj
 0001:000297a0       ??1PxExtendedSphere@physx@@QEAA@XZ 000000018002a7a0 f i CctCharacterControllerCallbacks.obj
 0001:000297b0       ??1TrianglePadded@Gu@physx@@QEAA@XZ 000000018002a7b0 f i CctCharacterControllerCallbacks.obj
 0001:000297d0       ??1Vec3p@Gu@physx@@QEAA@XZ 000000018002a7d0 f i CctCharacterControllerCallbacks.obj
 0001:000297e0       ??APxVec3@physx@@QEBAAEBMI@Z 000000018002a7e0 f i CctCharacterControllerCallbacks.obj
 0001:00029870       ??DPxMat33@physx@@QEBA?BV01@AEBV01@@Z 000000018002a870 f i CctCharacterControllerCallbacks.obj
 0001:00029930       ??DPxVec4@physx@@QEBA?AV01@M@Z 000000018002a930 f i CctCharacterControllerCallbacks.obj
 0001:000299d0       ??HPxVec4@physx@@QEBA?AV01@AEBV01@@Z 000000018002a9d0 f i CctCharacterControllerCallbacks.obj
 0001:00029a80       ??_E?$PxHitBuffer@UPxOverlapHit@physx@@@physx@@UEAAPEAXI@Z 000000018002aa80 f i CctCharacterControllerCallbacks.obj
 0001:00029a80       ??_G?$PxHitBuffer@UPxOverlapHit@physx@@@physx@@UEAAPEAXI@Z 000000018002aa80 f i CctCharacterControllerCallbacks.obj
 0001:00029ad0       ??_E?$PxHitCallback@UPxOverlapHit@physx@@@physx@@UEAAPEAXI@Z 000000018002aad0 f i CctCharacterControllerCallbacks.obj
 0001:00029ad0       ??_G?$PxHitCallback@UPxOverlapHit@physx@@@physx@@UEAAPEAXI@Z 000000018002aad0 f i CctCharacterControllerCallbacks.obj
 0001:00029b20       ?FLoad@aos@shdfnd@physx@@YA?AT__m128@@M@Z 000000018002ab20 f i CctCharacterControllerCallbacks.obj
 0001:00029b50       ?PxPlaneEquationFromTransform@physx@@YA?AVPxPlane@1@AEBVPxTransform@1@@Z 000000018002ab50 f i CctCharacterControllerCallbacks.obj
 0001:00029bb0       ?V3Load@aos@shdfnd@physx@@YA?AT__m128@@M@Z 000000018002abb0 f i CctCharacterControllerCallbacks.obj
 0001:00029c00       ?V4Load@aos@shdfnd@physx@@YA?AT__m128@@M@Z 000000018002ac00 f i CctCharacterControllerCallbacks.obj
 0001:00029c30       ?allocate@?$Array@VPxTriangle@physx@@VNamedAllocator@shdfnd@2@@shdfnd@physx@@IEAAPEAVPxTriangle@3@I@Z 000000018002ac30 f i CctCharacterControllerCallbacks.obj
 0001:00029ce0       ?begin@?$Array@VPxTriangle@physx@@VNamedAllocator@shdfnd@2@@shdfnd@physx@@QEBAPEBVPxTriangle@3@XZ 000000018002ace0 f i CctCharacterControllerCallbacks.obj
 0001:00029d00       ?begin@TriArray@Cct@physx@@QEBAPEBVPxTriangle@3@XZ 000000018002ad00 f i CctCharacterControllerCallbacks.obj
 0001:00029d20       ?capacityIncrement@?$Array@IVNamedAllocator@shdfnd@physx@@@shdfnd@physx@@IEBAIXZ 000000018002ad20 f i CctCharacterControllerCallbacks.obj
 0001:00029d70       ?centerExtents@PxBounds3@physx@@SA?AV12@AEBVPxVec3@2@0@Z 000000018002ad70 f i CctCharacterControllerCallbacks.obj
 0001:00029df0       ?computeBasis@shdfnd@physx@@YAXAEBVPxVec3@2@AEAV32@1@Z 000000018002adf0 f i CctCharacterControllerCallbacks.obj
 0001:00029fc0       ?copy@?$Array@VPxTriangle@physx@@VNamedAllocator@shdfnd@2@@shdfnd@physx@@KAXPEAVPxTriangle@3@0PEBV43@@Z 000000018002afc0 f i CctCharacterControllerCallbacks.obj
 0001:0002a060       ?decodeIndex@Cct@physx@@YAII@Z 000000018002b060 f i CctCharacterControllerCallbacks.obj
 0001:0002a070       ?decodeType@Cct@physx@@YA?AW4UserObjectType@12@I@Z 000000018002b070 f i CctCharacterControllerCallbacks.obj
 0001:0002a090       ?distance@PxPlane@physx@@QEBAMAEBVPxVec3@2@@Z 000000018002b090 f i CctCharacterControllerCallbacks.obj
 0001:0002a0d0       ?end@?$Array@VPxTriangle@physx@@VNamedAllocator@shdfnd@2@@shdfnd@physx@@QEAAPEAVPxTriangle@3@XZ 000000018002b0d0 f i CctCharacterControllerCallbacks.obj
 0001:0002a0f0       ?finalizeQuery@?$PxHitCallback@UPxOverlapHit@physx@@@physx@@UEAAXXZ 000000018002b0f0 f i CctCharacterControllerCallbacks.obj
 0001:0002a100       ?getAnyHit@?$PxHitBuffer@UPxOverlapHit@physx@@@physx@@QEBAAEBUPxOverlapHit@2@I@Z 000000018002b100 f i CctCharacterControllerCallbacks.obj
 0001:0002a1f0       ?getCctManager@Controller@Cct@physx@@QEAAPEAVCharacterControllerManager@23@XZ 000000018002b1f0 f i CctCharacterControllerCallbacks.obj
 0001:0002a210       ?getNbAnyHits@?$PxHitBuffer@UPxOverlapHit@physx@@@physx@@QEBAIXZ 000000018002b210 f i CctCharacterControllerCallbacks.obj
 0001:0002a240       ?getNbTouches@?$PxHitBuffer@UPxOverlapHit@physx@@@physx@@QEBAIXZ 000000018002b240 f i CctCharacterControllerCallbacks.obj
 0001:0002a260       ?getPosition@PxMat44@physx@@QEBA?BVPxVec3@2@XZ 000000018002b260 f i CctCharacterControllerCallbacks.obj
 0001:0002a2a0       ?getResults@PxMeshOverlapUtil@physx@@QEBAPEBIXZ 000000018002b2a0 f i CctCharacterControllerCallbacks.obj
 0001:0002a2c0       ?getTouches@?$PxHitBuffer@UPxOverlapHit@physx@@@physx@@QEBAPEBUPxOverlapHit@2@XZ 000000018002b2c0 f i CctCharacterControllerCallbacks.obj
 0001:0002a2e0       ?getTranspose@PxMat33@physx@@QEBA?BV12@XZ 000000018002b2e0 f i CctCharacterControllerCallbacks.obj
 0001:0002a3c0       ?getXYZ@PxVec4@physx@@QEBA?AVPxVec3@2@XZ 000000018002b3c0 f i CctCharacterControllerCallbacks.obj
 0001:0002a410       ?grow@?$Array@VPxTriangle@physx@@VNamedAllocator@shdfnd@2@@shdfnd@physx@@IEAAXI@Z 000000018002b410 f i CctCharacterControllerCallbacks.obj
 0001:0002a4b0       ?growAndPushBack@?$Array@IVNamedAllocator@shdfnd@physx@@@shdfnd@physx@@IEAAAEAIAEBI@Z 000000018002b4b0 f i CctCharacterControllerCallbacks.obj
 0001:0002a690       ?processTouches@?$PxHitBuffer@UPxOverlapHit@physx@@@physx@@MEAA_NPEBUPxOverlapHit@2@I@Z 000000018002b690 f i CctCharacterControllerCallbacks.obj
 0001:0002a6d0       ?project@PxPlane@physx@@QEBA?AVPxVec3@2@AEBV32@@Z 000000018002b6d0 f i CctCharacterControllerCallbacks.obj
 0001:0002a740       ?pushBack@?$Array@IVNamedAllocator@shdfnd@physx@@@shdfnd@physx@@QEAAAEAIAEBI@Z 000000018002b740 f i CctCharacterControllerCallbacks.obj
 0001:0002a810       ?pushBack@TriArray@Cct@physx@@QEAAXAEBVPxTriangle@3@@Z 000000018002b810 f i CctCharacterControllerCallbacks.obj
 0001:0002a900       ?recreate@?$Array@VPxTriangle@physx@@VNamedAllocator@shdfnd@2@@shdfnd@physx@@IEAAXI@Z 000000018002b900 f i CctCharacterControllerCallbacks.obj
 0001:0002aa60       ?reserve@?$Array@VPxTriangle@physx@@VNamedAllocator@shdfnd@2@@shdfnd@physx@@QEAAXI@Z 000000018002ba60 f i CctCharacterControllerCallbacks.obj
 0001:0002aaa0       ?reserve@TriArray@Cct@physx@@QEAAPEAVPxTriangle@3@I@Z 000000018002baa0 f i CctCharacterControllerCallbacks.obj
 0001:0002ab80       ?rotate@PxMat44@physx@@QEBA?BVPxVec3@2@AEBV32@@Z 000000018002bb80 f i CctCharacterControllerCallbacks.obj
 0001:0002abf0       ?rotate@PxMat44@physx@@QEBA?BVPxVec4@2@AEBV32@@Z 000000018002bbf0 f i CctCharacterControllerCallbacks.obj
 0001:0002ace0       ?rotate@PxTransform@physx@@QEBA?AVPxVec3@2@AEBV32@@Z 000000018002bce0 f i CctCharacterControllerCallbacks.obj
 0001:0002ad90       ?toMat33@PxMeshScale@physx@@QEBA?AVPxMat33@2@XZ 000000018002bd90 f i CctCharacterControllerCallbacks.obj
 0001:0002ae80       ?transform@PxMat33@physx@@QEBA?BVPxVec3@2@AEBV32@@Z 000000018002be80 f i CctCharacterControllerCallbacks.obj
 0001:0002af60       ?transform@PxTransform@physx@@QEBA?AVPxPlane@2@AEBV32@@Z 000000018002bf60 f i CctCharacterControllerCallbacks.obj
 0001:0002b070       PxCreateControllerManager  000000018002c070 f   CctCharacterControllerManager.obj
 0001:0002b100       ??0CharacterControllerManager@Cct@physx@@QEAA@AEAVPxScene@2@_N@Z 000000018002c100 f   CctCharacterControllerManager.obj
 0001:0002b380       ??1CharacterControllerManager@Cct@physx@@UEAA@XZ 000000018002c380 f   CctCharacterControllerManager.obj
 0001:0002b4c0       ?release@CharacterControllerManager@Cct@physx@@UEAAXXZ 000000018002c4c0 f   CctCharacterControllerManager.obj
 0001:0002b5e0       ?getScene@CharacterControllerManager@Cct@physx@@UEBAAEAVPxScene@3@XZ 000000018002c5e0 f   CctCharacterControllerManager.obj
 0001:0002b600       ?getNbControllers@CharacterControllerManager@Cct@physx@@UEBAIXZ 000000018002c600 f   CctCharacterControllerManager.obj
 0001:0002b630       ?getController@CharacterControllerManager@Cct@physx@@UEAAPEAVPxController@3@I@Z 000000018002c630 f   CctCharacterControllerManager.obj
 0001:0002b720       ?createController@CharacterControllerManager@Cct@physx@@UEAAPEAVPxController@3@AEBVPxControllerDesc@3@@Z 000000018002c720 f   CctCharacterControllerManager.obj
 0001:0002bab0       ?purgeControllers@CharacterControllerManager@Cct@physx@@UEAAXXZ 000000018002cab0 f   CctCharacterControllerManager.obj
 0001:0002bb20       ?getRenderBuffer@CharacterControllerManager@Cct@physx@@UEAAAEAVPxRenderBuffer@3@XZ 000000018002cb20 f   CctCharacterControllerManager.obj
 0001:0002bbb0       ?setDebugRenderingFlags@CharacterControllerManager@Cct@physx@@UEAAXV?$PxFlags@W4Enum@PxControllerDebugRenderFlag@physx@@I@3@@Z 000000018002cbb0 f   CctCharacterControllerManager.obj
 0001:0002bc50       ?getNbObstacleContexts@CharacterControllerManager@Cct@physx@@UEBAIXZ 000000018002cc50 f   CctCharacterControllerManager.obj
 0001:0002bc80       ?getObstacleContext@CharacterControllerManager@Cct@physx@@UEAAPEAVPxObstacleContext@3@I@Z 000000018002cc80 f   CctCharacterControllerManager.obj
 0001:0002bd60       ?createObstacleContext@CharacterControllerManager@Cct@physx@@UEAAPEAVPxObstacleContext@3@XZ 000000018002cd60 f   CctCharacterControllerManager.obj
 0001:0002be00       ?computeInteractions@CharacterControllerManager@Cct@physx@@UEAAXMPEAVPxControllerFilterCallback@3@@Z 000000018002ce00 f   CctCharacterControllerManager.obj
 0001:0002c190       ?setTessellation@CharacterControllerManager@Cct@physx@@UEAAX_NM@Z 000000018002d190 f   CctCharacterControllerManager.obj
 0001:0002c1d0       ?setOverlapRecoveryModule@CharacterControllerManager@Cct@physx@@UEAAX_N@Z 000000018002d1d0 f   CctCharacterControllerManager.obj
 0001:0002c1f0       ?setPreciseSweeps@CharacterControllerManager@Cct@physx@@UEAAX_N@Z 000000018002d1f0 f   CctCharacterControllerManager.obj
 0001:0002c210       ?setPreventVerticalSlidingAgainstCeiling@CharacterControllerManager@Cct@physx@@UEAAX_N@Z 000000018002d210 f   CctCharacterControllerManager.obj
 0001:0002c230       ?shiftOrigin@CharacterControllerManager@Cct@physx@@UEAAXAEBVPxVec3@3@@Z 000000018002d230 f   CctCharacterControllerManager.obj
 0001:0002c3d0       ?onRelease@CharacterControllerManager@Cct@physx@@UEAAXPEBVPxBase@3@PEAXW4Enum@PxDeletionEventFlag@3@@Z 000000018002d3d0 f   CctCharacterControllerManager.obj
 0001:0002c5a0       ?registerObservedObject@CharacterControllerManager@Cct@physx@@QEAAXPEBVPxBase@3@@Z 000000018002d5a0 f   CctCharacterControllerManager.obj
 0001:0002c630       ?unregisterObservedObject@CharacterControllerManager@Cct@physx@@QEAAXPEBVPxBase@3@@Z 000000018002d630 f   CctCharacterControllerManager.obj
 0001:0002c730       ?onObstacleRemoved@CharacterControllerManager@Cct@physx@@QEBAXI@Z 000000018002d730 f   CctCharacterControllerManager.obj
 0001:0002c7a0       ?onObstacleUpdated@CharacterControllerManager@Cct@physx@@QEBAXIPEBVPxObstacleContext@3@@Z 000000018002d7a0 f   CctCharacterControllerManager.obj
 0001:0002c8e0       ?onObstacleAdded@CharacterControllerManager@Cct@physx@@QEBAXIPEBVPxObstacleContext@3@@Z 000000018002d8e0 f   CctCharacterControllerManager.obj
 0001:0002ca20       ?releaseController@CharacterControllerManager@Cct@physx@@QEAAXAEAVPxController@3@@Z 000000018002da20 f   CctCharacterControllerManager.obj
 0001:0002cca0       ?getControllers@CharacterControllerManager@Cct@physx@@QEAAPEAPEAVController@23@XZ 000000018002dca0 f   CctCharacterControllerManager.obj
 0001:0002ccd0       ?releaseObstacleContext@CharacterControllerManager@Cct@physx@@QEAAXAEAVObstacleContext@23@@Z 000000018002dcd0 f   CctCharacterControllerManager.obj
 0001:0002cdd0       ?resetObstaclesBuffers@CharacterControllerManager@Cct@physx@@QEAAXXZ 000000018002ddd0 f   CctCharacterControllerManager.obj
 0001:0002ec50       ??$?2V?$ReflectionAllocator@VBoxController@Cct@physx@@@shdfnd@physx@@@UserAllocated@shdfnd@physx@@SAPEAX_KV?$ReflectionAllocator@VBoxController@Cct@physx@@@12@PEBDH@Z 000000018002fc50 f i CctCharacterControllerManager.obj
 0001:0002eca0       ??$?2V?$ReflectionAllocator@VCapsuleController@Cct@physx@@@shdfnd@physx@@@UserAllocated@shdfnd@physx@@SAPEAX_KV?$ReflectionAllocator@VCapsuleController@Cct@physx@@@12@PEBDH@Z 000000018002fca0 f i CctCharacterControllerManager.obj
 0001:0002ecf0       ??$?2V?$ReflectionAllocator@VCharacterControllerManager@Cct@physx@@@shdfnd@physx@@@UserAllocated@shdfnd@physx@@SAPEAX_KV?$ReflectionAllocator@VCharacterControllerManager@Cct@physx@@@12@PEBDH@Z 000000018002fcf0 f i CctCharacterControllerManager.obj
 0001:0002ed40       ??$?2V?$ReflectionAllocator@VObstacleContext@Cct@physx@@@shdfnd@physx@@@UserAllocated@shdfnd@physx@@SAPEAX_KV?$ReflectionAllocator@VObstacleContext@Cct@physx@@@12@PEBDH@Z 000000018002fd40 f i CctCharacterControllerManager.obj
 0001:0002ed90       ??$?2V?$ReflectionAllocator@VRenderBuffer@Cm@physx@@@shdfnd@physx@@@UserAllocated@shdfnd@physx@@SAPEAX_KV?$ReflectionAllocator@VRenderBuffer@Cm@physx@@@12@PEBDH@Z 000000018002fd90 f i CctCharacterControllerManager.obj
 0001:0002ede0       ??$PX_UNUSED@W4Enum@PxDeletionEventFlag@physx@@@@YAXAEBW4Enum@PxDeletionEventFlag@physx@@@Z 000000018002fde0 f i CctCharacterControllerManager.obj
 0001:0002edf0       ??$append@UPxDebugLine@physx@@@RenderBuffer@Cm@physx@@AEAAXAEAV?$Array@UPxDebugLine@physx@@VNamedAllocator@shdfnd@2@@shdfnd@2@PEBUPxDebugLine@2@I@Z 000000018002fdf0 f i CctCharacterControllerManager.obj
 0001:0002ee90       ??$append@UPxDebugPoint@physx@@@RenderBuffer@Cm@physx@@AEAAXAEAV?$Array@UPxDebugPoint@physx@@VNamedAllocator@shdfnd@2@@shdfnd@2@PEBUPxDebugPoint@2@I@Z 000000018002fe90 f i CctCharacterControllerManager.obj
 0001:0002ef30       ??$append@UPxDebugText@physx@@@RenderBuffer@Cm@physx@@AEAAXAEAV?$Array@UPxDebugText@physx@@VNamedAllocator@shdfnd@2@@shdfnd@2@PEBUPxDebugText@2@I@Z 000000018002ff30 f i CctCharacterControllerManager.obj
 0001:0002efd0       ??$append@UPxDebugTriangle@physx@@@RenderBuffer@Cm@physx@@AEAAXAEAV?$Array@UPxDebugTriangle@physx@@VNamedAllocator@shdfnd@2@@shdfnd@2@PEBUPxDebugTriangle@2@I@Z 000000018002ffd0 f i CctCharacterControllerManager.obj
 0001:0002f070       ??$resetOrClear@V?$Array@PEBXVNamedAllocator@shdfnd@physx@@@shdfnd@physx@@@@YAXAEAV?$Array@PEBXVNamedAllocator@shdfnd@physx@@@shdfnd@physx@@@Z 0000000180030070 f i CctCharacterControllerManager.obj
 0001:0002f0f0       ??$resetOrClear@V?$Array@UPxExtendedCapsule@physx@@VNamedAllocator@shdfnd@2@@shdfnd@physx@@@@YAXAEAV?$Array@UPxExtendedCapsule@physx@@VNamedAllocator@shdfnd@2@@shdfnd@physx@@@Z 00000001800300f0 f i CctCharacterControllerManager.obj
 0001:0002f170       ??$resetOrClear@V?$Array@VPxExtendedBox@physx@@VNamedAllocator@shdfnd@2@@shdfnd@physx@@@@YAXAEAV?$Array@VPxExtendedBox@physx@@VNamedAllocator@shdfnd@2@@shdfnd@physx@@@Z 0000000180030170 f i CctCharacterControllerManager.obj
 0001:0002f1f0       ??$swap@PEAVController@Cct@physx@@@shdfnd@physx@@YAXAEAPEAVController@Cct@1@0@Z 00000001800301f0 f i CctCharacterControllerManager.obj
 0001:0002f240       ??0?$Array@DVNamedAllocator@shdfnd@physx@@@shdfnd@physx@@QEAA@AEBVNamedAllocator@12@@Z 0000000180030240 f i CctCharacterControllerManager.obj
 0001:0002f2a0       ??0?$Array@PEAVController@Cct@physx@@VNamedAllocator@shdfnd@3@@shdfnd@physx@@QEAA@AEBVNamedAllocator@12@@Z 00000001800302a0 f i CctCharacterControllerManager.obj
 0001:0002f300       ??0?$Array@PEAVObstacleContext@Cct@physx@@VNamedAllocator@shdfnd@3@@shdfnd@physx@@QEAA@AEBVNamedAllocator@12@@Z 0000000180030300 f i CctCharacterControllerManager.obj
 0001:0002f360       ??0?$Array@PEBXVNamedAllocator@shdfnd@physx@@@shdfnd@physx@@QEAA@AEBVNamedAllocator@12@@Z 0000000180030360 f i CctCharacterControllerManager.obj
 0001:0002f3c0       ??0?$Array@UPxDebugLine@physx@@VNamedAllocator@shdfnd@2@@shdfnd@physx@@QEAA@AEBVNamedAllocator@12@@Z 00000001800303c0 f i CctCharacterControllerManager.obj
 0001:0002f420       ??0?$Array@UPxDebugPoint@physx@@VNamedAllocator@shdfnd@2@@shdfnd@physx@@QEAA@AEBVNamedAllocator@12@@Z 0000000180030420 f i CctCharacterControllerManager.obj
 0001:0002f480       ??0?$Array@UPxDebugText@physx@@VNamedAllocator@shdfnd@2@@shdfnd@physx@@QEAA@AEBVNamedAllocator@12@@Z 0000000180030480 f i CctCharacterControllerManager.obj
 0001:0002f4e0       ??0?$Array@UPxDebugTriangle@physx@@VNamedAllocator@shdfnd@2@@shdfnd@physx@@QEAA@AEBVNamedAllocator@12@@Z 00000001800304e0 f i CctCharacterControllerManager.obj
 0001:0002f540       ??0?$Array@UPxExtendedCapsule@physx@@VNamedAllocator@shdfnd@2@@shdfnd@physx@@QEAA@AEBVNamedAllocator@12@@Z 0000000180030540 f i CctCharacterControllerManager.obj
 0001:0002f5a0       ??0?$Array@VPxExtendedBox@physx@@VNamedAllocator@shdfnd@2@@shdfnd@physx@@QEAA@AEBVNamedAllocator@12@@Z 00000001800305a0 f i CctCharacterControllerManager.obj
 0001:0002f600       ??0?$HashBase@PEAVPxShape@physx@@PEAV12@U?$Hash@PEAVPxShape@physx@@@shdfnd@2@UGetKey@?$HashSetBase@PEAVPxShape@physx@@U?$Hash@PEAVPxShape@physx@@@shdfnd@2@VNonTrackingAllocator@42@$0A@@internal@42@VNonTrackingAllocator@42@$0A@@internal@shdfnd@physx@@QEAA@IM@Z 0000000180030600 f i CctCharacterControllerManager.obj
 0001:0002f660       ??0?$HashBase@V?$Pair@QEBVPxBase@physx@@UObservedRefCounter@Cct@2@@shdfnd@physx@@PEBVPxBase@3@U?$Hash@PEBVPxBase@physx@@@23@UGetKey@?$HashMapBase@PEBVPxBase@physx@@UObservedRefCounter@Cct@2@U?$Hash@PEBVPxBase@physx@@@shdfnd@2@VNonTrackingAllocator@62@@internal@23@VNonTrackingAllocator@23@$00@internal@shdfnd@physx@@QEAA@IM@Z 0000000180030660 f i CctCharacterControllerManager.obj
 0001:0002f6c0       ??0?$HashMap@PEBVPxBase@physx@@UObservedRefCounter@Cct@2@U?$Hash@PEBVPxBase@physx@@@shdfnd@2@VNonTrackingAllocator@62@@shdfnd@physx@@QEAA@IM@Z 00000001800306c0 f i CctCharacterControllerManager.obj
 0001:0002f700       ??0?$HashMapBase@PEBVPxBase@physx@@UObservedRefCounter@Cct@2@U?$Hash@PEBVPxBase@physx@@@shdfnd@2@VNonTrackingAllocator@62@@internal@shdfnd@physx@@QEAA@IM@Z 0000000180030700 f i CctCharacterControllerManager.obj
 0001:0002f750       ??0?$HashSet@PEAVPxShape@physx@@U?$Hash@PEAVPxShape@physx@@@shdfnd@2@VNonTrackingAllocator@42@@shdfnd@physx@@QEAA@IM@Z 0000000180030750 f i CctCharacterControllerManager.obj
 0001:0002f790       ??0?$HashSetBase@PEAVPxShape@physx@@U?$Hash@PEAVPxShape@physx@@@shdfnd@2@VNonTrackingAllocator@42@$0A@@internal@shdfnd@physx@@QEAA@IM@Z 0000000180030790 f i CctCharacterControllerManager.obj
 0001:0002f7e0       ??0?$MutexT@V?$ReflectionAllocator@VMutexImpl@shdfnd@physx@@@shdfnd@physx@@@shdfnd@physx@@QEAA@AEBV?$ReflectionAllocator@VMutexImpl@shdfnd@physx@@@12@@Z 00000001800307e0 f i CctCharacterControllerManager.obj
 0001:0002f870       ??0?$Pair@QEBVPxBase@physx@@UObservedRefCounter@Cct@2@@shdfnd@physx@@QEAA@AEBQEBVPxBase@2@AEBUObservedRefCounter@Cct@2@@Z 0000000180030870 f i CctCharacterControllerManager.obj
 0001:0002f8c0       ??0?$Pair@QEBVPxBase@physx@@UObservedRefCounter@Cct@2@@shdfnd@physx@@QEAA@AEBV012@@Z 00000001800308c0 f i CctCharacterControllerManager.obj
 0001:0002f900       ??0?$PxFlags@W4Enum@PxControllerDebugRenderFlag@physx@@I@physx@@QEAA@I@Z 0000000180030900 f i CctCharacterControllerManager.obj
 0001:0002f920       ??0?$PxFlags@W4Enum@PxDeletionEventFlag@physx@@E@physx@@QEAA@W4Enum@PxDeletionEventFlag@1@@Z 0000000180030920 f i CctCharacterControllerManager.obj
 0001:0002f950       ??0?$ReflectionAllocator@VBoxController@Cct@physx@@@shdfnd@physx@@QEAA@PEBD@Z 0000000180030950 f i CctCharacterControllerManager.obj
 0001:0002f970       ??0?$ReflectionAllocator@VCapsuleController@Cct@physx@@@shdfnd@physx@@QEAA@PEBD@Z 0000000180030970 f i CctCharacterControllerManager.obj
 0001:0002f990       ??0?$ReflectionAllocator@VCharacterControllerManager@Cct@physx@@@shdfnd@physx@@QEAA@PEBD@Z 0000000180030990 f i CctCharacterControllerManager.obj
 0001:0002f9b0       ??0?$ReflectionAllocator@VMutexImpl@shdfnd@physx@@@shdfnd@physx@@QEAA@AEBV012@@Z 00000001800309b0 f i CctCharacterControllerManager.obj
 0001:0002f9d0       ??0?$ReflectionAllocator@VMutexImpl@shdfnd@physx@@@shdfnd@physx@@QEAA@PEBD@Z 00000001800309d0 f i CctCharacterControllerManager.obj
 0001:0002f9f0       ??0?$ReflectionAllocator@VObstacleContext@Cct@physx@@@shdfnd@physx@@QEAA@PEBD@Z 00000001800309f0 f i CctCharacterControllerManager.obj
 0001:0002fa10       ??0?$ReflectionAllocator@VRenderBuffer@Cm@physx@@@shdfnd@physx@@QEAA@PEBD@Z 0000000180030a10 f i CctCharacterControllerManager.obj
 0001:0002fa30       ??0Axes@Gu@physx@@QEAA@W4AxisOrder@12@@Z 0000000180030a30 f i CctCharacterControllerManager.obj
 0001:0002fa90       ??0ObservedRefCounter@Cct@physx@@QEAA@XZ 0000000180030a90 f i CctCharacterControllerManager.obj
 0001:0002fab0       ??0PxDebugLine@physx@@QEAA@AEBU01@@Z 0000000180030ab0 f i CctCharacterControllerManager.obj
 0001:0002fb30       ??0PxDebugPoint@physx@@QEAA@AEBU01@@Z 0000000180030b30 f i CctCharacterControllerManager.obj
 0001:0002fb80       ??0PxDebugText@physx@@QEAA@AEBU01@@Z 0000000180030b80 f i CctCharacterControllerManager.obj
 0001:0002fc00       ??0PxDebugTriangle@physx@@QEAA@AEBU01@@Z 0000000180030c00 f i CctCharacterControllerManager.obj
 0001:0002fcc0       ??0PxDeletionListener@physx@@IEAA@XZ 0000000180030cc0 f i CctCharacterControllerManager.obj
 0001:0002fce0       ??0PxRenderBuffer@physx@@QEAA@XZ 0000000180030ce0 f i CctCharacterControllerManager.obj
 0001:0002fd00       ??0RenderBuffer@Cm@physx@@QEAA@XZ 0000000180030d00 f i CctCharacterControllerManager.obj
 0001:0002fe70       ??1?$Array@DVNamedAllocator@shdfnd@physx@@@shdfnd@physx@@QEAA@XZ 0000000180030e70 f i CctCharacterControllerManager.obj
 0001:0002fef0       ??1?$Array@PEAVController@Cct@physx@@VNamedAllocator@shdfnd@3@@shdfnd@physx@@QEAA@XZ 0000000180030ef0 f i CctCharacterControllerManager.obj
 0001:0002ff80       ??1?$Array@PEAVObstacleContext@Cct@physx@@VNamedAllocator@shdfnd@3@@shdfnd@physx@@QEAA@XZ 0000000180030f80 f i CctCharacterControllerManager.obj
 0001:00030010       ??1?$Array@PEBXVNamedAllocator@shdfnd@physx@@@shdfnd@physx@@QEAA@XZ 0000000180031010 f i CctCharacterControllerManager.obj
 0001:000300a0       ??1?$Array@UPxDebugLine@physx@@VNamedAllocator@shdfnd@2@@shdfnd@physx@@QEAA@XZ 00000001800310a0 f i CctCharacterControllerManager.obj
 0001:00030130       ??1?$Array@UPxDebugPoint@physx@@VNamedAllocator@shdfnd@2@@shdfnd@physx@@QEAA@XZ 0000000180031130 f i CctCharacterControllerManager.obj
 0001:000301c0       ??1?$Array@UPxDebugText@physx@@VNamedAllocator@shdfnd@2@@shdfnd@physx@@QEAA@XZ 00000001800311c0 f i CctCharacterControllerManager.obj
 0001:00030250       ??1?$Array@UPxDebugTriangle@physx@@VNamedAllocator@shdfnd@2@@shdfnd@physx@@QEAA@XZ 0000000180031250 f i CctCharacterControllerManager.obj
 0001:000302e0       ??1?$Array@UPxExtendedCapsule@physx@@VNamedAllocator@shdfnd@2@@shdfnd@physx@@QEAA@XZ 00000001800312e0 f i CctCharacterControllerManager.obj
 0001:00030370       ??1?$Array@VPxExtendedBox@physx@@VNamedAllocator@shdfnd@2@@shdfnd@physx@@QEAA@XZ 0000000180031370 f i CctCharacterControllerManager.obj
 0001:00030400       ??1?$HashBase@PEAVPxShape@physx@@PEAV12@U?$Hash@PEAVPxShape@physx@@@shdfnd@2@UGetKey@?$HashSetBase@PEAVPxShape@physx@@U?$Hash@PEAVPxShape@physx@@@shdfnd@2@VNonTrackingAllocator@42@$0A@@internal@42@VNonTrackingAllocator@42@$0A@@internal@shdfnd@physx@@QEAA@XZ 0000000180031400 f i CctCharacterControllerManager.obj
 0001:00030450       ??1?$HashBase@V?$Pair@QEBVPxBase@physx@@UObservedRefCounter@Cct@2@@shdfnd@physx@@PEBVPxBase@3@U?$Hash@PEBVPxBase@physx@@@23@UGetKey@?$HashMapBase@PEBVPxBase@physx@@UObservedRefCounter@Cct@2@U?$Hash@PEBVPxBase@physx@@@shdfnd@2@VNonTrackingAllocator@62@@internal@23@VNonTrackingAllocator@23@$00@internal@shdfnd@physx@@QEAA@XZ 0000000180031450 f i CctCharacterControllerManager.obj
 0001:000304a0       ??1?$HashMap@PEBVPxBase@physx@@UObservedRefCounter@Cct@2@U?$Hash@PEBVPxBase@physx@@@shdfnd@2@VNonTrackingAllocator@62@@shdfnd@physx@@QEAA@XZ 00000001800314a0 f i CctCharacterControllerManager.obj
 0001:000304c0       ??1?$HashMapBase@PEBVPxBase@physx@@UObservedRefCounter@Cct@2@U?$Hash@PEBVPxBase@physx@@@shdfnd@2@VNonTrackingAllocator@62@@internal@shdfnd@physx@@QEAA@XZ 00000001800314c0 f i CctCharacterControllerManager.obj
 0001:000304f0       ??1?$HashSet@PEAVPxShape@physx@@U?$Hash@PEAVPxShape@physx@@@shdfnd@2@VNonTrackingAllocator@42@@shdfnd@physx@@QEAA@XZ 00000001800314f0 f i CctCharacterControllerManager.obj
 0001:00030510       ??1?$HashSetBase@PEAVPxShape@physx@@U?$Hash@PEAVPxShape@physx@@@shdfnd@2@VNonTrackingAllocator@42@$0A@@internal@shdfnd@physx@@QEAA@XZ 0000000180031510 f i CctCharacterControllerManager.obj
 0001:00030540       ??1?$MutexT@V?$ReflectionAllocator@VMutexImpl@shdfnd@physx@@@shdfnd@physx@@@shdfnd@physx@@QEAA@XZ 0000000180031540 f i CctCharacterControllerManager.obj
 0001:00030580       ??1Axes@Gu@physx@@QEAA@XZ  0000000180031580 f i CctCharacterControllerManager.obj
 0001:00030590       ??1PxDeletionListener@physx@@MEAA@XZ 0000000180031590 f i CctCharacterControllerManager.obj
 0001:000305b0       ??1PxRenderBuffer@physx@@UEAA@XZ 00000001800315b0 f i CctCharacterControllerManager.obj
 0001:000305d0       ??1RenderBuffer@Cm@physx@@UEAA@XZ 00000001800315d0 f i CctCharacterControllerManager.obj
 0001:00030660       ??4?$PxFlags@W4Enum@PxControllerDebugRenderFlag@physx@@I@physx@@QEAAAEAV01@AEBV01@@Z 0000000180031660 f i CctCharacterControllerManager.obj
 0001:00030690       ??4PxBounds3@physx@@QEAAAEAV01@$$QEAV01@@Z 0000000180031690 f i CctCharacterControllerManager.obj
 0001:000306f0       ??A?$Array@PEAVController@Cct@physx@@VNamedAllocator@shdfnd@3@@shdfnd@physx@@QEAAAEAPEAVController@Cct@2@I@Z 00000001800316f0 f i CctCharacterControllerManager.obj
 0001:00030790       ??A?$Array@PEAVController@Cct@physx@@VNamedAllocator@shdfnd@3@@shdfnd@physx@@QEBAAEBQEAVController@Cct@2@I@Z 0000000180031790 f i CctCharacterControllerManager.obj
 0001:00030830       ??A?$Array@PEAVObstacleContext@Cct@physx@@VNamedAllocator@shdfnd@3@@shdfnd@physx@@QEAAAEAPEAVObstacleContext@Cct@2@I@Z 0000000180031830 f i CctCharacterControllerManager.obj
 0001:000308d0       ??A?$Array@UPxDebugLine@physx@@VNamedAllocator@shdfnd@2@@shdfnd@physx@@QEAAAEAUPxDebugLine@2@I@Z 00000001800318d0 f i CctCharacterControllerManager.obj
 0001:00030970       ??A?$Array@UPxDebugPoint@physx@@VNamedAllocator@shdfnd@2@@shdfnd@physx@@QEAAAEAUPxDebugPoint@2@I@Z 0000000180031970 f i CctCharacterControllerManager.obj
 0001:00030a10       ??A?$Array@UPxDebugText@physx@@VNamedAllocator@shdfnd@2@@shdfnd@physx@@QEAAAEAUPxDebugText@2@I@Z 0000000180031a10 f i CctCharacterControllerManager.obj
 0001:00030ab0       ??A?$Array@UPxDebugTriangle@physx@@VNamedAllocator@shdfnd@2@@shdfnd@physx@@QEAAAEAUPxDebugTriangle@2@I@Z 0000000180031ab0 f i CctCharacterControllerManager.obj
 0001:00030b50       ??A?$HashMapBase@PEBVPxBase@physx@@UObservedRefCounter@Cct@2@U?$Hash@PEBVPxBase@physx@@@shdfnd@2@VNonTrackingAllocator@62@@internal@shdfnd@physx@@QEAAAEAUObservedRefCounter@Cct@3@AEBQEBVPxBase@3@@Z 0000000180031b50 f i CctCharacterControllerManager.obj
 0001:00030be0       ??APxMat33@physx@@QEBAAEBVPxVec3@1@I@Z 0000000180031be0 f i CctCharacterControllerManager.obj
 0001:00030c10       ??B?$PxFlags@W4Enum@PxControllerDebugRenderFlag@physx@@I@physx@@QEBA_NXZ 0000000180031c10 f i CctCharacterControllerManager.obj
 0001:00030c40       ??R?$Hash@PEBVPxBase@physx@@@shdfnd@physx@@QEBAIAEBQEBVPxBase@2@@Z 0000000180031c40 f i CctCharacterControllerManager.obj
 0001:00030c70       ??RGetKey@?$HashMapBase@PEBVPxBase@physx@@UObservedRefCounter@Cct@2@U?$Hash@PEBVPxBase@physx@@@shdfnd@2@VNonTrackingAllocator@62@@internal@shdfnd@physx@@QEAAAEBQEBVPxBase@4@AEBV?$Pair@QEBVPxBase@physx@@UObservedRefCounter@Cct@2@@34@@Z 0000000180031c70 f i CctCharacterControllerManager.obj
 0001:00030c84       ??_ECharacterControllerManager@Cct@physx@@W7EAAPEAXI@Z 0000000180031c84 f i CctCharacterControllerManager.obj
 0001:00030c90       ??_ECharacterControllerManager@Cct@physx@@UEAAPEAXI@Z 0000000180031c90 f i CctCharacterControllerManager.obj
 0001:00030c90       ??_GCharacterControllerManager@Cct@physx@@UEAAPEAXI@Z 0000000180031c90 f i CctCharacterControllerManager.obj
 0001:00030d00       ??_GMutexImpl@shdfnd@physx@@QEAAPEAXI@Z 0000000180031d00 f i CctCharacterControllerManager.obj
 0001:00030d50       ??_EPxDeletionListener@physx@@MEAAPEAXI@Z 0000000180031d50 f i CctCharacterControllerManager.obj
 0001:00030d50       ??_GPxDeletionListener@physx@@MEAAPEAXI@Z 0000000180031d50 f i CctCharacterControllerManager.obj
 0001:00030da0       ??_EPxRenderBuffer@physx@@UEAAPEAXI@Z 0000000180031da0 f i CctCharacterControllerManager.obj
 0001:00030da0       ??_GPxRenderBuffer@physx@@UEAAPEAXI@Z 0000000180031da0 f i CctCharacterControllerManager.obj
 0001:00030df0       ??_ERenderBuffer@Cm@physx@@UEAAPEAXI@Z 0000000180031df0 f i CctCharacterControllerManager.obj
 0001:00030df0       ??_GRenderBuffer@Cm@physx@@UEAAPEAXI@Z 0000000180031df0 f i CctCharacterControllerManager.obj
 0001:00030e60       ?allocate@?$Array@PEAVController@Cct@physx@@VNamedAllocator@shdfnd@3@@shdfnd@physx@@IEAAPEAPEAVController@Cct@3@I@Z 0000000180031e60 f i CctCharacterControllerManager.obj
 0001:00030f10       ?allocate@?$Array@PEAVObstacleContext@Cct@physx@@VNamedAllocator@shdfnd@3@@shdfnd@physx@@IEAAPEAPEAVObstacleContext@Cct@3@I@Z 0000000180031f10 f i CctCharacterControllerManager.obj
 0001:00030fc0       ?allocate@?$Array@UPxDebugLine@physx@@VNamedAllocator@shdfnd@2@@shdfnd@physx@@IEAAPEAUPxDebugLine@3@I@Z 0000000180031fc0 f i CctCharacterControllerManager.obj
 0001:00031070       ?allocate@?$Array@UPxDebugPoint@physx@@VNamedAllocator@shdfnd@2@@shdfnd@physx@@IEAAPEAUPxDebugPoint@3@I@Z 0000000180032070 f i CctCharacterControllerManager.obj
 0001:00031120       ?allocate@?$Array@UPxDebugText@physx@@VNamedAllocator@shdfnd@2@@shdfnd@physx@@IEAAPEAUPxDebugText@3@I@Z 0000000180032120 f i CctCharacterControllerManager.obj
 0001:000311d0       ?allocate@?$Array@UPxDebugTriangle@physx@@VNamedAllocator@shdfnd@2@@shdfnd@physx@@IEAAPEAUPxDebugTriangle@3@I@Z 00000001800321d0 f i CctCharacterControllerManager.obj
 0001:00031280       ?allocate@?$ReflectionAllocator@VBoxController@Cct@physx@@@shdfnd@physx@@QEAAPEAX_KPEBDH@Z 0000000180032280 f i CctCharacterControllerManager.obj
 0001:00031320       ?allocate@?$ReflectionAllocator@VCapsuleController@Cct@physx@@@shdfnd@physx@@QEAAPEAX_KPEBDH@Z 0000000180032320 f i CctCharacterControllerManager.obj
 0001:000313c0       ?allocate@?$ReflectionAllocator@VCharacterControllerManager@Cct@physx@@@shdfnd@physx@@QEAAPEAX_KPEBDH@Z 00000001800323c0 f i CctCharacterControllerManager.obj
 0001:00031460       ?allocate@?$ReflectionAllocator@VMutexImpl@shdfnd@physx@@@shdfnd@physx@@QEAAPEAX_KPEBDH@Z 0000000180032460 f i CctCharacterControllerManager.obj
 0001:00031500       ?allocate@?$ReflectionAllocator@VObstacleContext@Cct@physx@@@shdfnd@physx@@QEAAPEAX_KPEBDH@Z 0000000180032500 f i CctCharacterControllerManager.obj
 0001:000315a0       ?allocate@?$ReflectionAllocator@VRenderBuffer@Cm@physx@@@shdfnd@physx@@QEAAPEAX_KPEBDH@Z 00000001800325a0 f i CctCharacterControllerManager.obj
 0001:00031640       ?allocate@NonTrackingAllocator@shdfnd@physx@@QEAAPEAX_KPEBDH@Z 0000000180032640 f i CctCharacterControllerManager.obj
 0001:000316d0       ?append@RenderBuffer@Cm@physx@@UEAAXAEBVPxRenderBuffer@3@@Z 00000001800326d0 f i CctCharacterControllerManager.obj
 0001:00031870       ?begin@?$Array@PEAVController@Cct@physx@@VNamedAllocator@shdfnd@3@@shdfnd@physx@@QEAAPEAPEAVController@Cct@3@XZ 0000000180032870 f i CctCharacterControllerManager.obj
 0001:00031890       ?begin@?$Array@UPxDebugLine@physx@@VNamedAllocator@shdfnd@2@@shdfnd@physx@@QEBAPEBUPxDebugLine@3@XZ 0000000180032890 f i CctCharacterControllerManager.obj
 0001:000318b0       ?begin@?$Array@UPxDebugPoint@physx@@VNamedAllocator@shdfnd@2@@shdfnd@physx@@QEBAPEBUPxDebugPoint@3@XZ 00000001800328b0 f i CctCharacterControllerManager.obj
 0001:000318d0       ?begin@?$Array@UPxDebugText@physx@@VNamedAllocator@shdfnd@2@@shdfnd@physx@@QEBAPEBUPxDebugText@3@XZ 00000001800328d0 f i CctCharacterControllerManager.obj
 0001:000318f0       ?begin@?$Array@UPxDebugTriangle@physx@@VNamedAllocator@shdfnd@2@@shdfnd@physx@@QEBAPEBUPxDebugTriangle@3@XZ 00000001800328f0 f i CctCharacterControllerManager.obj
 0001:00031910       ?capacity@?$Array@DVNamedAllocator@shdfnd@physx@@@shdfnd@physx@@QEBAIXZ 0000000180032910 f i CctCharacterControllerManager.obj
 0001:00031930       ?capacity@?$Array@PEAVController@Cct@physx@@VNamedAllocator@shdfnd@3@@shdfnd@physx@@QEBAIXZ 0000000180032930 f i CctCharacterControllerManager.obj
 0001:00031950       ?capacity@?$Array@PEAVObstacleContext@Cct@physx@@VNamedAllocator@shdfnd@3@@shdfnd@physx@@QEBAIXZ 0000000180032950 f i CctCharacterControllerManager.obj
 0001:00031970       ?capacity@?$Array@UPxDebugLine@physx@@VNamedAllocator@shdfnd@2@@shdfnd@physx@@QEBAIXZ 0000000180032970 f i CctCharacterControllerManager.obj
 0001:00031990       ?capacity@?$Array@UPxDebugPoint@physx@@VNamedAllocator@shdfnd@2@@shdfnd@physx@@QEBAIXZ 0000000180032990 f i CctCharacterControllerManager.obj
 0001:000319b0       ?capacity@?$Array@UPxDebugText@physx@@VNamedAllocator@shdfnd@2@@shdfnd@physx@@QEBAIXZ 00000001800329b0 f i CctCharacterControllerManager.obj
 0001:000319d0       ?capacity@?$Array@UPxDebugTriangle@physx@@VNamedAllocator@shdfnd@2@@shdfnd@physx@@QEBAIXZ 00000001800329d0 f i CctCharacterControllerManager.obj
 0001:000319f0       ?capacityIncrement@?$Array@PEAVController@Cct@physx@@VNamedAllocator@shdfnd@3@@shdfnd@physx@@IEBAIXZ 00000001800329f0 f i CctCharacterControllerManager.obj
 0001:00031a40       ?capacityIncrement@?$Array@PEAVObstacleContext@Cct@physx@@VNamedAllocator@shdfnd@3@@shdfnd@physx@@IEBAIXZ 0000000180032a40 f i CctCharacterControllerManager.obj
 0001:00031a90       ?capacityIncrement@?$Array@UPxDebugLine@physx@@VNamedAllocator@shdfnd@2@@shdfnd@physx@@IEBAIXZ 0000000180032a90 f i CctCharacterControllerManager.obj
 0001:00031ae0       ?capacityIncrement@?$Array@UPxDebugPoint@physx@@VNamedAllocator@shdfnd@2@@shdfnd@physx@@IEBAIXZ 0000000180032ae0 f i CctCharacterControllerManager.obj
 0001:00031b30       ?capacityIncrement@?$Array@UPxDebugText@physx@@VNamedAllocator@shdfnd@2@@shdfnd@physx@@IEBAIXZ 0000000180032b30 f i CctCharacterControllerManager.obj
 0001:00031b80       ?capacityIncrement@?$Array@UPxDebugTriangle@physx@@VNamedAllocator@shdfnd@2@@shdfnd@physx@@IEBAIXZ 0000000180032b80 f i CctCharacterControllerManager.obj
 0001:00031bd0       ?clear@?$Array@DVNamedAllocator@shdfnd@physx@@@shdfnd@physx@@QEAAXXZ 0000000180032bd0 f i CctCharacterControllerManager.obj
 0001:00031c20       ?clear@?$Array@PEBXVNamedAllocator@shdfnd@physx@@@shdfnd@physx@@QEAAXXZ 0000000180032c20 f i CctCharacterControllerManager.obj
 0001:00031c70       ?clear@?$Array@UPxDebugLine@physx@@VNamedAllocator@shdfnd@2@@shdfnd@physx@@QEAAXXZ 0000000180032c70 f i CctCharacterControllerManager.obj
 0001:00031cc0       ?clear@?$Array@UPxDebugPoint@physx@@VNamedAllocator@shdfnd@2@@shdfnd@physx@@QEAAXXZ 0000000180032cc0 f i CctCharacterControllerManager.obj
 0001:00031d10       ?clear@?$Array@UPxDebugText@physx@@VNamedAllocator@shdfnd@2@@shdfnd@physx@@QEAAXXZ 0000000180032d10 f i CctCharacterControllerManager.obj
 0001:00031d60       ?clear@?$Array@UPxDebugTriangle@physx@@VNamedAllocator@shdfnd@2@@shdfnd@physx@@QEAAXXZ 0000000180032d60 f i CctCharacterControllerManager.obj
 0001:00031db0       ?clear@?$Array@UPxExtendedCapsule@physx@@VNamedAllocator@shdfnd@2@@shdfnd@physx@@QEAAXXZ 0000000180032db0 f i CctCharacterControllerManager.obj
 0001:00031e00       ?clear@?$Array@VPxExtendedBox@physx@@VNamedAllocator@shdfnd@2@@shdfnd@physx@@QEAAXXZ 0000000180032e00 f i CctCharacterControllerManager.obj
 0001:00031e50       ?clear@RenderBuffer@Cm@physx@@UEAAXXZ 0000000180032e50 f i CctCharacterControllerManager.obj
 0001:00031ed0       ?copy@?$Array@PEAVController@Cct@physx@@VNamedAllocator@shdfnd@3@@shdfnd@physx@@KAXPEAPEAVController@Cct@3@0PEBQEAV453@@Z 0000000180032ed0 f i CctCharacterControllerManager.obj
 0001:00031f70       ?copy@?$Array@PEAVObstacleContext@Cct@physx@@VNamedAllocator@shdfnd@3@@shdfnd@physx@@KAXPEAPEAVObstacleContext@Cct@3@0PEBQEAV453@@Z 0000000180032f70 f i CctCharacterControllerManager.obj
 0001:00032010       ?copy@?$Array@UPxDebugLine@physx@@VNamedAllocator@shdfnd@2@@shdfnd@physx@@KAXPEAUPxDebugLine@3@0PEBU43@@Z 0000000180033010 f i CctCharacterControllerManager.obj
 0001:000320b0       ?copy@?$Array@UPxDebugPoint@physx@@VNamedAllocator@shdfnd@2@@shdfnd@physx@@KAXPEAUPxDebugPoint@3@0PEBU43@@Z 00000001800330b0 f i CctCharacterControllerManager.obj
 0001:00032150       ?copy@?$Array@UPxDebugText@physx@@VNamedAllocator@shdfnd@2@@shdfnd@physx@@KAXPEAUPxDebugText@3@0PEBU43@@Z 0000000180033150 f i CctCharacterControllerManager.obj
 0001:000321f0       ?copy@?$Array@UPxDebugTriangle@physx@@VNamedAllocator@shdfnd@2@@shdfnd@physx@@KAXPEAUPxDebugTriangle@3@0PEBU43@@Z 00000001800331f0 f i CctCharacterControllerManager.obj
 0001:00032290       ?create@?$Array@PEBXVNamedAllocator@shdfnd@physx@@@shdfnd@physx@@KAXPEAPEBX0AEBQEBX@Z 0000000180033290 f i CctCharacterControllerManager.obj
 0001:00032300       ?create@?$Array@UPxExtendedCapsule@physx@@VNamedAllocator@shdfnd@2@@shdfnd@physx@@KAXPEAUPxExtendedCapsule@3@0AEBU43@@Z 0000000180033300 f i CctCharacterControllerManager.obj
 0001:00032380       ?create@?$Array@VPxExtendedBox@physx@@VNamedAllocator@shdfnd@2@@shdfnd@physx@@KAXPEAVPxExtendedBox@3@0AEBV43@@Z 0000000180033380 f i CctCharacterControllerManager.obj
 0001:000323f0       ?create@?$HashBase@PEAVPxShape@physx@@PEAV12@U?$Hash@PEAVPxShape@physx@@@shdfnd@2@UGetKey@?$HashSetBase@PEAVPxShape@physx@@U?$Hash@PEAVPxShape@physx@@@shdfnd@2@VNonTrackingAllocator@42@$0A@@internal@42@VNonTrackingAllocator@42@$0A@@internal@shdfnd@physx@@QEAAPEAPEAVPxShape@4@AEBQEAV54@AEA_N@Z 00000001800333f0 f i CctCharacterControllerManager.obj
 0001:00032600       ?create@?$HashBase@V?$Pair@QEBVPxBase@physx@@UObservedRefCounter@Cct@2@@shdfnd@physx@@PEBVPxBase@3@U?$Hash@PEBVPxBase@physx@@@23@UGetKey@?$HashMapBase@PEBVPxBase@physx@@UObservedRefCounter@Cct@2@U?$Hash@PEBVPxBase@physx@@@shdfnd@2@VNonTrackingAllocator@62@@internal@23@VNonTrackingAllocator@23@$00@internal@shdfnd@physx@@QEAAPEAV?$Pair@QEBVPxBase@physx@@UObservedRefCounter@Cct@2@@34@AEBQEBVPxBase@4@AEA_N@Z 0000000180033600 f i CctCharacterControllerManager.obj
 0001:00032810       ?deallocate@?$Array@DVNamedAllocator@shdfnd@physx@@@shdfnd@physx@@IEAAXPEAX@Z 0000000180033810 f i CctCharacterControllerManager.obj
 0001:00032840       ?deallocate@?$Array@PEAVController@Cct@physx@@VNamedAllocator@shdfnd@3@@shdfnd@physx@@IEAAXPEAX@Z 0000000180033840 f i CctCharacterControllerManager.obj
 0001:00032870       ?deallocate@?$Array@PEAVObstacleContext@Cct@physx@@VNamedAllocator@shdfnd@3@@shdfnd@physx@@IEAAXPEAX@Z 0000000180033870 f i CctCharacterControllerManager.obj
 0001:000328a0       ?deallocate@?$Array@UPxDebugLine@physx@@VNamedAllocator@shdfnd@2@@shdfnd@physx@@IEAAXPEAX@Z 00000001800338a0 f i CctCharacterControllerManager.obj
 0001:000328d0       ?deallocate@?$Array@UPxDebugPoint@physx@@VNamedAllocator@shdfnd@2@@shdfnd@physx@@IEAAXPEAX@Z 00000001800338d0 f i CctCharacterControllerManager.obj
 0001:00032900       ?deallocate@?$Array@UPxDebugText@physx@@VNamedAllocator@shdfnd@2@@shdfnd@physx@@IEAAXPEAX@Z 0000000180033900 f i CctCharacterControllerManager.obj
 0001:00032930       ?deallocate@?$Array@UPxDebugTriangle@physx@@VNamedAllocator@shdfnd@2@@shdfnd@physx@@IEAAXPEAX@Z 0000000180033930 f i CctCharacterControllerManager.obj
 0001:00032960       ?deallocate@?$ReflectionAllocator@VMutexImpl@shdfnd@physx@@@shdfnd@physx@@QEAAXPEAX@Z 0000000180033960 f i CctCharacterControllerManager.obj
 0001:000329b0       ?destroy@?$Array@DVNamedAllocator@shdfnd@physx@@@shdfnd@physx@@KAXPEAD0@Z 00000001800339b0 f i CctCharacterControllerManager.obj
 0001:000329f0       ?destroy@?$Array@PEAVController@Cct@physx@@VNamedAllocator@shdfnd@3@@shdfnd@physx@@KAXPEAPEAVController@Cct@3@0@Z 00000001800339f0 f i CctCharacterControllerManager.obj
 0001:00032a30       ?destroy@?$Array@PEAVObstacleContext@Cct@physx@@VNamedAllocator@shdfnd@3@@shdfnd@physx@@KAXPEAPEAVObstacleContext@Cct@3@0@Z 0000000180033a30 f i CctCharacterControllerManager.obj
 0001:00032a70       ?destroy@?$Array@UPxDebugLine@physx@@VNamedAllocator@shdfnd@2@@shdfnd@physx@@KAXPEAUPxDebugLine@3@0@Z 0000000180033a70 f i CctCharacterControllerManager.obj
 0001:00032ab0       ?destroy@?$Array@UPxDebugPoint@physx@@VNamedAllocator@shdfnd@2@@shdfnd@physx@@KAXPEAUPxDebugPoint@3@0@Z 0000000180033ab0 f i CctCharacterControllerManager.obj
 0001:00032af0       ?destroy@?$Array@UPxDebugText@physx@@VNamedAllocator@shdfnd@2@@shdfnd@physx@@KAXPEAUPxDebugText@3@0@Z 0000000180033af0 f i CctCharacterControllerManager.obj
 0001:00032b30       ?destroy@?$Array@UPxDebugTriangle@physx@@VNamedAllocator@shdfnd@2@@shdfnd@physx@@KAXPEAUPxDebugTriangle@3@0@Z 0000000180033b30 f i CctCharacterControllerManager.obj
 0001:00032b70       ?destroy@?$HashBase@PEAVPxShape@physx@@PEAV12@U?$Hash@PEAVPxShape@physx@@@shdfnd@2@UGetKey@?$HashSetBase@PEAVPxShape@physx@@U?$Hash@PEAVPxShape@physx@@@shdfnd@2@VNonTrackingAllocator@42@$0A@@internal@42@VNonTrackingAllocator@42@$0A@@internal@shdfnd@physx@@AEAAXXZ 0000000180033b70 f i CctCharacterControllerManager.obj
 0001:00032bf0       ?destroy@?$HashBase@V?$Pair@QEBVPxBase@physx@@UObservedRefCounter@Cct@2@@shdfnd@physx@@PEBVPxBase@3@U?$Hash@PEBVPxBase@physx@@@23@UGetKey@?$HashMapBase@PEBVPxBase@physx@@UObservedRefCounter@Cct@2@U?$Hash@PEBVPxBase@physx@@@shdfnd@2@VNonTrackingAllocator@62@@internal@23@VNonTrackingAllocator@23@$00@internal@shdfnd@physx@@AEAAXXZ 0000000180033bf0 f i CctCharacterControllerManager.obj
 0001:00032c70       ?end@?$Array@PEAVObstacleContext@Cct@physx@@VNamedAllocator@shdfnd@3@@shdfnd@physx@@QEAAPEAPEAVObstacleContext@Cct@3@XZ 0000000180033c70 f i CctCharacterControllerManager.obj
 0001:00032c90       ?equal@?$Hash@PEBVPxBase@physx@@@shdfnd@physx@@QEBA_NAEBQEBVPxBase@3@0@Z 0000000180033c90 f i CctCharacterControllerManager.obj
 0001:00032ce0       ?erase@?$HashBase@PEAVPxShape@physx@@PEAV12@U?$Hash@PEAVPxShape@physx@@@shdfnd@2@UGetKey@?$HashSetBase@PEAVPxShape@physx@@U?$Hash@PEAVPxShape@physx@@@shdfnd@2@VNonTrackingAllocator@42@$0A@@internal@42@VNonTrackingAllocator@42@$0A@@internal@shdfnd@physx@@QEAA_NAEBQEAVPxShape@4@@Z 0000000180033ce0 f i CctCharacterControllerManager.obj
 0001:00032de0       ?erase@?$HashBase@V?$Pair@QEBVPxBase@physx@@UObservedRefCounter@Cct@2@@shdfnd@physx@@PEBVPxBase@3@U?$Hash@PEBVPxBase@physx@@@23@UGetKey@?$HashMapBase@PEBVPxBase@physx@@UObservedRefCounter@Cct@2@U?$Hash@PEBVPxBase@physx@@@shdfnd@2@VNonTrackingAllocator@62@@internal@23@VNonTrackingAllocator@23@$00@internal@shdfnd@physx@@QEAA_NAEBQEBVPxBase@4@@Z 0000000180033de0 f i CctCharacterControllerManager.obj
 0001:00032ee0       ?erase@?$HashMapBase@PEBVPxBase@physx@@UObservedRefCounter@Cct@2@U?$Hash@PEBVPxBase@physx@@@shdfnd@2@VNonTrackingAllocator@62@@internal@shdfnd@physx@@QEAA_NAEBQEBVPxBase@4@@Z 0000000180033ee0 f i CctCharacterControllerManager.obj
 0001:00032f10       ?erase@?$HashSetBase@PEAVPxShape@physx@@U?$Hash@PEAVPxShape@physx@@@shdfnd@2@VNonTrackingAllocator@42@$0A@@internal@shdfnd@physx@@QEAA_NAEBQEAVPxShape@4@@Z 0000000180033f10 f i CctCharacterControllerManager.obj
 0001:00032f40       ?eraseInternal@?$HashBase@PEAVPxShape@physx@@PEAV12@U?$Hash@PEAVPxShape@physx@@@shdfnd@2@UGetKey@?$HashSetBase@PEAVPxShape@physx@@U?$Hash@PEAVPxShape@physx@@@shdfnd@2@VNonTrackingAllocator@42@$0A@@internal@42@VNonTrackingAllocator@42@$0A@@internal@shdfnd@physx@@AEAA_NPEAI@Z 0000000180033f40 f i CctCharacterControllerManager.obj
 0001:00032fe0       ?eraseInternal@?$HashBase@V?$Pair@QEBVPxBase@physx@@UObservedRefCounter@Cct@2@@shdfnd@physx@@PEBVPxBase@3@U?$Hash@PEBVPxBase@physx@@@23@UGetKey@?$HashMapBase@PEBVPxBase@physx@@UObservedRefCounter@Cct@2@U?$Hash@PEBVPxBase@physx@@@shdfnd@2@VNonTrackingAllocator@62@@internal@23@VNonTrackingAllocator@23@$00@internal@shdfnd@physx@@AEAA_NPEAI@Z 0000000180033fe0 f i CctCharacterControllerManager.obj
 0001:00033090       ?find@?$Array@PEAVObstacleContext@Cct@physx@@VNamedAllocator@shdfnd@3@@shdfnd@physx@@QEAAPEAPEAVObstacleContext@Cct@3@AEBQEAV453@@Z 0000000180034090 f i CctCharacterControllerManager.obj
 0001:00033110       ?find@?$HashBase@V?$Pair@QEBVPxBase@physx@@UObservedRefCounter@Cct@2@@shdfnd@physx@@PEBVPxBase@3@U?$Hash@PEBVPxBase@physx@@@23@UGetKey@?$HashMapBase@PEBVPxBase@physx@@UObservedRefCounter@Cct@2@U?$Hash@PEBVPxBase@physx@@@shdfnd@2@VNonTrackingAllocator@62@@internal@23@VNonTrackingAllocator@23@$00@internal@shdfnd@physx@@QEBAPEBV?$Pair@QEBVPxBase@physx@@UObservedRefCounter@Cct@2@@34@AEBQEBVPxBase@4@@Z 0000000180034110 f i CctCharacterControllerManager.obj
 0001:00033210       ?find@?$HashMapBase@PEBVPxBase@physx@@UObservedRefCounter@Cct@2@U?$Hash@PEBVPxBase@physx@@@shdfnd@2@VNonTrackingAllocator@62@@internal@shdfnd@physx@@QEBAPEBV?$Pair@QEBVPxBase@physx@@UObservedRefCounter@Cct@2@@34@AEBQEBVPxBase@4@@Z 0000000180034210 f i CctCharacterControllerManager.obj
 0001:00033240       ?findAndReplaceWithLast@?$Array@PEAVObstacleContext@Cct@physx@@VNamedAllocator@shdfnd@3@@shdfnd@physx@@QEAA_NAEBQEAVObstacleContext@Cct@3@@Z 0000000180034240 f i CctCharacterControllerManager.obj
 0001:000332d0       ?freeListAdd@?$HashBase@PEAVPxShape@physx@@PEAV12@U?$Hash@PEAVPxShape@physx@@@shdfnd@2@UGetKey@?$HashSetBase@PEAVPxShape@physx@@U?$Hash@PEAVPxShape@physx@@@shdfnd@2@VNonTrackingAllocator@42@$0A@@internal@42@VNonTrackingAllocator@42@$0A@@internal@shdfnd@physx@@AEAAXI@Z 00000001800342d0 f i CctCharacterControllerManager.obj
 0001:000333b0       ?freeListAdd@?$HashBase@PEAVPxShape@physx@@PEAV12@U?$Hash@PEAVPxShape@physx@@@shdfnd@2@UGetKey@?$HashSetBase@PEAVPxShape@physx@@U?$Hash@PEAVPxShape@physx@@@shdfnd@2@VNonTrackingAllocator@42@$0A@@internal@42@VNonTrackingAllocator@42@$0A@@internal@shdfnd@physx@@AEAAXII@Z 00000001800343b0 f i CctCharacterControllerManager.obj
 0001:000334e0       ?freeListAdd@?$HashBase@V?$Pair@QEBVPxBase@physx@@UObservedRefCounter@Cct@2@@shdfnd@physx@@PEBVPxBase@3@U?$Hash@PEBVPxBase@physx@@@23@UGetKey@?$HashMapBase@PEBVPxBase@physx@@UObservedRefCounter@Cct@2@U?$Hash@PEBVPxBase@physx@@@shdfnd@2@VNonTrackingAllocator@62@@internal@23@VNonTrackingAllocator@23@$00@internal@shdfnd@physx@@AEAAXI@Z 00000001800344e0 f i CctCharacterControllerManager.obj
 0001:000335c0       ?freeListAdd@?$HashBase@V?$Pair@QEBVPxBase@physx@@UObservedRefCounter@Cct@2@@shdfnd@physx@@PEBVPxBase@3@U?$Hash@PEBVPxBase@physx@@@23@UGetKey@?$HashMapBase@PEBVPxBase@physx@@UObservedRefCounter@Cct@2@U?$Hash@PEBVPxBase@physx@@@shdfnd@2@VNonTrackingAllocator@62@@internal@23@VNonTrackingAllocator@23@$00@internal@shdfnd@physx@@AEAAXII@Z 00000001800345c0 f i CctCharacterControllerManager.obj
 0001:000336f0       ?freeListEmpty@?$HashBase@PEAVPxShape@physx@@PEAV12@U?$Hash@PEAVPxShape@physx@@@shdfnd@2@UGetKey@?$HashSetBase@PEAVPxShape@physx@@U?$Hash@PEAVPxShape@physx@@@shdfnd@2@VNonTrackingAllocator@42@$0A@@internal@42@VNonTrackingAllocator@42@$0A@@internal@shdfnd@physx@@AEBA_NXZ 00000001800346f0 f i CctCharacterControllerManager.obj
 0001:00033770       ?freeListEmpty@?$HashBase@V?$Pair@QEBVPxBase@physx@@UObservedRefCounter@Cct@2@@shdfnd@physx@@PEBVPxBase@3@U?$Hash@PEBVPxBase@physx@@@23@UGetKey@?$HashMapBase@PEBVPxBase@physx@@UObservedRefCounter@Cct@2@U?$Hash@PEBVPxBase@physx@@@shdfnd@2@VNonTrackingAllocator@62@@internal@23@VNonTrackingAllocator@23@$00@internal@shdfnd@physx@@AEBA_NXZ 0000000180034770 f i CctCharacterControllerManager.obj
 0001:000337f0       ?freeListGetNext@?$HashBase@PEAVPxShape@physx@@PEAV12@U?$Hash@PEAVPxShape@physx@@@shdfnd@2@UGetKey@?$HashSetBase@PEAVPxShape@physx@@U?$Hash@PEAVPxShape@physx@@@shdfnd@2@VNonTrackingAllocator@42@$0A@@internal@42@VNonTrackingAllocator@42@$0A@@internal@shdfnd@physx@@AEAAIXZ 00000001800347f0 f i CctCharacterControllerManager.obj
 0001:00033950       ?freeListGetNext@?$HashBase@V?$Pair@QEBVPxBase@physx@@UObservedRefCounter@Cct@2@@shdfnd@physx@@PEBVPxBase@3@U?$Hash@PEBVPxBase@physx@@@23@UGetKey@?$HashMapBase@PEBVPxBase@physx@@UObservedRefCounter@Cct@2@U?$Hash@PEBVPxBase@physx@@@shdfnd@2@VNonTrackingAllocator@62@@internal@23@VNonTrackingAllocator@23@$00@internal@shdfnd@physx@@AEAAIXZ 0000000180034950 f i CctCharacterControllerManager.obj
 0001:00033ab0       ?getAllocator@Foundation@shdfnd@physx@@QEAAAEAVPxAllocatorCallback@3@XZ 0000000180034ab0 f i CctCharacterControllerManager.obj
 0001:00033ad0       ?getAllocatorCallback@Foundation@shdfnd@physx@@UEAAAEAVPxAllocatorCallback@3@XZ 0000000180034ad0 f i CctCharacterControllerManager.obj
 0001:00033af0       ?getErrorCallback@Foundation@shdfnd@physx@@UEAAAEAVPxErrorCallback@3@XZ 0000000180034af0 f i CctCharacterControllerManager.obj
 0001:00033b10       ?getErrorLevel@Foundation@shdfnd@physx@@UEBA?AW4Enum@PxErrorCode@3@XZ 0000000180034b10 f i CctCharacterControllerManager.obj
 0001:00033b30       ?getFoundation@shdfnd@physx@@YAAEAVFoundation@12@XZ 0000000180034b30 f i CctCharacterControllerManager.obj
 0001:00033b50       ?getInternalErrorCallback@Foundation@shdfnd@physx@@QEAAAEAVPxErrorCallback@3@XZ 0000000180034b50 f i CctCharacterControllerManager.obj
 0001:00033b70       ?getLines@RenderBuffer@Cm@physx@@UEBAPEBUPxDebugLine@3@XZ 0000000180034b70 f i CctCharacterControllerManager.obj
 0001:00033ba0       ?getName@?$ReflectionAllocator@VBoxController@Cct@physx@@@shdfnd@physx@@CAPEBDXZ 0000000180034ba0 f i CctCharacterControllerManager.obj
 0001:00033bf0       ?getName@?$ReflectionAllocator@VCapsuleController@Cct@physx@@@shdfnd@physx@@CAPEBDXZ 0000000180034bf0 f i CctCharacterControllerManager.obj
 0001:00033c40       ?getName@?$ReflectionAllocator@VCharacterControllerManager@Cct@physx@@@shdfnd@physx@@CAPEBDXZ 0000000180034c40 f i CctCharacterControllerManager.obj
 0001:00033c90       ?getName@?$ReflectionAllocator@VMutexImpl@shdfnd@physx@@@shdfnd@physx@@CAPEBDXZ 0000000180034c90 f i CctCharacterControllerManager.obj
 0001:00033ce0       ?getName@?$ReflectionAllocator@VObstacleContext@Cct@physx@@@shdfnd@physx@@CAPEBDXZ 0000000180034ce0 f i CctCharacterControllerManager.obj
 0001:00033d30       ?getName@?$ReflectionAllocator@VRenderBuffer@Cm@physx@@@shdfnd@physx@@CAPEBDXZ 0000000180034d30 f i CctCharacterControllerManager.obj
 0001:00033d80       ?getNamedAllocMap@Foundation@shdfnd@physx@@QEAAAEAV?$HashMap@PEBVNamedAllocator@shdfnd@physx@@PEBDU?$Hash@PEBVNamedAllocator@shdfnd@physx@@@23@VNonTrackingAllocator@23@@23@XZ 0000000180034d80 f i CctCharacterControllerManager.obj
 0001:00033da0       ?getNamedAllocMutex@Foundation@shdfnd@physx@@QEAAAEAV?$MutexT@VAllocator@shdfnd@physx@@@23@XZ 0000000180034da0 f i CctCharacterControllerManager.obj
 0001:00033dc0       ?getNbLines@RenderBuffer@Cm@physx@@UEBAIXZ 0000000180034dc0 f i CctCharacterControllerManager.obj
 0001:00033df0       ?getNbPoints@RenderBuffer@Cm@physx@@UEBAIXZ 0000000180034df0 f i CctCharacterControllerManager.obj
 0001:00033e20       ?getNbTexts@RenderBuffer@Cm@physx@@UEBAIXZ 0000000180034e20 f i CctCharacterControllerManager.obj
 0001:00033e50       ?getNbTriangles@RenderBuffer@Cm@physx@@UEBAIXZ 0000000180034e50 f i CctCharacterControllerManager.obj
 0001:00033e80       ?getPoints@RenderBuffer@Cm@physx@@UEBAPEBUPxDebugPoint@3@XZ 0000000180034e80 f i CctCharacterControllerManager.obj
 0001:00033eb0       ?getReportAllocationNames@Foundation@shdfnd@physx@@UEBA_NXZ 0000000180034eb0 f i CctCharacterControllerManager.obj
 0001:00033ed0       ?getTempAllocFreeTable@Foundation@shdfnd@physx@@QEAAAEAV?$Array@PEATTempAllocatorChunk@shdfnd@physx@@VAllocator@23@@23@XZ 0000000180034ed0 f i CctCharacterControllerManager.obj
 0001:00033ef0       ?getTempAllocMutex@Foundation@shdfnd@physx@@QEAAAEAV?$MutexT@VAllocator@shdfnd@physx@@@23@XZ 0000000180034ef0 f i CctCharacterControllerManager.obj
 0001:00033f10       ?getTexts@RenderBuffer@Cm@physx@@UEBAPEBUPxDebugText@3@XZ 0000000180034f10 f i CctCharacterControllerManager.obj
 0001:00033f40       ?getTriangles@RenderBuffer@Cm@physx@@UEBAPEBUPxDebugTriangle@3@XZ 0000000180034f40 f i CctCharacterControllerManager.obj
 0001:00033f70       ?getType@PxControllerDesc@physx@@QEBA?AW4Enum@PxControllerShapeType@2@XZ 0000000180034f70 f i CctCharacterControllerManager.obj
 0001:00033f90       ?grow@?$Array@PEBXVNamedAllocator@shdfnd@physx@@@shdfnd@physx@@IEAAXI@Z 0000000180034f90 f i CctCharacterControllerManager.obj
 0001:00034030       ?grow@?$Array@UPxDebugLine@physx@@VNamedAllocator@shdfnd@2@@shdfnd@physx@@IEAAXI@Z 0000000180035030 f i CctCharacterControllerManager.obj
 0001:000340d0       ?grow@?$Array@UPxDebugPoint@physx@@VNamedAllocator@shdfnd@2@@shdfnd@physx@@IEAAXI@Z 00000001800350d0 f i CctCharacterControllerManager.obj
 0001:00034170       ?grow@?$Array@UPxDebugText@physx@@VNamedAllocator@shdfnd@2@@shdfnd@physx@@IEAAXI@Z 0000000180035170 f i CctCharacterControllerManager.obj
 0001:00034210       ?grow@?$Array@UPxDebugTriangle@physx@@VNamedAllocator@shdfnd@2@@shdfnd@physx@@IEAAXI@Z 0000000180035210 f i CctCharacterControllerManager.obj
 0001:000342b0       ?grow@?$Array@UPxExtendedCapsule@physx@@VNamedAllocator@shdfnd@2@@shdfnd@physx@@IEAAXI@Z 00000001800352b0 f i CctCharacterControllerManager.obj
 0001:00034350       ?grow@?$Array@VPxExtendedBox@physx@@VNamedAllocator@shdfnd@2@@shdfnd@physx@@IEAAXI@Z 0000000180035350 f i CctCharacterControllerManager.obj
 0001:000343f0       ?grow@?$HashBase@PEAVPxShape@physx@@PEAV12@U?$Hash@PEAVPxShape@physx@@@shdfnd@2@UGetKey@?$HashSetBase@PEAVPxShape@physx@@U?$Hash@PEAVPxShape@physx@@@shdfnd@2@VNonTrackingAllocator@42@$0A@@internal@42@VNonTrackingAllocator@42@$0A@@internal@shdfnd@physx@@AEAAXXZ 00000001800353f0 f i CctCharacterControllerManager.obj
 0001:000344c0       ?grow@?$HashBase@V?$Pair@QEBVPxBase@physx@@UObservedRefCounter@Cct@2@@shdfnd@physx@@PEBVPxBase@3@U?$Hash@PEBVPxBase@physx@@@23@UGetKey@?$HashMapBase@PEBVPxBase@physx@@UObservedRefCounter@Cct@2@U?$Hash@PEBVPxBase@physx@@@shdfnd@2@VNonTrackingAllocator@62@@internal@23@VNonTrackingAllocator@23@$00@internal@shdfnd@physx@@AEAAXXZ 00000001800354c0 f i CctCharacterControllerManager.obj
 0001:000345a0       ?growAndPushBack@?$Array@PEAVController@Cct@physx@@VNamedAllocator@shdfnd@3@@shdfnd@physx@@IEAAAEAPEAVController@Cct@3@AEBQEAV453@@Z 00000001800355a0 f i CctCharacterControllerManager.obj
 0001:00034780       ?growAndPushBack@?$Array@PEAVObstacleContext@Cct@physx@@VNamedAllocator@shdfnd@3@@shdfnd@physx@@IEAAAEAPEAVObstacleContext@Cct@3@AEBQEAV453@@Z 0000000180035780 f i CctCharacterControllerManager.obj
 0001:00034960       ?growAndPushBack@?$Array@UPxDebugLine@physx@@VNamedAllocator@shdfnd@2@@shdfnd@physx@@IEAAAEAUPxDebugLine@3@AEBU43@@Z 0000000180035960 f i CctCharacterControllerManager.obj
 0001:00034b50       ?growAndPushBack@?$Array@UPxDebugPoint@physx@@VNamedAllocator@shdfnd@2@@shdfnd@physx@@IEAAAEAUPxDebugPoint@3@AEBU43@@Z 0000000180035b50 f i CctCharacterControllerManager.obj
 0001:00034d40       ?growAndPushBack@?$Array@UPxDebugText@physx@@VNamedAllocator@shdfnd@2@@shdfnd@physx@@IEAAAEAUPxDebugText@3@AEBU43@@Z 0000000180035d40 f i CctCharacterControllerManager.obj
 0001:00034f30       ?growAndPushBack@?$Array@UPxDebugTriangle@physx@@VNamedAllocator@shdfnd@2@@shdfnd@physx@@IEAAAEAUPxDebugTriangle@3@AEBU43@@Z 0000000180035f30 f i CctCharacterControllerManager.obj
 0001:00035120       ?hash@?$HashBase@V?$Pair@QEBVPxBase@physx@@UObservedRefCounter@Cct@2@@shdfnd@physx@@PEBVPxBase@3@U?$Hash@PEBVPxBase@physx@@@23@UGetKey@?$HashMapBase@PEBVPxBase@physx@@UObservedRefCounter@Cct@2@U?$Hash@PEBVPxBase@physx@@@shdfnd@2@VNonTrackingAllocator@62@@internal@23@VNonTrackingAllocator@23@$00@internal@shdfnd@physx@@AEBAIAEBQEBVPxBase@4@@Z 0000000180036120 f i CctCharacterControllerManager.obj
 0001:00035160       ?hash@?$HashBase@V?$Pair@QEBVPxBase@physx@@UObservedRefCounter@Cct@2@@shdfnd@physx@@PEBVPxBase@3@U?$Hash@PEBVPxBase@physx@@@23@UGetKey@?$HashMapBase@PEBVPxBase@physx@@UObservedRefCounter@Cct@2@U?$Hash@PEBVPxBase@physx@@@shdfnd@2@VNonTrackingAllocator@62@@internal@23@VNonTrackingAllocator@23@$00@internal@shdfnd@physx@@AEBAIAEBQEBVPxBase@4@I@Z 0000000180036160 f i CctCharacterControllerManager.obj
 0001:000351a0       ?init@?$HashBase@PEAVPxShape@physx@@PEAV12@U?$Hash@PEAVPxShape@physx@@@shdfnd@2@UGetKey@?$HashSetBase@PEAVPxShape@physx@@U?$Hash@PEAVPxShape@physx@@@shdfnd@2@VNonTrackingAllocator@42@$0A@@internal@42@VNonTrackingAllocator@42@$0A@@internal@shdfnd@physx@@AEAAXIM@Z 00000001800361a0 f i CctCharacterControllerManager.obj
 0001:00035280       ?init@?$HashBase@V?$Pair@QEBVPxBase@physx@@UObservedRefCounter@Cct@2@@shdfnd@physx@@PEBVPxBase@3@U?$Hash@PEBVPxBase@physx@@@23@UGetKey@?$HashMapBase@PEBVPxBase@physx@@UObservedRefCounter@Cct@2@U?$Hash@PEBVPxBase@physx@@@shdfnd@2@VNonTrackingAllocator@62@@internal@23@VNonTrackingAllocator@23@$00@internal@shdfnd@physx@@AEAAXIM@Z 0000000180036280 f i CctCharacterControllerManager.obj
 0001:00035360       ?insert@?$HashSetBase@PEAVPxShape@physx@@U?$Hash@PEAVPxShape@physx@@@shdfnd@2@VNonTrackingAllocator@42@$0A@@internal@shdfnd@physx@@QEAA_NAEBQEAVPxShape@4@@Z 0000000180036360 f i CctCharacterControllerManager.obj
 0001:00035400       ?isInUserMemory@?$Array@DVNamedAllocator@shdfnd@physx@@@shdfnd@physx@@QEBAIXZ 0000000180036400 f i CctCharacterControllerManager.obj
 0001:00035420       ?isInUserMemory@?$Array@PEAVController@Cct@physx@@VNamedAllocator@shdfnd@3@@shdfnd@physx@@QEBAIXZ 0000000180036420 f i CctCharacterControllerManager.obj
 0001:00035440       ?isInUserMemory@?$Array@PEAVObstacleContext@Cct@physx@@VNamedAllocator@shdfnd@3@@shdfnd@physx@@QEBAIXZ 0000000180036440 f i CctCharacterControllerManager.obj
 0001:00035460       ?isInUserMemory@?$Array@UPxDebugLine@physx@@VNamedAllocator@shdfnd@2@@shdfnd@physx@@QEBAIXZ 0000000180036460 f i CctCharacterControllerManager.obj
 0001:00035480       ?isInUserMemory@?$Array@UPxDebugPoint@physx@@VNamedAllocator@shdfnd@2@@shdfnd@physx@@QEBAIXZ 0000000180036480 f i CctCharacterControllerManager.obj
 0001:000354a0       ?isInUserMemory@?$Array@UPxDebugText@physx@@VNamedAllocator@shdfnd@2@@shdfnd@physx@@QEBAIXZ 00000001800364a0 f i CctCharacterControllerManager.obj
 0001:000354c0       ?isInUserMemory@?$Array@UPxDebugTriangle@physx@@VNamedAllocator@shdfnd@2@@shdfnd@physx@@QEBAIXZ 00000001800364c0 f i CctCharacterControllerManager.obj
 0001:000354e0       ?isPowerOfTwo@shdfnd@physx@@YA_NI@Z 00000001800364e0 f i CctCharacterControllerManager.obj
 0001:00035530       ?memCopy@intrinsics@physx@@YAPEAXPEAXPEBXI@Z 0000000180036530 f i CctCharacterControllerManager.obj
 0001:00035570       ?memSet@intrinsics@physx@@YAPEAXPEAXHI@Z 0000000180036570 f i CctCharacterControllerManager.obj
 0001:000355b0       ?name@type_info@@QEBAPEBDXZ 00000001800365b0 f i CctCharacterControllerManager.obj
 0001:000355e0       ?nextPowerOfTwo@shdfnd@physx@@YAII@Z 00000001800365e0 f i CctCharacterControllerManager.obj
 0001:00035670       ?pushBack@?$Array@PEAVController@Cct@physx@@VNamedAllocator@shdfnd@3@@shdfnd@physx@@QEAAAEAPEAVController@Cct@3@AEBQEAV453@@Z 0000000180036670 f i CctCharacterControllerManager.obj
 0001:00035740       ?pushBack@?$Array@PEAVObstacleContext@Cct@physx@@VNamedAllocator@shdfnd@3@@shdfnd@physx@@QEAAAEAPEAVObstacleContext@Cct@3@AEBQEAV453@@Z 0000000180036740 f i CctCharacterControllerManager.obj
 0001:00035810       ?pushBack@?$Array@UPxDebugLine@physx@@VNamedAllocator@shdfnd@2@@shdfnd@physx@@QEAAAEAUPxDebugLine@3@AEBU43@@Z 0000000180036810 f i CctCharacterControllerManager.obj
 0001:000358e0       ?pushBack@?$Array@UPxDebugPoint@physx@@VNamedAllocator@shdfnd@2@@shdfnd@physx@@QEAAAEAUPxDebugPoint@3@AEBU43@@Z 00000001800368e0 f i CctCharacterControllerManager.obj
 0001:000359b0       ?pushBack@?$Array@UPxDebugText@physx@@VNamedAllocator@shdfnd@2@@shdfnd@physx@@QEAAAEAUPxDebugText@3@AEBU43@@Z 00000001800369b0 f i CctCharacterControllerManager.obj
 0001:00035a80       ?pushBack@?$Array@UPxDebugTriangle@physx@@VNamedAllocator@shdfnd@2@@shdfnd@physx@@QEAAAEAUPxDebugTriangle@3@AEBU43@@Z 0000000180036a80 f i CctCharacterControllerManager.obj
 0001:00035b50       ?recreate@?$Array@PEBXVNamedAllocator@shdfnd@physx@@@shdfnd@physx@@IEAAXI@Z 0000000180036b50 f i CctCharacterControllerManager.obj
 0001:00035ca0       ?recreate@?$Array@UPxDebugLine@physx@@VNamedAllocator@shdfnd@2@@shdfnd@physx@@IEAAXI@Z 0000000180036ca0 f i CctCharacterControllerManager.obj
 0001:00035e00       ?recreate@?$Array@UPxDebugPoint@physx@@VNamedAllocator@shdfnd@2@@shdfnd@physx@@IEAAXI@Z 0000000180036e00 f i CctCharacterControllerManager.obj
 0001:00035f60       ?recreate@?$Array@UPxDebugText@physx@@VNamedAllocator@shdfnd@2@@shdfnd@physx@@IEAAXI@Z 0000000180036f60 f i CctCharacterControllerManager.obj
 0001:000360c0       ?recreate@?$Array@UPxDebugTriangle@physx@@VNamedAllocator@shdfnd@2@@shdfnd@physx@@IEAAXI@Z 00000001800370c0 f i CctCharacterControllerManager.obj
 0001:00036220       ?recreate@?$Array@UPxExtendedCapsule@physx@@VNamedAllocator@shdfnd@2@@shdfnd@physx@@IEAAXI@Z 0000000180037220 f i CctCharacterControllerManager.obj
 0001:00036380       ?recreate@?$Array@VPxExtendedBox@physx@@VNamedAllocator@shdfnd@2@@shdfnd@physx@@IEAAXI@Z 0000000180037380 f i CctCharacterControllerManager.obj
 0001:000364e0       ?replaceWithLast@?$Array@PEAVController@Cct@physx@@VNamedAllocator@shdfnd@3@@shdfnd@physx@@QEAAXI@Z 00000001800374e0 f i CctCharacterControllerManager.obj
 0001:000365b0       ?replaceWithLast@?$Array@PEAVObstacleContext@Cct@physx@@VNamedAllocator@shdfnd@3@@shdfnd@physx@@QEAAXI@Z 00000001800375b0 f i CctCharacterControllerManager.obj
 0001:00036680       ?replaceWithLast@?$HashBase@PEAVPxShape@physx@@PEAV12@U?$Hash@PEAVPxShape@physx@@@shdfnd@2@UGetKey@?$HashSetBase@PEAVPxShape@physx@@U?$Hash@PEAVPxShape@physx@@@shdfnd@2@VNonTrackingAllocator@42@$0A@@internal@42@VNonTrackingAllocator@42@$0A@@internal@shdfnd@physx@@AEAAXI@Z 0000000180037680 f i CctCharacterControllerManager.obj
 0001:00036820       ?replaceWithLast@?$HashBase@V?$Pair@QEBVPxBase@physx@@UObservedRefCounter@Cct@2@@shdfnd@physx@@PEBVPxBase@3@U?$Hash@PEBVPxBase@physx@@@23@UGetKey@?$HashMapBase@PEBVPxBase@physx@@UObservedRefCounter@Cct@2@U?$Hash@PEBVPxBase@physx@@@shdfnd@2@VNonTrackingAllocator@62@@internal@23@VNonTrackingAllocator@23@$00@internal@shdfnd@physx@@AEAAXI@Z 0000000180037820 f i CctCharacterControllerManager.obj
 0001:000369c0       ?reserve@?$Array@PEBXVNamedAllocator@shdfnd@physx@@@shdfnd@physx@@QEAAXI@Z 00000001800379c0 f i CctCharacterControllerManager.obj
 0001:00036a00       ?reserve@?$Array@UPxDebugLine@physx@@VNamedAllocator@shdfnd@2@@shdfnd@physx@@QEAAXI@Z 0000000180037a00 f i CctCharacterControllerManager.obj
 0001:00036a40       ?reserve@?$Array@UPxDebugPoint@physx@@VNamedAllocator@shdfnd@2@@shdfnd@physx@@QEAAXI@Z 0000000180037a40 f i CctCharacterControllerManager.obj
 0001:00036a80       ?reserve@?$Array@UPxDebugText@physx@@VNamedAllocator@shdfnd@2@@shdfnd@physx@@QEAAXI@Z 0000000180037a80 f i CctCharacterControllerManager.obj
 0001:00036ac0       ?reserve@?$Array@UPxDebugTriangle@physx@@VNamedAllocator@shdfnd@2@@shdfnd@physx@@QEAAXI@Z 0000000180037ac0 f i CctCharacterControllerManager.obj
 0001:00036b00       ?reserve@?$Array@UPxExtendedCapsule@physx@@VNamedAllocator@shdfnd@2@@shdfnd@physx@@QEAAXI@Z 0000000180037b00 f i CctCharacterControllerManager.obj
 0001:00036b40       ?reserve@?$Array@VPxExtendedBox@physx@@VNamedAllocator@shdfnd@2@@shdfnd@physx@@QEAAXI@Z 0000000180037b40 f i CctCharacterControllerManager.obj
 0001:00036b80       ?reserve@?$HashBase@PEAVPxShape@physx@@PEAV12@U?$Hash@PEAVPxShape@physx@@@shdfnd@2@UGetKey@?$HashSetBase@PEAVPxShape@physx@@U?$Hash@PEAVPxShape@physx@@@shdfnd@2@VNonTrackingAllocator@42@$0A@@internal@42@VNonTrackingAllocator@42@$0A@@internal@shdfnd@physx@@QEAAXI@Z 0000000180037b80 f i CctCharacterControllerManager.obj
 0001:00036bc0       ?reserve@?$HashBase@V?$Pair@QEBVPxBase@physx@@UObservedRefCounter@Cct@2@@shdfnd@physx@@PEBVPxBase@3@U?$Hash@PEBVPxBase@physx@@@23@UGetKey@?$HashMapBase@PEBVPxBase@physx@@UObservedRefCounter@Cct@2@U?$Hash@PEBVPxBase@physx@@@shdfnd@2@VNonTrackingAllocator@62@@internal@23@VNonTrackingAllocator@23@$00@internal@shdfnd@physx@@QEAAXI@Z 0000000180037bc0 f i CctCharacterControllerManager.obj
 0001:00036c00       ?reserveInternal@?$HashBase@PEAVPxShape@physx@@PEAV12@U?$Hash@PEAVPxShape@physx@@@shdfnd@2@UGetKey@?$HashSetBase@PEAVPxShape@physx@@U?$Hash@PEAVPxShape@physx@@@shdfnd@2@VNonTrackingAllocator@42@$0A@@internal@42@VNonTrackingAllocator@42@$0A@@internal@shdfnd@physx@@AEAAXI@Z 0000000180037c00 f i CctCharacterControllerManager.obj
 0001:00037340       ?reserveInternal@?$HashBase@V?$Pair@QEBVPxBase@physx@@UObservedRefCounter@Cct@2@@shdfnd@physx@@PEBVPxBase@3@U?$Hash@PEBVPxBase@physx@@@23@UGetKey@?$HashMapBase@PEBVPxBase@physx@@UObservedRefCounter@Cct@2@U?$Hash@PEBVPxBase@physx@@@shdfnd@2@VNonTrackingAllocator@62@@internal@23@VNonTrackingAllocator@23@$00@internal@shdfnd@physx@@AEAAXI@Z 0000000180038340 f i CctCharacterControllerManager.obj
 0001:000379f0       ?reset@?$Array@PEBXVNamedAllocator@shdfnd@physx@@@shdfnd@physx@@QEAAXXZ 00000001800389f0 f i CctCharacterControllerManager.obj
 0001:00037a30       ?reset@?$Array@UPxExtendedCapsule@physx@@VNamedAllocator@shdfnd@2@@shdfnd@physx@@QEAAXXZ 0000000180038a30 f i CctCharacterControllerManager.obj
 0001:00037a90       ?reset@?$Array@VPxExtendedBox@physx@@VNamedAllocator@shdfnd@2@@shdfnd@physx@@QEAAXXZ 0000000180038a90 f i CctCharacterControllerManager.obj
 0001:00037ae0       ?resize@?$Array@PEBXVNamedAllocator@shdfnd@physx@@@shdfnd@physx@@QEAAXIAEBQEBX@Z 0000000180038ae0 f i CctCharacterControllerManager.obj
 0001:00037ba0       ?resize@?$Array@UPxExtendedCapsule@physx@@VNamedAllocator@shdfnd@2@@shdfnd@physx@@QEAAXIAEBUPxExtendedCapsule@3@@Z 0000000180038ba0 f i CctCharacterControllerManager.obj
 0001:00037c60       ?resize@?$Array@VPxExtendedBox@physx@@VNamedAllocator@shdfnd@2@@shdfnd@physx@@QEAAXIAEBVPxExtendedBox@3@@Z 0000000180038c60 f i CctCharacterControllerManager.obj
 0001:00037d20       ?setCctManager@?$TouchedObject@VPxRigidActor@physx@@@Cct@physx@@QEAAXPEAVCharacterControllerManager@23@@Z 0000000180038d20 f i CctCharacterControllerManager.obj
 0001:00037d40       ?setCctManager@?$TouchedObject@VPxShape@physx@@@Cct@physx@@QEAAXPEAVCharacterControllerManager@23@@Z 0000000180038d40 f i CctCharacterControllerManager.obj
 0001:00037d60       ?setCctManager@Controller@Cct@physx@@QEAAXPEAVCharacterControllerManager@23@@Z 0000000180038d60 f i CctCharacterControllerManager.obj
 0001:00037db0       ?setCctManager@SweepTest@Cct@physx@@QEAAXPEAVCharacterControllerManager@23@@Z 0000000180038db0 f i CctCharacterControllerManager.obj
 0001:00037e20       ?setErrorLevel@Foundation@shdfnd@physx@@UEAAXW4Enum@PxErrorCode@3@@Z 0000000180038e20 f i CctCharacterControllerManager.obj
 0001:00037e40       ?setReportAllocationNames@Foundation@shdfnd@physx@@UEAAX_N@Z 0000000180038e40 f i CctCharacterControllerManager.obj
 0001:00037e60       ?shift@RenderBuffer@Cm@physx@@QEAAXAEBVPxVec3@3@@Z 0000000180038e60 f i CctCharacterControllerManager.obj
 0001:000380a0       ?shrink@?$Array@PEBXVNamedAllocator@shdfnd@physx@@@shdfnd@physx@@QEAAXXZ 00000001800390a0 f i CctCharacterControllerManager.obj
 0001:000380d0       ?shrink@?$Array@UPxExtendedCapsule@physx@@VNamedAllocator@shdfnd@2@@shdfnd@physx@@QEAAXXZ 00000001800390d0 f i CctCharacterControllerManager.obj
 0001:00038100       ?shrink@?$Array@VPxExtendedBox@physx@@VNamedAllocator@shdfnd@2@@shdfnd@physx@@QEAAXXZ 0000000180039100 f i CctCharacterControllerManager.obj
 0001:00038130       ?size@?$Array@PEAVController@Cct@physx@@VNamedAllocator@shdfnd@3@@shdfnd@physx@@QEBAIXZ 0000000180039130 f i CctCharacterControllerManager.obj
 0001:00038150       ?size@?$Array@PEAVObstacleContext@Cct@physx@@VNamedAllocator@shdfnd@3@@shdfnd@physx@@QEBAIXZ 0000000180039150 f i CctCharacterControllerManager.obj
 0001:00038170       ?size@?$Array@UPxDebugLine@physx@@VNamedAllocator@shdfnd@2@@shdfnd@physx@@QEBAIXZ 0000000180039170 f i CctCharacterControllerManager.obj
 0001:00038190       ?size@?$Array@UPxDebugPoint@physx@@VNamedAllocator@shdfnd@2@@shdfnd@physx@@QEBAIXZ 0000000180039190 f i CctCharacterControllerManager.obj
 0001:000381b0       ?size@?$Array@UPxDebugText@physx@@VNamedAllocator@shdfnd@2@@shdfnd@physx@@QEBAIXZ 00000001800391b0 f i CctCharacterControllerManager.obj
 0001:000381d0       ?size@?$Array@UPxDebugTriangle@physx@@VNamedAllocator@shdfnd@2@@shdfnd@physx@@QEBAIXZ 00000001800391d0 f i CctCharacterControllerManager.obj
 0001:000381f0       ??0Controller@Cct@physx@@QEAA@AEBVPxControllerDesc@2@PEAVPxScene@2@@Z 00000001800391f0 f   CctController.obj
 0001:00038520       ??1Controller@Cct@physx@@UEAA@XZ 0000000180039520 f   CctController.obj
 0001:000385b0       ?releaseInternal@Controller@Cct@physx@@QEAAXXZ 00000001800395b0 f   CctController.obj
 0001:000385f0       ?getInternalState@Controller@Cct@physx@@QEBAXAEAUPxControllerState@3@@Z 00000001800395f0 f   CctController.obj
 0001:00038770       ?getInternalStats@Controller@Cct@physx@@QEBAXAEAUPxControllerStats@3@@Z 0000000180039770 f   CctController.obj
 0001:000387e0       ?onOriginShift@Controller@Cct@physx@@QEAAXAEBVPxVec3@3@@Z 00000001800397e0 f   CctController.obj
 0001:000388a0       ?onRelease@Controller@Cct@physx@@QEAAXAEBVPxBase@3@@Z 00000001800398a0 f   CctController.obj
 0001:000388d0       ?setUpDirectionInternal@Controller@Cct@physx@@IEAAXAEBVPxVec3@3@@Z 00000001800398d0 f   CctController.obj
 0001:000389a0       ?getKineShape@Controller@Cct@physx@@IEBAPEAVPxShape@3@XZ 00000001800399a0 f   CctController.obj
 0001:00038a50       ?createProxyActor@Controller@Cct@physx@@IEAA_NAEAVPxPhysics@3@AEBVPxGeometry@3@AEBVPxMaterial@3@@Z 0000000180039a50 f   CctController.obj
 0001:00038c30       ?setPos@Controller@Cct@physx@@IEAA_NAEBUPxExtendedVec3@3@@Z 0000000180039c30 f   CctController.obj
 0001:00038fc0       ??0?$PxFlags@W4Enum@PxShapeFlag@physx@@E@physx@@QEAA@W4Enum@PxShapeFlag@1@@Z 0000000180039fc0 f i CctController.obj
 0001:00038ff0       ??8PxVec3@physx@@QEBA_NAEBV01@@Z 0000000180039ff0 f i CctController.obj
 0001:00039070       ??B?$PxFlags@W4Enum@PxControllerCollisionFlag@physx@@E@physx@@QEBAIXZ 000000018003a070 f i CctController.obj
 0001:00039090       ??U?$PxFlags@W4Enum@PxShapeFlag@physx@@E@physx@@QEBA?AV01@W4Enum@PxShapeFlag@1@@Z 000000018003a090 f i CctController.obj
 0001:000390f0       ??Uphysx@@YA?AV?$PxFlags@W4Enum@PxShapeFlag@physx@@E@0@W4Enum@PxShapeFlag@0@0@Z 000000018003a0f0 f i CctController.obj
 0001:00039150       ??_5?$PxFlags@W4Enum@PxShapeFlag@physx@@E@physx@@QEAAAEAV01@W4Enum@PxShapeFlag@1@@Z 000000018003a150 f i CctController.obj
 0001:00039180       ??_EController@Cct@physx@@UEAAPEAXI@Z 000000018003a180 f i CctController.obj
 0001:00039180       ??_GController@Cct@physx@@UEAAPEAXI@Z 000000018003a180 f i CctController.obj
 0001:000391f0       ?createShape@PxPhysics@physx@@QEAAPEAVPxShape@2@AEBVPxGeometry@2@AEBVPxMaterial@2@_NV?$PxFlags@W4Enum@PxShapeFlag@physx@@E@2@@Z 000000018003a1f0 f i CctController.obj
 0001:00039290       ?isNormalized@PxVec3@physx@@QEBA_NXZ 000000018003a290 f i CctController.obj
 0001:00039310       ??0HandleManager@Cct@physx@@QEAA@XZ 000000018003a310 f   CctObstacleContext.obj
 0001:000394f0       ??1HandleManager@Cct@physx@@QEAA@XZ 000000018003a4f0 f   CctObstacleContext.obj
 0001:00039520       ?Add@HandleManager@Cct@physx@@QEAAIPEAX@Z 000000018003a520 f   CctObstacleContext.obj
 0001:00039a40       ?Remove@HandleManager@Cct@physx@@QEAAXI@Z 000000018003aa40 f   CctObstacleContext.obj
 0001:00039bd0       ?GetObject@HandleManager@Cct@physx@@QEBAPEAXI@Z 000000018003abd0 f   CctObstacleContext.obj
 0001:00039c70       ?UpdateObject@HandleManager@Cct@physx@@QEAA_NIPEAX@Z 000000018003ac70 f   CctObstacleContext.obj
 0001:00039d20       ?SetupLists@HandleManager@Cct@physx@@AEAA_NPEAPEAXPEAG11@Z 000000018003ad20 f   CctObstacleContext.obj
 0001:00039e30       ??0ObstacleContext@Cct@physx@@QEAA@AEAVCharacterControllerManager@12@@Z 000000018003ae30 f   CctObstacleContext.obj
 0001:00039ee0       ??1ObstacleContext@Cct@physx@@UEAA@XZ 000000018003aee0 f   CctObstacleContext.obj
 0001:00039f40       ?release@ObstacleContext@Cct@physx@@UEAAXXZ 000000018003af40 f   CctObstacleContext.obj
 0001:00039f70       ?getControllerManager@ObstacleContext@Cct@physx@@UEBAAEAVPxControllerManager@3@XZ 000000018003af70 f   CctObstacleContext.obj
 0001:00039f90       ?addObstacle@ObstacleContext@Cct@physx@@UEAAIAEBVPxObstacle@3@@Z 000000018003af90 f   CctObstacleContext.obj
 0001:0003a100       ?removeObstacle@ObstacleContext@Cct@physx@@UEAA_NI@Z 000000018003b100 f   CctObstacleContext.obj
 0001:0003a330       ?updateObstacle@ObstacleContext@Cct@physx@@UEAA_NIAEBVPxObstacle@3@@Z 000000018003b330 f   CctObstacleContext.obj
 0001:0003a5a0       ?getNbObstacles@ObstacleContext@Cct@physx@@UEBAIXZ 000000018003b5a0 f   CctObstacleContext.obj
 0001:0003a5e0       ?getObstacle@ObstacleContext@Cct@physx@@UEBAPEBVPxObstacle@3@I@Z 000000018003b5e0 f   CctObstacleContext.obj
 0001:0003a680       ?getObstacleByHandle@ObstacleContext@Cct@physx@@UEBAPEBVPxObstacle@3@I@Z 000000018003b680 f   CctObstacleContext.obj
 0001:0003a850       ?raycastSingle@ObstacleContext@Cct@physx@@QEBAPEBVPxObstacle@3@AEAUPxRaycastHit@3@AEBVPxVec3@3@1MAEAI@Z 000000018003b850 f   CctObstacleContext.obj
 0001:0003ad20       ?raycastSingle@ObstacleContext@Cct@physx@@QEBAPEBVPxObstacle@3@AEAUPxRaycastHit@3@AEBIAEBVPxVec3@3@2M@Z 000000018003bd20 f   CctObstacleContext.obj
 0001:0003b0b0       ?onOriginShift@ObstacleContext@Cct@physx@@QEAAXAEBVPxVec3@3@@Z 000000018003c0b0 f   CctObstacleContext.obj
 0001:0003bc50       ??$PX_UNUSED@_N@@YAXAEB_N@Z 000000018003cc50 f i CctObstacleContext.obj
 0001:0003bc60       ??0?$Array@UInternalBoxObstacle@ObstacleContext@Cct@physx@@VNamedAllocator@shdfnd@4@@shdfnd@physx@@QEAA@AEBVNamedAllocator@12@@Z 000000018003cc60 f i CctObstacleContext.obj
 0001:0003bcc0       ??0?$Array@UInternalCapsuleObstacle@ObstacleContext@Cct@physx@@VNamedAllocator@shdfnd@4@@shdfnd@physx@@QEAA@AEBVNamedAllocator@12@@Z 000000018003ccc0 f i CctObstacleContext.obj
 0001:0003bd20       ??0InternalBoxObstacle@ObstacleContext@Cct@physx@@QEAA@AEBU0123@@Z 000000018003cd20 f i CctObstacleContext.obj
 0001:0003bd70       ??0InternalBoxObstacle@ObstacleContext@Cct@physx@@QEAA@IAEBVPxBoxObstacle@3@@Z 000000018003cd70 f i CctObstacleContext.obj
 0001:0003bdc0       ??0InternalCapsuleObstacle@ObstacleContext@Cct@physx@@QEAA@AEBU0123@@Z 000000018003cdc0 f i CctObstacleContext.obj
 0001:0003be10       ??0InternalCapsuleObstacle@ObstacleContext@Cct@physx@@QEAA@IAEBVPxCapsuleObstacle@3@@Z 000000018003ce10 f i CctObstacleContext.obj
 0001:0003be60       ??0PxBoxObstacle@physx@@QEAA@AEBV01@@Z 000000018003ce60 f i CctObstacleContext.obj
 0001:0003bec0       ??0PxCapsuleObstacle@physx@@QEAA@AEBV01@@Z 000000018003cec0 f i CctObstacleContext.obj
 0001:0003bf30       ??0PxObstacle@physx@@QEAA@AEBV01@@Z 000000018003cf30 f i CctObstacleContext.obj
 0001:0003bfc0       ??0PxObstacleContext@physx@@QEAA@XZ 000000018003cfc0 f i CctObstacleContext.obj
 0001:0003bfe0       ??1?$Array@UInternalBoxObstacle@ObstacleContext@Cct@physx@@VNamedAllocator@shdfnd@4@@shdfnd@physx@@QEAA@XZ 000000018003cfe0 f i CctObstacleContext.obj
 0001:0003c070       ??1?$Array@UInternalCapsuleObstacle@ObstacleContext@Cct@physx@@VNamedAllocator@shdfnd@4@@shdfnd@physx@@QEAA@XZ 000000018003d070 f i CctObstacleContext.obj
 0001:0003c100       ??1PxObstacleContext@physx@@UEAA@XZ 000000018003d100 f i CctObstacleContext.obj
 0001:0003c120       ??4InternalBoxObstacle@ObstacleContext@Cct@physx@@QEAAAEAU0123@AEBU0123@@Z 000000018003d120 f i CctObstacleContext.obj
 0001:0003c170       ??4InternalCapsuleObstacle@ObstacleContext@Cct@physx@@QEAAAEAU0123@AEBU0123@@Z 000000018003d170 f i CctObstacleContext.obj
 0001:0003c1c0       ??4PxBoxObstacle@physx@@QEAAAEAV01@AEBV01@@Z 000000018003d1c0 f i CctObstacleContext.obj
 0001:0003c220       ??4PxCapsuleObstacle@physx@@QEAAAEAV01@AEBV01@@Z 000000018003d220 f i CctObstacleContext.obj
 0001:0003c290       ??4PxObstacle@physx@@QEAAAEAV01@AEBV01@@Z 000000018003d290 f i CctObstacleContext.obj
 0001:0003c320       ??A?$Array@UInternalBoxObstacle@ObstacleContext@Cct@physx@@VNamedAllocator@shdfnd@4@@shdfnd@physx@@QEAAAEAUInternalBoxObstacle@ObstacleContext@Cct@2@I@Z 000000018003d320 f i CctObstacleContext.obj
 0001:0003c3c0       ??A?$Array@UInternalCapsuleObstacle@ObstacleContext@Cct@physx@@VNamedAllocator@shdfnd@4@@shdfnd@physx@@QEAAAEAUInternalCapsuleObstacle@ObstacleContext@Cct@2@I@Z 000000018003d3c0 f i CctObstacleContext.obj
 0001:0003c460       ??_EObstacleContext@Cct@physx@@UEAAPEAXI@Z 000000018003d460 f i CctObstacleContext.obj
 0001:0003c460       ??_GObstacleContext@Cct@physx@@UEAAPEAXI@Z 000000018003d460 f i CctObstacleContext.obj
 0001:0003c4d0       ??_EPxObstacleContext@physx@@UEAAPEAXI@Z 000000018003d4d0 f i CctObstacleContext.obj
 0001:0003c4d0       ??_GPxObstacleContext@physx@@UEAAPEAXI@Z 000000018003d4d0 f i CctObstacleContext.obj
 0001:0003c520       ?PxMemCopy@physx@@YAPEAXPEAXPEBXI@Z 000000018003d520 f i CctObstacleContext.obj
 0001:0003c560       ?PxMemSet@physx@@YAPEAXPEAXHI@Z 000000018003d560 f i CctObstacleContext.obj
 0001:0003c5a0       ?PxMemZero@physx@@YAPEAXPEAXI@Z 000000018003d5a0 f i CctObstacleContext.obj
 0001:0003c5d0       ?allocate@?$Array@UInternalBoxObstacle@ObstacleContext@Cct@physx@@VNamedAllocator@shdfnd@4@@shdfnd@physx@@IEAAPEAUInternalBoxObstacle@ObstacleContext@Cct@3@I@Z 000000018003d5d0 f i CctObstacleContext.obj
 0001:0003c680       ?allocate@?$Array@UInternalCapsuleObstacle@ObstacleContext@Cct@physx@@VNamedAllocator@shdfnd@4@@shdfnd@physx@@IEAAPEAUInternalCapsuleObstacle@ObstacleContext@Cct@3@I@Z 000000018003d680 f i CctObstacleContext.obj
 0001:0003c730       ?capacity@?$Array@UInternalBoxObstacle@ObstacleContext@Cct@physx@@VNamedAllocator@shdfnd@4@@shdfnd@physx@@QEBAIXZ 000000018003d730 f i CctObstacleContext.obj
 0001:0003c750       ?capacity@?$Array@UInternalCapsuleObstacle@ObstacleContext@Cct@physx@@VNamedAllocator@shdfnd@4@@shdfnd@physx@@QEBAIXZ 000000018003d750 f i CctObstacleContext.obj
 0001:0003c770       ?capacityIncrement@?$Array@UInternalBoxObstacle@ObstacleContext@Cct@physx@@VNamedAllocator@shdfnd@4@@shdfnd@physx@@IEBAIXZ 000000018003d770 f i CctObstacleContext.obj
 0001:0003c7c0       ?capacityIncrement@?$Array@UInternalCapsuleObstacle@ObstacleContext@Cct@physx@@VNamedAllocator@shdfnd@4@@shdfnd@physx@@IEBAIXZ 000000018003d7c0 f i CctObstacleContext.obj
 0001:0003c810       ?copy@?$Array@UInternalBoxObstacle@ObstacleContext@Cct@physx@@VNamedAllocator@shdfnd@4@@shdfnd@physx@@KAXPEAUInternalBoxObstacle@ObstacleContext@Cct@3@0PEBU4563@@Z 000000018003d810 f i CctObstacleContext.obj
 0001:0003c8b0       ?copy@?$Array@UInternalCapsuleObstacle@ObstacleContext@Cct@physx@@VNamedAllocator@shdfnd@4@@shdfnd@physx@@KAXPEAUInternalCapsuleObstacle@ObstacleContext@Cct@3@0PEBU4563@@Z 000000018003d8b0 f i CctObstacleContext.obj
 0001:0003c950       ?deallocate@?$Array@UInternalBoxObstacle@ObstacleContext@Cct@physx@@VNamedAllocator@shdfnd@4@@shdfnd@physx@@IEAAXPEAX@Z 000000018003d950 f i CctObstacleContext.obj
 0001:0003c980       ?deallocate@?$Array@UInternalCapsuleObstacle@ObstacleContext@Cct@physx@@VNamedAllocator@shdfnd@4@@shdfnd@physx@@IEAAXPEAX@Z 000000018003d980 f i CctObstacleContext.obj
 0001:0003c9b0       ?destroy@?$Array@UInternalBoxObstacle@ObstacleContext@Cct@physx@@VNamedAllocator@shdfnd@4@@shdfnd@physx@@KAXPEAUInternalBoxObstacle@ObstacleContext@Cct@3@0@Z 000000018003d9b0 f i CctObstacleContext.obj
 0001:0003c9f0       ?destroy@?$Array@UInternalCapsuleObstacle@ObstacleContext@Cct@physx@@VNamedAllocator@shdfnd@4@@shdfnd@physx@@KAXPEAUInternalCapsuleObstacle@ObstacleContext@Cct@3@0@Z 000000018003d9f0 f i CctObstacleContext.obj
 0001:0003ca30       ?getType@PxObstacle@physx@@QEBA?AW4Enum@PxGeometryType@2@XZ 000000018003da30 f i CctObstacleContext.obj
 0001:0003ca40       ?growAndPushBack@?$Array@UInternalBoxObstacle@ObstacleContext@Cct@physx@@VNamedAllocator@shdfnd@4@@shdfnd@physx@@IEAAAEAUInternalBoxObstacle@ObstacleContext@Cct@3@AEBU4563@@Z 000000018003da40 f i CctObstacleContext.obj
 0001:0003cc30       ?growAndPushBack@?$Array@UInternalCapsuleObstacle@ObstacleContext@Cct@physx@@VNamedAllocator@shdfnd@4@@shdfnd@physx@@IEAAAEAUInternalCapsuleObstacle@ObstacleContext@Cct@3@AEBU4563@@Z 000000018003dc30 f i CctObstacleContext.obj
 0001:0003ce20       ?isInUserMemory@?$Array@UInternalBoxObstacle@ObstacleContext@Cct@physx@@VNamedAllocator@shdfnd@4@@shdfnd@physx@@QEBAIXZ 000000018003de20 f i CctObstacleContext.obj
 0001:0003ce40       ?isInUserMemory@?$Array@UInternalCapsuleObstacle@ObstacleContext@Cct@physx@@VNamedAllocator@shdfnd@4@@shdfnd@physx@@QEBAIXZ 000000018003de40 f i CctObstacleContext.obj
 0001:0003ce60       ?memZero@intrinsics@physx@@YAPEAXPEAXI@Z 000000018003de60 f i CctObstacleContext.obj
 0001:0003ce90       ?pushBack@?$Array@UInternalBoxObstacle@ObstacleContext@Cct@physx@@VNamedAllocator@shdfnd@4@@shdfnd@physx@@QEAAAEAUInternalBoxObstacle@ObstacleContext@Cct@3@AEBU4563@@Z 000000018003de90 f i CctObstacleContext.obj
 0001:0003cf60       ?pushBack@?$Array@UInternalCapsuleObstacle@ObstacleContext@Cct@physx@@VNamedAllocator@shdfnd@4@@shdfnd@physx@@QEAAAEAUInternalCapsuleObstacle@ObstacleContext@Cct@3@AEBU4563@@Z 000000018003df60 f i CctObstacleContext.obj
 0001:0003d030       ?replaceWithLast@?$Array@UInternalBoxObstacle@ObstacleContext@Cct@physx@@VNamedAllocator@shdfnd@4@@shdfnd@physx@@QEAAXI@Z 000000018003e030 f i CctObstacleContext.obj
 0001:0003d110       ?replaceWithLast@?$Array@UInternalCapsuleObstacle@ObstacleContext@Cct@physx@@VNamedAllocator@shdfnd@4@@shdfnd@physx@@QEAAXI@Z 000000018003e110 f i CctObstacleContext.obj
 0001:0003d1f0       ?to16@shdfnd@physx@@YAGI@Z 000000018003e1f0 f i CctObstacleContext.obj
 0001:0003d270       ??0SweptBox@Cct@physx@@QEAA@XZ 000000018003e270 f   CctSweptBox.obj
 0001:0003d2c0       ??1SweptBox@Cct@physx@@UEAA@XZ 000000018003e2c0 f   CctSweptBox.obj
 0001:0003d2f0       ?computeTemporalBox@SweptBox@Cct@physx@@UEBAXAEBVSweepTest@23@AEAUPxExtendedBounds3@3@AEBUPxExtendedVec3@3@AEBVPxVec3@3@@Z 000000018003e2f0 f   CctSweptBox.obj
 0001:0003d3f0       ??$PxMax@M@physx@@YAMMM@Z  000000018003e3f0 f i CctSweptBox.obj
 0001:0003d420       ??_ESweptBox@Cct@physx@@UEAAPEAXI@Z 000000018003e420 f i CctSweptBox.obj
 0001:0003d420       ??_GSweptBox@Cct@physx@@UEAAPEAXI@Z 000000018003e420 f i CctSweptBox.obj
 0001:0003d470       ??0SweptCapsule@Cct@physx@@QEAA@XZ 000000018003e470 f   CctSweptCapsule.obj
 0001:0003d4b0       ??1SweptCapsule@Cct@physx@@UEAA@XZ 000000018003e4b0 f   CctSweptCapsule.obj
 0001:0003d4e0       ?computeTemporalBox@SweptCapsule@Cct@physx@@UEBAXAEBVSweepTest@23@AEAUPxExtendedBounds3@3@AEBUPxExtendedVec3@3@AEBVPxVec3@3@@Z 000000018003e4e0 f   CctSweptCapsule.obj
 0001:0003d5a0       ??_ESweptCapsule@Cct@physx@@UEAAPEAXI@Z 000000018003e5a0 f i CctSweptCapsule.obj
 0001:0003d5a0       ??_GSweptCapsule@Cct@physx@@UEAAPEAXI@Z 000000018003e5a0 f i CctSweptCapsule.obj
 0001:0003d5f0       ??0SweptVolume@Cct@physx@@QEAA@XZ 000000018003e5f0 f   CctSweptVolume.obj
 0001:0003d640       ??1SweptVolume@Cct@physx@@UEAA@XZ 000000018003e640 f   CctSweptVolume.obj
 0001:0003d660       ?computeTemporalBox@Cct@physx@@YAXAEAUPxExtendedBounds3@2@MMMMAEBVPxVec3@2@AEBUPxExtendedVec3@2@1@Z 000000018003e660 f   CctSweptVolume.obj
 0001:0003d910       ??_ESweptVolume@Cct@physx@@UEAAPEAXI@Z 000000018003e910 f i CctSweptVolume.obj
 0001:0003d910       ??_GSweptVolume@Cct@physx@@UEAAPEAXI@Z 000000018003e910 f i CctSweptVolume.obj
 0001:0003d960       ??0PxMeshOverlapUtil@physx@@QEAA@XZ 000000018003e960 f   PhysX3ExtensionsDEBUG:ExtTriangleMeshExt.obj
 0001:0003d9a0       ??1PxMeshOverlapUtil@physx@@QEAA@XZ 000000018003e9a0 f   PhysX3ExtensionsDEBUG:ExtTriangleMeshExt.obj
 0001:0003d9f0       ?findOverlap@PxMeshOverlapUtil@physx@@QEAAIAEBVPxGeometry@2@AEBVPxTransform@2@AEBVPxTriangleMeshGeometry@2@1@Z 000000018003e9f0 f   PhysX3ExtensionsDEBUG:ExtTriangleMeshExt.obj
 0001:0003dc90       ?findOverlap@PxMeshOverlapUtil@physx@@QEAAIAEBVPxGeometry@2@AEBVPxTransform@2@AEBVPxHeightFieldGeometry@2@1@Z 000000018003ec90 f   PhysX3ExtensionsDEBUG:ExtTriangleMeshExt.obj
 0001:0003ddf0       ?PxComputeMeshPenetration@physx@@YA?AVPxVec3@1@IAEBVPxGeometry@1@AEBVPxTransform@1@AEBVPxTriangleMeshGeometry@1@1AEAI@Z 000000018003edf0 f   PhysX3ExtensionsDEBUG:ExtTriangleMeshExt.obj
 0001:0003de90       ?PxComputeTriangleMeshPenetration@physx@@YA_NAEAVPxVec3@1@AEAMAEBVPxGeometry@1@AEBVPxTransform@1@AEBVPxTriangleMeshGeometry@1@3IPEAI@Z 000000018003ee90 f   PhysX3ExtensionsDEBUG:ExtTriangleMeshExt.obj
 0001:0003df00       ?PxComputeHeightFieldPenetration@physx@@YA?AVPxVec3@1@IAEBVPxGeometry@1@AEBVPxTransform@1@AEBVPxHeightFieldGeometry@1@1AEAI@Z 000000018003ef00 f   PhysX3ExtensionsDEBUG:ExtTriangleMeshExt.obj
 0001:0003dfa0       ?PxComputeHeightFieldPenetration@physx@@YA_NAEAVPxVec3@1@AEAMAEBVPxGeometry@1@AEBVPxTransform@1@AEBVPxHeightFieldGeometry@1@3IPEAI@Z 000000018003efa0 f   PhysX3ExtensionsDEBUG:ExtTriangleMeshExt.obj
 0001:0003e550       ??0PxTransform@physx@@QEAA@AEBV01@@Z 000000018003f550 f i PhysX3ExtensionsDEBUG:ExtTriangleMeshExt.obj
 0001:0003e5b0       ??KPxVec3@physx@@QEBA?AV01@M@Z 000000018003f5b0 f i PhysX3ExtensionsDEBUG:ExtTriangleMeshExt.obj
 0001:0003e650       ?updateMassAndInertia@PxRigidBodyExt@physx@@SA_NAEAVPxRigidBody@2@PEBMIPEBVPxVec3@2@_N@Z 000000018003f650 f   PhysX3ExtensionsDEBUG:ExtRigidBodyExt.obj
 0001:0003e6a0       ?updateMassAndInertia@PxRigidBodyExt@physx@@SA_NAEAVPxRigidBody@2@MPEBVPxVec3@2@_N@Z 000000018003f6a0 f   PhysX3ExtensionsDEBUG:ExtRigidBodyExt.obj
 0001:0003e6f0       ?setMassAndUpdateInertia@PxRigidBodyExt@physx@@SA_NAEAVPxRigidBody@2@PEBMIPEBVPxVec3@2@_N@Z 000000018003f6f0 f   PhysX3ExtensionsDEBUG:ExtRigidBodyExt.obj
 0001:0003e740       ?setMassAndUpdateInertia@PxRigidBodyExt@physx@@SA_NAEAVPxRigidBody@2@MPEBVPxVec3@2@_N@Z 000000018003f740 f   PhysX3ExtensionsDEBUG:ExtRigidBodyExt.obj
 0001:0003e790       ?computeMassPropertiesFromShapes@PxRigidBodyExt@physx@@SA?AVPxMassProperties@2@PEBQEBVPxShape@2@I@Z 000000018003f790 f   PhysX3ExtensionsDEBUG:ExtRigidBodyExt.obj
 0001:0003e940       ?addForceAtPos@PxRigidBodyExt@physx@@SAXAEAVPxRigidBody@2@AEBVPxVec3@2@1W4Enum@PxForceMode@2@_N@Z 000000018003f940 f   PhysX3ExtensionsDEBUG:ExtRigidBodyExt.obj
 0001:0003e990       ?addForceAtLocalPos@PxRigidBodyExt@physx@@SAXAEAVPxRigidBody@2@AEBVPxVec3@2@1W4Enum@PxForceMode@2@_N@Z 000000018003f990 f   PhysX3ExtensionsDEBUG:ExtRigidBodyExt.obj
 0001:0003ea10       ?addLocalForceAtPos@PxRigidBodyExt@physx@@SAXAEAVPxRigidBody@2@AEBVPxVec3@2@1W4Enum@PxForceMode@2@_N@Z 000000018003fa10 f   PhysX3ExtensionsDEBUG:ExtRigidBodyExt.obj
 0001:0003ea90       ?addLocalForceAtLocalPos@PxRigidBodyExt@physx@@SAXAEAVPxRigidBody@2@AEBVPxVec3@2@1W4Enum@PxForceMode@2@_N@Z 000000018003fa90 f   PhysX3ExtensionsDEBUG:ExtRigidBodyExt.obj
 0001:0003eb30       ?getVelocityAtPos@PxRigidBodyExt@physx@@SA?AVPxVec3@2@AEBVPxRigidBody@2@AEBV32@@Z 000000018003fb30 f   PhysX3ExtensionsDEBUG:ExtRigidBodyExt.obj
 0001:0003ebe0       ?getLocalVelocityAtLocalPos@PxRigidBodyExt@physx@@SA?AVPxVec3@2@AEBVPxRigidBody@2@AEBV32@@Z 000000018003fbe0 f   PhysX3ExtensionsDEBUG:ExtRigidBodyExt.obj
 0001:0003ecb0       ?getVelocityAtOffset@PxRigidBodyExt@physx@@SA?AVPxVec3@2@AEBVPxRigidBody@2@AEBV32@@Z 000000018003fcb0 f   PhysX3ExtensionsDEBUG:ExtRigidBodyExt.obj
 0001:0003ed60       ?linearSweepSingle@PxRigidBodyExt@physx@@SA_NAEAVPxRigidBody@2@AEAVPxScene@2@AEBVPxVec3@2@MV?$PxFlags@W4Enum@PxHitFlag@physx@@G@2@AEAUPxSweepHit@2@AEAIAEBUPxQueryFilterData@2@PEAVPxQueryFilterCallback@2@PEBUPxQueryCache@2@M@Z 000000018003fd60 f   PhysX3ExtensionsDEBUG:ExtRigidBodyExt.obj
 0001:0003f0e0       ?linearSweepMultiple@PxRigidBodyExt@physx@@SAIAEAVPxRigidBody@2@AEAVPxScene@2@AEBVPxVec3@2@MV?$PxFlags@W4Enum@PxHitFlag@physx@@G@2@PEAUPxSweepHit@2@PEAIIAEAU72@AEAHAEA_NAEBUPxQueryFilterData@2@PEAVPxQueryFilterCallback@2@PEBUPxQueryCache@2@M@Z 00000001800400e0 f   PhysX3ExtensionsDEBUG:ExtRigidBodyExt.obj
 0001:0003f7b0       ?computeVelocityDeltaFromImpulse@PxRigidBodyExt@physx@@SAXAEBVPxRigidBody@2@AEBVPxVec3@2@1AEAV42@2@Z 00000001800407b0 f   PhysX3ExtensionsDEBUG:ExtRigidBodyExt.obj
 0001:0003fee0       ?computeVelocityDeltaFromImpulse@PxRigidBodyExt@physx@@SAXAEBVPxRigidBody@2@AEBVPxTransform@2@AEBVPxVec3@2@2MMAEAV52@3@Z 0000000180040ee0 f   PhysX3ExtensionsDEBUG:ExtRigidBodyExt.obj
 0001:00040060       ?computeLinearAngularImpulse@PxRigidBodyExt@physx@@SAXAEBVPxRigidBody@2@AEBVPxTransform@2@AEBVPxVec3@2@2MMAEAV52@3@Z 0000000180041060 f   PhysX3ExtensionsDEBUG:ExtRigidBodyExt.obj
 0001:00040140       ??0InertiaTensorComputer@Ext@physx@@QEAA@_N@Z 0000000180041140 f   PhysX3ExtensionsDEBUG:ExtRigidBodyExt.obj
 0001:00040190       ??0InertiaTensorComputer@Ext@physx@@QEAA@AEBVPxMat33@2@AEBVPxVec3@2@M@Z 0000000180041190 f   PhysX3ExtensionsDEBUG:ExtRigidBodyExt.obj
 0001:00040200       ??1InertiaTensorComputer@Ext@physx@@QEAA@XZ 0000000180041200 f   PhysX3ExtensionsDEBUG:ExtRigidBodyExt.obj
 0001:00040210       ?translate@InertiaTensorComputer@Ext@physx@@QEAAXAEBVPxVec3@3@@Z 0000000180041210 f   PhysX3ExtensionsDEBUG:ExtRigidBodyExt.obj
 0001:000405d0       ?setBox@InertiaTensorComputer@Ext@physx@@QEAAXAEBVPxVec3@3@@Z 00000001800415d0 f   PhysX3ExtensionsDEBUG:ExtRigidBodyExt.obj
 0001:000406e0       ?setSphere@InertiaTensorComputer@Ext@physx@@QEAAXM@Z 00000001800416e0 f   PhysX3ExtensionsDEBUG:ExtRigidBodyExt.obj
 0001:00040760       ?setCylinder@InertiaTensorComputer@Ext@physx@@QEAAXHMM@Z 0000000180041760 f   PhysX3ExtensionsDEBUG:ExtRigidBodyExt.obj
 0001:000408c0       ?setCapsule@InertiaTensorComputer@Ext@physx@@QEAAXHMM@Z 00000001800418c0 f   PhysX3ExtensionsDEBUG:ExtRigidBodyExt.obj
 0001:00040b00       ?setEllipsoid@InertiaTensorComputer@Ext@physx@@QEAAXMMM@Z 0000000180041b00 f   PhysX3ExtensionsDEBUG:ExtRigidBodyExt.obj
 0001:00040bd0       ?computeSphereMass@Ext@physx@@YAMMM@Z 0000000180041bd0 f   PhysX3ExtensionsDEBUG:ExtRigidBodyExt.obj
 0001:00040c10       ?computeSphereDensity@Ext@physx@@YAMMM@Z 0000000180041c10 f   PhysX3ExtensionsDEBUG:ExtRigidBodyExt.obj
 0001:00040c50       ?computeBoxMass@Ext@physx@@YAMAEBVPxVec3@2@M@Z 0000000180041c50 f   PhysX3ExtensionsDEBUG:ExtRigidBodyExt.obj
 0001:00040c90       ?computeBoxDensity@Ext@physx@@YAMAEBVPxVec3@2@M@Z 0000000180041c90 f   PhysX3ExtensionsDEBUG:ExtRigidBodyExt.obj
 0001:00040cd0       ?computeEllipsoidMass@Ext@physx@@YAMAEBVPxVec3@2@M@Z 0000000180041cd0 f   PhysX3ExtensionsDEBUG:ExtRigidBodyExt.obj
 0001:00040d10       ?computeEllipsoidDensity@Ext@physx@@YAMAEBVPxVec3@2@M@Z 0000000180041d10 f   PhysX3ExtensionsDEBUG:ExtRigidBodyExt.obj
 0001:00040d50       ?computeCylinderMass@Ext@physx@@YAMMMM@Z 0000000180041d50 f   PhysX3ExtensionsDEBUG:ExtRigidBodyExt.obj
 0001:00040d90       ?computeCylinderDensity@Ext@physx@@YAMMMM@Z 0000000180041d90 f   PhysX3ExtensionsDEBUG:ExtRigidBodyExt.obj
 0001:00040dd0       ?computeCapsuleMass@Ext@physx@@YAMMMM@Z 0000000180041dd0 f   PhysX3ExtensionsDEBUG:ExtRigidBodyExt.obj
 0001:00040e10       ?computeCapsuleDensity@Ext@physx@@YAMMMM@Z 0000000180041e10 f   PhysX3ExtensionsDEBUG:ExtRigidBodyExt.obj
 0001:00040e50       ?computeConeMass@Ext@physx@@YAMMMM@Z 0000000180041e50 f   PhysX3ExtensionsDEBUG:ExtRigidBodyExt.obj
 0001:00040e90       ?computeConeDensity@Ext@physx@@YAMMMM@Z 0000000180041e90 f   PhysX3ExtensionsDEBUG:ExtRigidBodyExt.obj
 0001:00040ed0       ?computeBoxInertiaTensor@Ext@physx@@YAXAEAVPxVec3@2@MMMM@Z 0000000180041ed0 f   PhysX3ExtensionsDEBUG:ExtRigidBodyExt.obj
 0001:00041120       ?computeSphereInertiaTensor@Ext@physx@@YAXAEAVPxVec3@2@MM_N@Z 0000000180042120 f   PhysX3ExtensionsDEBUG:ExtRigidBodyExt.obj
 0001:000438e0       ??$PX_UNUSED@PEBUPxSweepHit@physx@@@@YAXAEBQEBUPxSweepHit@physx@@@Z 00000001800448e0 f i PhysX3ExtensionsDEBUG:ExtRigidBodyExt.obj
 0001:000438f0       ??$PX_UNUSED@W4PxZERO@physx@@@@YAXAEBW4PxZERO@physx@@@Z 00000001800448f0 f i PhysX3ExtensionsDEBUG:ExtRigidBodyExt.obj
 0001:00043900       ??$PxUnionCast@PEAVPxGeometry@physx@@PEAY03E@physx@@YAPEAVPxGeometry@0@PEAY03E@Z 0000000180044900 f i PhysX3ExtensionsDEBUG:ExtRigidBodyExt.obj
 0001:00043930       ??0?$Array@PEAVPxShape@physx@@V?$InlineAllocator@$0IA@VNamedAllocator@shdfnd@physx@@@shdfnd@2@@shdfnd@physx@@QEAA@AEBV?$InlineAllocator@$0IA@VNamedAllocator@shdfnd@physx@@@12@@Z 0000000180044930 f i PhysX3ExtensionsDEBUG:ExtRigidBodyExt.obj
 0001:000439a0       ??0?$Array@VPxMassProperties@physx@@V?$InlineAllocator@$0DEA@VNamedAllocator@shdfnd@physx@@@shdfnd@2@@shdfnd@physx@@QEAA@AEBV?$InlineAllocator@$0DEA@VNamedAllocator@shdfnd@physx@@@12@@Z 00000001800449a0 f i PhysX3ExtensionsDEBUG:ExtRigidBodyExt.obj
 0001:00043a10       ??0?$Array@VPxTransform@physx@@V?$InlineAllocator@$0BMA@VNamedAllocator@shdfnd@physx@@@shdfnd@2@@shdfnd@physx@@QEAA@AEBV?$InlineAllocator@$0BMA@VNamedAllocator@shdfnd@physx@@@12@@Z 0000000180044a10 f i PhysX3ExtensionsDEBUG:ExtRigidBodyExt.obj
 0001:00043a80       ??0?$InlineAllocator@$0BMA@VNamedAllocator@shdfnd@physx@@@shdfnd@physx@@QEAA@AEBV012@@Z 0000000180044a80 f i PhysX3ExtensionsDEBUG:ExtRigidBodyExt.obj
 0001:00043ad0       ??0?$InlineAllocator@$0BMA@VNamedAllocator@shdfnd@physx@@@shdfnd@physx@@QEAA@AEBVNamedAllocator@12@@Z 0000000180044ad0 f i PhysX3ExtensionsDEBUG:ExtRigidBodyExt.obj
 0001:00043b20       ??0?$InlineAllocator@$0DEA@VNamedAllocator@shdfnd@physx@@@shdfnd@physx@@QEAA@AEBV012@@Z 0000000180044b20 f i PhysX3ExtensionsDEBUG:ExtRigidBodyExt.obj
 0001:00043b70       ??0?$InlineAllocator@$0DEA@VNamedAllocator@shdfnd@physx@@@shdfnd@physx@@QEAA@AEBVNamedAllocator@12@@Z 0000000180044b70 f i PhysX3ExtensionsDEBUG:ExtRigidBodyExt.obj
 0001:00043bc0       ??0?$InlineAllocator@$0IA@VNamedAllocator@shdfnd@physx@@@shdfnd@physx@@QEAA@AEBV012@@Z 0000000180044bc0 f i PhysX3ExtensionsDEBUG:ExtRigidBodyExt.obj
 0001:00043c10       ??0?$InlineAllocator@$0IA@VNamedAllocator@shdfnd@physx@@@shdfnd@physx@@QEAA@AEBVNamedAllocator@12@@Z 0000000180044c10 f i PhysX3ExtensionsDEBUG:ExtRigidBodyExt.obj
 0001:00043c60       ??0?$InlineArray@PEAVPxShape@physx@@$0BA@VNamedAllocator@shdfnd@2@@shdfnd@physx@@QEAA@AEBVNamedAllocator@12@@Z 0000000180044c60 f i PhysX3ExtensionsDEBUG:ExtRigidBodyExt.obj
 0001:00043d10       ??0?$InlineArray@VPxMassProperties@physx@@$0BA@VNamedAllocator@shdfnd@2@@shdfnd@physx@@QEAA@AEBVNamedAllocator@12@@Z 0000000180044d10 f i PhysX3ExtensionsDEBUG:ExtRigidBodyExt.obj
 0001:00043dc0       ??0?$InlineArray@VPxTransform@physx@@$0BA@VNamedAllocator@shdfnd@2@@shdfnd@physx@@QEAA@AEBVNamedAllocator@12@@Z 0000000180044dc0 f i PhysX3ExtensionsDEBUG:ExtRigidBodyExt.obj
 0001:00043e70       ??0?$PxHitBuffer@UPxSweepHit@physx@@@physx@@QEAA@PEAUPxSweepHit@1@I@Z 0000000180044e70 f i PhysX3ExtensionsDEBUG:ExtRigidBodyExt.obj
 0001:00043ec0       ??0?$PxHitCallback@UPxSweepHit@physx@@@physx@@QEAA@PEAUPxSweepHit@1@I@Z 0000000180044ec0 f i PhysX3ExtensionsDEBUG:ExtRigidBodyExt.obj
 0001:00043f50       ??0AB@?1???$PxUnionCast@PEAVPxGeometry@physx@@PEAY03E@physx@@YAPEAVPxGeometry@1@PEAY03E@Z@QEAA@0@Z 0000000180044f50 f i PhysX3ExtensionsDEBUG:ExtRigidBodyExt.obj
 0001:00043f80       ??0PxMassProperties@physx@@QEAA@AEBV01@@Z 0000000180044f80 f i PhysX3ExtensionsDEBUG:ExtRigidBodyExt.obj
 0001:00043ff0       ??0PxMassProperties@physx@@QEAA@AEBVPxGeometry@1@@Z 0000000180044ff0 f i PhysX3ExtensionsDEBUG:ExtRigidBodyExt.obj
 0001:00044d50       ??0PxMassProperties@physx@@QEAA@MAEBVPxMat33@1@AEBVPxVec3@1@@Z 0000000180045d50 f i PhysX3ExtensionsDEBUG:ExtRigidBodyExt.obj
 0001:00044dd0       ??0PxMassProperties@physx@@QEAA@XZ 0000000180045dd0 f i PhysX3ExtensionsDEBUG:ExtRigidBodyExt.obj
 0001:00044e30       ??0PxMat33@physx@@QEAA@AEBV01@@Z 0000000180045e30 f i PhysX3ExtensionsDEBUG:ExtRigidBodyExt.obj
 0001:00044eb0       ??0PxMat33@physx@@QEAA@W4PxZERO@1@@Z 0000000180045eb0 f i PhysX3ExtensionsDEBUG:ExtRigidBodyExt.obj
 0001:00044f20       ??0PxMat33@physx@@QEAA@XZ  0000000180045f20 f i PhysX3ExtensionsDEBUG:ExtRigidBodyExt.obj
 0001:00044f80       ??0PxQueryFilterData@physx@@QEAA@XZ 0000000180045f80 f i PhysX3ExtensionsDEBUG:ExtRigidBodyExt.obj
 0001:00044fe0       ??1?$Array@PEAVPxShape@physx@@V?$InlineAllocator@$0IA@VNamedAllocator@shdfnd@physx@@@shdfnd@2@@shdfnd@physx@@QEAA@XZ 0000000180045fe0 f i PhysX3ExtensionsDEBUG:ExtRigidBodyExt.obj
 0001:00045080       ??1?$Array@VPxMassProperties@physx@@V?$InlineAllocator@$0DEA@VNamedAllocator@shdfnd@physx@@@shdfnd@2@@shdfnd@physx@@QEAA@XZ 0000000180046080 f i PhysX3ExtensionsDEBUG:ExtRigidBodyExt.obj
 0001:00045120       ??1?$Array@VPxTransform@physx@@V?$InlineAllocator@$0BMA@VNamedAllocator@shdfnd@physx@@@shdfnd@2@@shdfnd@physx@@QEAA@XZ 0000000180046120 f i PhysX3ExtensionsDEBUG:ExtRigidBodyExt.obj
 0001:000451c0       ??1?$InlineAllocator@$0BMA@VNamedAllocator@shdfnd@physx@@@shdfnd@physx@@QEAA@XZ 00000001800461c0 f i PhysX3ExtensionsDEBUG:ExtRigidBodyExt.obj
 0001:000451e0       ??1?$InlineAllocator@$0DEA@VNamedAllocator@shdfnd@physx@@@shdfnd@physx@@QEAA@XZ 00000001800461e0 f i PhysX3ExtensionsDEBUG:ExtRigidBodyExt.obj
 0001:00045200       ??1?$InlineAllocator@$0IA@VNamedAllocator@shdfnd@physx@@@shdfnd@physx@@QEAA@XZ 0000000180046200 f i PhysX3ExtensionsDEBUG:ExtRigidBodyExt.obj
 0001:00045220       ??1?$InlineArray@PEAVPxShape@physx@@$0BA@VNamedAllocator@shdfnd@2@@shdfnd@physx@@QEAA@XZ 0000000180046220 f i PhysX3ExtensionsDEBUG:ExtRigidBodyExt.obj
 0001:00045240       ??1?$InlineArray@VPxMassProperties@physx@@$0BA@VNamedAllocator@shdfnd@2@@shdfnd@physx@@QEAA@XZ 0000000180046240 f i PhysX3ExtensionsDEBUG:ExtRigidBodyExt.obj
 0001:00045260       ??1?$InlineArray@VPxTransform@physx@@$0BA@VNamedAllocator@shdfnd@2@@shdfnd@physx@@QEAA@XZ 0000000180046260 f i PhysX3ExtensionsDEBUG:ExtRigidBodyExt.obj
 0001:00045280       ??1?$PxHitBuffer@UPxSweepHit@physx@@@physx@@UEAA@XZ 0000000180046280 f i PhysX3ExtensionsDEBUG:ExtRigidBodyExt.obj
 0001:000452b0       ??1?$PxHitCallback@UPxSweepHit@physx@@@physx@@UEAA@XZ 00000001800462b0 f i PhysX3ExtensionsDEBUG:ExtRigidBodyExt.obj
 0001:000452d0       ??4InertiaTensorComputer@Ext@physx@@QEAAAEAV012@AEBV012@@Z 00000001800462d0 f i PhysX3ExtensionsDEBUG:ExtRigidBodyExt.obj
 0001:00045340       ??4PxFilterData@physx@@QEAAXAEBU01@@Z 0000000180046340 f i PhysX3ExtensionsDEBUG:ExtRigidBodyExt.obj
 0001:000453a0       ??4PxMassProperties@physx@@QEAAAEAV01@$$QEAV01@@Z 00000001800463a0 f i PhysX3ExtensionsDEBUG:ExtRigidBodyExt.obj
 0001:00045410       ??4PxMat33@physx@@QEAAAEAV01@AEBV01@@Z 0000000180046410 f i PhysX3ExtensionsDEBUG:ExtRigidBodyExt.obj
 0001:00045490       ??4PxSweepHit@physx@@QEAAAEAU01@AEBU01@@Z 0000000180046490 f i PhysX3ExtensionsDEBUG:ExtRigidBodyExt.obj
 0001:000454e0       ??A?$Array@PEAVPxShape@physx@@V?$InlineAllocator@$0IA@VNamedAllocator@shdfnd@physx@@@shdfnd@2@@shdfnd@physx@@QEAAAEAPEAVPxShape@2@I@Z 00000001800464e0 f i PhysX3ExtensionsDEBUG:ExtRigidBodyExt.obj
 0001:00045580       ??APxMat33@physx@@QEAAAEAVPxVec3@1@I@Z 0000000180046580 f i PhysX3ExtensionsDEBUG:ExtRigidBodyExt.obj
 0001:000455b0       ??APxVec3@physx@@QEAAAEAMI@Z 00000001800465b0 f i PhysX3ExtensionsDEBUG:ExtRigidBodyExt.obj
 0001:00045640       ??DPxMat33@physx@@QEBA?BV01@M@Z 0000000180046640 f i PhysX3ExtensionsDEBUG:ExtRigidBodyExt.obj
 0001:00045700       ??DPxMat33@physx@@QEBA?BVPxVec3@1@AEBV21@@Z 0000000180046700 f i PhysX3ExtensionsDEBUG:ExtRigidBodyExt.obj
 0001:00045740       ??GPxMat33@physx@@QEBA?BV01@AEBV01@@Z 0000000180046740 f i PhysX3ExtensionsDEBUG:ExtRigidBodyExt.obj
 0001:00045840       ??HPxMat33@physx@@QEBA?BV01@AEBV01@@Z 0000000180046840 f i PhysX3ExtensionsDEBUG:ExtRigidBodyExt.obj
 0001:00045940       ??RPxMat33@physx@@QEAAAEAMII@Z 0000000180046940 f i PhysX3ExtensionsDEBUG:ExtRigidBodyExt.obj
 0001:00045980       ??RPxMat33@physx@@QEBAMII@Z 0000000180046980 f i PhysX3ExtensionsDEBUG:ExtRigidBodyExt.obj
 0001:000459d0       ??XPxMat33@physx@@QEAAAEAV01@M@Z 00000001800469d0 f i PhysX3ExtensionsDEBUG:ExtRigidBodyExt.obj
 0001:00045a40       ??YPxMat33@physx@@QEAAAEAV01@AEBV01@@Z 0000000180046a40 f i PhysX3ExtensionsDEBUG:ExtRigidBodyExt.obj
 0001:00045ac0       ??_E?$PxHitBuffer@UPxSweepHit@physx@@@physx@@UEAAPEAXI@Z 0000000180046ac0 f i PhysX3ExtensionsDEBUG:ExtRigidBodyExt.obj
 0001:00045ac0       ??_G?$PxHitBuffer@UPxSweepHit@physx@@@physx@@UEAAPEAXI@Z 0000000180046ac0 f i PhysX3ExtensionsDEBUG:ExtRigidBodyExt.obj
 0001:00045b10       ??_E?$PxHitCallback@UPxSweepHit@physx@@@physx@@UEAAPEAXI@Z 0000000180046b10 f i PhysX3ExtensionsDEBUG:ExtRigidBodyExt.obj
 0001:00045b10       ??_G?$PxHitCallback@UPxSweepHit@physx@@@physx@@UEAAPEAXI@Z 0000000180046b10 f i PhysX3ExtensionsDEBUG:ExtRigidBodyExt.obj
 0001:00045b60       ?add@InertiaTensorComputer@Ext@physx@@QEAAXAEBV123@@Z 0000000180046b60 f i PhysX3ExtensionsDEBUG:ExtRigidBodyExt.obj
 0001:00045e40       ?addForceAtPosInternal@@YAXAEAVPxRigidBody@physx@@AEBVPxVec3@2@1W4Enum@PxForceMode@2@_N@Z 0000000180046e40 f i PhysX3ExtensionsDEBUG:ExtRigidBodyExt.obj
 0001:00045fe0       ?allocate@?$Array@PEAVPxShape@physx@@V?$InlineAllocator@$0IA@VNamedAllocator@shdfnd@physx@@@shdfnd@2@@shdfnd@physx@@IEAAPEAPEAVPxShape@3@I@Z 0000000180046fe0 f i PhysX3ExtensionsDEBUG:ExtRigidBodyExt.obj
 0001:00046090       ?allocate@?$Array@VPxMassProperties@physx@@V?$InlineAllocator@$0DEA@VNamedAllocator@shdfnd@physx@@@shdfnd@2@@shdfnd@physx@@IEAAPEAVPxMassProperties@3@I@Z 0000000180047090 f i PhysX3ExtensionsDEBUG:ExtRigidBodyExt.obj
 0001:00046140       ?allocate@?$Array@VPxTransform@physx@@V?$InlineAllocator@$0BMA@VNamedAllocator@shdfnd@physx@@@shdfnd@2@@shdfnd@physx@@IEAAPEAVPxTransform@3@I@Z 0000000180047140 f i PhysX3ExtensionsDEBUG:ExtRigidBodyExt.obj
 0001:000461f0       ?allocate@?$InlineAllocator@$0BMA@VNamedAllocator@shdfnd@physx@@@shdfnd@physx@@QEAAPEAXIPEBDH@Z 00000001800471f0 f i PhysX3ExtensionsDEBUG:ExtRigidBodyExt.obj
 0001:00046270       ?allocate@?$InlineAllocator@$0DEA@VNamedAllocator@shdfnd@physx@@@shdfnd@physx@@QEAAPEAXIPEBDH@Z 0000000180047270 f i PhysX3ExtensionsDEBUG:ExtRigidBodyExt.obj
 0001:000462f0       ?allocate@?$InlineAllocator@$0IA@VNamedAllocator@shdfnd@physx@@@shdfnd@physx@@QEAAPEAXIPEBDH@Z 00000001800472f0 f i PhysX3ExtensionsDEBUG:ExtRigidBodyExt.obj
 0001:00046370       ?any@PxGeometryHolder@physx@@QEAAAEAVPxGeometry@2@XZ 0000000180047370 f i PhysX3ExtensionsDEBUG:ExtRigidBodyExt.obj
 0001:000463a0       ?basisExtent@PxBounds3@physx@@SA?AV12@AEBVPxVec3@2@AEBVPxMat33@2@0@Z 00000001800473a0 f i PhysX3ExtensionsDEBUG:ExtRigidBodyExt.obj
 0001:000465f0       ?begin@?$Array@PEAVPxShape@physx@@V?$InlineAllocator@$0IA@VNamedAllocator@shdfnd@physx@@@shdfnd@2@@shdfnd@physx@@QEAAPEAPEAVPxShape@3@XZ 00000001800475f0 f i PhysX3ExtensionsDEBUG:ExtRigidBodyExt.obj
 0001:00046610       ?begin@?$Array@VPxMassProperties@physx@@V?$InlineAllocator@$0DEA@VNamedAllocator@shdfnd@physx@@@shdfnd@2@@shdfnd@physx@@QEAAPEAVPxMassProperties@3@XZ 0000000180047610 f i PhysX3ExtensionsDEBUG:ExtRigidBodyExt.obj
 0001:00046630       ?begin@?$Array@VPxTransform@physx@@V?$InlineAllocator@$0BMA@VNamedAllocator@shdfnd@physx@@@shdfnd@2@@shdfnd@physx@@QEAAPEAVPxTransform@3@XZ 0000000180047630 f i PhysX3ExtensionsDEBUG:ExtRigidBodyExt.obj
 0001:00046650       ?capacity@?$Array@PEAVPxShape@physx@@V?$InlineAllocator@$0IA@VNamedAllocator@shdfnd@physx@@@shdfnd@2@@shdfnd@physx@@QEBAIXZ 0000000180047650 f i PhysX3ExtensionsDEBUG:ExtRigidBodyExt.obj
 0001:00046670       ?capacity@?$Array@VPxMassProperties@physx@@V?$InlineAllocator@$0DEA@VNamedAllocator@shdfnd@physx@@@shdfnd@2@@shdfnd@physx@@QEBAIXZ 0000000180047670 f i PhysX3ExtensionsDEBUG:ExtRigidBodyExt.obj
 0001:00046690       ?capacity@?$Array@VPxTransform@physx@@V?$InlineAllocator@$0BMA@VNamedAllocator@shdfnd@physx@@@shdfnd@2@@shdfnd@physx@@QEBAIXZ 0000000180047690 f i PhysX3ExtensionsDEBUG:ExtRigidBodyExt.obj
 0001:000466b0       ?capacityIncrement@?$Array@VPxMassProperties@physx@@V?$InlineAllocator@$0DEA@VNamedAllocator@shdfnd@physx@@@shdfnd@2@@shdfnd@physx@@IEBAIXZ 00000001800476b0 f i PhysX3ExtensionsDEBUG:ExtRigidBodyExt.obj
 0001:00046700       ?capacityIncrement@?$Array@VPxTransform@physx@@V?$InlineAllocator@$0BMA@VNamedAllocator@shdfnd@physx@@@shdfnd@2@@shdfnd@physx@@IEBAIXZ 0000000180047700 f i PhysX3ExtensionsDEBUG:ExtRigidBodyExt.obj
 0001:00046750       ?center@InertiaTensorComputer@Ext@physx@@QEAAXXZ 0000000180047750 f i PhysX3ExtensionsDEBUG:ExtRigidBodyExt.obj
 0001:00046790       ?computeBoxRatio@Ext@physx@@YAMAEBVPxVec3@2@@Z 0000000180047790 f i PhysX3ExtensionsDEBUG:ExtRigidBodyExt.obj
 0001:000467b0       ?computeCapsuleRatio@Ext@physx@@YAMMM@Z 00000001800477b0 f i PhysX3ExtensionsDEBUG:ExtRigidBodyExt.obj
 0001:00046810       ?computeConeRatio@Ext@physx@@YAMMM@Z 0000000180047810 f i PhysX3ExtensionsDEBUG:ExtRigidBodyExt.obj
 0001:00046880       ?computeCylinderRatio@Ext@physx@@YAMMM@Z 0000000180047880 f i PhysX3ExtensionsDEBUG:ExtRigidBodyExt.obj
 0001:000468c0       ?computeEllipsoidRatio@Ext@physx@@YAMAEBVPxVec3@2@@Z 00000001800478c0 f i PhysX3ExtensionsDEBUG:ExtRigidBodyExt.obj
 0001:000468f0       ?computeSphereRatio@Ext@physx@@YAMM@Z 00000001800478f0 f i PhysX3ExtensionsDEBUG:ExtRigidBodyExt.obj
 0001:00046920       ?copy@?$Array@PEAVPxShape@physx@@V?$InlineAllocator@$0IA@VNamedAllocator@shdfnd@physx@@@shdfnd@2@@shdfnd@physx@@KAXPEAPEAVPxShape@3@0PEBQEAV43@@Z 0000000180047920 f i PhysX3ExtensionsDEBUG:ExtRigidBodyExt.obj
 0001:000469c0       ?copy@?$Array@VPxMassProperties@physx@@V?$InlineAllocator@$0DEA@VNamedAllocator@shdfnd@physx@@@shdfnd@2@@shdfnd@physx@@KAXPEAVPxMassProperties@3@0PEBV43@@Z 00000001800479c0 f i PhysX3ExtensionsDEBUG:ExtRigidBodyExt.obj
 0001:00046a60       ?copy@?$Array@VPxTransform@physx@@V?$InlineAllocator@$0BMA@VNamedAllocator@shdfnd@physx@@@shdfnd@2@@shdfnd@physx@@KAXPEAVPxTransform@3@0PEBV43@@Z 0000000180047a60 f i PhysX3ExtensionsDEBUG:ExtRigidBodyExt.obj
 0001:00046b00       ?create@?$Array@PEAVPxShape@physx@@V?$InlineAllocator@$0IA@VNamedAllocator@shdfnd@physx@@@shdfnd@2@@shdfnd@physx@@KAXPEAPEAVPxShape@3@0AEBQEAV43@@Z 0000000180047b00 f i PhysX3ExtensionsDEBUG:ExtRigidBodyExt.obj
 0001:00046b70       ?createDiagonal@PxMat33@physx@@SA?BV12@AEBVPxVec3@2@@Z 0000000180047b70 f i PhysX3ExtensionsDEBUG:ExtRigidBodyExt.obj
 0001:00046c20       ?deallocate@?$Array@PEAVPxShape@physx@@V?$InlineAllocator@$0IA@VNamedAllocator@shdfnd@physx@@@shdfnd@2@@shdfnd@physx@@IEAAXPEAX@Z 0000000180047c20 f i PhysX3ExtensionsDEBUG:ExtRigidBodyExt.obj
 0001:00046c50       ?deallocate@?$Array@VPxMassProperties@physx@@V?$InlineAllocator@$0DEA@VNamedAllocator@shdfnd@physx@@@shdfnd@2@@shdfnd@physx@@IEAAXPEAX@Z 0000000180047c50 f i PhysX3ExtensionsDEBUG:ExtRigidBodyExt.obj
 0001:00046c80       ?deallocate@?$Array@VPxTransform@physx@@V?$InlineAllocator@$0BMA@VNamedAllocator@shdfnd@physx@@@shdfnd@2@@shdfnd@physx@@IEAAXPEAX@Z 0000000180047c80 f i PhysX3ExtensionsDEBUG:ExtRigidBodyExt.obj
 0001:00046cb0       ?deallocate@?$InlineAllocator@$0BMA@VNamedAllocator@shdfnd@physx@@@shdfnd@physx@@QEAAXPEAX@Z 0000000180047cb0 f i PhysX3ExtensionsDEBUG:ExtRigidBodyExt.obj
 0001:00046d00       ?deallocate@?$InlineAllocator@$0DEA@VNamedAllocator@shdfnd@physx@@@shdfnd@physx@@QEAAXPEAX@Z 0000000180047d00 f i PhysX3ExtensionsDEBUG:ExtRigidBodyExt.obj
 0001:00046d50       ?deallocate@?$InlineAllocator@$0IA@VNamedAllocator@shdfnd@physx@@@shdfnd@physx@@QEAAXPEAX@Z 0000000180047d50 f i PhysX3ExtensionsDEBUG:ExtRigidBodyExt.obj
 0001:00046da0       ?destroy@?$Array@PEAVPxShape@physx@@V?$InlineAllocator@$0IA@VNamedAllocator@shdfnd@physx@@@shdfnd@2@@shdfnd@physx@@KAXPEAPEAVPxShape@3@0@Z 0000000180047da0 f i PhysX3ExtensionsDEBUG:ExtRigidBodyExt.obj
 0001:00046de0       ?destroy@?$Array@VPxMassProperties@physx@@V?$InlineAllocator@$0DEA@VNamedAllocator@shdfnd@physx@@@shdfnd@2@@shdfnd@physx@@KAXPEAVPxMassProperties@3@0@Z 0000000180047de0 f i PhysX3ExtensionsDEBUG:ExtRigidBodyExt.obj
 0001:00046e20       ?destroy@?$Array@VPxTransform@physx@@V?$InlineAllocator@$0BMA@VNamedAllocator@shdfnd@physx@@@shdfnd@2@@shdfnd@physx@@KAXPEAVPxTransform@3@0@Z 0000000180047e20 f i PhysX3ExtensionsDEBUG:ExtRigidBodyExt.obj
 0001:00046e60       ?finalizeQuery@?$PxHitCallback@UPxSweepHit@physx@@@physx@@UEAAXXZ 0000000180047e60 f i PhysX3ExtensionsDEBUG:ExtRigidBodyExt.obj
 0001:00046e70       ?getCenterOfMass@InertiaTensorComputer@Ext@physx@@QEBA?AVPxVec3@3@XZ 0000000180047e70 f i PhysX3ExtensionsDEBUG:ExtRigidBodyExt.obj
 0001:00046eb0       ?getConjugate@PxQuat@physx@@QEBA?AV12@XZ 0000000180047eb0 f i PhysX3ExtensionsDEBUG:ExtRigidBodyExt.obj
 0001:00046f50       ?getInertia@InertiaTensorComputer@Ext@physx@@QEBA?AVPxMat33@3@XZ 0000000180047f50 f i PhysX3ExtensionsDEBUG:ExtRigidBodyExt.obj
 0001:00046f90       ?getInverse@PxTransform@physx@@QEBA?AV12@XZ 0000000180047f90 f i PhysX3ExtensionsDEBUG:ExtRigidBodyExt.obj
 0001:000470a0       ?getMass@InertiaTensorComputer@Ext@physx@@QEBAMXZ 00000001800480a0 f i PhysX3ExtensionsDEBUG:ExtRigidBodyExt.obj
 0001:000470c0       ?getNbTouches@?$PxHitBuffer@UPxSweepHit@physx@@@physx@@QEBAIXZ 00000001800480c0 f i PhysX3ExtensionsDEBUG:ExtRigidBodyExt.obj
 0001:000470e0       ?getType@PxGeometry@physx@@QEBA?AW4Enum@PxGeometryType@2@XZ 00000001800480e0 f i PhysX3ExtensionsDEBUG:ExtRigidBodyExt.obj
 0001:000470f0       ?getVelocityAtPosInternal@@YA?AVPxVec3@physx@@AEBVPxRigidBody@2@AEBV12@@Z 00000001800480f0 f i PhysX3ExtensionsDEBUG:ExtRigidBodyExt.obj
 0001:00047190       ?grow@?$Array@PEAVPxShape@physx@@V?$InlineAllocator@$0IA@VNamedAllocator@shdfnd@physx@@@shdfnd@2@@shdfnd@physx@@IEAAXI@Z 0000000180048190 f i PhysX3ExtensionsDEBUG:ExtRigidBodyExt.obj
 0001:00047230       ?grow@?$Array@VPxMassProperties@physx@@V?$InlineAllocator@$0DEA@VNamedAllocator@shdfnd@physx@@@shdfnd@2@@shdfnd@physx@@IEAAXI@Z 0000000180048230 f i PhysX3ExtensionsDEBUG:ExtRigidBodyExt.obj
 0001:000472d0       ?grow@?$Array@VPxTransform@physx@@V?$InlineAllocator@$0BMA@VNamedAllocator@shdfnd@physx@@@shdfnd@2@@shdfnd@physx@@IEAAXI@Z 00000001800482d0 f i PhysX3ExtensionsDEBUG:ExtRigidBodyExt.obj
 0001:00047370       ?growAndPushBack@?$Array@VPxMassProperties@physx@@V?$InlineAllocator@$0DEA@VNamedAllocator@shdfnd@physx@@@shdfnd@2@@shdfnd@physx@@IEAAAEAVPxMassProperties@3@AEBV43@@Z 0000000180048370 f i PhysX3ExtensionsDEBUG:ExtRigidBodyExt.obj
 0001:000475a0       ?growAndPushBack@?$Array@VPxTransform@physx@@V?$InlineAllocator@$0BMA@VNamedAllocator@shdfnd@physx@@@shdfnd@2@@shdfnd@physx@@IEAAAEAVPxTransform@3@AEBV43@@Z 00000001800485a0 f i PhysX3ExtensionsDEBUG:ExtRigidBodyExt.obj
 0001:000477d0       ?isIdentity@PxMeshScale@physx@@QEBA_NXZ 00000001800487d0 f i PhysX3ExtensionsDEBUG:ExtRigidBodyExt.obj
 0001:00047840       ?isInUserMemory@?$Array@PEAVPxShape@physx@@V?$InlineAllocator@$0IA@VNamedAllocator@shdfnd@physx@@@shdfnd@2@@shdfnd@physx@@QEBAIXZ 0000000180048840 f i PhysX3ExtensionsDEBUG:ExtRigidBodyExt.obj
 0001:00047860       ?isInUserMemory@?$Array@VPxMassProperties@physx@@V?$InlineAllocator@$0DEA@VNamedAllocator@shdfnd@physx@@@shdfnd@2@@shdfnd@physx@@QEBAIXZ 0000000180048860 f i PhysX3ExtensionsDEBUG:ExtRigidBodyExt.obj
 0001:00047880       ?isInUserMemory@?$Array@VPxTransform@physx@@V?$InlineAllocator@$0BMA@VNamedAllocator@shdfnd@physx@@@shdfnd@2@@shdfnd@physx@@QEBAIXZ 0000000180048880 f i PhysX3ExtensionsDEBUG:ExtRigidBodyExt.obj
 0001:000478a0       ?isUnit@PxQuat@physx@@QEBA_NXZ 00000001800488a0 f i PhysX3ExtensionsDEBUG:ExtRigidBodyExt.obj
 0001:00047920       ?multiply@PxVec3@physx@@QEBA?AV12@AEBV12@@Z 0000000180048920 f i PhysX3ExtensionsDEBUG:ExtRigidBodyExt.obj
 0001:000479c0       ?processTouches@?$PxHitBuffer@UPxSweepHit@physx@@@physx@@MEAA_NPEBUPxSweepHit@2@I@Z 00000001800489c0 f i PhysX3ExtensionsDEBUG:ExtRigidBodyExt.obj
 0001:00047a00       ?pushBack@?$Array@VPxMassProperties@physx@@V?$InlineAllocator@$0DEA@VNamedAllocator@shdfnd@physx@@@shdfnd@2@@shdfnd@physx@@QEAAAEAVPxMassProperties@3@AEBV43@@Z 0000000180048a00 f i PhysX3ExtensionsDEBUG:ExtRigidBodyExt.obj
 0001:00047af0       ?pushBack@?$Array@VPxTransform@physx@@V?$InlineAllocator@$0BMA@VNamedAllocator@shdfnd@physx@@@shdfnd@2@@shdfnd@physx@@QEAAAEAVPxTransform@3@AEBV43@@Z 0000000180048af0 f i PhysX3ExtensionsDEBUG:ExtRigidBodyExt.obj
 0001:00047be0       ?recreate@?$Array@PEAVPxShape@physx@@V?$InlineAllocator@$0IA@VNamedAllocator@shdfnd@physx@@@shdfnd@2@@shdfnd@physx@@IEAAXI@Z 0000000180048be0 f i PhysX3ExtensionsDEBUG:ExtRigidBodyExt.obj
 0001:00047d60       ?recreate@?$Array@VPxMassProperties@physx@@V?$InlineAllocator@$0DEA@VNamedAllocator@shdfnd@physx@@@shdfnd@2@@shdfnd@physx@@IEAAXI@Z 0000000180048d60 f i PhysX3ExtensionsDEBUG:ExtRigidBodyExt.obj
 0001:00047ef0       ?recreate@?$Array@VPxTransform@physx@@V?$InlineAllocator@$0BMA@VNamedAllocator@shdfnd@physx@@@shdfnd@2@@shdfnd@physx@@IEAAXI@Z 0000000180048ef0 f i PhysX3ExtensionsDEBUG:ExtRigidBodyExt.obj
 0001:00048080       ?reserve@?$Array@PEAVPxShape@physx@@V?$InlineAllocator@$0IA@VNamedAllocator@shdfnd@physx@@@shdfnd@2@@shdfnd@physx@@QEAAXI@Z 0000000180049080 f i PhysX3ExtensionsDEBUG:ExtRigidBodyExt.obj
 0001:000480c0       ?reserve@?$Array@VPxMassProperties@physx@@V?$InlineAllocator@$0DEA@VNamedAllocator@shdfnd@physx@@@shdfnd@2@@shdfnd@physx@@QEAAXI@Z 00000001800490c0 f i PhysX3ExtensionsDEBUG:ExtRigidBodyExt.obj
 0001:00048100       ?reserve@?$Array@VPxTransform@physx@@V?$InlineAllocator@$0BMA@VNamedAllocator@shdfnd@physx@@@shdfnd@2@@shdfnd@physx@@QEAAXI@Z 0000000180049100 f i PhysX3ExtensionsDEBUG:ExtRigidBodyExt.obj
 0001:00048140       ?resize@?$Array@PEAVPxShape@physx@@V?$InlineAllocator@$0IA@VNamedAllocator@shdfnd@physx@@@shdfnd@2@@shdfnd@physx@@QEAAXIAEBQEAVPxShape@3@@Z 0000000180049140 f i PhysX3ExtensionsDEBUG:ExtRigidBodyExt.obj
 0001:00048210       ?rotate@InertiaTensorComputer@Ext@physx@@QEAAXAEBVPxMat33@3@@Z 0000000180049210 f i PhysX3ExtensionsDEBUG:ExtRigidBodyExt.obj
 0001:00048420       ?rotateInertia@PxMassProperties@physx@@SA?AVPxMat33@2@AEBV32@AEBVPxQuat@2@@Z 0000000180049420 f i PhysX3ExtensionsDEBUG:ExtRigidBodyExt.obj
 0001:000486a0       ?scaleDensity@InertiaTensorComputer@Ext@physx@@QEAAXM@Z 00000001800496a0 f i PhysX3ExtensionsDEBUG:ExtRigidBodyExt.obj
 0001:00048820       ?scaleInertia@PxMassProperties@physx@@SA?AVPxMat33@2@AEBV32@AEBVPxQuat@2@AEBVPxVec3@2@@Z 0000000180049820 f i PhysX3ExtensionsDEBUG:ExtRigidBodyExt.obj
 0001:00048eb0       ?setBox@InertiaTensorComputer@Ext@physx@@QEAAXAEBVPxVec3@3@PEBVPxTransform@3@@Z 0000000180049eb0 f i PhysX3ExtensionsDEBUG:ExtRigidBodyExt.obj
 0001:00048f00       ?setCapsule@InertiaTensorComputer@Ext@physx@@QEAAXHMMPEBVPxTransform@3@@Z 0000000180049f00 f i PhysX3ExtensionsDEBUG:ExtRigidBodyExt.obj
 0001:00048f70       ?setDiagonal@InertiaTensorComputer@Ext@physx@@QEAAXMAEBVPxVec3@3@@Z 0000000180049f70 f i PhysX3ExtensionsDEBUG:ExtRigidBodyExt.obj
 0001:00049140       ?setSphere@InertiaTensorComputer@Ext@physx@@QEAAXMPEBVPxTransform@3@@Z 000000018004a140 f i PhysX3ExtensionsDEBUG:ExtRigidBodyExt.obj
 0001:00049190       ?size@?$Array@PEAVPxShape@physx@@V?$InlineAllocator@$0IA@VNamedAllocator@shdfnd@physx@@@shdfnd@2@@shdfnd@physx@@QEBAIXZ 000000018004a190 f i PhysX3ExtensionsDEBUG:ExtRigidBodyExt.obj
 0001:000491b0       ?sum@PxMassProperties@physx@@SA?AV12@PEBV12@PEBVPxTransform@2@I@Z 000000018004a1b0 f i PhysX3ExtensionsDEBUG:ExtRigidBodyExt.obj
 0001:00049820       ?transform@InertiaTensorComputer@Ext@physx@@QEAAXAEBVPxTransform@3@@Z 000000018004a820 f i PhysX3ExtensionsDEBUG:ExtRigidBodyExt.obj
 0001:00049880       ?transformFast@PxBounds3@physx@@SA?AV12@AEBVPxTransform@2@AEBV12@@Z 000000018004a880 f i PhysX3ExtensionsDEBUG:ExtRigidBodyExt.obj
 0001:000499c0       ?transformInertiaTensor@Cm@physx@@YAXAEBVPxVec3@2@AEBVPxMat33@2@AEAV42@@Z 000000018004a9c0 f i PhysX3ExtensionsDEBUG:ExtRigidBodyExt.obj
 0001:0004a1f0       ?translateInertia@PxMassProperties@physx@@SA?AVPxMat33@2@AEBV32@MAEBVPxVec3@2@@Z 000000018004b1f0 f i PhysX3ExtensionsDEBUG:ExtRigidBodyExt.obj
 0001:0004a5e0       ?volume@Ext@physx@@YAMAEBVPxVec3@2@@Z 000000018004b5e0 f i PhysX3ExtensionsDEBUG:ExtRigidBodyExt.obj
 0001:0004a690       ?zero@InertiaTensorComputer@Ext@physx@@QEAAXXZ 000000018004b690 f i PhysX3ExtensionsDEBUG:ExtRigidBodyExt.obj
 0001:0004a6f6       ?PxGetAssertHandler@physx@@YAAEAVPxAssertHandler@1@XZ 000000018004b6f6 f   PxFoundationDEBUG_x64:PxFoundationDEBUG_x64.dll
 0001:0004a6fc       ?getAllocator@shdfnd@physx@@YAAEAVPxAllocatorCallback@2@XZ 000000018004b6fc f   PxFoundationDEBUG_x64:PxFoundationDEBUG_x64.dll
 0001:0004a702       ??0NamedAllocator@shdfnd@physx@@QEAA@PEBD@Z 000000018004b702 f   PxFoundationDEBUG_x64:PxFoundationDEBUG_x64.dll
 0001:0004a708       ?lock@MutexImpl@shdfnd@physx@@QEAAXXZ 000000018004b708 f   PxFoundationDEBUG_x64:PxFoundationDEBUG_x64.dll
 0001:0004a70e       ?unlock@MutexImpl@shdfnd@physx@@QEAAXXZ 000000018004b70e f   PxFoundationDEBUG_x64:PxFoundationDEBUG_x64.dll
 0001:0004a714       PxGetProfilerCallback      000000018004b714 f   PxFoundationDEBUG_x64:PxFoundationDEBUG_x64.dll
 0001:0004a71a       ??0NamedAllocator@shdfnd@physx@@QEAA@AEBV012@@Z 000000018004b71a f   PxFoundationDEBUG_x64:PxFoundationDEBUG_x64.dll
 0001:0004a720       ??1NamedAllocator@shdfnd@physx@@QEAA@XZ 000000018004b720 f   PxFoundationDEBUG_x64:PxFoundationDEBUG_x64.dll
 0001:0004a726       ?allocate@NamedAllocator@shdfnd@physx@@QEAAPEAX_KPEBDH@Z 000000018004b726 f   PxFoundationDEBUG_x64:PxFoundationDEBUG_x64.dll
 0001:0004a72c       ?deallocate@NamedAllocator@shdfnd@physx@@QEAAXPEAX@Z 000000018004b72c f   PxFoundationDEBUG_x64:PxFoundationDEBUG_x64.dll
 0001:0004a732       PxGetFoundation            000000018004b732 f   PxFoundationDEBUG_x64:PxFoundationDEBUG_x64.dll
 0001:0004a738       ??0MutexImpl@shdfnd@physx@@QEAA@XZ 000000018004b738 f   PxFoundationDEBUG_x64:PxFoundationDEBUG_x64.dll
 0001:0004a73e       ??1MutexImpl@shdfnd@physx@@QEAA@XZ 000000018004b73e f   PxFoundationDEBUG_x64:PxFoundationDEBUG_x64.dll
 0001:0004a744       ?getSize@MutexImpl@shdfnd@physx@@SAIXZ 000000018004b744 f   PxFoundationDEBUG_x64:PxFoundationDEBUG_x64.dll
 0001:0004a74a       ?getInstance@Foundation@shdfnd@physx@@SAAEAV123@XZ 000000018004b74a f   PxFoundationDEBUG_x64:PxFoundationDEBUG_x64.dll
 0001:0004a750       ?incRefCount@Foundation@shdfnd@physx@@SAXXZ 000000018004b750 f   PxFoundationDEBUG_x64:PxFoundationDEBUG_x64.dll
 0001:0004a756       ?decRefCount@Foundation@shdfnd@physx@@SAXXZ 000000018004b756 f   PxFoundationDEBUG_x64:PxFoundationDEBUG_x64.dll
 0001:0004a75c       ?error@Foundation@shdfnd@physx@@QEAAXW4Enum@PxErrorCode@3@PEBDH1ZZ 000000018004b75c f   PxFoundationDEBUG_x64:PxFoundationDEBUG_x64.dll
 0001:0004a762       ?PxShortestRotation@physx@@YA?AVPxQuat@1@AEBVPxVec3@1@0@Z 000000018004b762 f   PxFoundationDEBUG_x64:PxFoundationDEBUG_x64.dll
 0001:0004a768       ?PxDiagonalize@physx@@YA?AVPxVec3@1@AEBVPxMat33@1@AEAVPxQuat@1@@Z 000000018004b768 f   PxFoundationDEBUG_x64:PxFoundationDEBUG_x64.dll
 0001:0004a76e       ?sweep@PxMeshQuery@physx@@SA_NAEBVPxVec3@2@MAEBVPxGeometry@2@AEBVPxTransform@2@IPEBVPxTriangle@2@AEAUPxSweepHit@2@V?$PxFlags@W4Enum@PxHitFlag@physx@@G@2@PEBIM_N@Z 000000018004b76e f   PhysX3CommonDEBUG_x64:PhysX3CommonDEBUG_x64.dll
 0001:0004a774       ??0RenderOutput@Cm@physx@@QEAA@AEAVRenderBuffer@12@@Z 000000018004b774 f   PhysX3CommonDEBUG_x64:PhysX3CommonDEBUG_x64.dll
 0001:0004a77a       ??6RenderOutput@Cm@physx@@QEAAAEAV012@I@Z 000000018004b77a f   PhysX3CommonDEBUG_x64:PhysX3CommonDEBUG_x64.dll
 0001:0004a780       ??6RenderOutput@Cm@physx@@QEAAAEAV012@AEBVPxTransform@2@@Z 000000018004b780 f   PhysX3CommonDEBUG_x64:PhysX3CommonDEBUG_x64.dll
 0001:0004a786       ?outputCapsule@RenderOutput@Cm@physx@@QEAAAEAV123@MMAEBVPxMat44@3@@Z 000000018004b786 f   PhysX3CommonDEBUG_x64:PhysX3CommonDEBUG_x64.dll
 0001:0004a78c       ??6Cm@physx@@YAAEAVRenderOutput@01@AEAV201@AEBUDebugBox@01@@Z 000000018004b78c f   PhysX3CommonDEBUG_x64:PhysX3CommonDEBUG_x64.dll
 0001:0004a792       ?PxTransformFromSegment@physx@@YA?AVPxTransform@1@AEBVPxVec3@1@0PEAM@Z 000000018004b792 f   PhysX3CommonDEBUG_x64:PhysX3CommonDEBUG_x64.dll
 0001:0004a798       ?sweep@PxGeometryQuery@physx@@SA_NAEBVPxVec3@2@MAEBVPxGeometry@2@AEBVPxTransform@2@12AEAUPxSweepHit@2@V?$PxFlags@W4Enum@PxHitFlag@physx@@G@2@M@Z 000000018004b798 f   PhysX3CommonDEBUG_x64:PhysX3CommonDEBUG_x64.dll
 0001:0004a79e       ?computePenetration@PxGeometryQuery@physx@@SA_NAEAVPxVec3@2@AEAMAEBVPxGeometry@2@AEBVPxTransform@2@23@Z 000000018004b79e f   PhysX3CommonDEBUG_x64:PhysX3CommonDEBUG_x64.dll
 0001:0004a7a4       ??0Box@Gu@physx@@QEAA@AEBVPxVec3@2@0AEBVPxMat33@2@@Z 000000018004b7a4 f   PhysX3CommonDEBUG_x64:PhysX3CommonDEBUG_x64.dll
 0001:0004a7aa       ??1Box@Gu@physx@@QEAA@XZ   000000018004b7aa f   PhysX3CommonDEBUG_x64:PhysX3CommonDEBUG_x64.dll
 0001:0004a7b0       ?intersectOBBOBB@Gu@physx@@YA_NAEBVPxVec3@2@0AEBVPxMat33@2@001_N@Z 000000018004b7b0 f   PhysX3CommonDEBUG_x64:PhysX3CommonDEBUG_x64.dll
 0001:0004a7b6       ?distanceSegmentBoxSquared@Gu@physx@@YAMAEBVPxVec3@2@000AEBVPxMat33@2@PEAMPEAV32@@Z 000000018004b7b6 f   PhysX3CommonDEBUG_x64:PhysX3CommonDEBUG_x64.dll
 0001:0004a7bc       ?getTriangle@PxMeshQuery@physx@@SAXAEBVPxTriangleMeshGeometry@2@AEBVPxTransform@2@IAEAVPxTriangle@2@PEAI3@Z 000000018004b7bc f   PhysX3CommonDEBUG_x64:PhysX3CommonDEBUG_x64.dll
 0001:0004a7c2       ?getTriangle@PxMeshQuery@physx@@SAXAEBVPxHeightFieldGeometry@2@AEBVPxTransform@2@IAEAVPxTriangle@2@PEAI3@Z 000000018004b7c2 f   PhysX3CommonDEBUG_x64:PhysX3CommonDEBUG_x64.dll
 0001:0004a7c8       ??6RenderOutput@Cm@physx@@QEAAAEAV012@W4Primitive@012@@Z 000000018004b7c8 f   PhysX3CommonDEBUG_x64:PhysX3CommonDEBUG_x64.dll
 0001:0004a7ce       ??6RenderOutput@Cm@physx@@QEAAAEAV012@VPxVec3@2@@Z 000000018004b7ce f   PhysX3CommonDEBUG_x64:PhysX3CommonDEBUG_x64.dll
 0001:0004a7d4       ?intersectTriangleBox_Unsafe@Gu@physx@@YAHAEBVPxVec3@2@0000@Z 000000018004b7d4 f   PhysX3CommonDEBUG_x64:PhysX3CommonDEBUG_x64.dll
 0001:0004a7da       ?CompleteBoxPruning@Cm@physx@@YA_NPEBVPxBounds3@2@IAEAV?$Array@IVNamedAllocator@shdfnd@physx@@@shdfnd@2@AEBVAxes@Gu@2@@Z 000000018004b7da f   PhysX3CommonDEBUG_x64:PhysX3CommonDEBUG_x64.dll
 0001:0004a7e0       ?distanceSegmentSegmentSquared@Gu@physx@@YAMAEBVPxVec3@2@000PEAM1@Z 000000018004b7e0 f   PhysX3CommonDEBUG_x64:PhysX3CommonDEBUG_x64.dll
 0001:0004a7e6       ?getRaycastFuncTable@Gu@physx@@YAAEAY06Q6AIAEBVPxGeometry@2@AEBVPxTransform@2@AEBVPxVec3@2@2MV?$PxFlags@W4Enum@PxHitFlag@physx@@G@2@IPEIAUPxRaycastHit@2@@ZXZ 000000018004b7e6 f   PhysX3CommonDEBUG_x64:PhysX3CommonDEBUG_x64.dll
 0001:0004a7ec       ?findOverlapTriangleMesh@PxMeshQuery@physx@@SAIAEBVPxGeometry@2@AEBVPxTransform@2@AEBVPxTriangleMeshGeometry@2@1PEAIIIAEA_N@Z 000000018004b7ec f   PhysX3CommonDEBUG_x64:PhysX3CommonDEBUG_x64.dll
 0001:0004a7f2       ?findOverlapHeightField@PxMeshQuery@physx@@SAIAEBVPxGeometry@2@AEBVPxTransform@2@AEBVPxHeightFieldGeometry@2@1PEAIIIAEA_N@Z 000000018004b7f2 f   PhysX3CommonDEBUG_x64:PhysX3CommonDEBUG_x64.dll
 0001:0004a800       ??3@YAXPEAX_K@Z            000000018004b800 f   LIBCMTD:delete_scalar_size.obj
 0001:0004a830       ??_V@YAXPEAX_K@Z           000000018004b830 f   LIBCMTD:delete_array_size.obj
 0001:0004a860       _CRT_RTC_INIT              000000018004b860 f   LIBCMTD:init.obj
 0001:0004a870       _CRT_RTC_INITW             000000018004b870 f   LIBCMTD:init.obj
 0001:0004a880       _RTC_InitBase              000000018004b880 f   LIBCMTD:init.obj
 0001:0004a8d0       _RTC_Shutdown              000000018004b8d0 f   LIBCMTD:init.obj
 0001:0004a910       __chkstk                   000000018004b910 f   LIBCMTD:chkstk.obj
 0001:0004a910       _alloca_probe              000000018004b910 f   LIBCMTD:chkstk.obj
 0001:0004a980       ??1type_info@@UEAA@XZ      000000018004b980 f   LIBCMTD:std_type_info_static.obj
 0001:0004a9a0       ??_Etype_info@@UEAAPEAXI@Z 000000018004b9a0 f i LIBCMTD:std_type_info_static.obj
 0001:0004a9a0       ??_Gtype_info@@UEAAPEAXI@Z 000000018004b9a0 f i LIBCMTD:std_type_info_static.obj
 0001:0004a9f0       ?__scrt_initialize_type_info@@YAXXZ 000000018004b9f0 f   LIBCMTD:tncleanup.obj
 0001:0004aa10       ?__scrt_uninitialize_type_info@@YAXXZ 000000018004ba10 f   LIBCMTD:tncleanup.obj
 0001:0004af30       _CRT_INIT                  000000018004bf30 f   LIBCMTD:dll_dllmain.obj
 0001:0004af70       _DllMainCRTStartup         000000018004bf70 f   LIBCMTD:dll_dllmain.obj
 0001:0004afc0       ??3@YAXPEAX@Z              000000018004bfc0 f   LIBCMTD:delete_scalar.obj
 0001:0004aff0       ??_V@YAXPEAX@Z             000000018004bff0 f   LIBCMTD:delete_array.obj
 0001:0004b010       ?_RTC_GetErrorFunc@@YAP6AHHPEBDH00ZZPEBX@Z 000000018004c010 f   LIBCMTD:userapi.obj
 0001:0004b020       ?_RTC_GetErrorFuncW@@YAP6AHHPEB_WH00ZZPEBX@Z 000000018004c020 f   LIBCMTD:userapi.obj
 0001:0004b030       _RTC_GetErrDesc            000000018004c030 f   LIBCMTD:userapi.obj
 0001:0004b050       _RTC_NumErrors             000000018004c050 f   LIBCMTD:userapi.obj
 0001:0004b060       _RTC_SetErrorFunc          000000018004c060 f   LIBCMTD:userapi.obj
 0001:0004b080       _RTC_SetErrorFuncW         000000018004c080 f   LIBCMTD:userapi.obj
 0001:0004b0a0       _RTC_SetErrorType          000000018004c0a0 f   LIBCMTD:userapi.obj
 0001:0004b1c0       __security_init_cookie     000000018004c1c0 f   LIBCMTD:gs_support.obj
 0001:0004b260       DllMain                    000000018004c260 f   LIBCMTD:dll_dllmain_stub.obj
 0001:0004b280       __local_stdio_printf_options 000000018004c280 f i LIBCMTD:default_local_stdio_options.obj
 0001:0004b290       __local_stdio_scanf_options 000000018004c290 f i LIBCMTD:default_local_stdio_options.obj
 0001:0004b2a0       __scrt_initialize_default_local_stdio_options 000000018004c2a0 f   LIBCMTD:default_local_stdio_options.obj
 0001:0004b300       ?configure_argv@__scrt_narrow_argv_policy@@SAHXZ 000000018004c300 f i LIBCMTD:utility.obj
 0001:0004b420       ?initialize_environment@__scrt_narrow_environment_policy@@SAHXZ 000000018004c420 f i LIBCMTD:utility.obj
 0001:0004b4f0       NtCurrentTeb               000000018004c4f0 f i LIBCMTD:utility.obj
 0001:0004b500       __scrt_acquire_startup_lock 000000018004c500 f   LIBCMTD:utility.obj
 0001:0004b580       __scrt_dllmain_after_initialize_c 000000018004c580 f   LIBCMTD:utility.obj
 0001:0004b5c0       __scrt_dllmain_before_initialize_c 000000018004c5c0 f   LIBCMTD:utility.obj
 0001:0004b5f0       __scrt_dllmain_crt_thread_attach 000000018004c5f0 f   LIBCMTD:utility.obj
 0001:0004b630       __scrt_dllmain_crt_thread_detach 000000018004c630 f   LIBCMTD:utility.obj
 0001:0004b650       __scrt_dllmain_exception_filter 000000018004c650 f   LIBCMTD:utility.obj
 0001:0004b6d0       __scrt_dllmain_uninitialize_c 000000018004c6d0 f   LIBCMTD:utility.obj
 0001:0004b710       __scrt_dllmain_uninitialize_critical 000000018004c710 f   LIBCMTD:utility.obj
 0001:0004b730       __scrt_initialize_crt      000000018004c730 f   LIBCMTD:utility.obj
 0001:0004b790       __scrt_initialize_onexit_tables 000000018004c790 f   LIBCMTD:utility.obj
 0001:0004b8e0       __scrt_is_nonwritable_in_current_image 000000018004c8e0 f   LIBCMTD:utility.obj
 0001:0004b990       __scrt_release_startup_lock 000000018004c990 f   LIBCMTD:utility.obj
 0001:0004b9d0       __scrt_uninitialize_crt    000000018004c9d0 f   LIBCMTD:utility.obj
 0001:0004ba20       _onexit                    000000018004ca20 f   LIBCMTD:utility.obj
 0001:0004bac0       at_quick_exit              000000018004cac0 f   LIBCMTD:utility.obj
 0001:0004bb20       atexit                     000000018004cb20 f   LIBCMTD:utility.obj
 0001:0004bb60       __scrt_get_dyn_tls_init_callback 000000018004cb60 f   LIBCMTD:dyn_tls_init.obj
 0001:0004bb70       __crt_debugger_hook        000000018004cb70 f   LIBCMTD:utility_desktop.obj
 0001:0004bb90       __scrt_fastfail            000000018004cb90 f   LIBCMTD:utility_desktop.obj
 0001:0004bd90       __scrt_get_show_window_mode 000000018004cd90 f   LIBCMTD:utility_desktop.obj
 0001:0004be00       __scrt_initialize_mta      000000018004ce00 f   LIBCMTD:utility_desktop.obj
 0001:0004be20       __scrt_initialize_winrt    000000018004ce20 f   LIBCMTD:utility_desktop.obj
 0001:0004be30       __scrt_is_managed_app      000000018004ce30 f   LIBCMTD:utility_desktop.obj
 0001:0004bf00       __scrt_set_unhandled_exception_filter 000000018004cf00 f   LIBCMTD:utility_desktop.obj
 0001:0004bf20       __scrt_exe_initialize_mta  000000018004cf20 f   LIBCMTD:utility_desktop.obj
 0001:0004bf20       __scrt_stub_for_initialize_mta 000000018004cf20 f   LIBCMTD:utility_desktop.obj
 0001:0004bf30       __scrt_unhandled_exception_filter 000000018004cf30 f   LIBCMTD:utility_desktop.obj
 0001:0004bff0       _RTC_Initialize            000000018004cff0 f   LIBCMTD:initsect.obj
 0001:0004c050       _RTC_Terminate             000000018004d050 f   LIBCMTD:initsect.obj
 0001:0004c0b0       _guard_check_icall_nop     000000018004d0b0 f i LIBCMTD:guard_support.obj
 0001:0004c0c0       ReadNoFence64              000000018004d0c0 f i LIBCMTD:guard_support.obj
 0001:0004c0f0       ReadPointerNoFence         000000018004d0f0 f i LIBCMTD:guard_support.obj
 0001:0004c110       __castguard_check_failure_debugbreak 000000018004d110 f i LIBCMTD:guard_support.obj
 0001:0004c140       __castguard_check_failure_fastfail 000000018004d140 f i LIBCMTD:guard_support.obj
 0001:0004c170       __castguard_check_failure_nop 000000018004d170 f i LIBCMTD:guard_support.obj
 0001:0004c180       __castguard_check_failure_os_handled 000000018004d180 f i LIBCMTD:guard_support.obj
 0001:0004c280       __castguard_slow_path_check_debugbreak 000000018004d280 f i LIBCMTD:guard_support.obj
 0001:0004c2d0       __castguard_slow_path_check_fastfail 000000018004d2d0 f i LIBCMTD:guard_support.obj
 0001:0004c330       __castguard_slow_path_check_nop 000000018004d330 f i LIBCMTD:guard_support.obj
 0001:0004c350       __castguard_slow_path_check_os_handled 000000018004d350 f i LIBCMTD:guard_support.obj
 0001:0004c440       _guard_icall_checks_enforced 000000018004d440 f i LIBCMTD:guard_support.obj
 0001:0004c490       _guard_rf_checks_enforced  000000018004d490 f i LIBCMTD:guard_support.obj
 0001:0004c550       ?_RTC_AllocaFailure@@YAXPEAXPEAU_RTC_ALLOCA_NODE@@H@Z 000000018004d550 f   LIBCMTD:error.obj
 0001:0004c700       ?_RTC_Failure@@YAXPEAXH@Z  000000018004d700 f   LIBCMTD:error.obj
 0001:0004c770       ?_RTC_StackFailure@@YAXPEAXPEBD@Z 000000018004d770 f   LIBCMTD:error.obj
 0001:0004ccb0       _RTC_UninitUse             000000018004dcb0 f   LIBCMTD:error.obj
 0001:0004cdb0       _vsprintf_s_l              000000018004ddb0 f i LIBCMTD:error.obj
 0001:0004ce30       sprintf_s                  000000018004de30 f i LIBCMTD:error.obj
 0001:0004ce60       __isa_available_init       000000018004de60 f   LIBCMTD:cpu_disp.obj
 0001:0004d2f0       _get_startup_argv_mode     000000018004e2f0 f   LIBCMTD:argv_mode.obj
 0001:0004d300       __scrt_is_ucrt_dll_in_use  000000018004e300 f   LIBCMTD:ucrt_detection.obj
 0001:0004d9a0       ?_RTC_GetSrcLine@@YAHPEAEPEA_WKPEAH1K@Z 000000018004e9a0 f   LIBCMTD:pdblkup.obj
 0001:0004de60       __GSHandlerCheck           000000018004ee60 f   LIBCMTD:gshandler.obj
 0001:0004deb0       __GSHandlerCheckCommon     000000018004eeb0 f   LIBCMTD:gshandler.obj
 0001:0004e000       __security_check_cookie    000000018004f000 f   LIBCMTD:amdsecgs.obj
 0001:0004e030       __raise_securityfailure    000000018004f030 f   LIBCMTD:gs_report.obj
 0001:0004e080       __report_gsfailure         000000018004f080 f   LIBCMTD:gs_report.obj
 0001:0004e190       __report_rangecheckfailure 000000018004f190 f   LIBCMTD:gs_report.obj
 0001:0004e1b0       __report_securityfailure   000000018004f1b0 f   LIBCMTD:gs_report.obj
 0001:0004e280       __report_securityfailureEx 000000018004f280 f   LIBCMTD:gs_report.obj
 0001:0004e580       ??$__crt_interlocked_exchange_pointer@$$A6AXXZP6AXXZ@@YAP6AXXZPEDS6AXXZQ6AXXZ@Z 000000018004f580 f i libvcruntimed:purevirt.obj
 0001:0004e5a0       ??$__crt_interlocked_read_pointer@$$A6AXXZ@@YAP6AXXZPEDS6AXXZ@Z 000000018004f5a0 f i libvcruntimed:purevirt.obj
 0001:0004e5c0       ?__crt_interlocked_read_64@@YA_JPED_J@Z 000000018004f5c0 f i libvcruntimed:purevirt.obj
 0001:0004e5f0       _get_purecall_handler      000000018004f5f0 f   libvcruntimed:purevirt.obj
 0001:0004e610       _purecall                  000000018004f610 f   libvcruntimed:purevirt.obj
 0001:0004e660       _set_purecall_handler      000000018004f660 f   libvcruntimed:purevirt.obj
 0001:0004e6a0       memcpy_repmovs             000000018004f6a0 f   libvcruntimed:memcpy.obj
 0001:0004e6c0       memcpy                     000000018004f6c0 f   libvcruntimed:memcpy.obj
 0001:0004e6c0       memmove                    000000018004f6c0 f   libvcruntimed:memcpy.obj
 0001:0004eef0       memset_repstos             000000018004fef0 f   libvcruntimed:memset.obj
 0001:0004ef10       memset                     000000018004ff10 f   libvcruntimed:memset.obj
 0001:0004f3d0       ??$?RD@__crt_internal_free_policy@@QEBAXQEBD@Z 00000001800503d0 f i libvcruntimed:std_type_info.obj
 0001:0004f400       ??$?RX@__crt_internal_free_policy@@QEBAXQEBX@Z 0000000180050400 f i libvcruntimed:std_type_info.obj
 0001:0004f430       ??$__crt_interlocked_compare_exchange_pointer@$$CBDPEAD$$T@@YAPEBDPEDSEBDQEAD$$T@Z 0000000180050430 f i libvcruntimed:std_type_info.obj
 0001:0004f480       ??$__crt_interlocked_read_pointer@$$CBD@@YAPEBDPEDSEBD@Z 0000000180050480 f i libvcruntimed:std_type_info.obj
 0001:0004f4a0       ??0?$__crt_unique_heap_ptr@DU__crt_internal_free_policy@@@@QEAA@QEAD@Z 00000001800504a0 f i libvcruntimed:std_type_info.obj
 0001:0004f4d0       ??0?$__crt_unique_heap_ptr@XU__crt_internal_free_policy@@@@QEAA@QEAX@Z 00000001800504d0 f i libvcruntimed:std_type_info.obj
 0001:0004f500       ??1?$__crt_unique_heap_ptr@DU__crt_internal_free_policy@@@@QEAA@XZ 0000000180050500 f i libvcruntimed:std_type_info.obj
 0001:0004f520       ??1?$__crt_unique_heap_ptr@XU__crt_internal_free_policy@@@@QEAA@XZ 0000000180050520 f i libvcruntimed:std_type_info.obj
 0001:0004f540       ??B?$__crt_unique_heap_ptr@DU__crt_internal_free_policy@@@@QEBA_NXZ 0000000180050540 f i libvcruntimed:std_type_info.obj
 0001:0004f560       ??B?$__crt_unique_heap_ptr@XU__crt_internal_free_policy@@@@QEBA_NXZ 0000000180050560 f i libvcruntimed:std_type_info.obj
 0001:0004f610       ?detach@?$__crt_unique_heap_ptr@XU__crt_internal_free_policy@@@@QEAAPEAXXZ 0000000180050610 f i libvcruntimed:std_type_info.obj
 0001:0004f650       ?get@?$__crt_unique_heap_ptr@DU__crt_internal_free_policy@@@@QEBAPEADXZ 0000000180050650 f i libvcruntimed:std_type_info.obj
 0001:0004f670       ?get@?$__crt_unique_heap_ptr@XU__crt_internal_free_policy@@@@QEBAPEAXXZ 0000000180050670 f i libvcruntimed:std_type_info.obj
 0001:0004f690       ?is_valid@?$__crt_unique_heap_ptr@DU__crt_internal_free_policy@@@@QEBA_NXZ 0000000180050690 f i libvcruntimed:std_type_info.obj
 0001:0004f6d0       ?is_valid@?$__crt_unique_heap_ptr@XU__crt_internal_free_policy@@@@QEBA_NXZ 00000001800506d0 f i libvcruntimed:std_type_info.obj
 0001:0004f710       ?release@?$__crt_unique_heap_ptr@DU__crt_internal_free_policy@@@@QEAAXXZ 0000000180050710 f i libvcruntimed:std_type_info.obj
 0001:0004f750       ?release@?$__crt_unique_heap_ptr@XU__crt_internal_free_policy@@@@QEAAXXZ 0000000180050750 f i libvcruntimed:std_type_info.obj
 0001:0004f790       __std_type_info_compare    0000000180050790 f   libvcruntimed:std_type_info.obj
 0001:0004f7e0       __std_type_info_destroy_list 00000001800507e0 f   libvcruntimed:std_type_info.obj
 0001:0004f850       __std_type_info_hash       0000000180050850 f   libvcruntimed:std_type_info.obj
 0001:0004f930       __std_type_info_name       0000000180050930 f   libvcruntimed:std_type_info.obj
 0001:0004fc90       __C_specific_handler       0000000180050c90 f   libvcruntimed:riscchandler.obj
 0001:00050220       __vcrt_initialize          0000000180051220 f   libvcruntimed:initialization.obj
 0001:00050270       __vcrt_thread_attach       0000000180051270 f   libvcruntimed:initialization.obj
 0001:00050290       __vcrt_thread_detach       0000000180051290 f   libvcruntimed:initialization.obj
 0001:000502b0       __vcrt_uninitialize        00000001800512b0 f   libvcruntimed:initialization.obj
 0001:000502d0       __vcrt_uninitialize_critical 00000001800512d0 f   libvcruntimed:initialization.obj
 0001:00050300       __DestructExceptionObject  0000000180051300 f   libvcruntimed:ehhelpers.obj
 0001:00050440       ?_CallMemberFunction0@@YAXQEAX0@Z 0000000180051440 f i libvcruntimed:ehhelpers.obj
 0001:00050550       ?raw_name@type_info@@QEBAPEBDXZ 0000000180051550 f i libvcruntimed:ehhelpers.obj
 0001:00050570       _IsExceptionObjectToBeDestroyed 0000000180051570 f   libvcruntimed:ehhelpers.obj
 0001:000505e0       _SetWinRTOutOfMemoryExceptionCallback 00000001800515e0 f   libvcruntimed:ehhelpers.obj
 0001:00050600       __AdjustPointer            0000000180051600 f   libvcruntimed:ehhelpers.obj
 0001:000506a0       __FrameUnwindFilter        00000001800516a0 f   libvcruntimed:ehhelpers.obj
 0001:00050770       __GetPlatformExceptionInfo 0000000180051770 f   libvcruntimed:ehhelpers.obj
 0001:00050850       __current_exception        0000000180051850 f   libvcruntimed:ehhelpers.obj
 0001:00050870       __current_exception_context 0000000180051870 f   libvcruntimed:ehhelpers.obj
 0001:00050890       __processing_throw         0000000180051890 f   libvcruntimed:ehhelpers.obj
 0001:000508b0       __std_terminate            00000001800518b0 f   libvcruntimed:ehhelpers.obj
 0001:000508d0       _is_exception_typeof       00000001800518d0 f   libvcruntimed:ehhelpers.obj
 0001:00050a70       __C_specific_handler_noexcept 0000000180051a70 f   libvcruntimed:chandler_noexcept.obj
 0001:00050b20       __vcrt_GetModuleFileNameW  0000000180051b20 f   libvcruntimed:winapi_thunks.obj
 0001:00050b60       __vcrt_GetModuleHandleW    0000000180051b60 f   libvcruntimed:winapi_thunks.obj
 0001:00050b80       __vcrt_LoadLibraryExW      0000000180051b80 f   libvcruntimed:winapi_thunks.obj
 0001:00050bc0       ??$?0$00@DName@@QEAA@PEBDU?$StringLifeSelector@$00@@@Z 0000000180051bc0 f i libvcruntimed:undname.obj
 0001:00050c40       ??$?0$00@pcharNode@@QEAA@PEBDHU?$StringLifeSelector@$00@@@Z 0000000180051c40 f i libvcruntimed:undname.obj
 0001:00050cb0       ??$?0$01@DName@@QEAA@PEBDU?$StringLifeSelector@$01@@@Z 0000000180051cb0 f i libvcruntimed:undname.obj
 0001:00050d30       ??$?0$01@pcharNode@@QEAA@PEBDHU?$StringLifeSelector@$01@@@Z 0000000180051d30 f i libvcruntimed:undname.obj
 0001:00050e00       ??$?0$0A@@DName@@QEAA@PEBDU?$StringLifeSelector@$0A@@@@Z 0000000180051e00 f i libvcruntimed:undname.obj
 0001:00050e80       ??$?0$0A@@pcharNode@@QEAA@PEBDHU?$StringLifeSelector@$0A@@@@Z 0000000180051e80 f i libvcruntimed:undname.obj
 0001:00050f50       ??$?0_K$0A@@?$optional@_K@std@@QEAA@$$QEA_K@Z 0000000180051f50 f i libvcruntimed:undname.obj
 0001:00050fb0       ??$?0_K@?$_Optional_construct_base@_K@std@@QEAA@Uin_place_t@1@$$QEA_K@Z 0000000180051fb0 f i libvcruntimed:undname.obj
 0001:00050ff0       ??$?0_K@?$_Optional_destruct_base@_K$00@std@@QEAA@Uin_place_t@1@$$QEA_K@Z 0000000180051ff0 f i libvcruntimed:undname.obj
 0001:00051040       ??$append@VDNameNode@@@DName@@AEAAXPEBVDNameNode@@@Z 0000000180052040 f i libvcruntimed:undname.obj
 0001:00051120       ??$append@VDNameStatusNode@@@DName@@AEAAXPEBVDNameStatusNode@@@Z 0000000180052120 f i libvcruntimed:undname.obj
 0001:00051200       ??$append@VcharNode@@@DName@@AEAAXPEBVcharNode@@@Z 0000000180052200 f i libvcruntimed:undname.obj
 0001:000512e0       ??$append@VpDNameNode@@@DName@@AEAAXPEBVpDNameNode@@@Z 00000001800522e0 f i libvcruntimed:undname.obj
 0001:000513c0       ??$append@VpcharNode@@@DName@@AEAAXPEBVpcharNode@@@Z 00000001800523c0 f i libvcruntimed:undname.obj
 0001:000514a0       ??$doPchar@$00@DName@@AEAAXPEBDH@Z 00000001800524a0 f i libvcruntimed:undname.obj
 0001:00051660       ??$doPchar@$01@DName@@AEAAXPEBDH@Z 0000000180052660 f i libvcruntimed:undname.obj
 0001:00051820       ??$doPchar@$0A@@DName@@AEAAXPEBDH@Z 0000000180052820 f i libvcruntimed:undname.obj
 0001:000519e0       ??$forward@_K@std@@YA$$QEA_KAEA_K@Z 00000001800529e0 f i libvcruntimed:undname.obj
 0001:00051bd0       ??$size@D$04@std@@YA_KAEAY04$$CBD@Z 0000000180052bd0 f i libvcruntimed:undname.obj
 0001:00051be0       ??0?$_Optional_construct_base@_K@std@@QEAA@XZ 0000000180052be0 f i libvcruntimed:undname.obj
 0001:00051c10       ??0?$_Optional_destruct_base@_K$00@std@@QEAA@XZ 0000000180052c10 f i libvcruntimed:undname.obj
 0001:00051c50       ??0?$optional@_K@std@@QEAA@XZ 0000000180052c50 f i libvcruntimed:undname.obj
 0001:00051c80       ??0Block@_HeapManager@@QEAA@XZ 0000000180052c80 f i libvcruntimed:undname.obj
 0001:00051ca0       ??0DName@@QEAA@AEAPEBDD@Z  0000000180052ca0 f   libvcruntimed:undname.obj
 0001:00051ee0       ??0DName@@QEAA@AEBUStringLiteral@@@Z 0000000180052ee0 f   libvcruntimed:undname.obj
 0001:00051f50       ??0DName@@QEAA@AEBV0@@Z    0000000180052f50 f i libvcruntimed:undname.obj
 0001:00051f90       ??0DName@@QEAA@D@Z         0000000180052f90 f   libvcruntimed:undname.obj
 0001:00051fe0       ??0DName@@QEAA@PEAV0@@Z    0000000180052fe0 f   libvcruntimed:undname.obj
 0001:00052100       ??0DName@@QEAA@W4DNameStatus@@@Z 0000000180053100 f   libvcruntimed:undname.obj
 0001:000521e0       ??0DName@@QEAA@XZ          00000001800531e0 f i libvcruntimed:undname.obj
 0001:00052210       ??0DName@@QEAA@_J@Z        0000000180053210 f   libvcruntimed:undname.obj
 0001:00052360       ??0DName@@QEAA@_K@Z        0000000180053360 f   libvcruntimed:undname.obj
 0001:00052470       ??0DNameNode@@IEAA@XZ      0000000180053470 f i libvcruntimed:undname.obj
 0001:00052490       ??0Replicator@@QEAA@XZ     0000000180053490 f i libvcruntimed:undname.obj
 0001:000524d0       ??0UnDecorator@@QEAA@PEBDP6APEADJ@ZK@Z 00000001800534d0 f i libvcruntimed:undname.obj
 0001:000525a0       ??0_Nontrivial_dummy_type@std@@QEAA@XZ 00000001800535a0 f i libvcruntimed:undname.obj
 0001:000525b0       ??0charNode@@QEAA@D@Z      00000001800535b0 f i libvcruntimed:undname.obj
 0001:00052600       ??0pDNameNode@@QEAA@PEAVDName@@@Z 0000000180053600 f   libvcruntimed:undname.obj
 0001:000526a0       ??0pairNode@@QEAA@PEBVDNameNode@@0@Z 00000001800536a0 f i libvcruntimed:undname.obj
 0001:00052740       ??2@YAPEAX_KAEAV_HeapManager@@H@Z 0000000180053740 f   libvcruntimed:undname.obj
 0001:000527c0       ??4DName@@QEAAAEAV0@AEBUStringLiteral@@@Z 00000001800537c0 f   libvcruntimed:undname.obj
 0001:00052820       ??4DName@@QEAAAEAV0@AEBV0@@Z 0000000180053820 f   libvcruntimed:undname.obj
 0001:00052860       ??4DName@@QEAAAEAV0@D@Z    0000000180053860 f i libvcruntimed:undname.obj
 0001:000528b0       ??4DName@@QEAAAEAV0@PEAV0@@Z 00000001800538b0 f   libvcruntimed:undname.obj
 0001:000529b0       ??4DName@@QEAAAEAV0@W4DNameStatus@@@Z 00000001800539b0 f   libvcruntimed:undname.obj
 0001:00052a70       ??AReplicator@@QEBA?AVDName@@H@Z 0000000180053a70 f   libvcruntimed:undname.obj
 0001:00052b20       ??B?$optional@_K@std@@QEBA_NXZ 0000000180053b20 f i libvcruntimed:undname.obj
 0001:00052b40       ??D?$_Optional_construct_base@_K@std@@QEGAAAEA_KXZ 0000000180053b40 f i libvcruntimed:undname.obj
 0001:00052c00       ??H@YA?AVDName@@AEBUStringLiteral@@AEBV0@@Z 0000000180053c00 f i libvcruntimed:undname.obj
 0001:00052c60       ??H@YA?AVDName@@DAEBV0@@Z  0000000180053c60 f i libvcruntimed:undname.obj
 0001:00052cc0       ??H@YA?AVDName@@W4DNameStatus@@AEBV0@@Z 0000000180053cc0 f i libvcruntimed:undname.obj
 0001:00052d20       ??HDName@@QEBA?AV0@AEBUStringLiteral@@@Z 0000000180053d20 f   libvcruntimed:undname.obj
 0001:00052d80       ??HDName@@QEBA?AV0@AEBV0@@Z 0000000180053d80 f   libvcruntimed:undname.obj
 0001:00052de0       ??HDName@@QEBA?AV0@D@Z     0000000180053de0 f   libvcruntimed:undname.obj
 0001:00052e40       ??HDName@@QEBA?AV0@PEAV0@@Z 0000000180053e40 f   libvcruntimed:undname.obj
 0001:00052ea0       ??HDName@@QEBA?AV0@W4DNameStatus@@@Z 0000000180053ea0 f   libvcruntimed:undname.obj
 0001:00052f00       ??HStringLiteral@@QEBA?AU0@H@Z 0000000180053f00 f i libvcruntimed:undname.obj
 0001:00052f50       ??YDName@@QEAAAEAV0@AEBUStringLiteral@@@Z 0000000180053f50 f   libvcruntimed:undname.obj
 0001:00053050       ??YDName@@QEAAAEAV0@AEBV0@@Z 0000000180054050 f   libvcruntimed:undname.obj
 0001:00053140       ??YDName@@QEAAAEAV0@D@Z    0000000180054140 f   libvcruntimed:undname.obj
 0001:00053210       ??YDName@@QEAAAEAV0@PEAV0@@Z 0000000180054210 f   libvcruntimed:undname.obj
 0001:00053330       ??YDName@@QEAAAEAV0@W4DNameStatus@@@Z 0000000180054330 f   libvcruntimed:undname.obj
 0001:000533c0       ??YReplicator@@QEAAAEAV0@AEBVDName@@@Z 00000001800543c0 f   libvcruntimed:undname.obj
 0001:000534b0       ??_5DName@@QEAAAEAV0@AEBV0@@Z 00000001800544b0 f   libvcruntimed:undname.obj
 0001:00053530       ??__K_l@@YA?AUStringLiteral@@PEBD_K@Z 0000000180054530 f i libvcruntimed:undname.obj
 0001:00053590       ?Constructor@_HeapManager@@QEAAXP6APEAX_K@ZP6AXPEAX@Z@Z 0000000180054590 f i libvcruntimed:undname.obj
 0001:00053600       ?Destructor@_HeapManager@@QEAAXXZ 0000000180054600 f i libvcruntimed:undname.obj
 0001:000536c0       ?UScore@UnDecorator@@SA?AUStringLiteral@@W4Tokens@@@Z 00000001800546c0 f   libvcruntimed:undname.obj
 0001:00053770       ?composeDeclaration@UnDecorator@@CA?AVDName@@AEBV2@@Z 0000000180054770 f i libvcruntimed:undname.obj
 0001:000565b0       ?dbGetString@DName@@QEBAPEADXZ 00000001800575b0 f   libvcruntimed:undname.obj
 0001:000565f0       ?doAccessSpecifiers@UnDecorator@@SAHXZ 00000001800575f0 f i libvcruntimed:undname.obj
 0001:00056630       ?doAllocationLanguage@UnDecorator@@SAHXZ 0000000180057630 f i libvcruntimed:undname.obj
 0001:00056670       ?doAllocationModel@UnDecorator@@SAHXZ 0000000180057670 f i libvcruntimed:undname.obj
 0001:000566b0       ?doEcsu@UnDecorator@@SAHXZ 00000001800576b0 f i libvcruntimed:undname.obj
 0001:000566f0       ?doEllipsis@UnDecorator@@SAHXZ 00000001800576f0 f i libvcruntimed:undname.obj
 0001:00056730       ?doFunctionReturns@UnDecorator@@SAHXZ 0000000180057730 f i libvcruntimed:undname.obj
 0001:00056770       ?doMSKeywords@UnDecorator@@SAHXZ 0000000180057770 f i libvcruntimed:undname.obj
 0001:000567b0       ?doMemberTypes@UnDecorator@@SAHXZ 00000001800577b0 f i libvcruntimed:undname.obj
 0001:000567f0       ?doNameOnly@UnDecorator@@SAHXZ 00000001800577f0 f i libvcruntimed:undname.obj
 0001:00056800       ?doNoIdentCharCheck@UnDecorator@@SAHXZ 0000000180057800 f i libvcruntimed:undname.obj
 0001:00056810       ?doPchar@DName@@AEAAXD@Z   0000000180057810 f   libvcruntimed:undname.obj
 0001:000568c0       ?doPtr64@UnDecorator@@SAHXZ 00000001800578c0 f i libvcruntimed:undname.obj
 0001:00056900       ?doRestrictionSpec@UnDecorator@@SAHXZ 0000000180057900 f i libvcruntimed:undname.obj
 0001:00056940       ?doThisTypes@UnDecorator@@SAHXZ 0000000180057940 f i libvcruntimed:undname.obj
 0001:00056980       ?doThrowTypes@UnDecorator@@SAHXZ 0000000180057980 f i libvcruntimed:undname.obj
 0001:000569c0       ?doTypeOnly@UnDecorator@@SAHXZ 00000001800579c0 f i libvcruntimed:undname.obj
 0001:000569d0       ?doUnderScore@UnDecorator@@SAHXZ 00000001800579d0 f i libvcruntimed:undname.obj
 0001:00056a10       ?getAddressOf@UnDecorator@@CA?AVDName@@XZ 0000000180057a10 f   libvcruntimed:undname.obj
 0001:00056ae0       ?getArgumentList@UnDecorator@@CA?AVDName@@XZ 0000000180057ae0 f   libvcruntimed:undname.obj
 0001:00056ce0       ?getArgumentTypes@UnDecorator@@CA?AVDName@@XZ 0000000180057ce0 f   libvcruntimed:undname.obj
 0001:00057070       ?getArrayAccess@UnDecorator@@CA?AVDName@@XZ 0000000180058070 f   libvcruntimed:undname.obj
 0001:00057160       ?getArrayObject@UnDecorator@@CA?AVDName@@XZ 0000000180058160 f   libvcruntimed:undname.obj
 0001:000572c0       ?getArrayType@UnDecorator@@CA?AVDName@@AEBV2@@Z 00000001800582c0 f i libvcruntimed:undname.obj
 0001:00057770       ?getBasedType@UnDecorator@@CA?AVDName@@XZ 0000000180058770 f   libvcruntimed:undname.obj
 0001:00057940       ?getBasicDataType@UnDecorator@@CA?AVDName@@AEBV2@@Z 0000000180058940 f   libvcruntimed:undname.obj
 0001:00058ad0       ?getCHPEName@UnDecorator@@QEAAPEADPEADH@Z 0000000180059ad0 f i libvcruntimed:undname.obj
 0001:00058d10       ?getCallIndex@UnDecorator@@CA?AVDName@@XZ 0000000180059d10 f i libvcruntimed:undname.obj
 0001:00058d40       ?getCallingConvention@UnDecorator@@CA?AVDName@@XZ 0000000180059d40 f   libvcruntimed:undname.obj
 0001:00059220       ?getDataIndirectType@UnDecorator@@CA?AVDName@@AEBV2@W4IndirectionKind@@0H@Z 000000018005a220 f   libvcruntimed:undname.obj
 0001:0005a1e0       ?getDataIndirectType@UnDecorator@@CA?AVDName@@XZ 000000018005b1e0 f i libvcruntimed:undname.obj
 0001:0005a250       ?getDataType@UnDecorator@@CA?AVDName@@PEAV2@@Z 000000018005b250 f   libvcruntimed:undname.obj
 0001:0005a4a0       ?getDecoratedName@UnDecorator@@CA?AVDName@@XZ 000000018005b4a0 f   libvcruntimed:undname.obj
 0001:0005aad0       ?getDimension@UnDecorator@@CA?AVDName@@_N@Z 000000018005bad0 f   libvcruntimed:undname.obj
 0001:0005aea0       ?getDispatchTarget@UnDecorator@@CA?AVDName@@XZ 000000018005bea0 f   libvcruntimed:undname.obj
 0001:0005afa0       ?getDisplacement@UnDecorator@@CA?AVDName@@XZ 000000018005bfa0 f i libvcruntimed:undname.obj
 0001:0005afd0       ?getECSUDataType@UnDecorator@@CA?AVDName@@XZ 000000018005bfd0 f   libvcruntimed:undname.obj
 0001:0005b450       ?getECSUName@UnDecorator@@CA?AVDName@@XZ 000000018005c450 f i libvcruntimed:undname.obj
 0001:0005b480       ?getEnumType@UnDecorator@@CA?AVDName@@XZ 000000018005c480 f i libvcruntimed:undname.obj
 0001:0005b7b0       ?getExtendedDataIndirectType@UnDecorator@@CA?AVDName@@AEAW4IndirectionKind@@AEA_NH@Z 000000018005c7b0 f   libvcruntimed:undname.obj
 0001:0005bb90       ?getExternalDataType@UnDecorator@@CA?AVDName@@AEBV2@@Z 000000018005cb90 f i libvcruntimed:undname.obj
 0001:0005bca0       ?getFloatingPoint@UnDecorator@@CA?AVDName@@H@Z 000000018005cca0 f   libvcruntimed:undname.obj
 0001:0005be90       ?getFunctionIndirectType@UnDecorator@@CA?AVDName@@AEBV2@@Z 000000018005ce90 f   libvcruntimed:undname.obj
 0001:0005c650       ?getGuardNumber@UnDecorator@@CA?AVDName@@XZ 000000018005d650 f i libvcruntimed:undname.obj
 0001:0005c680       ?getLastChar@DName@@QEBADXZ 000000018005d680 f i libvcruntimed:undname.obj
 0001:0005c6e0       ?getLastChar@DNameStatusNode@@UEBADXZ 000000018005d6e0 f i libvcruntimed:undname.obj
 0001:0005c730       ?getLastChar@charNode@@UEBADXZ 000000018005d730 f i libvcruntimed:undname.obj
 0001:0005c750       ?getLastChar@pDNameNode@@UEBADXZ 000000018005d750 f i libvcruntimed:undname.obj
 0001:0005c7a0       ?getLastChar@pairNode@@UEBADXZ 000000018005d7a0 f i libvcruntimed:undname.obj
 0001:0005c840       ?getLastChar@pcharNode@@UEBADXZ 000000018005d840 f i libvcruntimed:undname.obj
 0001:0005c890       ?getLexicalFrame@UnDecorator@@CA?AVDName@@XZ 000000018005d890 f i libvcruntimed:undname.obj
 0001:0005c8f0       ?getMemberAccess@UnDecorator@@CA?AVDName@@XZ 000000018005d8f0 f   libvcruntimed:undname.obj
 0001:0005c9d0       ?getMemoryWithBuffer@_HeapManager@@QEAAPEAX_K@Z 000000018005d9d0 f   libvcruntimed:undname.obj
 0001:0005cb70       ?getMemoryWithoutBuffer@_HeapManager@@QEAAPEAX_K@Z 000000018005db70 f   libvcruntimed:undname.obj
 0001:0005cbd0       ?getNoexcept@UnDecorator@@CA?AVDName@@XZ 000000018005dbd0 f   libvcruntimed:undname.obj
 0001:0005ccb0       ?getNumberOfDimensions@UnDecorator@@CAHXZ 000000018005dcb0 f   libvcruntimed:undname.obj
 0001:0005ce20       ?getOperatorName@UnDecorator@@CA?AVDName@@_NPEA_N@Z 000000018005de20 f i libvcruntimed:undname.obj
 0001:0005e200       ?getPointerToMember@UnDecorator@@CA?AVDName@@XZ 000000018005f200 f   libvcruntimed:undname.obj
 0001:0005e3a0       ?getPointerType@UnDecorator@@CA?AVDName@@AEBV2@0@Z 000000018005f3a0 f i libvcruntimed:undname.obj
 0001:0005e3f0       ?getPointerTypeArray@UnDecorator@@CA?AVDName@@AEBV2@0@Z 000000018005f3f0 f i libvcruntimed:undname.obj
 0001:0005e440       ?getPrimaryDataType@UnDecorator@@CA?AVDName@@AEBV2@@Z 000000018005f440 f   libvcruntimed:undname.obj
 0001:0005ebf0       ?getPtrRefDataType@UnDecorator@@CA?AVDName@@AEBV2@H@Z 000000018005fbf0 f   libvcruntimed:undname.obj
 0001:0005f0e0       ?getPtrRefType@UnDecorator@@CA?AVDName@@AEBV2@0W4IndirectionKind@@@Z 00000001800600e0 f   libvcruntimed:undname.obj
 0001:0005f3a0       ?getReferenceType@UnDecorator@@CA?AVDName@@AEBV2@0W4IndirectionKind@@@Z 00000001800603a0 f i libvcruntimed:undname.obj
 0001:0005f3f0       ?getRestrictionSpec@UnDecorator@@CA?AVDName@@XZ 00000001800603f0 f   libvcruntimed:undname.obj
 0001:0005f720       ?getReturnType@UnDecorator@@CA?AVDName@@PEAV2@@Z 0000000180060720 f   libvcruntimed:undname.obj
 0001:0005f7a0       ?getScope@UnDecorator@@CA?AVDName@@XZ 00000001800607a0 f   libvcruntimed:undname.obj
 0001:000600d0       ?getScopedName@UnDecorator@@CA?AVDName@@XZ 00000001800610d0 f   libvcruntimed:undname.obj
 0001:00060350       ?getSignedDimension@UnDecorator@@CA?AVDName@@XZ 0000000180061350 f   libvcruntimed:undname.obj
 0001:00060400       ?getStorageConvention@UnDecorator@@CA?AVDName@@XZ 0000000180061400 f i libvcruntimed:undname.obj
 0001:00060430       ?getString@DName@@QEBAPEADPEAD0@Z 0000000180061430 f i libvcruntimed:undname.obj
 0001:000604c0       ?getString@DName@@QEBAPEADPEADH@Z 00000001800614c0 f i libvcruntimed:undname.obj
 0001:000605a0       ?getString@DNameStatusNode@@UEBAPEADPEAD0@Z 00000001800615a0 f i libvcruntimed:undname.obj
 0001:00060600       ?getString@charNode@@UEBAPEADPEAD0@Z 0000000180061600 f i libvcruntimed:undname.obj
 0001:00060650       ?getString@pDNameNode@@UEBAPEADPEAD0@Z 0000000180061650 f i libvcruntimed:undname.obj
 0001:000606d0       ?getString@pairNode@@UEBAPEADPEAD0@Z 00000001800616d0 f i libvcruntimed:undname.obj
 0001:000607d0       ?getString@pcharNode@@UEBAPEADPEAD0@Z 00000001800617d0 f i libvcruntimed:undname.obj
 0001:00060820       ?getStringEncoding@UnDecorator@@CA?AVDName@@W4PrefixKind@@H@Z 0000000180061820 f   libvcruntimed:undname.obj
 0001:000609d0       ?getStringHelper@@YAPEADPEADPEBD1H@Z 00000001800619d0 f i libvcruntimed:undname.obj
 0001:00060a50       ?getStringObject@UnDecorator@@CA?AVDName@@XZ 0000000180061a50 f   libvcruntimed:undname.obj
 0001:00060b60       ?getSymbolName@UnDecorator@@CA?AVDName@@XZ 0000000180061b60 f i libvcruntimed:undname.obj
 0001:00060c20       ?getTemplateArgumentList@UnDecorator@@CA?AVDName@@XZ 0000000180061c20 f   libvcruntimed:undname.obj
 0001:00061030       ?getTemplateName@UnDecorator@@CA?AVDName@@_N@Z 0000000180062030 f   libvcruntimed:undname.obj
 0001:000612f0       ?getTemplateNonTypeArgument@UnDecorator@@CA?AVDName@@XZ 00000001800622f0 f   libvcruntimed:undname.obj
 0001:00061dc0       ?getTemplateTypeArgument@UnDecorator@@CA?AVDName@@XZ 0000000180062dc0 f   libvcruntimed:undname.obj
 0001:000620f0       ?getThisType@UnDecorator@@CA?AVDName@@XZ 00000001800630f0 f i libvcruntimed:undname.obj
 0001:00062160       ?getThrowTypes@UnDecorator@@CA?AVDName@@XZ 0000000180063160 f   libvcruntimed:undname.obj
 0001:000621d0       ?getTypeEncoding@UnDecorator@@CAHXZ 00000001800631d0 f i libvcruntimed:undname.obj
 0001:00063140       ?getUndecoratedName@UnDecorator@@QEAAPEADPEADH@Z 0000000180064140 f i libvcruntimed:undname.obj
 0001:000633b0       ?getUnionObject@UnDecorator@@CA?AVDName@@XZ 00000001800643b0 f   libvcruntimed:undname.obj
 0001:00063500       ?getVCallThunkType@UnDecorator@@CA?AVDName@@XZ 0000000180064500 f i libvcruntimed:undname.obj
 0001:000635e0       ?getValue@UnDecorator@@CA?AV?$optional@_K@std@@XZ 00000001800645e0 f   libvcruntimed:undname.obj
 0001:000636e0       ?getValueObject@UnDecorator@@CA?AVDName@@XZ 00000001800646e0 f   libvcruntimed:undname.obj
 0001:00063980       ?getVbTableType@UnDecorator@@CA?AVDName@@AEBV2@@Z 0000000180064980 f i libvcruntimed:undname.obj
 0001:000639b0       ?getVdispMapType@UnDecorator@@CA?AVDName@@AEBV2@@Z 00000001800649b0 f i libvcruntimed:undname.obj
 0001:00063aa0       ?getVfTableType@UnDecorator@@CA?AVDName@@AEBV2@@Z 0000000180064aa0 f i libvcruntimed:undname.obj
 0001:00063df0       ?getZName@UnDecorator@@CA?AVDName@@_N0@Z 0000000180064df0 f   libvcruntimed:undname.obj
 0001:00064390       ?haveTemplateParameters@UnDecorator@@SAHXZ 0000000180065390 f i libvcruntimed:undname.obj
 0001:000643a0       ?isArray@DName@@QEBAHXZ    00000001800653a0 f i libvcruntimed:undname.obj
 0001:000643c0       ?isComArray@DName@@QEBAHXZ 00000001800653c0 f i libvcruntimed:undname.obj
 0001:000643e0       ?isEmpty@DName@@QEBAHXZ    00000001800653e0 f i libvcruntimed:undname.obj
 0001:00064420       ?isFull@Replicator@@QEBAHXZ 0000000180065420 f i libvcruntimed:undname.obj
 0001:00064460       ?isNoTE@DName@@QEBAHXZ     0000000180065460 f i libvcruntimed:undname.obj
 0001:00064480       ?isPinPtr@DName@@QEBAHXZ   0000000180065480 f i libvcruntimed:undname.obj
 0001:000644a0       ?isPtrRef@DName@@QEBAHXZ   00000001800654a0 f i libvcruntimed:undname.obj
 0001:000644c0       ?isUDC@DName@@QEBAHXZ      00000001800654c0 f i libvcruntimed:undname.obj
 0001:00064520       ?isUDTThunk@DName@@QEBAHXZ 0000000180065520 f i libvcruntimed:undname.obj
 0001:00064580       ?isVCallThunk@DName@@QEBAHXZ 0000000180065580 f i libvcruntimed:undname.obj
 0001:000645a0       ?isValid@DName@@QEBAHXZ    00000001800655a0 f i libvcruntimed:undname.obj
 0001:000645f0       ?length@DName@@QEBAHXZ     00000001800655f0 f i libvcruntimed:undname.obj
 0001:00064650       ?length@DNameStatusNode@@UEBAHXZ 0000000180065650 f i libvcruntimed:undname.obj
 0001:00064670       ?length@charNode@@UEBAHXZ  0000000180065670 f i libvcruntimed:undname.obj
 0001:00064680       ?length@pDNameNode@@UEBAHXZ 0000000180065680 f i libvcruntimed:undname.obj
 0001:000646d0       ?length@pairNode@@UEBAHXZ  00000001800656d0 f i libvcruntimed:undname.obj
 0001:00064780       ?length@pcharNode@@UEBAHXZ 0000000180065780 f i libvcruntimed:undname.obj
 0001:000647a0       ?make@DNameStatusNode@@SAPEBV1@W4DNameStatus@@@Z 00000001800657a0 f i libvcruntimed:undname.obj
 0001:00064800       ?parseDecoratedName@UnDecorator@@CA?AVDName@@XZ 0000000180065800 f   libvcruntimed:undname.obj
 0001:00064a70       ?raw_length@DNameStatusNode@@UEBAHXZ 0000000180065a70 f i libvcruntimed:undname.obj
 0001:00064a90       ?raw_length@charNode@@UEBAHXZ 0000000180065a90 f i libvcruntimed:undname.obj
 0001:00064ab0       ?raw_length@pDNameNode@@UEBAHXZ 0000000180065ab0 f i libvcruntimed:undname.obj
 0001:00064ac0       ?raw_length@pairNode@@UEBAHXZ 0000000180065ac0 f i libvcruntimed:undname.obj
 0001:00064ae0       ?raw_length@pcharNode@@UEBAHXZ 0000000180065ae0 f i libvcruntimed:undname.obj
 0001:00064b00       ?setIsArray@DName@@QEAAXXZ 0000000180065b00 f i libvcruntimed:undname.obj
 0001:00064b20       ?setIsComArray@DName@@QEAAXXZ 0000000180065b20 f i libvcruntimed:undname.obj
 0001:00064b40       ?setIsNoTE@DName@@QEAAXXZ  0000000180065b40 f i libvcruntimed:undname.obj
 0001:00064b60       ?setIsPinPtr@DName@@QEAAXXZ 0000000180065b60 f i libvcruntimed:undname.obj
 0001:00064b80       ?setIsUDC@DName@@QEAAXXZ   0000000180065b80 f i libvcruntimed:undname.obj
 0001:00064bc0       ?setIsVCallThunk@DName@@QEAAXXZ 0000000180065bc0 f i libvcruntimed:undname.obj
 0001:00064be0       ?setPtrRef@DName@@QEAAAEAV1@XZ 0000000180065be0 f i libvcruntimed:undname.obj
 0001:00064c10       ?status@DName@@QEBA?AW4DNameStatus@@XZ 0000000180065c10 f i libvcruntimed:undname.obj
 0001:00064d80       __unDName                  0000000180065d80 f   libvcruntimed:undname.obj
 0001:00064df0       __unDNameEx                0000000180065df0 f   libvcruntimed:undname.obj
 0001:00064ee0       snprintf                   0000000180065ee0 f i libvcruntimed:undname.obj
 0001:00064f50       unDNameGenerateCHPE        0000000180065f50 f   libvcruntimed:undname.obj
 0001:00065020       vsnprintf                  0000000180066020 f i libvcruntimed:undname.obj
 0001:000650d0       _NLG_Notify                00000001800660d0 f   libvcruntimed:notify.obj
 0001:000650f0       __NLG_Dispatch2            00000001800660f0 f   libvcruntimed:notify.obj
 0001:00065100       __NLG_Return2              0000000180066100 f   libvcruntimed:notify.obj
 0001:00065140       __except_validate_context_record 0000000180066140 f   libvcruntimed:jbcxrval.obj
 0001:000651b0       __except_validate_jump_buffer 00000001800661b0 f   libvcruntimed:jbcxrval.obj
 0001:000651e0       __except_validate_jump_buffer_common 00000001800661e0 f i libvcruntimed:jbcxrval.obj
 0001:00065280       ??$?RU__vcrt_ptd@@@__crt_internal_free_policy@@QEBAXQEBU__vcrt_ptd@@@Z 0000000180066280 f i libvcruntimed:per_thread_data.obj
 0001:000652b0       ??0?$__crt_unique_heap_ptr@U__vcrt_ptd@@U__crt_internal_free_policy@@@@QEAA@QEAU__vcrt_ptd@@@Z 00000001800662b0 f i libvcruntimed:per_thread_data.obj
 0001:00065310       ??1?$__crt_unique_heap_ptr@U__vcrt_ptd@@U__crt_internal_free_policy@@@@QEAA@XZ 0000000180066310 f i libvcruntimed:per_thread_data.obj
 0001:00065360       ??B?$__crt_unique_heap_ptr@U__vcrt_ptd@@U__crt_internal_free_policy@@@@QEBA_NXZ 0000000180066360 f i libvcruntimed:per_thread_data.obj
 0001:00065380       ?detach@?$__crt_unique_heap_ptr@U__vcrt_ptd@@U__crt_internal_free_policy@@@@QEAAPEAU__vcrt_ptd@@XZ 0000000180066380 f i libvcruntimed:per_thread_data.obj
 0001:000653c0       ?get@?$__crt_unique_heap_ptr@U__vcrt_ptd@@U__crt_internal_free_policy@@@@QEBAPEAU__vcrt_ptd@@XZ 00000001800663c0 f i libvcruntimed:per_thread_data.obj
 0001:000653e0       ?is_valid@?$__crt_unique_heap_ptr@U__vcrt_ptd@@U__crt_internal_free_policy@@@@QEBA_NXZ 00000001800663e0 f i libvcruntimed:per_thread_data.obj
 0001:00065420       ?release@?$__crt_unique_heap_ptr@U__vcrt_ptd@@U__crt_internal_free_policy@@@@QEAAXXZ 0000000180066420 f i libvcruntimed:per_thread_data.obj
 0001:000654b0       __vcrt_freefls             00000001800664b0 f   libvcruntimed:per_thread_data.obj
 0001:00065500       __vcrt_freeptd             0000000180066500 f   libvcruntimed:per_thread_data.obj
 0001:00065580       __vcrt_getptd              0000000180066580 f   libvcruntimed:per_thread_data.obj
 0001:000655b0       __vcrt_getptd_noexit       00000001800665b0 f   libvcruntimed:per_thread_data.obj
 0001:000657c0       __vcrt_getptd_noinit       00000001800667c0 f   libvcruntimed:per_thread_data.obj
 0001:00065840       __vcrt_initialize_ptd      0000000180066840 f   libvcruntimed:per_thread_data.obj
 0001:000658a0       __vcrt_uninitialize_ptd    00000001800668a0 f   libvcruntimed:per_thread_data.obj
 0001:000658e0       __vcrt_initialize_locks    00000001800668e0 f   libvcruntimed:locks.obj
 0001:00065970       __vcrt_lock                0000000180066970 f   libvcruntimed:locks.obj
 0001:000659b0       __vcrt_uninitialize_locks  00000001800669b0 f   libvcruntimed:locks.obj
 0001:00065a20       __vcrt_unlock              0000000180066a20 f   libvcruntimed:locks.obj
 0001:00065a60       ??$?0AEAViterator@TryBlockMap4@FH4@@AEAV012@$0A@@?$pair@Viterator@TryBlockMap4@FH4@@V123@@std@@QEAA@AEAViterator@TryBlockMap4@FH4@@0@Z 0000000180066a60 f i libvcruntimed:risctrnsctrl.obj
 0001:00065ad0       ??$?0AEAViterator@TryBlockMap@__FrameHandler3@@AEAV012@$0A@@?$pair@Viterator@TryBlockMap@__FrameHandler3@@V123@@std@@QEAA@AEAViterator@TryBlockMap@__FrameHandler3@@0@Z 0000000180066ad0 f i libvcruntimed:risctrnsctrl.obj
 0001:00065d10       ??$_CallSETranslator@V__FrameHandler3@@@@YAHPEAUEHExceptionRecord@@PEA_KPEAU_CONTEXT@@PEAU_xDISPATCHER_CONTEXT@@PEBU_s_FuncInfo@@K1H@Z 0000000180066d10 f i libvcruntimed:risctrnsctrl.obj
 0001:00065dd0       ??$_CallSETranslator@V__FrameHandler4@@@@YAHPEAUEHExceptionRecord@@PEA_KPEAU_CONTEXT@@PEAU_xDISPATCHER_CONTEXT@@PEAUFuncInfo4@FH4@@K1H@Z 0000000180066dd0 f i libvcruntimed:risctrnsctrl.obj
 0001:00065e90       ??$forward@AEAViterator@TryBlockMap4@FH4@@@std@@YAAEAViterator@TryBlockMap4@FH4@@AEAV123@@Z 0000000180066e90 f i libvcruntimed:risctrnsctrl.obj
 0001:00065ea0       ??$forward@AEAViterator@TryBlockMap@__FrameHandler3@@@std@@YAAEAViterator@TryBlockMap@__FrameHandler3@@AEAV123@@Z 0000000180066ea0 f i libvcruntimed:risctrnsctrl.obj
 0001:00065eb0       ??0FuncInfo4@FH4@@QEAA@XZ  0000000180066eb0 f i libvcruntimed:risctrnsctrl.obj
 0001:00065f30       ??0FuncInfoHeader@FH4@@QEAA@XZ 0000000180066f30 f i libvcruntimed:risctrnsctrl.obj
 0001:00065f50       ??0iterator@TryBlockMap4@FH4@@QEAA@AEAV12@I@Z 0000000180066f50 f i libvcruntimed:risctrnsctrl.obj
 0001:00065f90       ??0iterator@TryBlockMap@__FrameHandler3@@QEAA@AEAV12@I@Z 0000000180066f90 f i libvcruntimed:risctrnsctrl.obj
 0001:00065fd0       ??4iterator@TryBlockMap4@FH4@@QEAAAEAV012@AEBV012@@Z 0000000180066fd0 f i libvcruntimed:risctrnsctrl.obj
 0001:00066000       ??9iterator@TryBlockMap4@FH4@@QEBA_NAEBV012@@Z 0000000180067000 f i libvcruntimed:risctrnsctrl.obj
 0001:00066050       ??Diterator@TryBlockMap4@FH4@@QEAA?AUTryBlockMapEntry4@2@XZ 0000000180067050 f i libvcruntimed:risctrnsctrl.obj
 0001:00066090       ??Eiterator@TryBlockMap4@FH4@@QEAAAEAV012@XZ 0000000180067090 f i libvcruntimed:risctrnsctrl.obj
 0001:000660d0       ?CatchTryBlock@__FrameHandler3@@SAPEBU_s_TryBlockMapEntry@@PEBU_s_FuncInfo@@H@Z 00000001800670d0 f   libvcruntimed:risctrnsctrl.obj
 0001:00066180       ?DecompFuncInfo@FH4@@YA_JPEAEAEAUFuncInfo4@1@_KH@Z 0000000180067180 f i libvcruntimed:risctrnsctrl.obj
 0001:000661d0       ?DecompFuncInfo@FH4@@YA_JPEAEAEAUFuncInfo4@1@_KH_N@Z 00000001800671d0 f i libvcruntimed:risctrnsctrl.obj
 0001:00066420       ?DecompTryBlock@TryBlockMap4@FH4@@AEAAXXZ 0000000180067420 f i libvcruntimed:risctrnsctrl.obj
 0001:000664b0       ?ExecutionInCatch@__FrameHandler3@@SA_NPEAU_xDISPATCHER_CONTEXT@@PEBU_s_FuncInfo@@@Z 00000001800674b0 f   libvcruntimed:risctrnsctrl.obj
 0001:00066520       ?ExecutionInCatch@__FrameHandler4@@SA_NPEAU_xDISPATCHER_CONTEXT@@PEAUFuncInfo4@FH4@@@Z 0000000180067520 f   libvcruntimed:risctrnsctrl.obj
 0001:00066540       ?FrameUnwindToEmptyState@__FrameHandler3@@SAXPEA_KPEAU_xDISPATCHER_CONTEXT@@PEBU_s_FuncInfo@@@Z 0000000180067540 f   libvcruntimed:risctrnsctrl.obj
 0001:00066600       ?FrameUnwindToEmptyState@__FrameHandler4@@SAXPEA_KPEAU_xDISPATCHER_CONTEXT@@PEAUFuncInfo4@FH4@@@Z 0000000180067600 f   libvcruntimed:risctrnsctrl.obj
 0001:00066670       ?GetEstablisherFrame@__FrameHandler3@@SAPEA_KPEA_KPEAU_xDISPATCHER_CONTEXT@@PEBU_s_FuncInfo@@0@Z 0000000180067670 f   libvcruntimed:risctrnsctrl.obj
 0001:00066840       ?GetEstablisherFrame@__FrameHandler4@@SAPEA_KPEA_KPEAU_xDISPATCHER_CONTEXT@@PEAUFuncInfo4@FH4@@0@Z 0000000180067840 f   libvcruntimed:risctrnsctrl.obj
 0001:000668c0       ?GetRangeOfTrysToCheck@__FrameHandler3@@SA?AU?$pair@Viterator@TryBlockMap@__FrameHandler3@@V123@@std@@AEAVTryBlockMap@1@HPEAU_xDISPATCHER_CONTEXT@@PEBU_s_FuncInfo@@H@Z 00000001800678c0 f   libvcruntimed:risctrnsctrl.obj
 0001:00066b90       ?GetRangeOfTrysToCheck@__FrameHandler4@@SA?AU?$pair@Viterator@TryBlockMap4@FH4@@V123@@std@@AEAVTryBlockMap4@FH4@@HPEAU_xDISPATCHER_CONTEXT@@PEAUFuncInfo4@5@H@Z 0000000180067b90 f   libvcruntimed:risctrnsctrl.obj
 0001:00066db0       ?ReadInt@FH4@@YAHPEAPEAE@Z 0000000180067db0 f i libvcruntimed:risctrnsctrl.obj
 0001:00066df0       ?ReadUnsigned@FH4@@YAIPEAPEAE@Z 0000000180067df0 f i libvcruntimed:risctrnsctrl.obj
 0001:00066ea0       ?UnwindNestedFrames@__FrameHandler3@@SAXPEA_KPEAUEHExceptionRecord@@PEAU_CONTEXT@@0PEAXPEBU_s_FuncInfo@@HHPEBU_s_HandlerType@@PEAU_xDISPATCHER_CONTEXT@@E@Z 0000000180067ea0 f   libvcruntimed:risctrnsctrl.obj
 0001:00067070       ?UnwindNestedFrames@__FrameHandler4@@SAXPEA_KPEAUEHExceptionRecord@@PEAU_CONTEXT@@0PEAXPEAUFuncInfo4@FH4@@HHPEAUHandlerType4@5@PEAU_xDISPATCHER_CONTEXT@@E@Z 0000000180068070 f   libvcruntimed:risctrnsctrl.obj
 0001:000672b0       ?begin@TryBlockMap4@FH4@@QEAA?AViterator@12@XZ 00000001800682b0 f i libvcruntimed:risctrnsctrl.obj
 0001:000672f0       ?end@TryBlockMap4@FH4@@QEAA?AViterator@12@XZ 00000001800682f0 f i libvcruntimed:risctrnsctrl.obj
 0001:00067330       ?imageRelToByteBuffer@FH4@@YAPEAE_KH@Z 0000000180068330 f i libvcruntimed:risctrnsctrl.obj
 0001:00067350       ?incrementToSentinel@iterator@TryBlockMap4@FH4@@QEAAXXZ 0000000180068350 f i libvcruntimed:risctrnsctrl.obj
 0001:00067370       ?setBuffer@TryBlockMap4@FH4@@QEAAXViterator@12@@Z 0000000180068370 f i libvcruntimed:risctrnsctrl.obj
 0001:00067400       _CreateFrameInfo           0000000180068400 f   libvcruntimed:risctrnsctrl.obj
 0001:00067490       _FindAndUnlinkFrame        0000000180068490 f   libvcruntimed:risctrnsctrl.obj
 0001:00067530       _GetImageBase              0000000180068530 f   libvcruntimed:risctrnsctrl.obj
 0001:00067550       _GetThrowImageBase         0000000180068550 f   libvcruntimed:risctrnsctrl.obj
 0001:00067570       _SetImageBase              0000000180068570 f   libvcruntimed:risctrnsctrl.obj
 0001:000675a0       _SetThrowImageBase         00000001800685a0 f   libvcruntimed:risctrnsctrl.obj
 0001:000675d0       __CxxFrameHandler          00000001800685d0 f   libvcruntimed:risctrnsctrl.obj
 0001:00067620       __CxxFrameHandler2         0000000180068620 f   libvcruntimed:risctrnsctrl.obj
 0001:00067670       __CxxFrameHandler3         0000000180068670 f   libvcruntimed:risctrnsctrl.obj
 0001:00067780       __CxxFrameHandler4         0000000180068780 f   libvcruntimed:risctrnsctrl.obj
 0001:000678d0       ??$__crt_interlocked_exchange_pointer@UHINSTANCE__@@PEAU1@@@YAPEAUHINSTANCE__@@PEDSEAU0@QEAU0@@Z 00000001800688d0 f i libvcruntimed:winapi_downlevel.obj
 0001:000678f0       ??$__crt_interlocked_exchange_pointer@UHINSTANCE__@@PEAX@@YAPEAUHINSTANCE__@@PEDSEAU0@QEAX@Z 00000001800688f0 f i libvcruntimed:winapi_downlevel.obj
 0001:00067910       ??$__crt_interlocked_exchange_pointer@XPEAX@@YAPEAXPEDSEAXQEAX@Z 0000000180068910 f i libvcruntimed:winapi_downlevel.obj
 0001:00067930       ??$__crt_interlocked_read_pointer@UHINSTANCE__@@@@YAPEAUHINSTANCE__@@PEDSEAU0@@Z 0000000180068930 f i libvcruntimed:winapi_downlevel.obj
 0001:00067950       ??$__crt_interlocked_read_pointer@X@@YAPEAXPEDSEAX@Z 0000000180068950 f i libvcruntimed:winapi_downlevel.obj
 0001:00067fb0       __vcrt_FlsAlloc            0000000180068fb0 f   libvcruntimed:winapi_downlevel.obj
 0001:00068010       __vcrt_FlsFree             0000000180069010 f   libvcruntimed:winapi_downlevel.obj
 0001:00068080       __vcrt_FlsGetValue         0000000180069080 f   libvcruntimed:winapi_downlevel.obj
 0001:000680f0       __vcrt_FlsSetValue         00000001800690f0 f   libvcruntimed:winapi_downlevel.obj
 0001:00068170       __vcrt_InitializeCriticalSectionEx 0000000180069170 f   libvcruntimed:winapi_downlevel.obj
 0001:000681f0       ?GetCurrentState@__FrameHandler3@@SAHPEA_KPEAU_xDISPATCHER_CONTEXT@@PEBU_s_FuncInfo@@@Z 00000001800691f0 f   libvcruntimed:ehstate.obj
 0001:00068260       ?GetUnwindTryBlock@__FrameHandler3@@SAHPEA_KPEAU_xDISPATCHER_CONTEXT@@PEBU_s_FuncInfo@@@Z 0000000180069260 f   libvcruntimed:ehstate.obj
 0001:000682c0       ?SetState@__FrameHandler3@@SAXPEA_KPEBU_s_FuncInfo@@H@Z 00000001800692c0 f   libvcruntimed:ehstate.obj
 0001:00068300       ?SetUnwindTryBlock@__FrameHandler3@@SAXPEA_KPEAU_xDISPATCHER_CONTEXT@@PEBU_s_FuncInfo@@H@Z 0000000180069300 f   libvcruntimed:ehstate.obj
 0001:00068390       ?StateFromControlPc@__FrameHandler3@@SAHPEBU_s_FuncInfo@@PEAU_xDISPATCHER_CONTEXT@@@Z 0000000180069390 f   libvcruntimed:ehstate.obj
 0001:000683e0       ?StateFromControlPc@__FrameHandler4@@SAHPEAUFuncInfo4@FH4@@PEAU_xDISPATCHER_CONTEXT@@@Z 00000001800693e0 f   libvcruntimed:ehstate.obj
 0001:00068430       ?StateFromIp@__FrameHandler3@@SAHPEBU_s_FuncInfo@@PEAU_xDISPATCHER_CONTEXT@@_K@Z 0000000180069430 f   libvcruntimed:ehstate.obj
 0001:00068560       ?StateFromIp@__FrameHandler4@@SAHPEAUFuncInfo4@FH4@@PEAU_xDISPATCHER_CONTEXT@@_K@Z 0000000180069560 f   libvcruntimed:ehstate.obj
 0001:00068680       ?__FuncRelToRealOffset@@YA_KPEAU_xDISPATCHER_CONTEXT@@I@Z 0000000180069680 f i libvcruntimed:ehstate.obj
 0001:000686c0       ?__RVAtoRealOffset@@YA_KPEAU_xDISPATCHER_CONTEXT@@H@Z 00000001800696c0 f i libvcruntimed:ehstate.obj
 0001:0006b1c0       ??$TypeMatchHelper@V__FrameHandler3@@@@YAHPEBU_s_HandlerType@@PEBU_s_CatchableType@@PEBU_s_ThrowInfo@@@Z 000000018006c1c0 f i libvcruntimed:frame.obj
 0001:0006b440       ??$TypeMatchHelper@V__FrameHandler4@@@@YAHPEAUHandlerType4@FH4@@PEBU_s_CatchableType@@PEBU_s_ThrowInfo@@@Z 000000018006c440 f i libvcruntimed:frame.obj
 0001:0006b6d0       ??$__InternalCxxFrameHandler@V__FrameHandler3@@@@YA?AW4_EXCEPTION_DISPOSITION@@PEAUEHExceptionRecord@@PEA_KPEAU_CONTEXT@@PEAU_xDISPATCHER_CONTEXT@@PEBU_s_FuncInfo@@H1E@Z 000000018006c6d0 f i libvcruntimed:frame.obj
 0001:0006bc60       ??$__InternalCxxFrameHandler@V__FrameHandler4@@@@YA?AW4_EXCEPTION_DISPOSITION@@PEAUEHExceptionRecord@@PEA_KPEAU_CONTEXT@@PEAU_xDISPATCHER_CONTEXT@@PEAUFuncInfo4@FH4@@H1E@Z 000000018006cc60 f i libvcruntimed:frame.obj
 0001:0006c220       ??0HandlerMap4@FH4@@QEAA@PEBUTryBlockMapEntry4@1@_KH@Z 000000018006d220 f i libvcruntimed:frame.obj
 0001:0006c310       ??0HandlerMap@__FrameHandler3@@QEAA@PEBU_s_TryBlockMapEntry@@_KI@Z 000000018006d310 f i libvcruntimed:frame.obj
 0001:0006c370       ??0HandlerType4@FH4@@QEAA@XZ 000000018006d370 f i libvcruntimed:frame.obj
 0001:0006c3a0       ??0TryBlockMap4@FH4@@QEAA@PEBUFuncInfo4@1@_K@Z 000000018006d3a0 f i libvcruntimed:frame.obj
 0001:0006c450       ??0TryBlockMap@__FrameHandler3@@QEAA@PEBU_s_FuncInfo@@_K@Z 000000018006d450 f i libvcruntimed:frame.obj
 0001:0006c490       ??0UWMap4@FH4@@QEAA@PEBUFuncInfo4@1@_K@Z 000000018006d490 f i libvcruntimed:frame.obj
 0001:0006c520       ??0bad_exception@std@@QEAA@AEBV01@@Z 000000018006d520 f i libvcruntimed:frame.obj
 0001:0006c570       ??0bad_exception@std@@QEAA@XZ 000000018006d570 f i libvcruntimed:frame.obj
 0001:0006c5c0       ??0exception@std@@QEAA@AEBV01@@Z 000000018006d5c0 f i libvcruntimed:frame.obj
 0001:0006c630       ??0exception@std@@QEAA@QEBDH@Z 000000018006d630 f i libvcruntimed:frame.obj
 0001:0006c690       ??0iterator@HandlerMap4@FH4@@QEAA@AEAV12@I@Z 000000018006d690 f i libvcruntimed:frame.obj
 0001:0006c6d0       ??0iterator@HandlerMap@__FrameHandler3@@QEAA@AEAV12@I@Z 000000018006d6d0 f i libvcruntimed:frame.obj
 0001:0006c710       ??0iterator@UWMap4@FH4@@QEAA@AEAV12@PEAE@Z 000000018006d710 f i libvcruntimed:frame.obj
 0001:0006c750       ??1bad_exception@std@@UEAA@XZ 000000018006d750 f i libvcruntimed:frame.obj
 0001:0006c770       ??1exception@std@@UEAA@XZ  000000018006d770 f i libvcruntimed:frame.obj
 0001:0006c7b0       ??4iterator@UWMap4@FH4@@QEAAAEAV012@AEBV012@@Z 000000018006d7b0 f i libvcruntimed:frame.obj
 0001:0006c810       ??8iterator@HandlerMap4@FH4@@QEBA_NAEBV012@@Z 000000018006d810 f i libvcruntimed:frame.obj
 0001:0006c860       ??8iterator@HandlerMap@__FrameHandler3@@QEBA_NAEBV012@@Z 000000018006d860 f i libvcruntimed:frame.obj
 0001:0006c8b0       ??8type_info@@QEBA_NAEBV0@@Z 000000018006d8b0 f i libvcruntimed:frame.obj
 0001:0006c910       ??9iterator@HandlerMap4@FH4@@QEBA_NAEBV012@@Z 000000018006d910 f i libvcruntimed:frame.obj
 0001:0006c960       ??9iterator@HandlerMap@__FrameHandler3@@QEBA_NAEBV012@@Z 000000018006d960 f i libvcruntimed:frame.obj
 0001:0006c9b0       ??Diterator@HandlerMap4@FH4@@QEAA?AUHandlerType4@2@XZ 000000018006d9b0 f i libvcruntimed:frame.obj
 0001:0006c9f0       ??Diterator@HandlerMap@__FrameHandler3@@QEAA?BU_s_HandlerType@@XZ 000000018006d9f0 f i libvcruntimed:frame.obj
 0001:0006ca40       ??Diterator@TryBlockMap@__FrameHandler3@@QEAA?BU_s_TryBlockMapEntry@@XZ 000000018006da40 f i libvcruntimed:frame.obj
 0001:0006cab0       ??Diterator@UWMap4@FH4@@QEAA?AUUnwindMapEntry4@2@XZ 000000018006dab0 f i libvcruntimed:frame.obj
 0001:0006cb40       ??Eiterator@HandlerMap4@FH4@@QEAAAEAV012@XZ 000000018006db40 f i libvcruntimed:frame.obj
 0001:0006cb80       ??Eiterator@HandlerMap@__FrameHandler3@@QEAAAEAV012@XZ 000000018006db80 f i libvcruntimed:frame.obj
 0001:0006cbb0       ??Eiterator@TryBlockMap@__FrameHandler3@@QEAAAEAV012@XZ 000000018006dbb0 f i libvcruntimed:frame.obj
 0001:0006cbe0       ??Eiterator@UWMap4@FH4@@QEAAAEAV012@XZ 000000018006dbe0 f i libvcruntimed:frame.obj
 0001:0006cc30       ??Giterator@UWMap4@FH4@@QEBA_JAEBV012@@Z 000000018006dc30 f i libvcruntimed:frame.obj
 0001:0006cc60       ??Miterator@TryBlockMap4@FH4@@QEBA_NAEBV012@@Z 000000018006dc60 f i libvcruntimed:frame.obj
 0001:0006ccb0       ??Miterator@TryBlockMap@__FrameHandler3@@QEBA_NAEBV012@@Z 000000018006dcb0 f i libvcruntimed:frame.obj
 0001:0006cd00       ??Oiterator@UWMap4@FH4@@QEBA_NAEBV012@@Z 000000018006dd00 f i libvcruntimed:frame.obj
 0001:0006cd50       ??Piterator@UWMap4@FH4@@QEBA_NAEBV012@@Z 000000018006dd50 f i libvcruntimed:frame.obj
 0001:0006cda0       ??_Ebad_exception@std@@UEAAPEAXI@Z 000000018006dda0 f i libvcruntimed:frame.obj
 0001:0006cda0       ??_Gbad_exception@std@@UEAAPEAXI@Z 000000018006dda0 f i libvcruntimed:frame.obj
 0001:0006cdf0       ??_Eexception@std@@UEAAPEAXI@Z 000000018006ddf0 f i libvcruntimed:frame.obj
 0001:0006cdf0       ??_Gexception@std@@UEAAPEAXI@Z 000000018006ddf0 f i libvcruntimed:frame.obj
 0001:0006ce40       ?BuildCatchObject@__FrameHandler3@@SAXPEAUEHExceptionRecord@@PEAXPEBU_s_HandlerType@@PEBU_s_CatchableType@@@Z 000000018006de40 f   libvcruntimed:frame.obj
 0001:0006ce90       ?BuildCatchObject@__FrameHandler4@@SAXPEAUEHExceptionRecord@@PEAXPEAUHandlerType4@FH4@@PEBU_s_CatchableType@@@Z 000000018006de90 f   libvcruntimed:frame.obj
 0001:0006cee0       ?BuildCatchObjectHelper@__FrameHandler3@@SAHPEAUEHExceptionRecord@@PEAXPEBU_s_HandlerType@@PEBU_s_CatchableType@@@Z 000000018006dee0 f   libvcruntimed:frame.obj
 0001:0006cf30       ?BuildCatchObjectHelper@__FrameHandler4@@SAHPEAUEHExceptionRecord@@PEAXPEAUHandlerType4@FH4@@PEBU_s_CatchableType@@@Z 000000018006df30 f   libvcruntimed:frame.obj
 0001:0006cf80       ?CxxCallCatchBlock@__FrameHandler3@@SAPEAXPEAU_EXCEPTION_RECORD@@@Z 000000018006df80 f   libvcruntimed:frame.obj
 0001:0006d270       ?CxxCallCatchBlock@__FrameHandler4@@SAPEAXPEAU_EXCEPTION_RECORD@@@Z 000000018006e270 f   libvcruntimed:frame.obj
 0001:0006d660       ?DecompHandler@HandlerMap4@FH4@@AEAAXXZ 000000018006e660 f i libvcruntimed:frame.obj
 0001:0006db10       ?FrameUnwindToState@__FrameHandler3@@SAXPEA_KPEAU_xDISPATCHER_CONTEXT@@PEBU_s_FuncInfo@@H@Z 000000018006eb10 f   libvcruntimed:frame.obj
 0001:0006ddf0       ?FrameUnwindToState@__FrameHandler4@@SAXPEA_KPEAU_xDISPATCHER_CONTEXT@@PEAUFuncInfo4@FH4@@H@Z 000000018006edf0 f   libvcruntimed:frame.obj
 0001:0006e1c0       ?GetHandlerSearchState@__FrameHandler3@@SAHPEA_KPEAU_xDISPATCHER_CONTEXT@@PEBU_s_FuncInfo@@@Z 000000018006f1c0 f i libvcruntimed:frame.obj
 0001:0006e2a0       ?GetHandlerSearchState@__FrameHandler4@@SAHPEA_KPEAU_xDISPATCHER_CONTEXT@@PEAUFuncInfo4@FH4@@@Z 000000018006f2a0 f i libvcruntimed:frame.obj
 0001:0006e340       ?GetMaxState@__FrameHandler3@@SAHPEAU_xDISPATCHER_CONTEXT@@PEBU_s_FuncInfo@@@Z 000000018006f340 f i libvcruntimed:frame.obj
 0001:0006e360       ?GetMaxState@__FrameHandler4@@SAHPEAU_xDISPATCHER_CONTEXT@@PEAUFuncInfo4@FH4@@@Z 000000018006f360 f i libvcruntimed:frame.obj
 0001:0006e610       ?ReadEntry@UWMap4@FH4@@AEAAXPEAPEAE@Z 000000018006f610 f i libvcruntimed:frame.obj
 0001:0006e6e0       ?TypeMatch@__FrameHandler3@@SAHPEBU_s_HandlerType@@PEBU_s_CatchableType@@PEBU_s_ThrowInfo@@@Z 000000018006f6e0 f   libvcruntimed:frame.obj
 0001:0006e720       ?TypeMatch@__FrameHandler4@@SAHPEAUHandlerType4@FH4@@PEBU_s_CatchableType@@PEBU_s_ThrowInfo@@@Z 000000018006f720 f   libvcruntimed:frame.obj
 0001:0006e760       ?WalkBack@UWMap4@FH4@@AEAAXPEAPEAE@Z 000000018006f760 f i libvcruntimed:frame.obj
 0001:0006e7c0       ?WalkBack@iterator@UWMap4@FH4@@QEAAXXZ 000000018006f7c0 f i libvcruntimed:frame.obj
 0001:0006e800       ?WalkForward@UWMap4@FH4@@AEAAXPEAPEAE@Z 000000018006f800 f i libvcruntimed:frame.obj
 0001:0006e830       ?_CallMemberFunction1@@YAXQEAX00@Z 000000018006f830 f i libvcruntimed:frame.obj
 0001:0006e880       ?_CallMemberFunction2@@YAXQEAX00H@Z 000000018006f880 f i libvcruntimed:frame.obj
 0001:0006e930       ?begin@HandlerMap4@FH4@@QEAA?AViterator@12@XZ 000000018006f930 f i libvcruntimed:frame.obj
 0001:0006e970       ?begin@HandlerMap@__FrameHandler3@@QEAA?AViterator@12@XZ 000000018006f970 f i libvcruntimed:frame.obj
 0001:0006e9b0       ?begin@UWMap4@FH4@@QEAA?AViterator@12@XZ 000000018006f9b0 f i libvcruntimed:frame.obj
 0001:0006e9f0       ?end@HandlerMap4@FH4@@QEAA?AViterator@12@XZ 000000018006f9f0 f i libvcruntimed:frame.obj
 0001:0006ea30       ?end@HandlerMap@__FrameHandler3@@QEAA?AViterator@12@XZ 000000018006fa30 f i libvcruntimed:frame.obj
 0001:0006ea70       ?getESTypes@__FrameHandler3@@SAPEBU_s_ESTypeList@@PEBU_s_FuncInfo@@@Z 000000018006fa70 f i libvcruntimed:frame.obj
 0001:0006eac0       ?getESTypes@__FrameHandler4@@SAPEBU_s_ESTypeList@@PEAUFuncInfo4@FH4@@@Z 000000018006fac0 f i libvcruntimed:frame.obj
 0001:0006ead0       ?getLastEntry@HandlerMap4@FH4@@QEAAPEAUHandlerType4@2@XZ 000000018006fad0 f i libvcruntimed:frame.obj
 0001:0006eb20       ?getLastEntry@HandlerMap@__FrameHandler3@@QEAAPEBU_s_HandlerType@@XZ 000000018006fb20 f i libvcruntimed:frame.obj
 0001:0006eb50       ?getMagicNum@__FrameHandler3@@SAIPEBU_s_FuncInfo@@@Z 000000018006fb50 f i libvcruntimed:frame.obj
 0001:0006eb70       ?getMagicNum@__FrameHandler4@@SAIPEAUFuncInfo4@FH4@@@Z 000000018006fb70 f i libvcruntimed:frame.obj
 0001:0006eb80       ?getNumTryBlocks@TryBlockMap4@FH4@@QEAAIXZ 000000018006fb80 f i libvcruntimed:frame.obj
 0001:0006eb90       ?getNumTryBlocks@TryBlockMap@__FrameHandler3@@QEAAIXZ 000000018006fb90 f i libvcruntimed:frame.obj
 0001:0006ebb0       ?getStartStop@UWMap4@FH4@@QEAAXHHAEAViterator@12@0@Z 000000018006fbb0 f i libvcruntimed:frame.obj
 0001:0006ed10       ?getStateFromIterators@UWMap4@FH4@@SAHAEBViterator@12@H0H0@Z 000000018006fd10 f i libvcruntimed:frame.obj
 0001:0006eea0       ?isEHs@__FrameHandler3@@SA_NPEBU_s_FuncInfo@@@Z 000000018006fea0 f i libvcruntimed:frame.obj
 0001:0006eee0       ?isEHs@__FrameHandler4@@SA_NPEAUFuncInfo4@FH4@@@Z 000000018006fee0 f i libvcruntimed:frame.obj
 0001:0006ef00       ?isNoExcept@__FrameHandler3@@SA_NPEBU_s_FuncInfo@@@Z 000000018006ff00 f i libvcruntimed:frame.obj
 0001:0006ef40       ?isNoExcept@__FrameHandler4@@SA_NPEAUFuncInfo4@FH4@@@Z 000000018006ff40 f i libvcruntimed:frame.obj
 0001:0006ef60       ?reset@HandlerType4@FH4@@QEAAXXZ 000000018006ff60 f i libvcruntimed:frame.obj
 0001:0006efe0       ?resetBuffer@HandlerMap4@FH4@@QEAAXXZ 000000018006ffe0 f i libvcruntimed:frame.obj
 0001:0006f000       ?setBuffer@HandlerMap4@FH4@@QEAAXI@Z 0000000180070000 f i libvcruntimed:frame.obj
 0001:0006f070       ?what@exception@std@@UEBAPEBDXZ 0000000180070070 f i libvcruntimed:frame.obj
 0001:0006f0c0       __BuildCatchObject         00000001800700c0 f   libvcruntimed:frame.obj
 0001:0006f110       __BuildCatchObjectHelper   0000000180070110 f   libvcruntimed:frame.obj
 0001:0006f160       __TypeMatch                0000000180070160 f   libvcruntimed:frame.obj
 0001:0006f1a0       __vcrt_EncodePointer       00000001800701a0 f i libvcruntimed:frame.obj
 0001:0006f1d0       _CallSettingFrame          00000001800701d0 f   libvcruntimed:handlers.obj
 0001:0006f220       _CallSettingFrame_LookupContinuationIndex 0000000180070220 f   libvcruntimed:handlers.obj
 0001:0006f250       _CallSettingFrame_NotifyContinuationAddr 0000000180070250 f   libvcruntimed:handlers.obj
 0001:0006f280       _CallSettingFrameEncoded   0000000180070280 f   libvcruntimed:handlers.obj
 0001:0006f310       ??$?RD@__crt_public_free_policy@@QEBAXQEBD@Z 0000000180070310 f i libvcruntimed:std_exception.obj
 0001:0006f340       ??0?$__crt_unique_heap_ptr@DU__crt_public_free_policy@@@@QEAA@QEAD@Z 0000000180070340 f i libvcruntimed:std_exception.obj
 0001:0006f370       ??1?$__crt_unique_heap_ptr@DU__crt_public_free_policy@@@@QEAA@XZ 0000000180070370 f i libvcruntimed:std_exception.obj
 0001:0006f390       ??B?$__crt_unique_heap_ptr@DU__crt_public_free_policy@@@@QEBA_NXZ 0000000180070390 f i libvcruntimed:std_exception.obj
 0001:0006f3b0       ?detach@?$__crt_unique_heap_ptr@DU__crt_public_free_policy@@@@QEAAPEADXZ 00000001800703b0 f i libvcruntimed:std_exception.obj
 0001:0006f3f0       ?get@?$__crt_unique_heap_ptr@DU__crt_public_free_policy@@@@QEBAPEADXZ 00000001800703f0 f i libvcruntimed:std_exception.obj
 0001:0006f410       ?is_valid@?$__crt_unique_heap_ptr@DU__crt_public_free_policy@@@@QEBA_NXZ 0000000180070410 f i libvcruntimed:std_exception.obj
 0001:0006f450       ?release@?$__crt_unique_heap_ptr@DU__crt_public_free_policy@@@@QEAAXXZ 0000000180070450 f i libvcruntimed:std_exception.obj
 0001:0006f490       __std_exception_copy       0000000180070490 f   libvcruntimed:std_exception.obj
 0001:0006f620       __std_exception_destroy    0000000180070620 f   libvcruntimed:std_exception.obj
 0001:0006f670       _CxxThrowException         0000000180070670 f   libvcruntimed:throw.obj
 0001:0006f810       fabs                       0000000180070810 f   libucrtd:fabs.obj
 0001:0006f830       sqrtf                      0000000180070830 f   libucrtd:sqrtf.obj
 0001:0006f9b0       _fpclass                   00000001800709b0 f   libucrtd:ieeemisc.obj
 0001:0006fbe0       _fpclassf                  0000000180070be0 f   libucrtd:ieeemisc.obj
 0001:0006fd60       _isnan                     0000000180070d60 f   libucrtd:ieeemisc.obj
 0001:0006fde0       _isnanf                    0000000180070de0 f   libucrtd:ieeemisc.obj
 0001:0006fe40       _nextafter                 0000000180070e40 f   libucrtd:ieeemisc.obj
 0001:0006fe70       _nextafterf                0000000180070e70 f   libucrtd:ieeemisc.obj
 0001:0006fea0       _scalb                     0000000180070ea0 f   libucrtd:ieeemisc.obj
 0001:000703b0       _scalbf                    00000001800713b0 f   libucrtd:ieeemisc.obj
 0001:00070800       ??$?RU?$__crt_report_hook_node@D@@@__crt_internal_free_policy@@QEBAXQEBU?$__crt_report_hook_node@D@@@Z 0000000180071800 f i libucrtd:dbgrpt.obj
 0001:00070830       ??$?RU?$__crt_report_hook_node@_W@@@__crt_internal_free_policy@@QEBAXQEBU?$__crt_report_hook_node@_W@@@Z 0000000180071830 f i libucrtd:dbgrpt.obj
 0001:00071f10       ??$get_module_file_name@AEAPEAUHINSTANCE__@@AEAY0BAF@DK@?$__crt_char_traits@D@@SAKAEAPEAUHINSTANCE__@@AEAY0BAF@D$$QEAK@Z 0000000180072f10 f i libucrtd:dbgrpt.obj
 0001:00071f50       ??$get_module_file_name@AEAPEAUHINSTANCE__@@AEAY0BAF@_WK@?$__crt_char_traits@_W@@SAKAEAPEAUHINSTANCE__@@AEAY0BAF@_W$$QEAK@Z 0000000180072f50 f i libucrtd:dbgrpt.obj
 0001:00071f90       ??$tcscpy_s@AEAY0BAF@D_KPEBD@?$__crt_char_traits@D@@SAHAEAY0BAF@D$$QEA_K$$QEAPEBD@Z 0000000180072f90 f i libucrtd:dbgrpt.obj
 0001:00071fd0       ??$tcscpy_s@AEAY0BAF@_W_KPEB_W@?$__crt_char_traits@_W@@SAHAEAY0BAF@_W$$QEA_K$$QEAPEB_W@Z 0000000180072fd0 f i libucrtd:dbgrpt.obj
 0001:00072010       ??$tcslen@AEAY0BAF@D@?$__crt_char_traits@D@@SA_KAEAY0BAF@D@Z 0000000180073010 f i libucrtd:dbgrpt.obj
 0001:00072030       ??$tcslen@AEAY0BAF@_W@?$__crt_char_traits@_W@@SA_KAEAY0BAF@_W@Z 0000000180073030 f i libucrtd:dbgrpt.obj
 0001:00072050       ??$tcslen@AEBQEBD@?$__crt_char_traits@D@@SA_KAEBQEBD@Z 0000000180073050 f i libucrtd:dbgrpt.obj
 0001:00072080       ??$tcslen@AEBQEB_W@?$__crt_char_traits@_W@@SA_KAEBQEB_W@Z 0000000180073080 f i libucrtd:dbgrpt.obj
 0001:000721f0       ??0?$__crt_unique_heap_ptr@U?$__crt_report_hook_node@D@@U__crt_internal_free_policy@@@@QEAA@QEAU?$__crt_report_hook_node@D@@@Z 00000001800731f0 f i libucrtd:dbgrpt.obj
 0001:00072220       ??0?$__crt_unique_heap_ptr@U?$__crt_report_hook_node@_W@@U__crt_internal_free_policy@@@@QEAA@QEAU?$__crt_report_hook_node@_W@@@Z 0000000180073220 f i libucrtd:dbgrpt.obj
 0001:00072250       ??1?$__crt_unique_heap_ptr@U?$__crt_report_hook_node@D@@U__crt_internal_free_policy@@@@QEAA@XZ 0000000180073250 f i libucrtd:dbgrpt.obj
 0001:00072270       ??1?$__crt_unique_heap_ptr@U?$__crt_report_hook_node@_W@@U__crt_internal_free_policy@@@@QEAA@XZ 0000000180073270 f i libucrtd:dbgrpt.obj
 0001:00072290       ??B?$__crt_unique_heap_ptr@U?$__crt_report_hook_node@D@@U__crt_internal_free_policy@@@@QEBA_NXZ 0000000180073290 f i libucrtd:dbgrpt.obj
 0001:000722b0       ??B?$__crt_unique_heap_ptr@U?$__crt_report_hook_node@_W@@U__crt_internal_free_policy@@@@QEBA_NXZ 00000001800732b0 f i libucrtd:dbgrpt.obj
 0001:00072b10       ?detach@?$__crt_unique_heap_ptr@U?$__crt_report_hook_node@D@@U__crt_internal_free_policy@@@@QEAAPEAU?$__crt_report_hook_node@D@@XZ 0000000180073b10 f i libucrtd:dbgrpt.obj
 0001:00072b50       ?detach@?$__crt_unique_heap_ptr@U?$__crt_report_hook_node@_W@@U__crt_internal_free_policy@@@@QEAAPEAU?$__crt_report_hook_node@_W@@XZ 0000000180073b50 f i libucrtd:dbgrpt.obj
 0001:00072b90       ?get@?$__crt_unique_heap_ptr@U?$__crt_report_hook_node@D@@U__crt_internal_free_policy@@@@QEBAPEAU?$__crt_report_hook_node@D@@XZ 0000000180073b90 f i libucrtd:dbgrpt.obj
 0001:00072bb0       ?get@?$__crt_unique_heap_ptr@U?$__crt_report_hook_node@_W@@U__crt_internal_free_policy@@@@QEBAPEAU?$__crt_report_hook_node@_W@@XZ 0000000180073bb0 f i libucrtd:dbgrpt.obj
 0001:00072c30       ?is_valid@?$__crt_unique_heap_ptr@U?$__crt_report_hook_node@D@@U__crt_internal_free_policy@@@@QEBA_NXZ 0000000180073c30 f i libucrtd:dbgrpt.obj
 0001:00072c70       ?is_valid@?$__crt_unique_heap_ptr@U?$__crt_report_hook_node@_W@@U__crt_internal_free_policy@@@@QEBA_NXZ 0000000180073c70 f i libucrtd:dbgrpt.obj
 0001:00072cb0       ?release@?$__crt_unique_heap_ptr@U?$__crt_report_hook_node@D@@U__crt_internal_free_policy@@@@QEAAXXZ 0000000180073cb0 f i libucrtd:dbgrpt.obj
 0001:00072cf0       ?release@?$__crt_unique_heap_ptr@U?$__crt_report_hook_node@_W@@U__crt_internal_free_policy@@@@QEAAXXZ 0000000180073cf0 f i libucrtd:dbgrpt.obj
 0001:00072d30       _CrtDbgReport              0000000180073d30 f   libucrtd:dbgrpt.obj
 0001:00072dd0       _CrtDbgReportW             0000000180073dd0 f   libucrtd:dbgrpt.obj
 0001:00072e70       _CrtSetReportHook2         0000000180073e70 f   libucrtd:dbgrpt.obj
 0001:00072ea0       _CrtSetReportHookW2        0000000180073ea0 f   libucrtd:dbgrpt.obj
 0001:00072ed0       __acrt_MessageWindowA      0000000180073ed0 f   libucrtd:dbgrpt.obj
 0001:00072f30       __acrt_MessageWindowW      0000000180073f30 f   libucrtd:dbgrpt.obj
 0001:00072f90       _invoke_watson_if_error    0000000180073f90 f i libucrtd:dbgrpt.obj
 0001:00072ff0       _invoke_watson_if_oneof    0000000180073ff0 f i libucrtd:dbgrpt.obj
 0001:00073070       _snwprintf_s               0000000180074070 f i libucrtd:dbgrpt.obj
 0001:000730f0       _vsnwprintf_s_l            00000001800740f0 f i libucrtd:dbgrpt.obj
 0001:00073190       _initterm                  0000000180074190 f   libucrtd:initterm.obj
 0001:00073210       _initterm_e                0000000180074210 f   libucrtd:initterm.obj
 0001:000732a0       ??0_LocaleUpdate@@QEAA@QEAU__crt_locale_pointers@@@Z 00000001800742a0 f i libucrtd:debug_heap.obj
 0001:00073400       ??1_LocaleUpdate@@QEAA@XZ  0000000180074400 f i libucrtd:debug_heap.obj
 0001:00073440       ?GetLocaleT@_LocaleUpdate@@QEAAPEAU__crt_locale_pointers@@XZ 0000000180074440 f i libucrtd:debug_heap.obj
 0001:00075c20       _CrtCheckMemory            0000000180076c20 f   libucrtd:debug_heap.obj
 0001:00075e20       _CrtDoForAllClientObjects  0000000180076e20 f   libucrtd:debug_heap.obj
 0001:00075fa0       _CrtDumpMemoryLeaks        0000000180076fa0 f   libucrtd:debug_heap.obj
 0001:00076090       _CrtGetAllocHook           0000000180077090 f   libucrtd:debug_heap.obj
 0001:000760a0       _CrtGetDumpClient          00000001800770a0 f   libucrtd:debug_heap.obj
 0001:000760b0       _CrtIsMemoryBlock          00000001800770b0 f   libucrtd:debug_heap.obj
 0001:00076240       _CrtIsValidHeapPointer     0000000180077240 f   libucrtd:debug_heap.obj
 0001:00076290       _CrtIsValidPointer         0000000180077290 f   libucrtd:debug_heap.obj
 0001:000762d0       _CrtMemCheckpoint          00000001800772d0 f   libucrtd:debug_heap.obj
 0001:000765f0       _CrtMemDifference          00000001800775f0 f   libucrtd:debug_heap.obj
 0001:00076a20       _CrtMemDumpAllObjectsSince 0000000180077a20 f   libucrtd:debug_heap.obj
 0001:00076a90       _CrtMemDumpStatistics      0000000180077a90 f   libucrtd:debug_heap.obj
 0001:00076c90       _CrtReportBlockType        0000000180077c90 f   libucrtd:debug_heap.obj
 0001:00076cd0       _CrtSetAllocHook           0000000180077cd0 f   libucrtd:debug_heap.obj
 0001:00076d10       _CrtSetBreakAlloc          0000000180077d10 f   libucrtd:debug_heap.obj
 0001:00076d40       _CrtSetDbgBlockType        0000000180077d40 f   libucrtd:debug_heap.obj
 0001:00076e00       _CrtSetDbgFlag             0000000180077e00 f   libucrtd:debug_heap.obj
 0001:00076fb0       _CrtSetDumpClient          0000000180077fb0 f   libucrtd:debug_heap.obj
 0001:00076ff0       __acrt_disable_global_locale_sync 0000000180077ff0 f i libucrtd:debug_heap.obj
 0001:00077020       __acrt_enable_global_locale_sync 0000000180078020 f i libucrtd:debug_heap.obj
 0001:00077060       __acrt_get_locale_data_prefix 0000000180078060 f i libucrtd:debug_heap.obj
 0001:00077090       __acrt_locale_changed      0000000180078090 f i libucrtd:debug_heap.obj
 0001:000770c0       __p__crtBreakAlloc         00000001800780c0 f   libucrtd:debug_heap.obj
 0001:000770d0       __p__crtDbgFlag            00000001800780d0 f   libucrtd:debug_heap.obj
 0001:000770e0       _aligned_free_dbg          00000001800780e0 f   libucrtd:debug_heap.obj
 0001:00077200       _aligned_malloc_dbg        0000000180078200 f   libucrtd:debug_heap.obj
 0001:00077250       _aligned_msize_dbg         0000000180078250 f   libucrtd:debug_heap.obj
 0001:00077490       _aligned_offset_malloc_dbg 0000000180078490 f   libucrtd:debug_heap.obj
 0001:00077830       _aligned_offset_realloc_dbg 0000000180078830 f   libucrtd:debug_heap.obj
 0001:00077e10       _aligned_offset_recalloc_dbg 0000000180078e10 f   libucrtd:debug_heap.obj
 0001:00077f70       _aligned_realloc_dbg       0000000180078f70 f   libucrtd:debug_heap.obj
 0001:00077fd0       _aligned_recalloc_dbg      0000000180078fd0 f   libucrtd:debug_heap.obj
 0001:00078040       _calloc_dbg                0000000180079040 f   libucrtd:debug_heap.obj
 0001:00078100       _chvalidchk_l              0000000180079100 f i libucrtd:debug_heap.obj
 0001:00078140       _expand_dbg                0000000180079140 f   libucrtd:debug_heap.obj
 0001:000782c0       _free_dbg                  00000001800792c0 f   libucrtd:debug_heap.obj
 0001:00078340       _ischartype_l              0000000180079340 f i libucrtd:debug_heap.obj
 0001:000783f0       _malloc_dbg                00000001800793f0 f   libucrtd:debug_heap.obj
 0001:00078440       _msize_dbg                 0000000180079440 f   libucrtd:debug_heap.obj
 0001:00078640       _realloc_dbg               0000000180079640 f   libucrtd:debug_heap.obj
 0001:000786d0       _recalloc_dbg              00000001800796d0 f   libucrtd:debug_heap.obj
 0001:00078890       _seh_filter_dll            0000000180079890 f   libucrtd:exception_filter.obj
 0001:000788d0       _seh_filter_exe            00000001800798d0 f   libucrtd:exception_filter.obj
 0001:00078c20       ??$?B$$A6AXPEAXK0@Z@__crt_fast_encoded_nullptr_t@@QEBAP6AXPEAXK0@ZXZ 0000000180079c20 f i libucrtd:exit.obj
 0001:00078d00       ??$__crt_fast_decode_pointer@P6AXPEAXK0@Z@@YAP6AXPEAXK0@ZQ6AX0K0@Z@Z 0000000180079d00 f i libucrtd:exit.obj
 0001:00078d50       ??$__crt_fast_encode_pointer@P6AXPEAXK0@Z@@YAP6AXPEAXK0@ZQ6AX0K0@Z@Z 0000000180079d50 f i libucrtd:exit.obj
 0001:00078da0       ??$__crt_get_proc_address@P6AXI@Z@@YAP6AXI@ZQEAUHINSTANCE__@@QEBD@Z 0000000180079da0 f i libucrtd:exit.obj
 0001:00078dd0       ??$__crt_interlocked_read@J@@YAJPEDJ@Z 0000000180079dd0 f i libucrtd:exit.obj
 0001:00078eb0       ??0?$__crt_unique_handle_t@U__crt_hmodule_traits@@@@QEAA@QEAUHINSTANCE__@@@Z 0000000180079eb0 f i libucrtd:exit.obj
 0001:00078ee0       ??1?$__crt_unique_handle_t@U__crt_hmodule_traits@@@@QEAA@XZ 0000000180079ee0 f i libucrtd:exit.obj
 0001:00079080       ?__acrt_select_exit_lock@@YA?AW4__acrt_lock_id@@XZ 000000018007a080 f i libucrtd:exit.obj
 0001:00079090       ?__crt_fast_encode_pointer@@YA?AU__crt_fast_encoded_nullptr_t@@$$T@Z 000000018007a090 f i libucrtd:exit.obj
 0001:000790b0       ?__crt_interlocked_read_32@@YAHPEDH@Z 000000018007a0b0 f i libucrtd:exit.obj
 0001:000790e0       ?__crt_rotate_pointer_value@@YA_K_KH@Z 000000018007a0e0 f i libucrtd:exit.obj
 0001:00079120       ?close@?$__crt_unique_handle_t@U__crt_hmodule_traits@@@@QEAAXXZ 000000018007a120 f i libucrtd:exit.obj
 0001:00079170       ?close@__crt_hmodule_traits@@SA_NPEAUHINSTANCE__@@@Z 000000018007a170 f i libucrtd:exit.obj
 0001:000792c0       ?get@?$__crt_unique_handle_t@U__crt_hmodule_traits@@@@QEBAPEAUHINSTANCE__@@XZ 000000018007a2c0 f i libucrtd:exit.obj
 0001:000792e0       ?get_address_of@?$__crt_unique_handle_t@U__crt_hmodule_traits@@@@QEAAPEAPEAUHINSTANCE__@@XZ 000000018007a2e0 f i libucrtd:exit.obj
 0001:000792f0       ?get_invalid_value@__crt_hmodule_traits@@SAPEAUHINSTANCE__@@XZ 000000018007a2f0 f i libucrtd:exit.obj
 0001:00079510       _Exit                      000000018007a510 f   libucrtd:exit.obj
 0001:00079540       __acrt_initialize_thread_local_exit_callback 000000018007a540 f   libucrtd:exit.obj
 0001:00079560       _c_exit                    000000018007a560 f   libucrtd:exit.obj
 0001:00079590       _cexit                     000000018007a590 f   libucrtd:exit.obj
 0001:000795b0       _exit                      000000018007a5b0 f   libucrtd:exit.obj
 0001:000795e0       _is_c_termination_complete 000000018007a5e0 f   libucrtd:exit.obj
 0001:00079600       _register_thread_local_exe_atexit_callback 000000018007a600 f   libucrtd:exit.obj
 0001:00079660       exit                       000000018007a660 f   libucrtd:exit.obj
 0001:00079690       quick_exit                 000000018007a690 f   libucrtd:exit.obj
 0001:000796c0       ??$?RE@__crt_internal_free_policy@@QEBAXQEBE@Z 000000018007a6c0 f i libucrtd:argv_parsing.obj
 0001:000796f0       ??$?RPEAD@__crt_internal_free_policy@@QEBAXQEBQEAD@Z 000000018007a6f0 f i libucrtd:argv_parsing.obj
 0001:00079720       ??$?RPEA_W@__crt_internal_free_policy@@QEBAXQEBQEA_W@Z 000000018007a720 f i libucrtd:argv_parsing.obj
 0001:0007a030       ??$get_module_file_name@$$TAEAY0BAF@DH@?$__crt_char_traits@D@@SAK$$QEA$$TAEAY0BAF@D$$QEAH@Z 000000018007b030 f i libucrtd:argv_parsing.obj
 0001:0007a070       ??$get_module_file_name@$$TAEAY0BAF@_WH@?$__crt_char_traits@_W@@SAK$$QEA$$TAEAY0BAF@_W$$QEAH@Z 000000018007b070 f i libucrtd:argv_parsing.obj
 0001:0007ac70       ??$set_program_name@PEAD@?$__crt_char_traits@D@@SAX$$QEAPEAD@Z 000000018007bc70 f i libucrtd:argv_parsing.obj
 0001:0007aca0       ??$set_program_name@PEA_W@?$__crt_char_traits@_W@@SAX$$QEAPEA_W@Z 000000018007bca0 f i libucrtd:argv_parsing.obj
 0001:0007ad30       ??0?$__crt_unique_heap_ptr@EU__crt_internal_free_policy@@@@QEAA@QEAE@Z 000000018007bd30 f i libucrtd:argv_parsing.obj
 0001:0007ad60       ??0?$__crt_unique_heap_ptr@PEADU__crt_internal_free_policy@@@@QEAA@QEAPEAD@Z 000000018007bd60 f i libucrtd:argv_parsing.obj
 0001:0007ad90       ??0?$__crt_unique_heap_ptr@PEA_WU__crt_internal_free_policy@@@@QEAA@QEAPEA_W@Z 000000018007bd90 f i libucrtd:argv_parsing.obj
 0001:0007adc0       ??1?$__crt_unique_heap_ptr@EU__crt_internal_free_policy@@@@QEAA@XZ 000000018007bdc0 f i libucrtd:argv_parsing.obj
 0001:0007ade0       ??1?$__crt_unique_heap_ptr@PEADU__crt_internal_free_policy@@@@QEAA@XZ 000000018007bde0 f i libucrtd:argv_parsing.obj
 0001:0007ae00       ??1?$__crt_unique_heap_ptr@PEA_WU__crt_internal_free_policy@@@@QEAA@XZ 000000018007be00 f i libucrtd:argv_parsing.obj
 0001:0007ae20       ??B?$__crt_unique_heap_ptr@EU__crt_internal_free_policy@@@@QEBA_NXZ 000000018007be20 f i libucrtd:argv_parsing.obj
 0001:0007af20       ?detach@?$__crt_unique_heap_ptr@EU__crt_internal_free_policy@@@@QEAAPEAEXZ 000000018007bf20 f i libucrtd:argv_parsing.obj
 0001:0007af60       ?detach@?$__crt_unique_heap_ptr@PEADU__crt_internal_free_policy@@@@QEAAPEAPEADXZ 000000018007bf60 f i libucrtd:argv_parsing.obj
 0001:0007afa0       ?detach@?$__crt_unique_heap_ptr@PEA_WU__crt_internal_free_policy@@@@QEAAPEAPEA_WXZ 000000018007bfa0 f i libucrtd:argv_parsing.obj
 0001:0007b070       ?get@?$__crt_unique_heap_ptr@EU__crt_internal_free_policy@@@@QEBAPEAEXZ 000000018007c070 f i libucrtd:argv_parsing.obj
 0001:0007b090       ?get@?$__crt_unique_heap_ptr@PEADU__crt_internal_free_policy@@@@QEBAPEAPEADXZ 000000018007c090 f i libucrtd:argv_parsing.obj
 0001:0007b0b0       ?get@?$__crt_unique_heap_ptr@PEA_WU__crt_internal_free_policy@@@@QEBAPEAPEA_WXZ 000000018007c0b0 f i libucrtd:argv_parsing.obj
 0001:0007b0d0       ?get_address_of@?$__crt_unique_heap_ptr@PEADU__crt_internal_free_policy@@@@QEAAPEAPEAPEADXZ 000000018007c0d0 f i libucrtd:argv_parsing.obj
 0001:0007b0e0       ?get_address_of@?$__crt_unique_heap_ptr@PEA_WU__crt_internal_free_policy@@@@QEAAPEAPEAPEA_WXZ 000000018007c0e0 f i libucrtd:argv_parsing.obj
 0001:0007b130       ?is_valid@?$__crt_unique_heap_ptr@EU__crt_internal_free_policy@@@@QEBA_NXZ 000000018007c130 f i libucrtd:argv_parsing.obj
 0001:0007b170       ?release@?$__crt_unique_heap_ptr@EU__crt_internal_free_policy@@@@QEAAXXZ 000000018007c170 f i libucrtd:argv_parsing.obj
 0001:0007b1b0       ?release@?$__crt_unique_heap_ptr@PEADU__crt_internal_free_policy@@@@QEAAXXZ 000000018007c1b0 f i libucrtd:argv_parsing.obj
 0001:0007b1f0       ?release@?$__crt_unique_heap_ptr@PEA_WU__crt_internal_free_policy@@@@QEAAXXZ 000000018007c1f0 f i libucrtd:argv_parsing.obj
 0001:0007b290       __acrt_allocate_buffer_for_argv 000000018007c290 f   libucrtd:argv_parsing.obj
 0001:0007b3f0       _configure_narrow_argv     000000018007c3f0 f   libucrtd:argv_parsing.obj
 0001:0007b410       _configure_wide_argv       000000018007c410 f   libucrtd:argv_parsing.obj
 0001:0007b430       _set_pgmptr                000000018007c430 f i libucrtd:argv_parsing.obj
 0001:0007b450       _set_wpgmptr               000000018007c450 f i libucrtd:argv_parsing.obj
 0001:0007b468       ??$?R_W@__crt_internal_free_policy@@QEBAXQEB_W@Z 000000018007c468 f i libucrtd:environment_initialization.obj
 0001:0007bbac       ??$get_environment_from_os@$$V@?$__crt_char_traits@D@@SAPEADXZ 000000018007cbac f i libucrtd:environment_initialization.obj
 0001:0007bbb4       ??$get_environment_from_os@$$V@?$__crt_char_traits@_W@@SAPEA_WXZ 000000018007cbb4 f i libucrtd:environment_initialization.obj
 0001:0007bdf4       ??$set_variable_in_environment_nolock@PEADH@?$__crt_char_traits@D@@SAH$$QEAPEAD$$QEAH@Z 000000018007cdf4 f i libucrtd:environment_initialization.obj
 0001:0007be00       ??$set_variable_in_environment_nolock@PEA_WH@?$__crt_char_traits@_W@@SAH$$QEAPEA_W$$QEAH@Z 000000018007ce00 f i libucrtd:environment_initialization.obj
 0001:0007be0c       ??$tcscpy_s@PEADAEB_KAEAPEAD@?$__crt_char_traits@D@@SAH$$QEAPEADAEB_KAEAPEAD@Z 000000018007ce0c f i libucrtd:environment_initialization.obj
 0001:0007be20       ??$tcscpy_s@PEA_WAEB_KAEAPEA_W@?$__crt_char_traits@_W@@SAH$$QEAPEA_WAEB_KAEAPEA_W@Z 000000018007ce20 f i libucrtd:environment_initialization.obj
 0001:0007be34       ??$tcslen@AEAPEAD@?$__crt_char_traits@D@@SA_KAEAPEAD@Z 000000018007ce34 f i libucrtd:environment_initialization.obj
 0001:0007be4c       ??$tcslen@AEAPEA_W@?$__crt_char_traits@_W@@SA_KAEAPEA_W@Z 000000018007ce4c f i libucrtd:environment_initialization.obj
 0001:0007be64       ??$uninitialize@A6AXAEAPEAPEAD@Z@?$dual_state_global@PEAPEAD@__crt_state_management@@QEAAXA6AXAEAPEAPEAD@Z@Z 000000018007ce64 f i libucrtd:environment_initialization.obj
 0001:0007beb8       ??$uninitialize@A6AXAEAPEAPEA_W@Z@?$dual_state_global@PEAPEA_W@__crt_state_management@@QEAAXA6AXAEAPEAPEA_W@Z@Z 000000018007ceb8 f i libucrtd:environment_initialization.obj
 0001:0007bf4c       ??0?$__crt_unique_heap_ptr@_WU__crt_internal_free_policy@@@@QEAA@QEA_W@Z 000000018007cf4c f i libucrtd:environment_initialization.obj
 0001:0007bf54       ??1?$__crt_unique_heap_ptr@_WU__crt_internal_free_policy@@@@QEAA@XZ 000000018007cf54 f i libucrtd:environment_initialization.obj
 0001:0007bf7c       ??B?$__crt_unique_heap_ptr@PEADU__crt_internal_free_policy@@@@QEBA_NXZ 000000018007cf7c f i libucrtd:environment_initialization.obj
 0001:0007bf88       ??B?$__crt_unique_heap_ptr@PEA_WU__crt_internal_free_policy@@@@QEBA_NXZ 000000018007cf88 f i libucrtd:environment_initialization.obj
 0001:0007bf94       ??B?$__crt_unique_heap_ptr@_WU__crt_internal_free_policy@@@@QEBA_NXZ 000000018007cf94 f i libucrtd:environment_initialization.obj
 0001:0007bfa0       ?__crt_compute_required_transform_buffer_count@@YA_KIQEBD@Z 000000018007cfa0 f i libucrtd:environment_initialization.obj
 0001:0007bfd0       ?__crt_compute_required_transform_buffer_count@@YA_KIQEB_W@Z 000000018007cfd0 f i libucrtd:environment_initialization.obj
 0001:0007c00c       ?__crt_transform_string@@YA_KIQEBDQEA_W_K@Z 000000018007d00c f i libucrtd:environment_initialization.obj
 0001:0007c038       ?__crt_transform_string@@YA_KIQEB_WQEAD_K@Z 000000018007d038 f i libucrtd:environment_initialization.obj
 0001:0007c074       ?detach@?$__crt_unique_heap_ptr@DU__crt_internal_free_policy@@@@QEAAPEADXZ 000000018007d074 f i libucrtd:environment_initialization.obj
 0001:0007c080       ?detach@?$__crt_unique_heap_ptr@_WU__crt_internal_free_policy@@@@QEAAPEA_WXZ 000000018007d080 f i libucrtd:environment_initialization.obj
 0001:0007c08c       ?get@?$__crt_unique_heap_ptr@_WU__crt_internal_free_policy@@@@QEBAPEA_WXZ 000000018007d08c f i libucrtd:environment_initialization.obj
 0001:0007c090       ?get_current_state_index@__crt_state_management@@YA_KXZ 000000018007d090 f i libucrtd:environment_initialization.obj
 0001:0007c0dc       ?initialize@?$dual_state_global@PEAPEAD@__crt_state_management@@QEAAXQEAPEAD@Z 000000018007d0dc f i libucrtd:environment_initialization.obj
 0001:0007c10c       ?initialize@?$dual_state_global@PEAPEA_W@__crt_state_management@@QEAAXQEAPEA_W@Z 000000018007d10c f i libucrtd:environment_initialization.obj
 0001:0007c13c       ?is_valid@?$__crt_unique_heap_ptr@PEADU__crt_internal_free_policy@@@@QEBA_NXZ 000000018007d13c f i libucrtd:environment_initialization.obj
 0001:0007c148       ?is_valid@?$__crt_unique_heap_ptr@PEA_WU__crt_internal_free_policy@@@@QEBA_NXZ 000000018007d148 f i libucrtd:environment_initialization.obj
 0001:0007c154       ?is_valid@?$__crt_unique_heap_ptr@_WU__crt_internal_free_policy@@@@QEBA_NXZ 000000018007d154 f i libucrtd:environment_initialization.obj
 0001:0007c16c       ?release@?$__crt_unique_heap_ptr@_WU__crt_internal_free_policy@@@@QEAAXXZ 000000018007d16c f i libucrtd:environment_initialization.obj
 0001:0007c194       ?value@?$dual_state_global@PEAPEAD@__crt_state_management@@QEAAAEAPEAPEADXZ 000000018007d194 f i libucrtd:environment_initialization.obj
 0001:0007c198       ?value@?$dual_state_global@PEAPEA_W@__crt_state_management@@QEAAAEAPEAPEA_WXZ 000000018007d198 f i libucrtd:environment_initialization.obj
 0001:0007c19c       __dcrt_get_or_create_narrow_environment_nolock 000000018007d19c f   libucrtd:environment_initialization.obj
 0001:0007c1e8       __dcrt_get_or_create_wide_environment_nolock 000000018007d1e8 f   libucrtd:environment_initialization.obj
 0001:0007c234       __dcrt_uninitialize_environments_nolock 000000018007d234 f   libucrtd:environment_initialization.obj
 0001:0007c27c       __p__environ               000000018007d27c f   libucrtd:environment_initialization.obj
 0001:0007c288       __p__wenviron              000000018007d288 f   libucrtd:environment_initialization.obj
 0001:0007c294       _get_initial_narrow_environment 000000018007d294 f   libucrtd:environment_initialization.obj
 0001:0007c2f8       _get_initial_wide_environment 000000018007d2f8 f   libucrtd:environment_initialization.obj
 0001:0007c35c       _initialize_narrow_environment 000000018007d35c f   libucrtd:environment_initialization.obj
 0001:0007c364       _initialize_wide_environment 000000018007d364 f   libucrtd:environment_initialization.obj
 0001:0007c370       ??$?B$$A6AXXZ@__crt_fast_encoded_nullptr_t@@QEBAP6AXXZXZ 000000018007d370 f i libucrtd:onexit.obj
 0001:0007c390       ??$?BP6AXXZ@__crt_fast_encoded_nullptr_t@@QEBAPEAP6AXXZXZ 000000018007d390 f i libucrtd:onexit.obj
 0001:0007c3b0       ??$?RP6AXXZ@__crt_internal_free_policy@@QEBAXQEBQ6AXXZ@Z 000000018007d3b0 f i libucrtd:onexit.obj
 0001:0007c580       ??$__crt_fast_decode_pointer@P6AXXZ@@YAP6AXXZQ6AXXZ@Z 000000018007d580 f i libucrtd:onexit.obj
 0001:0007c5d0       ??$__crt_fast_decode_pointer@PEAP6AXXZ@@YAPEAP6AXXZQEAP6AXXZ@Z 000000018007d5d0 f i libucrtd:onexit.obj
 0001:0007c620       ??$__crt_fast_encode_pointer@P6AHXZ@@YAP6AHXZQ6AHXZ@Z 000000018007d620 f i libucrtd:onexit.obj
 0001:0007c670       ??$__crt_fast_encode_pointer@P6AXXZ@@YAP6AXXZQ6AXXZ@Z 000000018007d670 f i libucrtd:onexit.obj
 0001:0007c6c0       ??$__crt_fast_encode_pointer@PEAP6AXXZ@@YAPEAP6AXXZQEAP6AXXZ@Z 000000018007d6c0 f i libucrtd:onexit.obj
 0001:0007c840       ??0?$__crt_unique_heap_ptr@P6AXXZU__crt_internal_free_policy@@@@QEAA@QEAP6AXXZ@Z 000000018007d840 f i libucrtd:onexit.obj
 0001:0007c870       ??1?$__crt_unique_heap_ptr@P6AXXZU__crt_internal_free_policy@@@@QEAA@XZ 000000018007d870 f i libucrtd:onexit.obj
 0001:0007c890       ??1scoped_global_state_reset@__crt_state_management@@QEAA@XZ 000000018007d890 f i libucrtd:onexit.obj
 0001:0007cfa0       ?detach@?$__crt_unique_heap_ptr@P6AXXZU__crt_internal_free_policy@@@@QEAAPEAP6AXXZXZ 000000018007dfa0 f i libucrtd:onexit.obj
 0001:0007cfe0       ?release@?$__crt_unique_heap_ptr@P6AXXZU__crt_internal_free_policy@@@@QEAAXXZ 000000018007dfe0 f i libucrtd:onexit.obj
 0001:0007d020       _crt_at_quick_exit         000000018007e020 f   libucrtd:onexit.obj
 0001:0007d050       _crt_atexit                000000018007e050 f   libucrtd:onexit.obj
 0001:0007d080       _execute_onexit_table      000000018007e080 f   libucrtd:onexit.obj
 0001:0007d0d0       _initialize_onexit_table   000000018007e0d0 f   libucrtd:onexit.obj
 0001:0007d170       _register_onexit_function  000000018007e170 f   libucrtd:onexit.obj
 0001:0007d440       ??$?BX@__crt_fast_encoded_nullptr_t@@QEBAPEAXXZ 000000018007e440 f i libucrtd:initialization.obj
 0001:0007d460       ??$__crt_fast_encode_pointer@PEAX@@YAPEAXQEAX@Z 000000018007e460 f i libucrtd:initialization.obj
 0001:0007d5a0       ?initialize@?$dual_state_global@PEAU__crt_locale_data@@@__crt_state_management@@QEAAXQEAU__crt_locale_data@@@Z 000000018007e5a0 f i libucrtd:initialization.obj
 0001:0007d600       __acrt_initialize          000000018007e600 f   libucrtd:initialization.obj
 0001:0007d630       __acrt_thread_attach       000000018007e630 f   libucrtd:initialization.obj
 0001:0007d650       __acrt_thread_detach       000000018007e650 f   libucrtd:initialization.obj
 0001:0007d670       __acrt_uninitialize        000000018007e670 f   libucrtd:initialization.obj
 0001:0007d6b0       __acrt_uninitialize_critical 000000018007e6b0 f   libucrtd:initialization.obj
 0001:0007d720       _get_terminate             000000018007e720 f   libucrtd:terminate.obj
 0001:0007d740       set_terminate              000000018007e740 f   libucrtd:terminate.obj
 0001:0007d790       terminate                  000000018007e790 f   libucrtd:terminate.obj
 0001:0007dde0       strcpy_s                   000000018007ede0 f   libucrtd:strcpy_s.obj
 0001:0007e620       strcat_s                   000000018007f620 f   libucrtd:strcat_s.obj
 0001:0007e660       ??$?0AEBV?$stream_output_adapter@D@__crt_stdio_output@@AEB_KAEBQEBDAEBQEAU__crt_locale_pointers@@AEBQEAD@?$format_validation_base@DV?$stream_output_adapter@D@__crt_stdio_output@@@__crt_stdio_output@@IEAA@AEBV?$stream_output_adapter@D@1@AEB_KAEBQEBDAEBQEAU__crt_locale_pointers@@AEBQEAD@Z 000000018007f660 f i libucrtd:output.obj
 0001:0007e6d0       ??$?0AEBV?$stream_output_adapter@D@__crt_stdio_output@@AEB_KAEBQEBDAEBQEAU__crt_locale_pointers@@AEBQEAD@?$positional_parameter_base@DV?$stream_output_adapter@D@__crt_stdio_output@@@__crt_stdio_output@@IEAA@AEBV?$stream_output_adapter@D@1@AEB_KAEBQEBDAEBQEAU__crt_locale_pointers@@AEBQEAD@Z 000000018007f6d0 f i libucrtd:output.obj
 0001:0007e7a0       ??$?0AEBV?$stream_output_adapter@D@__crt_stdio_output@@AEB_KAEBQEBDAEBQEAU__crt_locale_pointers@@AEBQEAD@?$standard_base@DV?$stream_output_adapter@D@__crt_stdio_output@@@__crt_stdio_output@@IEAA@AEBV?$stream_output_adapter@D@1@AEB_KAEBQEBDAEBQEAU__crt_locale_pointers@@AEBQEAD@Z 000000018007f7a0 f i libucrtd:output.obj
 0001:0007e830       ??$?0AEBV?$stream_output_adapter@_W@__crt_stdio_output@@AEB_KAEBQEB_WAEBQEAU__crt_locale_pointers@@AEBQEAD@?$format_validation_base@_WV?$stream_output_adapter@_W@__crt_stdio_output@@@__crt_stdio_output@@IEAA@AEBV?$stream_output_adapter@_W@1@AEB_KAEBQEB_WAEBQEAU__crt_locale_pointers@@AEBQEAD@Z 000000018007f830 f i libucrtd:output.obj
 0001:0007e8a0       ??$?0AEBV?$stream_output_adapter@_W@__crt_stdio_output@@AEB_KAEBQEB_WAEBQEAU__crt_locale_pointers@@AEBQEAD@?$positional_parameter_base@_WV?$stream_output_adapter@_W@__crt_stdio_output@@@__crt_stdio_output@@IEAA@AEBV?$stream_output_adapter@_W@1@AEB_KAEBQEB_WAEBQEAU__crt_locale_pointers@@AEBQEAD@Z 000000018007f8a0 f i libucrtd:output.obj
 0001:0007e970       ??$?0AEBV?$stream_output_adapter@_W@__crt_stdio_output@@AEB_KAEBQEB_WAEBQEAU__crt_locale_pointers@@AEBQEAD@?$standard_base@_WV?$stream_output_adapter@_W@__crt_stdio_output@@@__crt_stdio_output@@IEAA@AEBV?$stream_output_adapter@_W@1@AEB_KAEBQEB_WAEBQEAU__crt_locale_pointers@@AEBQEAD@Z 000000018007f970 f i libucrtd:output.obj
 0001:0007ea00       ??$?0AEBV?$string_output_adapter@D@__crt_stdio_output@@AEB_KAEBQEBDAEBQEAU__crt_locale_pointers@@AEBQEAD@?$format_validation_base@DV?$string_output_adapter@D@__crt_stdio_output@@@__crt_stdio_output@@IEAA@AEBV?$string_output_adapter@D@1@AEB_KAEBQEBDAEBQEAU__crt_locale_pointers@@AEBQEAD@Z 000000018007fa00 f i libucrtd:output.obj
 0001:0007ea70       ??$?0AEBV?$string_output_adapter@D@__crt_stdio_output@@AEB_KAEBQEBDAEBQEAU__crt_locale_pointers@@AEBQEAD@?$positional_parameter_base@DV?$string_output_adapter@D@__crt_stdio_output@@@__crt_stdio_output@@IEAA@AEBV?$string_output_adapter@D@1@AEB_KAEBQEBDAEBQEAU__crt_locale_pointers@@AEBQEAD@Z 000000018007fa70 f i libucrtd:output.obj
 0001:0007eb40       ??$?0AEBV?$string_output_adapter@D@__crt_stdio_output@@AEB_KAEBQEBDAEBQEAU__crt_locale_pointers@@AEBQEAD@?$standard_base@DV?$string_output_adapter@D@__crt_stdio_output@@@__crt_stdio_output@@IEAA@AEBV?$string_output_adapter@D@1@AEB_KAEBQEBDAEBQEAU__crt_locale_pointers@@AEBQEAD@Z 000000018007fb40 f i libucrtd:output.obj
 0001:0007ebd0       ??$?0AEBV?$string_output_adapter@_W@__crt_stdio_output@@AEB_KAEBQEB_WAEBQEAU__crt_locale_pointers@@AEBQEAD@?$format_validation_base@_WV?$string_output_adapter@_W@__crt_stdio_output@@@__crt_stdio_output@@IEAA@AEBV?$string_output_adapter@_W@1@AEB_KAEBQEB_WAEBQEAU__crt_locale_pointers@@AEBQEAD@Z 000000018007fbd0 f i libucrtd:output.obj
 0001:0007ec40       ??$?0AEBV?$string_output_adapter@_W@__crt_stdio_output@@AEB_KAEBQEB_WAEBQEAU__crt_locale_pointers@@AEBQEAD@?$positional_parameter_base@_WV?$string_output_adapter@_W@__crt_stdio_output@@@__crt_stdio_output@@IEAA@AEBV?$string_output_adapter@_W@1@AEB_KAEBQEB_WAEBQEAU__crt_locale_pointers@@AEBQEAD@Z 000000018007fc40 f i libucrtd:output.obj
 0001:0007ed10       ??$?0AEBV?$string_output_adapter@_W@__crt_stdio_output@@AEB_KAEBQEB_WAEBQEAU__crt_locale_pointers@@AEBQEAD@?$standard_base@_WV?$string_output_adapter@_W@__crt_stdio_output@@@__crt_stdio_output@@IEAA@AEBV?$string_output_adapter@_W@1@AEB_KAEBQEB_WAEBQEAU__crt_locale_pointers@@AEBQEAD@Z 000000018007fd10 f i libucrtd:output.obj
 0001:00083bd0       ??$count@D@formatting_buffer@__crt_stdio_output@@QEBA_KXZ 0000000180084bd0 f i libucrtd:output.obj
 0001:00083c30       ??$count@_W@formatting_buffer@__crt_stdio_output@@QEBA_KXZ 0000000180084c30 f i libucrtd:output.obj
 0001:00083ca0       ??$data@D@formatting_buffer@__crt_stdio_output@@QEAAPEADXZ 0000000180084ca0 f i libucrtd:output.obj
 0001:00083d00       ??$data@_W@formatting_buffer@__crt_stdio_output@@QEAAPEA_WXZ 0000000180084d00 f i libucrtd:output.obj
 0001:00083d60       ??$ensure_buffer_is_big_enough@D@formatting_buffer@__crt_stdio_output@@QEAA_N_K@Z 0000000180084d60 f i libucrtd:output.obj
 0001:00083ed0       ??$ensure_buffer_is_big_enough@_W@formatting_buffer@__crt_stdio_output@@QEAA_N_K@Z 0000000180084ed0 f i libucrtd:output.obj
 0001:00084050       ??$extract_argument_from_va_list@C_J@?$positional_parameter_base@DV?$stream_output_adapter@D@__crt_stdio_output@@@__crt_stdio_output@@IEAA_NAEA_J@Z 0000000180085050 f i libucrtd:output.obj
 0001:00084230       ??$extract_argument_from_va_list@C_J@?$positional_parameter_base@DV?$string_output_adapter@D@__crt_stdio_output@@@__crt_stdio_output@@IEAA_NAEA_J@Z 0000000180085230 f i libucrtd:output.obj
 0001:00084410       ??$extract_argument_from_va_list@C_J@?$positional_parameter_base@_WV?$stream_output_adapter@_W@__crt_stdio_output@@@__crt_stdio_output@@IEAA_NAEA_J@Z 0000000180085410 f i libucrtd:output.obj
 0001:000845f0       ??$extract_argument_from_va_list@C_J@?$positional_parameter_base@_WV?$string_output_adapter@_W@__crt_stdio_output@@@__crt_stdio_output@@IEAA_NAEA_J@Z 00000001800855f0 f i libucrtd:output.obj
 0001:000847d0       ??$extract_argument_from_va_list@C_J@?$standard_base@DV?$stream_output_adapter@D@__crt_stdio_output@@@__crt_stdio_output@@IEAA_NAEA_J@Z 00000001800857d0 f i libucrtd:output.obj
 0001:00084810       ??$extract_argument_from_va_list@C_J@?$standard_base@DV?$string_output_adapter@D@__crt_stdio_output@@@__crt_stdio_output@@IEAA_NAEA_J@Z 0000000180085810 f i libucrtd:output.obj
 0001:00084850       ??$extract_argument_from_va_list@C_J@?$standard_base@_WV?$stream_output_adapter@_W@__crt_stdio_output@@@__crt_stdio_output@@IEAA_NAEA_J@Z 0000000180085850 f i libucrtd:output.obj
 0001:00084890       ??$extract_argument_from_va_list@C_J@?$standard_base@_WV?$string_output_adapter@_W@__crt_stdio_output@@@__crt_stdio_output@@IEAA_NAEA_J@Z 0000000180085890 f i libucrtd:output.obj
 0001:000848d0       ??$extract_argument_from_va_list@E_J@?$positional_parameter_base@DV?$stream_output_adapter@D@__crt_stdio_output@@@__crt_stdio_output@@IEAA_NAEA_J@Z 00000001800858d0 f i libucrtd:output.obj
 0001:00084ab0       ??$extract_argument_from_va_list@E_J@?$positional_parameter_base@DV?$string_output_adapter@D@__crt_stdio_output@@@__crt_stdio_output@@IEAA_NAEA_J@Z 0000000180085ab0 f i libucrtd:output.obj
 0001:00084c90       ??$extract_argument_from_va_list@E_J@?$positional_parameter_base@_WV?$stream_output_adapter@_W@__crt_stdio_output@@@__crt_stdio_output@@IEAA_NAEA_J@Z 0000000180085c90 f i libucrtd:output.obj
 0001:00084e70       ??$extract_argument_from_va_list@E_J@?$positional_parameter_base@_WV?$string_output_adapter@_W@__crt_stdio_output@@@__crt_stdio_output@@IEAA_NAEA_J@Z 0000000180085e70 f i libucrtd:output.obj
 0001:00085050       ??$extract_argument_from_va_list@E_J@?$standard_base@DV?$stream_output_adapter@D@__crt_stdio_output@@@__crt_stdio_output@@IEAA_NAEA_J@Z 0000000180086050 f i libucrtd:output.obj
 0001:00085090       ??$extract_argument_from_va_list@E_J@?$standard_base@DV?$string_output_adapter@D@__crt_stdio_output@@@__crt_stdio_output@@IEAA_NAEA_J@Z 0000000180086090 f i libucrtd:output.obj
 0001:000850d0       ??$extract_argument_from_va_list@E_J@?$standard_base@_WV?$stream_output_adapter@_W@__crt_stdio_output@@@__crt_stdio_output@@IEAA_NAEA_J@Z 00000001800860d0 f i libucrtd:output.obj
 0001:00085110       ??$extract_argument_from_va_list@E_J@?$standard_base@_WV?$string_output_adapter@_W@__crt_stdio_output@@@__crt_stdio_output@@IEAA_NAEA_J@Z 0000000180086110 f i libucrtd:output.obj
 0001:00085150       ??$extract_argument_from_va_list@F_J@?$positional_parameter_base@DV?$stream_output_adapter@D@__crt_stdio_output@@@__crt_stdio_output@@IEAA_NAEA_J@Z 0000000180086150 f i libucrtd:output.obj
 0001:00085330       ??$extract_argument_from_va_list@F_J@?$positional_parameter_base@DV?$string_output_adapter@D@__crt_stdio_output@@@__crt_stdio_output@@IEAA_NAEA_J@Z 0000000180086330 f i libucrtd:output.obj
 0001:00085510       ??$extract_argument_from_va_list@F_J@?$positional_parameter_base@_WV?$stream_output_adapter@_W@__crt_stdio_output@@@__crt_stdio_output@@IEAA_NAEA_J@Z 0000000180086510 f i libucrtd:output.obj
 0001:000856f0       ??$extract_argument_from_va_list@F_J@?$positional_parameter_base@_WV?$string_output_adapter@_W@__crt_stdio_output@@@__crt_stdio_output@@IEAA_NAEA_J@Z 00000001800866f0 f i libucrtd:output.obj
 0001:000858d0       ??$extract_argument_from_va_list@F_J@?$standard_base@DV?$stream_output_adapter@D@__crt_stdio_output@@@__crt_stdio_output@@IEAA_NAEA_J@Z 00000001800868d0 f i libucrtd:output.obj
 0001:00085910       ??$extract_argument_from_va_list@F_J@?$standard_base@DV?$string_output_adapter@D@__crt_stdio_output@@@__crt_stdio_output@@IEAA_NAEA_J@Z 0000000180086910 f i libucrtd:output.obj
 0001:00085950       ??$extract_argument_from_va_list@F_J@?$standard_base@_WV?$stream_output_adapter@_W@__crt_stdio_output@@@__crt_stdio_output@@IEAA_NAEA_J@Z 0000000180086950 f i libucrtd:output.obj
 0001:00085990       ??$extract_argument_from_va_list@F_J@?$standard_base@_WV?$string_output_adapter@_W@__crt_stdio_output@@@__crt_stdio_output@@IEAA_NAEA_J@Z 0000000180086990 f i libucrtd:output.obj
 0001:000859d0       ??$extract_argument_from_va_list@GD@?$positional_parameter_base@DV?$stream_output_adapter@D@__crt_stdio_output@@@__crt_stdio_output@@IEAA_NAEAD@Z 00000001800869d0 f i libucrtd:output.obj
 0001:00085bb0       ??$extract_argument_from_va_list@GD@?$positional_parameter_base@DV?$string_output_adapter@D@__crt_stdio_output@@@__crt_stdio_output@@IEAA_NAEAD@Z 0000000180086bb0 f i libucrtd:output.obj
 0001:00085d90       ??$extract_argument_from_va_list@GD@?$standard_base@DV?$stream_output_adapter@D@__crt_stdio_output@@@__crt_stdio_output@@IEAA_NAEAD@Z 0000000180086d90 f i libucrtd:output.obj
 0001:00085dd0       ??$extract_argument_from_va_list@GD@?$standard_base@DV?$string_output_adapter@D@__crt_stdio_output@@@__crt_stdio_output@@IEAA_NAEAD@Z 0000000180086dd0 f i libucrtd:output.obj
 0001:00085e10       ??$extract_argument_from_va_list@G_J@?$positional_parameter_base@DV?$stream_output_adapter@D@__crt_stdio_output@@@__crt_stdio_output@@IEAA_NAEA_J@Z 0000000180086e10 f i libucrtd:output.obj
 0001:00085ff0       ??$extract_argument_from_va_list@G_J@?$positional_parameter_base@DV?$string_output_adapter@D@__crt_stdio_output@@@__crt_stdio_output@@IEAA_NAEA_J@Z 0000000180086ff0 f i libucrtd:output.obj
 0001:000861d0       ??$extract_argument_from_va_list@G_J@?$positional_parameter_base@_WV?$stream_output_adapter@_W@__crt_stdio_output@@@__crt_stdio_output@@IEAA_NAEA_J@Z 00000001800871d0 f i libucrtd:output.obj
 0001:000863b0       ??$extract_argument_from_va_list@G_J@?$positional_parameter_base@_WV?$string_output_adapter@_W@__crt_stdio_output@@@__crt_stdio_output@@IEAA_NAEA_J@Z 00000001800873b0 f i libucrtd:output.obj
 0001:00086590       ??$extract_argument_from_va_list@G_J@?$standard_base@DV?$stream_output_adapter@D@__crt_stdio_output@@@__crt_stdio_output@@IEAA_NAEA_J@Z 0000000180087590 f i libucrtd:output.obj
 0001:000865d0       ??$extract_argument_from_va_list@G_J@?$standard_base@DV?$string_output_adapter@D@__crt_stdio_output@@@__crt_stdio_output@@IEAA_NAEA_J@Z 00000001800875d0 f i libucrtd:output.obj
 0001:00086610       ??$extract_argument_from_va_list@G_J@?$standard_base@_WV?$stream_output_adapter@_W@__crt_stdio_output@@@__crt_stdio_output@@IEAA_NAEA_J@Z 0000000180087610 f i libucrtd:output.obj
 0001:00086650       ??$extract_argument_from_va_list@G_J@?$standard_base@_WV?$string_output_adapter@_W@__crt_stdio_output@@@__crt_stdio_output@@IEAA_NAEA_J@Z 0000000180087650 f i libucrtd:output.obj
 0001:00086690       ??$extract_argument_from_va_list@H_J@?$positional_parameter_base@DV?$stream_output_adapter@D@__crt_stdio_output@@@__crt_stdio_output@@IEAA_NAEA_J@Z 0000000180087690 f i libucrtd:output.obj
 0001:00086870       ??$extract_argument_from_va_list@H_J@?$positional_parameter_base@DV?$string_output_adapter@D@__crt_stdio_output@@@__crt_stdio_output@@IEAA_NAEA_J@Z 0000000180087870 f i libucrtd:output.obj
 0001:00086a50       ??$extract_argument_from_va_list@H_J@?$positional_parameter_base@_WV?$stream_output_adapter@_W@__crt_stdio_output@@@__crt_stdio_output@@IEAA_NAEA_J@Z 0000000180087a50 f i libucrtd:output.obj
 0001:00086c30       ??$extract_argument_from_va_list@H_J@?$positional_parameter_base@_WV?$string_output_adapter@_W@__crt_stdio_output@@@__crt_stdio_output@@IEAA_NAEA_J@Z 0000000180087c30 f i libucrtd:output.obj
 0001:00086e10       ??$extract_argument_from_va_list@H_J@?$standard_base@DV?$stream_output_adapter@D@__crt_stdio_output@@@__crt_stdio_output@@IEAA_NAEA_J@Z 0000000180087e10 f i libucrtd:output.obj
 0001:00086e50       ??$extract_argument_from_va_list@H_J@?$standard_base@DV?$string_output_adapter@D@__crt_stdio_output@@@__crt_stdio_output@@IEAA_NAEA_J@Z 0000000180087e50 f i libucrtd:output.obj
 0001:00086e90       ??$extract_argument_from_va_list@H_J@?$standard_base@_WV?$stream_output_adapter@_W@__crt_stdio_output@@@__crt_stdio_output@@IEAA_NAEA_J@Z 0000000180087e90 f i libucrtd:output.obj
 0001:00086ed0       ??$extract_argument_from_va_list@H_J@?$standard_base@_WV?$string_output_adapter@_W@__crt_stdio_output@@@__crt_stdio_output@@IEAA_NAEA_J@Z 0000000180087ed0 f i libucrtd:output.obj
 0001:00086f10       ??$extract_argument_from_va_list@I_J@?$positional_parameter_base@DV?$stream_output_adapter@D@__crt_stdio_output@@@__crt_stdio_output@@IEAA_NAEA_J@Z 0000000180087f10 f i libucrtd:output.obj
 0001:000870f0       ??$extract_argument_from_va_list@I_J@?$positional_parameter_base@DV?$string_output_adapter@D@__crt_stdio_output@@@__crt_stdio_output@@IEAA_NAEA_J@Z 00000001800880f0 f i libucrtd:output.obj
 0001:000872d0       ??$extract_argument_from_va_list@I_J@?$positional_parameter_base@_WV?$stream_output_adapter@_W@__crt_stdio_output@@@__crt_stdio_output@@IEAA_NAEA_J@Z 00000001800882d0 f i libucrtd:output.obj
 0001:000874b0       ??$extract_argument_from_va_list@I_J@?$positional_parameter_base@_WV?$string_output_adapter@_W@__crt_stdio_output@@@__crt_stdio_output@@IEAA_NAEA_J@Z 00000001800884b0 f i libucrtd:output.obj
 0001:00087690       ??$extract_argument_from_va_list@I_J@?$standard_base@DV?$stream_output_adapter@D@__crt_stdio_output@@@__crt_stdio_output@@IEAA_NAEA_J@Z 0000000180088690 f i libucrtd:output.obj
 0001:000876d0       ??$extract_argument_from_va_list@I_J@?$standard_base@DV?$string_output_adapter@D@__crt_stdio_output@@@__crt_stdio_output@@IEAA_NAEA_J@Z 00000001800886d0 f i libucrtd:output.obj
 0001:00087710       ??$extract_argument_from_va_list@I_J@?$standard_base@_WV?$stream_output_adapter@_W@__crt_stdio_output@@@__crt_stdio_output@@IEAA_NAEA_J@Z 0000000180088710 f i libucrtd:output.obj
 0001:00087750       ??$extract_argument_from_va_list@I_J@?$standard_base@_WV?$string_output_adapter@_W@__crt_stdio_output@@@__crt_stdio_output@@IEAA_NAEA_J@Z 0000000180088750 f i libucrtd:output.obj
 0001:00087790       ??$extract_argument_from_va_list@PEADPEAD@?$positional_parameter_base@DV?$stream_output_adapter@D@__crt_stdio_output@@@__crt_stdio_output@@IEAA_NAEAPEAD@Z 0000000180088790 f i libucrtd:output.obj
 0001:00087970       ??$extract_argument_from_va_list@PEADPEAD@?$positional_parameter_base@DV?$string_output_adapter@D@__crt_stdio_output@@@__crt_stdio_output@@IEAA_NAEAPEAD@Z 0000000180088970 f i libucrtd:output.obj
 0001:00087b50       ??$extract_argument_from_va_list@PEADPEAD@?$positional_parameter_base@_WV?$stream_output_adapter@_W@__crt_stdio_output@@@__crt_stdio_output@@IEAA_NAEAPEAD@Z 0000000180088b50 f i libucrtd:output.obj
 0001:00087d30       ??$extract_argument_from_va_list@PEADPEAD@?$positional_parameter_base@_WV?$string_output_adapter@_W@__crt_stdio_output@@@__crt_stdio_output@@IEAA_NAEAPEAD@Z 0000000180088d30 f i libucrtd:output.obj
 0001:00087f10       ??$extract_argument_from_va_list@PEADPEAD@?$standard_base@DV?$stream_output_adapter@D@__crt_stdio_output@@@__crt_stdio_output@@IEAA_NAEAPEAD@Z 0000000180088f10 f i libucrtd:output.obj
 0001:00087f50       ??$extract_argument_from_va_list@PEADPEAD@?$standard_base@DV?$string_output_adapter@D@__crt_stdio_output@@@__crt_stdio_output@@IEAA_NAEAPEAD@Z 0000000180088f50 f i libucrtd:output.obj
 0001:00087f90       ??$extract_argument_from_va_list@PEADPEAD@?$standard_base@_WV?$stream_output_adapter@_W@__crt_stdio_output@@@__crt_stdio_output@@IEAA_NAEAPEAD@Z 0000000180088f90 f i libucrtd:output.obj
 0001:00087fd0       ??$extract_argument_from_va_list@PEADPEAD@?$standard_base@_WV?$string_output_adapter@_W@__crt_stdio_output@@@__crt_stdio_output@@IEAA_NAEAPEAD@Z 0000000180088fd0 f i libucrtd:output.obj
 0001:00088010       ??$extract_argument_from_va_list@PEAUansi_string@?1??type_case_Z@?$output_processor@DV?$stream_output_adapter@D@__crt_stdio_output@@V?$format_validation_base@DV?$stream_output_adapter@D@__crt_stdio_output@@@2@@__crt_stdio_output@@AEAA_NXZ@PEAU1?1??234@AEAA_NXZ@@?$standard_base@DV?$stream_output_adapter@D@__crt_stdio_output@@@__crt_stdio_output@@IEAA_NAEAPEAUansi_string@?1??type_case_Z@?$output_processor@DV?$stream_output_adapter@D@__crt_stdio_output@@V?$format_validation_base@DV?$stream_output_adapter@D@__crt_stdio_output@@@2@@1@AEAA_NXZ@@Z 0000000180089010 f i libucrtd:output.obj
 0001:00088050       ??$extract_argument_from_va_list@PEAUansi_string@?1??type_case_Z@?$output_processor@DV?$stream_output_adapter@D@__crt_stdio_output@@V?$positional_parameter_base@DV?$stream_output_adapter@D@__crt_stdio_output@@@2@@__crt_stdio_output@@AEAA_NXZ@PEAU1?1??234@AEAA_NXZ@@?$positional_parameter_base@DV?$stream_output_adapter@D@__crt_stdio_output@@@__crt_stdio_output@@IEAA_NAEAPEAUansi_string@?1??type_case_Z@?$output_processor@DV?$stream_output_adapter@D@__crt_stdio_output@@V?$positional_parameter_base@DV?$stream_output_adapter@D@__crt_stdio_output@@@2@@1@AEAA_NXZ@@Z 0000000180089050 f i libucrtd:output.obj
 0001:00088230       ??$extract_argument_from_va_list@PEAUansi_string@?1??type_case_Z@?$output_processor@DV?$stream_output_adapter@D@__crt_stdio_output@@V?$positional_parameter_base@DV?$stream_output_adapter@D@__crt_stdio_output@@@2@@__crt_stdio_output@@AEAA_NXZ@PEAU1?1??234@AEAA_NXZ@@?$standard_base@DV?$stream_output_adapter@D@__crt_stdio_output@@@__crt_stdio_output@@IEAA_NAEAPEAUansi_string@?1??type_case_Z@?$output_processor@DV?$stream_output_adapter@D@__crt_stdio_output@@V?$positional_parameter_base@DV?$stream_output_adapter@D@__crt_stdio_output@@@2@@1@AEAA_NXZ@@Z 0000000180089230 f i libucrtd:output.obj
 0001:00088270       ??$extract_argument_from_va_list@PEAUansi_string@?1??type_case_Z@?$output_processor@DV?$stream_output_adapter@D@__crt_stdio_output@@V?$standard_base@DV?$stream_output_adapter@D@__crt_stdio_output@@@2@@__crt_stdio_output@@AEAA_NXZ@PEAU1?1??234@AEAA_NXZ@@?$standard_base@DV?$stream_output_adapter@D@__crt_stdio_output@@@__crt_stdio_output@@IEAA_NAEAPEAUansi_string@?1??type_case_Z@?$output_processor@DV?$stream_output_adapter@D@__crt_stdio_output@@V?$standard_base@DV?$stream_output_adapter@D@__crt_stdio_output@@@2@@1@AEAA_NXZ@@Z 0000000180089270 f i libucrtd:output.obj
 0001:000882b0       ??$extract_argument_from_va_list@PEAUansi_string@?1??type_case_Z@?$output_processor@DV?$string_output_adapter@D@__crt_stdio_output@@V?$format_validation_base@DV?$string_output_adapter@D@__crt_stdio_output@@@2@@__crt_stdio_output@@AEAA_NXZ@PEAU1?1??234@AEAA_NXZ@@?$standard_base@DV?$string_output_adapter@D@__crt_stdio_output@@@__crt_stdio_output@@IEAA_NAEAPEAUansi_string@?1??type_case_Z@?$output_processor@DV?$string_output_adapter@D@__crt_stdio_output@@V?$format_validation_base@DV?$string_output_adapter@D@__crt_stdio_output@@@2@@1@AEAA_NXZ@@Z 00000001800892b0 f i libucrtd:output.obj
 0001:000882f0       ??$extract_argument_from_va_list@PEAUansi_string@?1??type_case_Z@?$output_processor@DV?$string_output_adapter@D@__crt_stdio_output@@V?$positional_parameter_base@DV?$string_output_adapter@D@__crt_stdio_output@@@2@@__crt_stdio_output@@AEAA_NXZ@PEAU1?1??234@AEAA_NXZ@@?$positional_parameter_base@DV?$string_output_adapter@D@__crt_stdio_output@@@__crt_stdio_output@@IEAA_NAEAPEAUansi_string@?1??type_case_Z@?$output_processor@DV?$string_output_adapter@D@__crt_stdio_output@@V?$positional_parameter_base@DV?$string_output_adapter@D@__crt_stdio_output@@@2@@1@AEAA_NXZ@@Z 00000001800892f0 f i libucrtd:output.obj
 0001:000884d0       ??$extract_argument_from_va_list@PEAUansi_string@?1??type_case_Z@?$output_processor@DV?$string_output_adapter@D@__crt_stdio_output@@V?$positional_parameter_base@DV?$string_output_adapter@D@__crt_stdio_output@@@2@@__crt_stdio_output@@AEAA_NXZ@PEAU1?1??234@AEAA_NXZ@@?$standard_base@DV?$string_output_adapter@D@__crt_stdio_output@@@__crt_stdio_output@@IEAA_NAEAPEAUansi_string@?1??type_case_Z@?$output_processor@DV?$string_output_adapter@D@__crt_stdio_output@@V?$positional_parameter_base@DV?$string_output_adapter@D@__crt_stdio_output@@@2@@1@AEAA_NXZ@@Z 00000001800894d0 f i libucrtd:output.obj
 0001:00088510       ??$extract_argument_from_va_list@PEAUansi_string@?1??type_case_Z@?$output_processor@DV?$string_output_adapter@D@__crt_stdio_output@@V?$standard_base@DV?$string_output_adapter@D@__crt_stdio_output@@@2@@__crt_stdio_output@@AEAA_NXZ@PEAU1?1??234@AEAA_NXZ@@?$standard_base@DV?$string_output_adapter@D@__crt_stdio_output@@@__crt_stdio_output@@IEAA_NAEAPEAUansi_string@?1??type_case_Z@?$output_processor@DV?$string_output_adapter@D@__crt_stdio_output@@V?$standard_base@DV?$string_output_adapter@D@__crt_stdio_output@@@2@@1@AEAA_NXZ@@Z 0000000180089510 f i libucrtd:output.obj
 0001:00088550       ??$extract_argument_from_va_list@PEAUansi_string@?1??type_case_Z@?$output_processor@_WV?$stream_output_adapter@_W@__crt_stdio_output@@V?$format_validation_base@_WV?$stream_output_adapter@_W@__crt_stdio_output@@@2@@__crt_stdio_output@@AEAA_NXZ@PEAU1?1??234@AEAA_NXZ@@?$standard_base@_WV?$stream_output_adapter@_W@__crt_stdio_output@@@__crt_stdio_output@@IEAA_NAEAPEAUansi_string@?1??type_case_Z@?$output_processor@_WV?$stream_output_adapter@_W@__crt_stdio_output@@V?$format_validation_base@_WV?$stream_output_adapter@_W@__crt_stdio_output@@@2@@1@AEAA_NXZ@@Z 0000000180089550 f i libucrtd:output.obj
 0001:00088590       ??$extract_argument_from_va_list@PEAUansi_string@?1??type_case_Z@?$output_processor@_WV?$stream_output_adapter@_W@__crt_stdio_output@@V?$positional_parameter_base@_WV?$stream_output_adapter@_W@__crt_stdio_output@@@2@@__crt_stdio_output@@AEAA_NXZ@PEAU1?1??234@AEAA_NXZ@@?$positional_parameter_base@_WV?$stream_output_adapter@_W@__crt_stdio_output@@@__crt_stdio_output@@IEAA_NAEAPEAUansi_string@?1??type_case_Z@?$output_processor@_WV?$stream_output_adapter@_W@__crt_stdio_output@@V?$positional_parameter_base@_WV?$stream_output_adapter@_W@__crt_stdio_output@@@2@@1@AEAA_NXZ@@Z 0000000180089590 f i libucrtd:output.obj
 0001:00088770       ??$extract_argument_from_va_list@PEAUansi_string@?1??type_case_Z@?$output_processor@_WV?$stream_output_adapter@_W@__crt_stdio_output@@V?$positional_parameter_base@_WV?$stream_output_adapter@_W@__crt_stdio_output@@@2@@__crt_stdio_output@@AEAA_NXZ@PEAU1?1??234@AEAA_NXZ@@?$standard_base@_WV?$stream_output_adapter@_W@__crt_stdio_output@@@__crt_stdio_output@@IEAA_NAEAPEAUansi_string@?1??type_case_Z@?$output_processor@_WV?$stream_output_adapter@_W@__crt_stdio_output@@V?$positional_parameter_base@_WV?$stream_output_adapter@_W@__crt_stdio_output@@@2@@1@AEAA_NXZ@@Z 0000000180089770 f i libucrtd:output.obj
 0001:000887b0       ??$extract_argument_from_va_list@PEAUansi_string@?1??type_case_Z@?$output_processor@_WV?$stream_output_adapter@_W@__crt_stdio_output@@V?$standard_base@_WV?$stream_output_adapter@_W@__crt_stdio_output@@@2@@__crt_stdio_output@@AEAA_NXZ@PEAU1?1??234@AEAA_NXZ@@?$standard_base@_WV?$stream_output_adapter@_W@__crt_stdio_output@@@__crt_stdio_output@@IEAA_NAEAPEAUansi_string@?1??type_case_Z@?$output_processor@_WV?$stream_output_adapter@_W@__crt_stdio_output@@V?$standard_base@_WV?$stream_output_adapter@_W@__crt_stdio_output@@@2@@1@AEAA_NXZ@@Z 00000001800897b0 f i libucrtd:output.obj
 0001:000887f0       ??$extract_argument_from_va_list@PEAUansi_string@?1??type_case_Z@?$output_processor@_WV?$string_output_adapter@_W@__crt_stdio_output@@V?$format_validation_base@_WV?$string_output_adapter@_W@__crt_stdio_output@@@2@@__crt_stdio_output@@AEAA_NXZ@PEAU1?1??234@AEAA_NXZ@@?$standard_base@_WV?$string_output_adapter@_W@__crt_stdio_output@@@__crt_stdio_output@@IEAA_NAEAPEAUansi_string@?1??type_case_Z@?$output_processor@_WV?$string_output_adapter@_W@__crt_stdio_output@@V?$format_validation_base@_WV?$string_output_adapter@_W@__crt_stdio_output@@@2@@1@AEAA_NXZ@@Z 00000001800897f0 f i libucrtd:output.obj
 0001:00088830       ??$extract_argument_from_va_list@PEAUansi_string@?1??type_case_Z@?$output_processor@_WV?$string_output_adapter@_W@__crt_stdio_output@@V?$positional_parameter_base@_WV?$string_output_adapter@_W@__crt_stdio_output@@@2@@__crt_stdio_output@@AEAA_NXZ@PEAU1?1??234@AEAA_NXZ@@?$positional_parameter_base@_WV?$string_output_adapter@_W@__crt_stdio_output@@@__crt_stdio_output@@IEAA_NAEAPEAUansi_string@?1??type_case_Z@?$output_processor@_WV?$string_output_adapter@_W@__crt_stdio_output@@V?$positional_parameter_base@_WV?$string_output_adapter@_W@__crt_stdio_output@@@2@@1@AEAA_NXZ@@Z 0000000180089830 f i libucrtd:output.obj
 0001:00088a10       ??$extract_argument_from_va_list@PEAUansi_string@?1??type_case_Z@?$output_processor@_WV?$string_output_adapter@_W@__crt_stdio_output@@V?$positional_parameter_base@_WV?$string_output_adapter@_W@__crt_stdio_output@@@2@@__crt_stdio_output@@AEAA_NXZ@PEAU1?1??234@AEAA_NXZ@@?$standard_base@_WV?$string_output_adapter@_W@__crt_stdio_output@@@__crt_stdio_output@@IEAA_NAEAPEAUansi_string@?1??type_case_Z@?$output_processor@_WV?$string_output_adapter@_W@__crt_stdio_output@@V?$positional_parameter_base@_WV?$string_output_adapter@_W@__crt_stdio_output@@@2@@1@AEAA_NXZ@@Z 0000000180089a10 f i libucrtd:output.obj
 0001:00088a50       ??$extract_argument_from_va_list@PEAUansi_string@?1??type_case_Z@?$output_processor@_WV?$string_output_adapter@_W@__crt_stdio_output@@V?$standard_base@_WV?$string_output_adapter@_W@__crt_stdio_output@@@2@@__crt_stdio_output@@AEAA_NXZ@PEAU1?1??234@AEAA_NXZ@@?$standard_base@_WV?$string_output_adapter@_W@__crt_stdio_output@@@__crt_stdio_output@@IEAA_NAEAPEAUansi_string@?1??type_case_Z@?$output_processor@_WV?$string_output_adapter@_W@__crt_stdio_output@@V?$standard_base@_WV?$string_output_adapter@_W@__crt_stdio_output@@@2@@1@AEAA_NXZ@@Z 0000000180089a50 f i libucrtd:output.obj
 0001:00088a90       ??$extract_argument_from_va_list@PEAXPEAX@?$positional_parameter_base@DV?$stream_output_adapter@D@__crt_stdio_output@@@__crt_stdio_output@@IEAA_NAEAPEAX@Z 0000000180089a90 f i libucrtd:output.obj
 0001:00088c70       ??$extract_argument_from_va_list@PEAXPEAX@?$positional_parameter_base@DV?$string_output_adapter@D@__crt_stdio_output@@@__crt_stdio_output@@IEAA_NAEAPEAX@Z 0000000180089c70 f i libucrtd:output.obj
 0001:00088e50       ??$extract_argument_from_va_list@PEAXPEAX@?$positional_parameter_base@_WV?$stream_output_adapter@_W@__crt_stdio_output@@@__crt_stdio_output@@IEAA_NAEAPEAX@Z 0000000180089e50 f i libucrtd:output.obj
 0001:00089030       ??$extract_argument_from_va_list@PEAXPEAX@?$positional_parameter_base@_WV?$string_output_adapter@_W@__crt_stdio_output@@@__crt_stdio_output@@IEAA_NAEAPEAX@Z 000000018008a030 f i libucrtd:output.obj
 0001:00089210       ??$extract_argument_from_va_list@PEAXPEAX@?$standard_base@DV?$stream_output_adapter@D@__crt_stdio_output@@@__crt_stdio_output@@IEAA_NAEAPEAX@Z 000000018008a210 f i libucrtd:output.obj
 0001:00089250       ??$extract_argument_from_va_list@PEAXPEAX@?$standard_base@DV?$string_output_adapter@D@__crt_stdio_output@@@__crt_stdio_output@@IEAA_NAEAPEAX@Z 000000018008a250 f i libucrtd:output.obj
 0001:00089290       ??$extract_argument_from_va_list@PEAXPEAX@?$standard_base@_WV?$stream_output_adapter@_W@__crt_stdio_output@@@__crt_stdio_output@@IEAA_NAEAPEAX@Z 000000018008a290 f i libucrtd:output.obj
 0001:000892d0       ??$extract_argument_from_va_list@PEAXPEAX@?$standard_base@_WV?$string_output_adapter@_W@__crt_stdio_output@@@__crt_stdio_output@@IEAA_NAEAPEAX@Z 000000018008a2d0 f i libucrtd:output.obj
 0001:00089310       ??$extract_argument_from_va_list@U_CRT_DOUBLE@@U1@@?$positional_parameter_base@DV?$stream_output_adapter@D@__crt_stdio_output@@@__crt_stdio_output@@IEAA_NAEAU_CRT_DOUBLE@@@Z 000000018008a310 f i libucrtd:output.obj
 0001:00089520       ??$extract_argument_from_va_list@U_CRT_DOUBLE@@U1@@?$positional_parameter_base@DV?$string_output_adapter@D@__crt_stdio_output@@@__crt_stdio_output@@IEAA_NAEAU_CRT_DOUBLE@@@Z 000000018008a520 f i libucrtd:output.obj
 0001:00089730       ??$extract_argument_from_va_list@U_CRT_DOUBLE@@U1@@?$positional_parameter_base@_WV?$stream_output_adapter@_W@__crt_stdio_output@@@__crt_stdio_output@@IEAA_NAEAU_CRT_DOUBLE@@@Z 000000018008a730 f i libucrtd:output.obj
 0001:00089940       ??$extract_argument_from_va_list@U_CRT_DOUBLE@@U1@@?$positional_parameter_base@_WV?$string_output_adapter@_W@__crt_stdio_output@@@__crt_stdio_output@@IEAA_NAEAU_CRT_DOUBLE@@@Z 000000018008a940 f i libucrtd:output.obj
 0001:00089b50       ??$extract_argument_from_va_list@U_CRT_DOUBLE@@U1@@?$standard_base@DV?$stream_output_adapter@D@__crt_stdio_output@@@__crt_stdio_output@@IEAA_NAEAU_CRT_DOUBLE@@@Z 000000018008ab50 f i libucrtd:output.obj
 0001:00089bb0       ??$extract_argument_from_va_list@U_CRT_DOUBLE@@U1@@?$standard_base@DV?$string_output_adapter@D@__crt_stdio_output@@@__crt_stdio_output@@IEAA_NAEAU_CRT_DOUBLE@@@Z 000000018008abb0 f i libucrtd:output.obj
 0001:00089c10       ??$extract_argument_from_va_list@U_CRT_DOUBLE@@U1@@?$standard_base@_WV?$stream_output_adapter@_W@__crt_stdio_output@@@__crt_stdio_output@@IEAA_NAEAU_CRT_DOUBLE@@@Z 000000018008ac10 f i libucrtd:output.obj
 0001:00089c70       ??$extract_argument_from_va_list@U_CRT_DOUBLE@@U1@@?$standard_base@_WV?$string_output_adapter@_W@__crt_stdio_output@@@__crt_stdio_output@@IEAA_NAEAU_CRT_DOUBLE@@@Z 000000018008ac70 f i libucrtd:output.obj
 0001:00089cd0       ??$extract_argument_from_va_list@_J_J@?$positional_parameter_base@DV?$stream_output_adapter@D@__crt_stdio_output@@@__crt_stdio_output@@IEAA_NAEA_J@Z 000000018008acd0 f i libucrtd:output.obj
 0001:00089eb0       ??$extract_argument_from_va_list@_J_J@?$positional_parameter_base@DV?$string_output_adapter@D@__crt_stdio_output@@@__crt_stdio_output@@IEAA_NAEA_J@Z 000000018008aeb0 f i libucrtd:output.obj
 0001:0008a090       ??$extract_argument_from_va_list@_J_J@?$positional_parameter_base@_WV?$stream_output_adapter@_W@__crt_stdio_output@@@__crt_stdio_output@@IEAA_NAEA_J@Z 000000018008b090 f i libucrtd:output.obj
 0001:0008a270       ??$extract_argument_from_va_list@_J_J@?$positional_parameter_base@_WV?$string_output_adapter@_W@__crt_stdio_output@@@__crt_stdio_output@@IEAA_NAEA_J@Z 000000018008b270 f i libucrtd:output.obj
 0001:0008a450       ??$extract_argument_from_va_list@_J_J@?$standard_base@DV?$stream_output_adapter@D@__crt_stdio_output@@@__crt_stdio_output@@IEAA_NAEA_J@Z 000000018008b450 f i libucrtd:output.obj
 0001:0008a490       ??$extract_argument_from_va_list@_J_J@?$standard_base@DV?$string_output_adapter@D@__crt_stdio_output@@@__crt_stdio_output@@IEAA_NAEA_J@Z 000000018008b490 f i libucrtd:output.obj
 0001:0008a4d0       ??$extract_argument_from_va_list@_J_J@?$standard_base@_WV?$stream_output_adapter@_W@__crt_stdio_output@@@__crt_stdio_output@@IEAA_NAEA_J@Z 000000018008b4d0 f i libucrtd:output.obj
 0001:0008a510       ??$extract_argument_from_va_list@_J_J@?$standard_base@_WV?$string_output_adapter@_W@__crt_stdio_output@@@__crt_stdio_output@@IEAA_NAEA_J@Z 000000018008b510 f i libucrtd:output.obj
 0001:0008a550       ??$extract_argument_from_va_list@_K_J@?$positional_parameter_base@DV?$stream_output_adapter@D@__crt_stdio_output@@@__crt_stdio_output@@IEAA_NAEA_J@Z 000000018008b550 f i libucrtd:output.obj
 0001:0008a730       ??$extract_argument_from_va_list@_K_J@?$positional_parameter_base@DV?$string_output_adapter@D@__crt_stdio_output@@@__crt_stdio_output@@IEAA_NAEA_J@Z 000000018008b730 f i libucrtd:output.obj
 0001:0008a910       ??$extract_argument_from_va_list@_K_J@?$positional_parameter_base@_WV?$stream_output_adapter@_W@__crt_stdio_output@@@__crt_stdio_output@@IEAA_NAEA_J@Z 000000018008b910 f i libucrtd:output.obj
 0001:0008aaf0       ??$extract_argument_from_va_list@_K_J@?$positional_parameter_base@_WV?$string_output_adapter@_W@__crt_stdio_output@@@__crt_stdio_output@@IEAA_NAEA_J@Z 000000018008baf0 f i libucrtd:output.obj
 0001:0008acd0       ??$extract_argument_from_va_list@_K_J@?$standard_base@DV?$stream_output_adapter@D@__crt_stdio_output@@@__crt_stdio_output@@IEAA_NAEA_J@Z 000000018008bcd0 f i libucrtd:output.obj
 0001:0008ad10       ??$extract_argument_from_va_list@_K_J@?$standard_base@DV?$string_output_adapter@D@__crt_stdio_output@@@__crt_stdio_output@@IEAA_NAEA_J@Z 000000018008bd10 f i libucrtd:output.obj
 0001:0008ad50       ??$extract_argument_from_va_list@_K_J@?$standard_base@_WV?$stream_output_adapter@_W@__crt_stdio_output@@@__crt_stdio_output@@IEAA_NAEA_J@Z 000000018008bd50 f i libucrtd:output.obj
 0001:0008ad90       ??$extract_argument_from_va_list@_K_J@?$standard_base@_WV?$string_output_adapter@_W@__crt_stdio_output@@@__crt_stdio_output@@IEAA_NAEA_J@Z 000000018008bd90 f i libucrtd:output.obj
 0001:0008add0       ??$extract_argument_from_va_list@_W_W@?$positional_parameter_base@DV?$stream_output_adapter@D@__crt_stdio_output@@@__crt_stdio_output@@IEAA_NAEA_W@Z 000000018008bdd0 f i libucrtd:output.obj
 0001:0008afb0       ??$extract_argument_from_va_list@_W_W@?$positional_parameter_base@DV?$string_output_adapter@D@__crt_stdio_output@@@__crt_stdio_output@@IEAA_NAEA_W@Z 000000018008bfb0 f i libucrtd:output.obj
 0001:0008b190       ??$extract_argument_from_va_list@_W_W@?$positional_parameter_base@_WV?$stream_output_adapter@_W@__crt_stdio_output@@@__crt_stdio_output@@IEAA_NAEA_W@Z 000000018008c190 f i libucrtd:output.obj
 0001:0008b370       ??$extract_argument_from_va_list@_W_W@?$positional_parameter_base@_WV?$string_output_adapter@_W@__crt_stdio_output@@@__crt_stdio_output@@IEAA_NAEA_W@Z 000000018008c370 f i libucrtd:output.obj
 0001:0008b550       ??$extract_argument_from_va_list@_W_W@?$standard_base@DV?$stream_output_adapter@D@__crt_stdio_output@@@__crt_stdio_output@@IEAA_NAEA_W@Z 000000018008c550 f i libucrtd:output.obj
 0001:0008b590       ??$extract_argument_from_va_list@_W_W@?$standard_base@DV?$string_output_adapter@D@__crt_stdio_output@@@__crt_stdio_output@@IEAA_NAEA_W@Z 000000018008c590 f i libucrtd:output.obj
 0001:0008b5d0       ??$extract_argument_from_va_list@_W_W@?$standard_base@_WV?$stream_output_adapter@_W@__crt_stdio_output@@@__crt_stdio_output@@IEAA_NAEA_W@Z 000000018008c5d0 f i libucrtd:output.obj
 0001:0008b610       ??$extract_argument_from_va_list@_W_W@?$standard_base@_WV?$string_output_adapter@_W@__crt_stdio_output@@@__crt_stdio_output@@IEAA_NAEA_W@Z 000000018008c610 f i libucrtd:output.obj
 0001:0008b650       ??$get_parameter_type@D@?$positional_parameter_base@DV?$stream_output_adapter@D@__crt_stdio_output@@@__crt_stdio_output@@CA?AW4parameter_type@01@PEAD@Z 000000018008c650 f i libucrtd:output.obj
 0001:0008b660       ??$get_parameter_type@D@?$positional_parameter_base@DV?$string_output_adapter@D@__crt_stdio_output@@@__crt_stdio_output@@CA?AW4parameter_type@01@PEAD@Z 000000018008c660 f i libucrtd:output.obj
 0001:0008b670       ??$get_parameter_type@D@?$positional_parameter_base@_WV?$stream_output_adapter@_W@__crt_stdio_output@@@__crt_stdio_output@@CA?AW4parameter_type@01@PEAD@Z 000000018008c670 f i libucrtd:output.obj
 0001:0008b680       ??$get_parameter_type@D@?$positional_parameter_base@_WV?$string_output_adapter@_W@__crt_stdio_output@@@__crt_stdio_output@@CA?AW4parameter_type@01@PEAD@Z 000000018008c680 f i libucrtd:output.obj
 0001:0008b690       ??$get_parameter_type@Uansi_string@?1??type_case_Z@?$output_processor@DV?$stream_output_adapter@D@__crt_stdio_output@@V?$positional_parameter_base@DV?$stream_output_adapter@D@__crt_stdio_output@@@2@@__crt_stdio_output@@AEAA_NXZ@@?$positional_parameter_base@DV?$stream_output_adapter@D@__crt_stdio_output@@@__crt_stdio_output@@CA?AW4parameter_type@01@PEAUansi_string@?1??type_case_Z@?$output_processor@DV?$stream_output_adapter@D@__crt_stdio_output@@V?$positional_parameter_base@DV?$stream_output_adapter@D@__crt_stdio_output@@@2@@1@AEAA_NXZ@@Z 000000018008c690 f i libucrtd:output.obj
 0001:0008b6a0       ??$get_parameter_type@Uansi_string@?1??type_case_Z@?$output_processor@DV?$string_output_adapter@D@__crt_stdio_output@@V?$positional_parameter_base@DV?$string_output_adapter@D@__crt_stdio_output@@@2@@__crt_stdio_output@@AEAA_NXZ@@?$positional_parameter_base@DV?$string_output_adapter@D@__crt_stdio_output@@@__crt_stdio_output@@CA?AW4parameter_type@01@PEAUansi_string@?1??type_case_Z@?$output_processor@DV?$string_output_adapter@D@__crt_stdio_output@@V?$positional_parameter_base@DV?$string_output_adapter@D@__crt_stdio_output@@@2@@1@AEAA_NXZ@@Z 000000018008c6a0 f i libucrtd:output.obj
 0001:0008b6b0       ??$get_parameter_type@Uansi_string@?1??type_case_Z@?$output_processor@_WV?$stream_output_adapter@_W@__crt_stdio_output@@V?$positional_parameter_base@_WV?$stream_output_adapter@_W@__crt_stdio_output@@@2@@__crt_stdio_output@@AEAA_NXZ@@?$positional_parameter_base@_WV?$stream_output_adapter@_W@__crt_stdio_output@@@__crt_stdio_output@@CA?AW4parameter_type@01@PEAUansi_string@?1??type_case_Z@?$output_processor@_WV?$stream_output_adapter@_W@__crt_stdio_output@@V?$positional_parameter_base@_WV?$stream_output_adapter@_W@__crt_stdio_output@@@2@@1@AEAA_NXZ@@Z 000000018008c6b0 f i libucrtd:output.obj
 0001:0008b6c0       ??$get_parameter_type@Uansi_string@?1??type_case_Z@?$output_processor@_WV?$string_output_adapter@_W@__crt_stdio_output@@V?$positional_parameter_base@_WV?$string_output_adapter@_W@__crt_stdio_output@@@2@@__crt_stdio_output@@AEAA_NXZ@@?$positional_parameter_base@_WV?$string_output_adapter@_W@__crt_stdio_output@@@__crt_stdio_output@@CA?AW4parameter_type@01@PEAUansi_string@?1??type_case_Z@?$output_processor@_WV?$string_output_adapter@_W@__crt_stdio_output@@V?$positional_parameter_base@_WV?$string_output_adapter@_W@__crt_stdio_output@@@2@@1@AEAA_NXZ@@Z 000000018008c6c0 f i libucrtd:output.obj
 0001:0008b6d0       ??$get_parameter_type@X@?$positional_parameter_base@DV?$stream_output_adapter@D@__crt_stdio_output@@@__crt_stdio_output@@CA?AW4parameter_type@01@PEAX@Z 000000018008c6d0 f i libucrtd:output.obj
 0001:0008b6e0       ??$get_parameter_type@X@?$positional_parameter_base@DV?$string_output_adapter@D@__crt_stdio_output@@@__crt_stdio_output@@CA?AW4parameter_type@01@PEAX@Z 000000018008c6e0 f i libucrtd:output.obj
 0001:0008b6f0       ??$get_parameter_type@X@?$positional_parameter_base@_WV?$stream_output_adapter@_W@__crt_stdio_output@@@__crt_stdio_output@@CA?AW4parameter_type@01@PEAX@Z 000000018008c6f0 f i libucrtd:output.obj
 0001:0008b700       ??$get_parameter_type@X@?$positional_parameter_base@_WV?$string_output_adapter@_W@__crt_stdio_output@@@__crt_stdio_output@@CA?AW4parameter_type@01@PEAX@Z 000000018008c700 f i libucrtd:output.obj
 0001:0008b710       ??$is_character_specifier@D@?$positional_parameter_base@DV?$stream_output_adapter@D@__crt_stdio_output@@@__crt_stdio_output@@CA_ND@Z 000000018008c710 f i libucrtd:output.obj
 0001:0008b760       ??$is_character_specifier@D@?$positional_parameter_base@DV?$string_output_adapter@D@__crt_stdio_output@@@__crt_stdio_output@@CA_ND@Z 000000018008c760 f i libucrtd:output.obj
 0001:0008b7b0       ??$is_character_specifier@_W@?$positional_parameter_base@_WV?$stream_output_adapter@_W@__crt_stdio_output@@@__crt_stdio_output@@CA_N_W@Z 000000018008c7b0 f i libucrtd:output.obj
 0001:0008b800       ??$is_character_specifier@_W@?$positional_parameter_base@_WV?$string_output_adapter@_W@__crt_stdio_output@@@__crt_stdio_output@@CA_N_W@Z 000000018008c800 f i libucrtd:output.obj
 0001:0008b850       ??$is_integral_specifier@D@?$positional_parameter_base@DV?$stream_output_adapter@D@__crt_stdio_output@@@__crt_stdio_output@@CA_ND@Z 000000018008c850 f i libucrtd:output.obj
 0001:0008b8d0       ??$is_integral_specifier@D@?$positional_parameter_base@DV?$string_output_adapter@D@__crt_stdio_output@@@__crt_stdio_output@@CA_ND@Z 000000018008c8d0 f i libucrtd:output.obj
 0001:0008b950       ??$is_integral_specifier@_W@?$positional_parameter_base@_WV?$stream_output_adapter@_W@__crt_stdio_output@@@__crt_stdio_output@@CA_N_W@Z 000000018008c950 f i libucrtd:output.obj
 0001:0008b9e0       ??$is_integral_specifier@_W@?$positional_parameter_base@_WV?$string_output_adapter@_W@__crt_stdio_output@@@__crt_stdio_output@@CA_N_W@Z 000000018008c9e0 f i libucrtd:output.obj
 0001:0008ba70       ??$is_pointer_specifier@D@?$positional_parameter_base@DV?$stream_output_adapter@D@__crt_stdio_output@@@__crt_stdio_output@@CA_ND@Z 000000018008ca70 f i libucrtd:output.obj
 0001:0008bab0       ??$is_pointer_specifier@D@?$positional_parameter_base@DV?$string_output_adapter@D@__crt_stdio_output@@@__crt_stdio_output@@CA_ND@Z 000000018008cab0 f i libucrtd:output.obj
 0001:0008baf0       ??$is_pointer_specifier@_W@?$positional_parameter_base@_WV?$stream_output_adapter@_W@__crt_stdio_output@@@__crt_stdio_output@@CA_N_W@Z 000000018008caf0 f i libucrtd:output.obj
 0001:0008bb30       ??$is_pointer_specifier@_W@?$positional_parameter_base@_WV?$string_output_adapter@_W@__crt_stdio_output@@@__crt_stdio_output@@CA_N_W@Z 000000018008cb30 f i libucrtd:output.obj
 0001:0008bb70       ??$is_string_specifier@D@?$positional_parameter_base@DV?$stream_output_adapter@D@__crt_stdio_output@@@__crt_stdio_output@@CA_ND@Z 000000018008cb70 f i libucrtd:output.obj
 0001:0008bbc0       ??$is_string_specifier@D@?$positional_parameter_base@DV?$string_output_adapter@D@__crt_stdio_output@@@__crt_stdio_output@@CA_ND@Z 000000018008cbc0 f i libucrtd:output.obj
 0001:0008bc10       ??$is_string_specifier@_W@?$positional_parameter_base@_WV?$stream_output_adapter@_W@__crt_stdio_output@@@__crt_stdio_output@@CA_N_W@Z 000000018008cc10 f i libucrtd:output.obj
 0001:0008bc60       ??$is_string_specifier@_W@?$positional_parameter_base@_WV?$string_output_adapter@_W@__crt_stdio_output@@@__crt_stdio_output@@CA_N_W@Z 000000018008cc60 f i libucrtd:output.obj
 0001:0008bcb0       ??$is_wide_character_specifier@D@__crt_stdio_output@@YA_N_KDW4length_modifier@0@@Z 000000018008ccb0 f i libucrtd:output.obj
 0001:0008bd70       ??$is_wide_character_specifier@_W@__crt_stdio_output@@YA_N_K_WW4length_modifier@0@@Z 000000018008cd70 f i libucrtd:output.obj
 0001:0008be70       ??$peek_va_arg@C@__crt_stdio_output@@YACPEAD@Z 000000018008ce70 f i libucrtd:output.obj
 0001:0008bee0       ??$peek_va_arg@E@__crt_stdio_output@@YAEPEAD@Z 000000018008cee0 f i libucrtd:output.obj
 0001:0008bf50       ??$peek_va_arg@F@__crt_stdio_output@@YAFPEAD@Z 000000018008cf50 f i libucrtd:output.obj
 0001:0008bfc0       ??$peek_va_arg@G@__crt_stdio_output@@YAGPEAD@Z 000000018008cfc0 f i libucrtd:output.obj
 0001:0008c030       ??$peek_va_arg@H@__crt_stdio_output@@YAHPEAD@Z 000000018008d030 f i libucrtd:output.obj
 0001:0008c0a0       ??$peek_va_arg@I@__crt_stdio_output@@YAIPEAD@Z 000000018008d0a0 f i libucrtd:output.obj
 0001:0008c110       ??$peek_va_arg@PEAD@__crt_stdio_output@@YAPEADPEAD@Z 000000018008d110 f i libucrtd:output.obj
 0001:0008c180       ??$peek_va_arg@PEAUansi_string@?1??type_case_Z@?$output_processor@DV?$stream_output_adapter@D@__crt_stdio_output@@V?$positional_parameter_base@DV?$stream_output_adapter@D@__crt_stdio_output@@@2@@__crt_stdio_output@@AEAA_NXZ@@__crt_stdio_output@@YAPEAUansi_string@?1??type_case_Z@?$output_processor@DV?$stream_output_adapter@D@__crt_stdio_output@@V?$positional_parameter_base@DV?$stream_output_adapter@D@__crt_stdio_output@@@2@@0@AEAA_NXZ@PEAD@Z 000000018008d180 f i libucrtd:output.obj
 0001:0008c1f0       ??$peek_va_arg@PEAUansi_string@?1??type_case_Z@?$output_processor@DV?$string_output_adapter@D@__crt_stdio_output@@V?$positional_parameter_base@DV?$string_output_adapter@D@__crt_stdio_output@@@2@@__crt_stdio_output@@AEAA_NXZ@@__crt_stdio_output@@YAPEAUansi_string@?1??type_case_Z@?$output_processor@DV?$string_output_adapter@D@__crt_stdio_output@@V?$positional_parameter_base@DV?$string_output_adapter@D@__crt_stdio_output@@@2@@0@AEAA_NXZ@PEAD@Z 000000018008d1f0 f i libucrtd:output.obj
 0001:0008c260       ??$peek_va_arg@PEAUansi_string@?1??type_case_Z@?$output_processor@_WV?$stream_output_adapter@_W@__crt_stdio_output@@V?$positional_parameter_base@_WV?$stream_output_adapter@_W@__crt_stdio_output@@@2@@__crt_stdio_output@@AEAA_NXZ@@__crt_stdio_output@@YAPEAUansi_string@?1??type_case_Z@?$output_processor@_WV?$stream_output_adapter@_W@__crt_stdio_output@@V?$positional_parameter_base@_WV?$stream_output_adapter@_W@__crt_stdio_output@@@2@@0@AEAA_NXZ@PEAD@Z 000000018008d260 f i libucrtd:output.obj
 0001:0008c2d0       ??$peek_va_arg@PEAUansi_string@?1??type_case_Z@?$output_processor@_WV?$string_output_adapter@_W@__crt_stdio_output@@V?$positional_parameter_base@_WV?$string_output_adapter@_W@__crt_stdio_output@@@2@@__crt_stdio_output@@AEAA_NXZ@@__crt_stdio_output@@YAPEAUansi_string@?1??type_case_Z@?$output_processor@_WV?$string_output_adapter@_W@__crt_stdio_output@@V?$positional_parameter_base@_WV?$string_output_adapter@_W@__crt_stdio_output@@@2@@0@AEAA_NXZ@PEAD@Z 000000018008d2d0 f i libucrtd:output.obj
 0001:0008c340       ??$peek_va_arg@PEAX@__crt_stdio_output@@YAPEAXPEAD@Z 000000018008d340 f i libucrtd:output.obj
 0001:0008c3b0       ??$peek_va_arg@U_CRT_DOUBLE@@@__crt_stdio_output@@YA?AU_CRT_DOUBLE@@PEAD@Z 000000018008d3b0 f i libucrtd:output.obj
 0001:0008c420       ??$peek_va_arg@_J@__crt_stdio_output@@YA_JPEAD@Z 000000018008d420 f i libucrtd:output.obj
 0001:0008c490       ??$peek_va_arg@_K@__crt_stdio_output@@YA_KPEAD@Z 000000018008d490 f i libucrtd:output.obj
 0001:0008c500       ??$peek_va_arg@_W@__crt_stdio_output@@YA_WPEAD@Z 000000018008d500 f i libucrtd:output.obj
 0001:0008c570       ??$puttc_nolock@AEBDPEAU_iobuf@@@?$__crt_char_traits@D@@SAHAEBD$$QEAPEAU_iobuf@@@Z 000000018008d570 f i libucrtd:output.obj
 0001:0008c5b0       ??$puttc_nolock@AEB_WPEAU_iobuf@@@?$__crt_char_traits@_W@@SAGAEB_W$$QEAPEAU_iobuf@@@Z 000000018008d5b0 f i libucrtd:output.obj
 0001:0008c5f0       ??$read_va_arg@C@__crt_stdio_output@@YACAEAPEAD@Z 000000018008d5f0 f i libucrtd:output.obj
 0001:0008c670       ??$read_va_arg@E@__crt_stdio_output@@YAEAEAPEAD@Z 000000018008d670 f i libucrtd:output.obj
 0001:0008c6f0       ??$read_va_arg@F@__crt_stdio_output@@YAFAEAPEAD@Z 000000018008d6f0 f i libucrtd:output.obj
 0001:0008c770       ??$read_va_arg@G@__crt_stdio_output@@YAGAEAPEAD@Z 000000018008d770 f i libucrtd:output.obj
 0001:0008c7f0       ??$read_va_arg@H@__crt_stdio_output@@YAHAEAPEAD@Z 000000018008d7f0 f i libucrtd:output.obj
 0001:0008c870       ??$read_va_arg@I@__crt_stdio_output@@YAIAEAPEAD@Z 000000018008d870 f i libucrtd:output.obj
 0001:0008c8f0       ??$read_va_arg@PEAD@__crt_stdio_output@@YAPEADAEAPEAD@Z 000000018008d8f0 f i libucrtd:output.obj
 0001:0008c970       ??$read_va_arg@PEAUansi_string@?1??type_case_Z@?$output_processor@DV?$stream_output_adapter@D@__crt_stdio_output@@V?$format_validation_base@DV?$stream_output_adapter@D@__crt_stdio_output@@@2@@__crt_stdio_output@@AEAA_NXZ@@__crt_stdio_output@@YAPEAUansi_string@?1??type_case_Z@?$output_processor@DV?$stream_output_adapter@D@__crt_stdio_output@@V?$format_validation_base@DV?$stream_output_adapter@D@__crt_stdio_output@@@2@@0@AEAA_NXZ@AEAPEAD@Z 000000018008d970 f i libucrtd:output.obj
 0001:0008c9f0       ??$read_va_arg@PEAUansi_string@?1??type_case_Z@?$output_processor@DV?$stream_output_adapter@D@__crt_stdio_output@@V?$positional_parameter_base@DV?$stream_output_adapter@D@__crt_stdio_output@@@2@@__crt_stdio_output@@AEAA_NXZ@@__crt_stdio_output@@YAPEAUansi_string@?1??type_case_Z@?$output_processor@DV?$stream_output_adapter@D@__crt_stdio_output@@V?$positional_parameter_base@DV?$stream_output_adapter@D@__crt_stdio_output@@@2@@0@AEAA_NXZ@AEAPEAD@Z 000000018008d9f0 f i libucrtd:output.obj
 0001:0008ca70       ??$read_va_arg@PEAUansi_string@?1??type_case_Z@?$output_processor@DV?$stream_output_adapter@D@__crt_stdio_output@@V?$standard_base@DV?$stream_output_adapter@D@__crt_stdio_output@@@2@@__crt_stdio_output@@AEAA_NXZ@@__crt_stdio_output@@YAPEAUansi_string@?1??type_case_Z@?$output_processor@DV?$stream_output_adapter@D@__crt_stdio_output@@V?$standard_base@DV?$stream_output_adapter@D@__crt_stdio_output@@@2@@0@AEAA_NXZ@AEAPEAD@Z 000000018008da70 f i libucrtd:output.obj
 0001:0008caf0       ??$read_va_arg@PEAUansi_string@?1??type_case_Z@?$output_processor@DV?$string_output_adapter@D@__crt_stdio_output@@V?$format_validation_base@DV?$string_output_adapter@D@__crt_stdio_output@@@2@@__crt_stdio_output@@AEAA_NXZ@@__crt_stdio_output@@YAPEAUansi_string@?1??type_case_Z@?$output_processor@DV?$string_output_adapter@D@__crt_stdio_output@@V?$format_validation_base@DV?$string_output_adapter@D@__crt_stdio_output@@@2@@0@AEAA_NXZ@AEAPEAD@Z 000000018008daf0 f i libucrtd:output.obj
 0001:0008cb70       ??$read_va_arg@PEAUansi_string@?1??type_case_Z@?$output_processor@DV?$string_output_adapter@D@__crt_stdio_output@@V?$positional_parameter_base@DV?$string_output_adapter@D@__crt_stdio_output@@@2@@__crt_stdio_output@@AEAA_NXZ@@__crt_stdio_output@@YAPEAUansi_string@?1??type_case_Z@?$output_processor@DV?$string_output_adapter@D@__crt_stdio_output@@V?$positional_parameter_base@DV?$string_output_adapter@D@__crt_stdio_output@@@2@@0@AEAA_NXZ@AEAPEAD@Z 000000018008db70 f i libucrtd:output.obj
 0001:0008cbf0       ??$read_va_arg@PEAUansi_string@?1??type_case_Z@?$output_processor@DV?$string_output_adapter@D@__crt_stdio_output@@V?$standard_base@DV?$string_output_adapter@D@__crt_stdio_output@@@2@@__crt_stdio_output@@AEAA_NXZ@@__crt_stdio_output@@YAPEAUansi_string@?1??type_case_Z@?$output_processor@DV?$string_output_adapter@D@__crt_stdio_output@@V?$standard_base@DV?$string_output_adapter@D@__crt_stdio_output@@@2@@0@AEAA_NXZ@AEAPEAD@Z 000000018008dbf0 f i libucrtd:output.obj
 0001:0008cc70       ??$read_va_arg@PEAUansi_string@?1??type_case_Z@?$output_processor@_WV?$stream_output_adapter@_W@__crt_stdio_output@@V?$format_validation_base@_WV?$stream_output_adapter@_W@__crt_stdio_output@@@2@@__crt_stdio_output@@AEAA_NXZ@@__crt_stdio_output@@YAPEAUansi_string@?1??type_case_Z@?$output_processor@_WV?$stream_output_adapter@_W@__crt_stdio_output@@V?$format_validation_base@_WV?$stream_output_adapter@_W@__crt_stdio_output@@@2@@0@AEAA_NXZ@AEAPEAD@Z 000000018008dc70 f i libucrtd:output.obj
 0001:0008ccf0       ??$read_va_arg@PEAUansi_string@?1??type_case_Z@?$output_processor@_WV?$stream_output_adapter@_W@__crt_stdio_output@@V?$positional_parameter_base@_WV?$stream_output_adapter@_W@__crt_stdio_output@@@2@@__crt_stdio_output@@AEAA_NXZ@@__crt_stdio_output@@YAPEAUansi_string@?1??type_case_Z@?$output_processor@_WV?$stream_output_adapter@_W@__crt_stdio_output@@V?$positional_parameter_base@_WV?$stream_output_adapter@_W@__crt_stdio_output@@@2@@0@AEAA_NXZ@AEAPEAD@Z 000000018008dcf0 f i libucrtd:output.obj
 0001:0008cd70       ??$read_va_arg@PEAUansi_string@?1??type_case_Z@?$output_processor@_WV?$stream_output_adapter@_W@__crt_stdio_output@@V?$standard_base@_WV?$stream_output_adapter@_W@__crt_stdio_output@@@2@@__crt_stdio_output@@AEAA_NXZ@@__crt_stdio_output@@YAPEAUansi_string@?1??type_case_Z@?$output_processor@_WV?$stream_output_adapter@_W@__crt_stdio_output@@V?$standard_base@_WV?$stream_output_adapter@_W@__crt_stdio_output@@@2@@0@AEAA_NXZ@AEAPEAD@Z 000000018008dd70 f i libucrtd:output.obj
 0001:0008cdf0       ??$read_va_arg@PEAUansi_string@?1??type_case_Z@?$output_processor@_WV?$string_output_adapter@_W@__crt_stdio_output@@V?$format_validation_base@_WV?$string_output_adapter@_W@__crt_stdio_output@@@2@@__crt_stdio_output@@AEAA_NXZ@@__crt_stdio_output@@YAPEAUansi_string@?1??type_case_Z@?$output_processor@_WV?$string_output_adapter@_W@__crt_stdio_output@@V?$format_validation_base@_WV?$string_output_adapter@_W@__crt_stdio_output@@@2@@0@AEAA_NXZ@AEAPEAD@Z 000000018008ddf0 f i libucrtd:output.obj
 0001:0008ce70       ??$read_va_arg@PEAUansi_string@?1??type_case_Z@?$output_processor@_WV?$string_output_adapter@_W@__crt_stdio_output@@V?$positional_parameter_base@_WV?$string_output_adapter@_W@__crt_stdio_output@@@2@@__crt_stdio_output@@AEAA_NXZ@@__crt_stdio_output@@YAPEAUansi_string@?1??type_case_Z@?$output_processor@_WV?$string_output_adapter@_W@__crt_stdio_output@@V?$positional_parameter_base@_WV?$string_output_adapter@_W@__crt_stdio_output@@@2@@0@AEAA_NXZ@AEAPEAD@Z 000000018008de70 f i libucrtd:output.obj
 0001:0008cef0       ??$read_va_arg@PEAUansi_string@?1??type_case_Z@?$output_processor@_WV?$string_output_adapter@_W@__crt_stdio_output@@V?$standard_base@_WV?$string_output_adapter@_W@__crt_stdio_output@@@2@@__crt_stdio_output@@AEAA_NXZ@@__crt_stdio_output@@YAPEAUansi_string@?1??type_case_Z@?$output_processor@_WV?$string_output_adapter@_W@__crt_stdio_output@@V?$standard_base@_WV?$string_output_adapter@_W@__crt_stdio_output@@@2@@0@AEAA_NXZ@AEAPEAD@Z 000000018008def0 f i libucrtd:output.obj
 0001:0008cf70       ??$read_va_arg@PEAX@__crt_stdio_output@@YAPEAXAEAPEAD@Z 000000018008df70 f i libucrtd:output.obj
 0001:0008cff0       ??$read_va_arg@U_CRT_DOUBLE@@@__crt_stdio_output@@YA?AU_CRT_DOUBLE@@AEAPEAD@Z 000000018008dff0 f i libucrtd:output.obj
 0001:0008d070       ??$read_va_arg@_J@__crt_stdio_output@@YA_JAEAPEAD@Z 000000018008e070 f i libucrtd:output.obj
 0001:0008d0f0       ??$read_va_arg@_K@__crt_stdio_output@@YA_KAEAPEAD@Z 000000018008e0f0 f i libucrtd:output.obj
 0001:0008d170       ??$read_va_arg@_W@__crt_stdio_output@@YA_WAEAPEAD@Z 000000018008e170 f i libucrtd:output.obj
 0001:0008d1f0       ??$scratch_count@D@formatting_buffer@__crt_stdio_output@@QEBA_KXZ 000000018008e1f0 f i libucrtd:output.obj
 0001:0008d210       ??$scratch_data@D@formatting_buffer@__crt_stdio_output@@QEAAPEADXZ 000000018008e210 f i libucrtd:output.obj
 0001:0008d2a0       ??$tcstol@AEAPEBDPEAPEADH@?$__crt_char_traits@D@@SAJAEAPEBD$$QEAPEAPEAD$$QEAH@Z 000000018008e2a0 f i libucrtd:output.obj
 0001:0008d2f0       ??$tcstol@AEAPEB_WPEAPEA_WH@?$__crt_char_traits@_W@@SAJAEAPEB_W$$QEAPEAPEA_W$$QEAH@Z 000000018008e2f0 f i libucrtd:output.obj
 0001:0008d340       ??$tcstol@PEBDPEAPEADH@?$__crt_char_traits@D@@SAJ$$QEAPEBD$$QEAPEAPEAD$$QEAH@Z 000000018008e340 f i libucrtd:output.obj
 0001:0008d390       ??$tcstol@PEB_WPEAPEA_WH@?$__crt_char_traits@_W@@SAJ$$QEAPEB_W$$QEAPEAPEA_W$$QEAH@Z 000000018008e390 f i libucrtd:output.obj
 0001:0008d3e0       ??$type_case_integer_parse_into_buffer@I@?$output_processor@DV?$stream_output_adapter@D@__crt_stdio_output@@V?$format_validation_base@DV?$stream_output_adapter@D@__crt_stdio_output@@@2@@__crt_stdio_output@@AEAAXII_N@Z 000000018008e3e0 f i libucrtd:output.obj
 0001:0008d550       ??$type_case_integer_parse_into_buffer@I@?$output_processor@DV?$stream_output_adapter@D@__crt_stdio_output@@V?$positional_parameter_base@DV?$stream_output_adapter@D@__crt_stdio_output@@@2@@__crt_stdio_output@@AEAAXII_N@Z 000000018008e550 f i libucrtd:output.obj
 0001:0008d6c0       ??$type_case_integer_parse_into_buffer@I@?$output_processor@DV?$stream_output_adapter@D@__crt_stdio_output@@V?$standard_base@DV?$stream_output_adapter@D@__crt_stdio_output@@@2@@__crt_stdio_output@@AEAAXII_N@Z 000000018008e6c0 f i libucrtd:output.obj
 0001:0008d830       ??$type_case_integer_parse_into_buffer@I@?$output_processor@DV?$string_output_adapter@D@__crt_stdio_output@@V?$format_validation_base@DV?$string_output_adapter@D@__crt_stdio_output@@@2@@__crt_stdio_output@@AEAAXII_N@Z 000000018008e830 f i libucrtd:output.obj
 0001:0008d9a0       ??$type_case_integer_parse_into_buffer@I@?$output_processor@DV?$string_output_adapter@D@__crt_stdio_output@@V?$positional_parameter_base@DV?$string_output_adapter@D@__crt_stdio_output@@@2@@__crt_stdio_output@@AEAAXII_N@Z 000000018008e9a0 f i libucrtd:output.obj
 0001:0008db10       ??$type_case_integer_parse_into_buffer@I@?$output_processor@DV?$string_output_adapter@D@__crt_stdio_output@@V?$standard_base@DV?$string_output_adapter@D@__crt_stdio_output@@@2@@__crt_stdio_output@@AEAAXII_N@Z 000000018008eb10 f i libucrtd:output.obj
 0001:0008dc80       ??$type_case_integer_parse_into_buffer@I@?$output_processor@_WV?$stream_output_adapter@_W@__crt_stdio_output@@V?$format_validation_base@_WV?$stream_output_adapter@_W@__crt_stdio_output@@@2@@__crt_stdio_output@@AEAAXII_N@Z 000000018008ec80 f i libucrtd:output.obj
 0001:0008de10       ??$type_case_integer_parse_into_buffer@I@?$output_processor@_WV?$stream_output_adapter@_W@__crt_stdio_output@@V?$positional_parameter_base@_WV?$stream_output_adapter@_W@__crt_stdio_output@@@2@@__crt_stdio_output@@AEAAXII_N@Z 000000018008ee10 f i libucrtd:output.obj
 0001:0008dfa0       ??$type_case_integer_parse_into_buffer@I@?$output_processor@_WV?$stream_output_adapter@_W@__crt_stdio_output@@V?$standard_base@_WV?$stream_output_adapter@_W@__crt_stdio_output@@@2@@__crt_stdio_output@@AEAAXII_N@Z 000000018008efa0 f i libucrtd:output.obj
 0001:0008e130       ??$type_case_integer_parse_into_buffer@I@?$output_processor@_WV?$string_output_adapter@_W@__crt_stdio_output@@V?$format_validation_base@_WV?$string_output_adapter@_W@__crt_stdio_output@@@2@@__crt_stdio_output@@AEAAXII_N@Z 000000018008f130 f i libucrtd:output.obj
 0001:0008e2c0       ??$type_case_integer_parse_into_buffer@I@?$output_processor@_WV?$string_output_adapter@_W@__crt_stdio_output@@V?$positional_parameter_base@_WV?$string_output_adapter@_W@__crt_stdio_output@@@2@@__crt_stdio_output@@AEAAXII_N@Z 000000018008f2c0 f i libucrtd:output.obj
 0001:0008e450       ??$type_case_integer_parse_into_buffer@I@?$output_processor@_WV?$string_output_adapter@_W@__crt_stdio_output@@V?$standard_base@_WV?$string_output_adapter@_W@__crt_stdio_output@@@2@@__crt_stdio_output@@AEAAXII_N@Z 000000018008f450 f i libucrtd:output.obj
 0001:0008e5e0       ??$type_case_integer_parse_into_buffer@_K@?$output_processor@DV?$stream_output_adapter@D@__crt_stdio_output@@V?$format_validation_base@DV?$stream_output_adapter@D@__crt_stdio_output@@@2@@__crt_stdio_output@@AEAAX_KI_N@Z 000000018008f5e0 f i libucrtd:output.obj
 0001:0008e780       ??$type_case_integer_parse_into_buffer@_K@?$output_processor@DV?$stream_output_adapter@D@__crt_stdio_output@@V?$positional_parameter_base@DV?$stream_output_adapter@D@__crt_stdio_output@@@2@@__crt_stdio_output@@AEAAX_KI_N@Z 000000018008f780 f i libucrtd:output.obj
 0001:0008e920       ??$type_case_integer_parse_into_buffer@_K@?$output_processor@DV?$stream_output_adapter@D@__crt_stdio_output@@V?$standard_base@DV?$stream_output_adapter@D@__crt_stdio_output@@@2@@__crt_stdio_output@@AEAAX_KI_N@Z 000000018008f920 f i libucrtd:output.obj
 0001:0008eac0       ??$type_case_integer_parse_into_buffer@_K@?$output_processor@DV?$string_output_adapter@D@__crt_stdio_output@@V?$format_validation_base@DV?$string_output_adapter@D@__crt_stdio_output@@@2@@__crt_stdio_output@@AEAAX_KI_N@Z 000000018008fac0 f i libucrtd:output.obj
 0001:0008ec60       ??$type_case_integer_parse_into_buffer@_K@?$output_processor@DV?$string_output_adapter@D@__crt_stdio_output@@V?$positional_parameter_base@DV?$string_output_adapter@D@__crt_stdio_output@@@2@@__crt_stdio_output@@AEAAX_KI_N@Z 000000018008fc60 f i libucrtd:output.obj
 0001:0008ee00       ??$type_case_integer_parse_into_buffer@_K@?$output_processor@DV?$string_output_adapter@D@__crt_stdio_output@@V?$standard_base@DV?$string_output_adapter@D@__crt_stdio_output@@@2@@__crt_stdio_output@@AEAAX_KI_N@Z 000000018008fe00 f i libucrtd:output.obj
 0001:0008efa0       ??$type_case_integer_parse_into_buffer@_K@?$output_processor@_WV?$stream_output_adapter@_W@__crt_stdio_output@@V?$format_validation_base@_WV?$stream_output_adapter@_W@__crt_stdio_output@@@2@@__crt_stdio_output@@AEAAX_KI_N@Z 000000018008ffa0 f i libucrtd:output.obj
 0001:0008f150       ??$type_case_integer_parse_into_buffer@_K@?$output_processor@_WV?$stream_output_adapter@_W@__crt_stdio_output@@V?$positional_parameter_base@_WV?$stream_output_adapter@_W@__crt_stdio_output@@@2@@__crt_stdio_output@@AEAAX_KI_N@Z 0000000180090150 f i libucrtd:output.obj
 0001:0008f300       ??$type_case_integer_parse_into_buffer@_K@?$output_processor@_WV?$stream_output_adapter@_W@__crt_stdio_output@@V?$standard_base@_WV?$stream_output_adapter@_W@__crt_stdio_output@@@2@@__crt_stdio_output@@AEAAX_KI_N@Z 0000000180090300 f i libucrtd:output.obj
 0001:0008f4b0       ??$type_case_integer_parse_into_buffer@_K@?$output_processor@_WV?$string_output_adapter@_W@__crt_stdio_output@@V?$format_validation_base@_WV?$string_output_adapter@_W@__crt_stdio_output@@@2@@__crt_stdio_output@@AEAAX_KI_N@Z 00000001800904b0 f i libucrtd:output.obj
 0001:0008f660       ??$type_case_integer_parse_into_buffer@_K@?$output_processor@_WV?$string_output_adapter@_W@__crt_stdio_output@@V?$positional_parameter_base@_WV?$string_output_adapter@_W@__crt_stdio_output@@@2@@__crt_stdio_output@@AEAAX_KI_N@Z 0000000180090660 f i libucrtd:output.obj
 0001:0008f810       ??$type_case_integer_parse_into_buffer@_K@?$output_processor@_WV?$string_output_adapter@_W@__crt_stdio_output@@V?$standard_base@_WV?$string_output_adapter@_W@__crt_stdio_output@@@2@@__crt_stdio_output@@AEAAX_KI_N@Z 0000000180090810 f i libucrtd:output.obj
 0001:0008f9c0       ??$write_multiple_characters@V?$stream_output_adapter@D@__crt_stdio_output@@D@__crt_stdio_output@@YAXAEBV?$stream_output_adapter@D@0@DHQEAH@Z 00000001800909c0 f i libucrtd:output.obj
 0001:0008fa40       ??$write_multiple_characters@V?$stream_output_adapter@_W@__crt_stdio_output@@D@__crt_stdio_output@@YAXAEBV?$stream_output_adapter@_W@0@DHQEAH@Z 0000000180090a40 f i libucrtd:output.obj
 0001:0008fac0       ??$write_multiple_characters@V?$string_output_adapter@D@__crt_stdio_output@@D@__crt_stdio_output@@YAXAEBV?$string_output_adapter@D@0@DHQEAH@Z 0000000180090ac0 f i libucrtd:output.obj
 0001:0008fb40       ??$write_multiple_characters@V?$string_output_adapter@_W@__crt_stdio_output@@D@__crt_stdio_output@@YAXAEBV?$string_output_adapter@_W@0@DHQEAH@Z 0000000180090b40 f i libucrtd:output.obj
 0001:00090100       ??0?$common_data@D@__crt_stdio_output@@IEAA@XZ 0000000180091100 f i libucrtd:output.obj
 0001:00090200       ??0?$common_data@_W@__crt_stdio_output@@IEAA@XZ 0000000180091200 f i libucrtd:output.obj
 0001:00090300       ??0?$output_adapter_data@DV?$stream_output_adapter@D@__crt_stdio_output@@@__crt_stdio_output@@IEAA@AEBV?$stream_output_adapter@D@1@_KQEBDQEAU__crt_locale_pointers@@QEAD@Z 0000000180091300 f i libucrtd:output.obj
 0001:000903a0       ??0?$output_adapter_data@DV?$string_output_adapter@D@__crt_stdio_output@@@__crt_stdio_output@@IEAA@AEBV?$string_output_adapter@D@1@_KQEBDQEAU__crt_locale_pointers@@QEAD@Z 00000001800913a0 f i libucrtd:output.obj
 0001:00090440       ??0?$output_adapter_data@_WV?$stream_output_adapter@_W@__crt_stdio_output@@@__crt_stdio_output@@IEAA@AEBV?$stream_output_adapter@_W@1@_KQEB_WQEAU__crt_locale_pointers@@QEAD@Z 0000000180091440 f i libucrtd:output.obj
 0001:000904e0       ??0?$output_adapter_data@_WV?$string_output_adapter@_W@__crt_stdio_output@@@__crt_stdio_output@@IEAA@AEBV?$string_output_adapter@_W@1@_KQEB_WQEAU__crt_locale_pointers@@QEAD@Z 00000001800914e0 f i libucrtd:output.obj
 0001:00090580       ??0?$output_processor@DV?$stream_output_adapter@D@__crt_stdio_output@@V?$format_validation_base@DV?$stream_output_adapter@D@__crt_stdio_output@@@2@@__crt_stdio_output@@QEAA@AEBV?$stream_output_adapter@D@1@_KQEBDQEAU__crt_locale_pointers@@QEAD@Z 0000000180091580 f i libucrtd:output.obj
 0001:000905f0       ??0?$output_processor@DV?$stream_output_adapter@D@__crt_stdio_output@@V?$positional_parameter_base@DV?$stream_output_adapter@D@__crt_stdio_output@@@2@@__crt_stdio_output@@QEAA@AEBV?$stream_output_adapter@D@1@_KQEBDQEAU__crt_locale_pointers@@QEAD@Z 00000001800915f0 f i libucrtd:output.obj
 0001:00090660       ??0?$output_processor@DV?$stream_output_adapter@D@__crt_stdio_output@@V?$standard_base@DV?$stream_output_adapter@D@__crt_stdio_output@@@2@@__crt_stdio_output@@QEAA@AEBV?$stream_output_adapter@D@1@_KQEBDQEAU__crt_locale_pointers@@QEAD@Z 0000000180091660 f i libucrtd:output.obj
 0001:000906d0       ??0?$output_processor@DV?$string_output_adapter@D@__crt_stdio_output@@V?$format_validation_base@DV?$string_output_adapter@D@__crt_stdio_output@@@2@@__crt_stdio_output@@QEAA@AEBV?$string_output_adapter@D@1@_KQEBDQEAU__crt_locale_pointers@@QEAD@Z 00000001800916d0 f i libucrtd:output.obj
 0001:00090740       ??0?$output_processor@DV?$string_output_adapter@D@__crt_stdio_output@@V?$positional_parameter_base@DV?$string_output_adapter@D@__crt_stdio_output@@@2@@__crt_stdio_output@@QEAA@AEBV?$string_output_adapter@D@1@_KQEBDQEAU__crt_locale_pointers@@QEAD@Z 0000000180091740 f i libucrtd:output.obj
 0001:000907b0       ??0?$output_processor@DV?$string_output_adapter@D@__crt_stdio_output@@V?$standard_base@DV?$string_output_adapter@D@__crt_stdio_output@@@2@@__crt_stdio_output@@QEAA@AEBV?$string_output_adapter@D@1@_KQEBDQEAU__crt_locale_pointers@@QEAD@Z 00000001800917b0 f i libucrtd:output.obj
 0001:00090820       ??0?$output_processor@_WV?$stream_output_adapter@_W@__crt_stdio_output@@V?$format_validation_base@_WV?$stream_output_adapter@_W@__crt_stdio_output@@@2@@__crt_stdio_output@@QEAA@AEBV?$stream_output_adapter@_W@1@_KQEB_WQEAU__crt_locale_pointers@@QEAD@Z 0000000180091820 f i libucrtd:output.obj
 0001:00090890       ??0?$output_processor@_WV?$stream_output_adapter@_W@__crt_stdio_output@@V?$positional_parameter_base@_WV?$stream_output_adapter@_W@__crt_stdio_output@@@2@@__crt_stdio_output@@QEAA@AEBV?$stream_output_adapter@_W@1@_KQEB_WQEAU__crt_locale_pointers@@QEAD@Z 0000000180091890 f i libucrtd:output.obj
 0001:00090900       ??0?$output_processor@_WV?$stream_output_adapter@_W@__crt_stdio_output@@V?$standard_base@_WV?$stream_output_adapter@_W@__crt_stdio_output@@@2@@__crt_stdio_output@@QEAA@AEBV?$stream_output_adapter@_W@1@_KQEB_WQEAU__crt_locale_pointers@@QEAD@Z 0000000180091900 f i libucrtd:output.obj
 0001:00090970       ??0?$output_processor@_WV?$string_output_adapter@_W@__crt_stdio_output@@V?$format_validation_base@_WV?$string_output_adapter@_W@__crt_stdio_output@@@2@@__crt_stdio_output@@QEAA@AEBV?$string_output_adapter@_W@1@_KQEB_WQEAU__crt_locale_pointers@@QEAD@Z 0000000180091970 f i libucrtd:output.obj
 0001:000909e0       ??0?$output_processor@_WV?$string_output_adapter@_W@__crt_stdio_output@@V?$positional_parameter_base@_WV?$string_output_adapter@_W@__crt_stdio_output@@@2@@__crt_stdio_output@@QEAA@AEBV?$string_output_adapter@_W@1@_KQEB_WQEAU__crt_locale_pointers@@QEAD@Z 00000001800919e0 f i libucrtd:output.obj
 0001:00090a50       ??0?$output_processor@_WV?$string_output_adapter@_W@__crt_stdio_output@@V?$standard_base@_WV?$string_output_adapter@_W@__crt_stdio_output@@@2@@__crt_stdio_output@@QEAA@AEBV?$string_output_adapter@_W@1@_KQEB_WQEAU__crt_locale_pointers@@QEAD@Z 0000000180091a50 f i libucrtd:output.obj
 0001:00090ac0       ??0?$stream_output_adapter@D@__crt_stdio_output@@QEAA@QEAU_iobuf@@@Z 0000000180091ac0 f i libucrtd:output.obj
 0001:00090b00       ??0?$stream_output_adapter@_W@__crt_stdio_output@@QEAA@QEAU_iobuf@@@Z 0000000180091b00 f i libucrtd:output.obj
 0001:00090b40       ??0?$string_output_adapter@D@__crt_stdio_output@@QEAA@QEAU?$string_output_adapter_context@D@1@@Z 0000000180091b40 f i libucrtd:output.obj
 0001:00090b70       ??0?$string_output_adapter@_W@__crt_stdio_output@@QEAA@QEAU?$string_output_adapter_context@_W@1@@Z 0000000180091b70 f i libucrtd:output.obj
 0001:00090ba0       ??0__acrt_stdio_temporary_buffering_guard@@QEAA@QEAU_iobuf@@@Z 0000000180091ba0 f i libucrtd:output.obj
 0001:00090bf0       ??0__crt_deferred_errno_cache@@QEAA@XZ 0000000180091bf0 f i libucrtd:output.obj
 0001:00090c10       ??0__crt_errno_guard@@QEAA@QEAH@Z 0000000180091c10 f i libucrtd:output.obj
 0001:00090c60       ??0__crt_stdio_stream@@QEAA@QEAU_iobuf@@@Z 0000000180091c60 f i libucrtd:output.obj
 0001:00090c90       ??0formatting_buffer@__crt_stdio_output@@QEAA@XZ 0000000180091c90 f i libucrtd:output.obj
 0001:00090ce0       ??1?$common_data@D@__crt_stdio_output@@QEAA@XZ 0000000180091ce0 f i libucrtd:output.obj
 0001:00090d10       ??1?$common_data@_W@__crt_stdio_output@@QEAA@XZ 0000000180091d10 f i libucrtd:output.obj
 0001:00090d40       ??1?$format_validation_base@DV?$stream_output_adapter@D@__crt_stdio_output@@@__crt_stdio_output@@QEAA@XZ 0000000180091d40 f i libucrtd:output.obj
 0001:00090d60       ??1?$format_validation_base@DV?$string_output_adapter@D@__crt_stdio_output@@@__crt_stdio_output@@QEAA@XZ 0000000180091d60 f i libucrtd:output.obj
 0001:00090d80       ??1?$format_validation_base@_WV?$stream_output_adapter@_W@__crt_stdio_output@@@__crt_stdio_output@@QEAA@XZ 0000000180091d80 f i libucrtd:output.obj
 0001:00090da0       ??1?$format_validation_base@_WV?$string_output_adapter@_W@__crt_stdio_output@@@__crt_stdio_output@@QEAA@XZ 0000000180091da0 f i libucrtd:output.obj
 0001:00090dc0       ??1?$output_adapter_data@DV?$stream_output_adapter@D@__crt_stdio_output@@@__crt_stdio_output@@QEAA@XZ 0000000180091dc0 f i libucrtd:output.obj
 0001:00090de0       ??1?$output_adapter_data@DV?$string_output_adapter@D@__crt_stdio_output@@@__crt_stdio_output@@QEAA@XZ 0000000180091de0 f i libucrtd:output.obj
 0001:00090e00       ??1?$output_adapter_data@_WV?$stream_output_adapter@_W@__crt_stdio_output@@@__crt_stdio_output@@QEAA@XZ 0000000180091e00 f i libucrtd:output.obj
 0001:00090e20       ??1?$output_adapter_data@_WV?$string_output_adapter@_W@__crt_stdio_output@@@__crt_stdio_output@@QEAA@XZ 0000000180091e20 f i libucrtd:output.obj
 0001:00090e40       ??1?$output_processor@DV?$stream_output_adapter@D@__crt_stdio_output@@V?$format_validation_base@DV?$stream_output_adapter@D@__crt_stdio_output@@@2@@__crt_stdio_output@@QEAA@XZ 0000000180091e40 f i libucrtd:output.obj
 0001:00090e60       ??1?$output_processor@DV?$stream_output_adapter@D@__crt_stdio_output@@V?$positional_parameter_base@DV?$stream_output_adapter@D@__crt_stdio_output@@@2@@__crt_stdio_output@@QEAA@XZ 0000000180091e60 f i libucrtd:output.obj
 0001:00090e80       ??1?$output_processor@DV?$stream_output_adapter@D@__crt_stdio_output@@V?$standard_base@DV?$stream_output_adapter@D@__crt_stdio_output@@@2@@__crt_stdio_output@@QEAA@XZ 0000000180091e80 f i libucrtd:output.obj
 0001:00090ea0       ??1?$output_processor@DV?$string_output_adapter@D@__crt_stdio_output@@V?$format_validation_base@DV?$string_output_adapter@D@__crt_stdio_output@@@2@@__crt_stdio_output@@QEAA@XZ 0000000180091ea0 f i libucrtd:output.obj
 0001:00090ec0       ??1?$output_processor@DV?$string_output_adapter@D@__crt_stdio_output@@V?$positional_parameter_base@DV?$string_output_adapter@D@__crt_stdio_output@@@2@@__crt_stdio_output@@QEAA@XZ 0000000180091ec0 f i libucrtd:output.obj
 0001:00090ee0       ??1?$output_processor@DV?$string_output_adapter@D@__crt_stdio_output@@V?$standard_base@DV?$string_output_adapter@D@__crt_stdio_output@@@2@@__crt_stdio_output@@QEAA@XZ 0000000180091ee0 f i libucrtd:output.obj
 0001:00090f00       ??1?$output_processor@_WV?$stream_output_adapter@_W@__crt_stdio_output@@V?$format_validation_base@_WV?$stream_output_adapter@_W@__crt_stdio_output@@@2@@__crt_stdio_output@@QEAA@XZ 0000000180091f00 f i libucrtd:output.obj
 0001:00090f20       ??1?$output_processor@_WV?$stream_output_adapter@_W@__crt_stdio_output@@V?$positional_parameter_base@_WV?$stream_output_adapter@_W@__crt_stdio_output@@@2@@__crt_stdio_output@@QEAA@XZ 0000000180091f20 f i libucrtd:output.obj
 0001:00090f40       ??1?$output_processor@_WV?$stream_output_adapter@_W@__crt_stdio_output@@V?$standard_base@_WV?$stream_output_adapter@_W@__crt_stdio_output@@@2@@__crt_stdio_output@@QEAA@XZ 0000000180091f40 f i libucrtd:output.obj
 0001:00090f60       ??1?$output_processor@_WV?$string_output_adapter@_W@__crt_stdio_output@@V?$format_validation_base@_WV?$string_output_adapter@_W@__crt_stdio_output@@@2@@__crt_stdio_output@@QEAA@XZ 0000000180091f60 f i libucrtd:output.obj
 0001:00090f80       ??1?$output_processor@_WV?$string_output_adapter@_W@__crt_stdio_output@@V?$positional_parameter_base@_WV?$string_output_adapter@_W@__crt_stdio_output@@@2@@__crt_stdio_output@@QEAA@XZ 0000000180091f80 f i libucrtd:output.obj
 0001:00090fa0       ??1?$output_processor@_WV?$string_output_adapter@_W@__crt_stdio_output@@V?$standard_base@_WV?$string_output_adapter@_W@__crt_stdio_output@@@2@@__crt_stdio_output@@QEAA@XZ 0000000180091fa0 f i libucrtd:output.obj
 0001:00090fc0       ??1?$positional_parameter_base@DV?$stream_output_adapter@D@__crt_stdio_output@@@__crt_stdio_output@@QEAA@XZ 0000000180091fc0 f i libucrtd:output.obj
 0001:00090fe0       ??1?$positional_parameter_base@DV?$string_output_adapter@D@__crt_stdio_output@@@__crt_stdio_output@@QEAA@XZ 0000000180091fe0 f i libucrtd:output.obj
 0001:00091000       ??1?$positional_parameter_base@_WV?$stream_output_adapter@_W@__crt_stdio_output@@@__crt_stdio_output@@QEAA@XZ 0000000180092000 f i libucrtd:output.obj
 0001:00091020       ??1?$positional_parameter_base@_WV?$string_output_adapter@_W@__crt_stdio_output@@@__crt_stdio_output@@QEAA@XZ 0000000180092020 f i libucrtd:output.obj
 0001:00091040       ??1?$standard_base@DV?$stream_output_adapter@D@__crt_stdio_output@@@__crt_stdio_output@@QEAA@XZ 0000000180092040 f i libucrtd:output.obj
 0001:00091060       ??1?$standard_base@DV?$string_output_adapter@D@__crt_stdio_output@@@__crt_stdio_output@@QEAA@XZ 0000000180092060 f i libucrtd:output.obj
 0001:00091080       ??1?$standard_base@_WV?$stream_output_adapter@_W@__crt_stdio_output@@@__crt_stdio_output@@QEAA@XZ 0000000180092080 f i libucrtd:output.obj
 0001:000910a0       ??1?$standard_base@_WV?$string_output_adapter@_W@__crt_stdio_output@@@__crt_stdio_output@@QEAA@XZ 00000001800920a0 f i libucrtd:output.obj
 0001:000910c0       ??1__acrt_stdio_temporary_buffering_guard@@QEAA@XZ 00000001800920c0 f i libucrtd:output.obj
 0001:000910f0       ??1__crt_errno_guard@@QEAA@XZ 00000001800920f0 f i libucrtd:output.obj
 0001:00091130       ??1formatting_buffer@__crt_stdio_output@@QEAA@XZ 0000000180092130 f i libucrtd:output.obj
 0001:00091160       ??4?$__crt_unique_heap_ptr@DU__crt_internal_free_policy@@@@QEAAAEAV0@$$QEAV0@@Z 0000000180092160 f i libucrtd:output.obj
 0001:000911b0       ??A?$spectre_mitigated_lookup_table@Ustate_transition_pair@__crt_stdio_output@@$0IA@@__crt_stdio_output@@QEBAAEBUstate_transition_pair@1@_K@Z 00000001800921b0 f i libucrtd:output.obj
 0001:000911e0       ??C__crt_stdio_stream@@QEBAPEAU__crt_stdio_stream_data@@XZ 00000001800921e0 f i libucrtd:output.obj
 0001:00091d40       ?adjust_hexit@?$output_processor@DV?$stream_output_adapter@D@__crt_stdio_output@@V?$format_validation_base@DV?$stream_output_adapter@D@__crt_stdio_output@@@2@@__crt_stdio_output@@CADH_N@Z 0000000180092d40 f i libucrtd:output.obj
 0001:00091da0       ?adjust_hexit@?$output_processor@DV?$stream_output_adapter@D@__crt_stdio_output@@V?$positional_parameter_base@DV?$stream_output_adapter@D@__crt_stdio_output@@@2@@__crt_stdio_output@@CADH_N@Z 0000000180092da0 f i libucrtd:output.obj
 0001:00091e00       ?adjust_hexit@?$output_processor@DV?$stream_output_adapter@D@__crt_stdio_output@@V?$standard_base@DV?$stream_output_adapter@D@__crt_stdio_output@@@2@@__crt_stdio_output@@CADH_N@Z 0000000180092e00 f i libucrtd:output.obj
 0001:00091e60       ?adjust_hexit@?$output_processor@DV?$string_output_adapter@D@__crt_stdio_output@@V?$format_validation_base@DV?$string_output_adapter@D@__crt_stdio_output@@@2@@__crt_stdio_output@@CADH_N@Z 0000000180092e60 f i libucrtd:output.obj
 0001:00091ec0       ?adjust_hexit@?$output_processor@DV?$string_output_adapter@D@__crt_stdio_output@@V?$positional_parameter_base@DV?$string_output_adapter@D@__crt_stdio_output@@@2@@__crt_stdio_output@@CADH_N@Z 0000000180092ec0 f i libucrtd:output.obj
 0001:00091f20       ?adjust_hexit@?$output_processor@DV?$string_output_adapter@D@__crt_stdio_output@@V?$standard_base@DV?$string_output_adapter@D@__crt_stdio_output@@@2@@__crt_stdio_output@@CADH_N@Z 0000000180092f20 f i libucrtd:output.obj
 0001:00091f80       ?adjust_hexit@?$output_processor@_WV?$stream_output_adapter@_W@__crt_stdio_output@@V?$format_validation_base@_WV?$stream_output_adapter@_W@__crt_stdio_output@@@2@@__crt_stdio_output@@CADH_N@Z 0000000180092f80 f i libucrtd:output.obj
 0001:00091fe0       ?adjust_hexit@?$output_processor@_WV?$stream_output_adapter@_W@__crt_stdio_output@@V?$positional_parameter_base@_WV?$stream_output_adapter@_W@__crt_stdio_output@@@2@@__crt_stdio_output@@CADH_N@Z 0000000180092fe0 f i libucrtd:output.obj
 0001:00092040       ?adjust_hexit@?$output_processor@_WV?$stream_output_adapter@_W@__crt_stdio_output@@V?$standard_base@_WV?$stream_output_adapter@_W@__crt_stdio_output@@@2@@__crt_stdio_output@@CADH_N@Z 0000000180093040 f i libucrtd:output.obj
 0001:000920a0       ?adjust_hexit@?$output_processor@_WV?$string_output_adapter@_W@__crt_stdio_output@@V?$format_validation_base@_WV?$string_output_adapter@_W@__crt_stdio_output@@@2@@__crt_stdio_output@@CADH_N@Z 00000001800930a0 f i libucrtd:output.obj
 0001:00092100       ?adjust_hexit@?$output_processor@_WV?$string_output_adapter@_W@__crt_stdio_output@@V?$positional_parameter_base@_WV?$string_output_adapter@_W@__crt_stdio_output@@@2@@__crt_stdio_output@@CADH_N@Z 0000000180093100 f i libucrtd:output.obj
 0001:00092160       ?adjust_hexit@?$output_processor@_WV?$string_output_adapter@_W@__crt_stdio_output@@V?$standard_base@_WV?$string_output_adapter@_W@__crt_stdio_output@@@2@@__crt_stdio_output@@CADH_N@Z 0000000180093160 f i libucrtd:output.obj
 0001:000921c0       ?advance_to_next_pass@?$positional_parameter_base@DV?$stream_output_adapter@D@__crt_stdio_output@@@__crt_stdio_output@@IEAA_NXZ 00000001800931c0 f i libucrtd:output.obj
 0001:000922a0       ?advance_to_next_pass@?$positional_parameter_base@DV?$string_output_adapter@D@__crt_stdio_output@@@__crt_stdio_output@@IEAA_NXZ 00000001800932a0 f i libucrtd:output.obj
 0001:00092380       ?advance_to_next_pass@?$positional_parameter_base@_WV?$stream_output_adapter@_W@__crt_stdio_output@@@__crt_stdio_output@@IEAA_NXZ 0000000180093380 f i libucrtd:output.obj
 0001:00092460       ?advance_to_next_pass@?$positional_parameter_base@_WV?$string_output_adapter@_W@__crt_stdio_output@@@__crt_stdio_output@@IEAA_NXZ 0000000180093460 f i libucrtd:output.obj
 0001:00092540       ?advance_to_next_pass@?$standard_base@DV?$stream_output_adapter@D@__crt_stdio_output@@@__crt_stdio_output@@IEAA_NXZ 0000000180093540 f i libucrtd:output.obj
 0001:000925a0       ?advance_to_next_pass@?$standard_base@DV?$string_output_adapter@D@__crt_stdio_output@@@__crt_stdio_output@@IEAA_NXZ 00000001800935a0 f i libucrtd:output.obj
 0001:00092600       ?advance_to_next_pass@?$standard_base@_WV?$stream_output_adapter@_W@__crt_stdio_output@@@__crt_stdio_output@@IEAA_NXZ 0000000180093600 f i libucrtd:output.obj
 0001:00092660       ?advance_to_next_pass@?$standard_base@_WV?$string_output_adapter@_W@__crt_stdio_output@@@__crt_stdio_output@@IEAA_NXZ 0000000180093660 f i libucrtd:output.obj
 0001:000926c0       ?crop_zeroes@__crt_stdio_output@@YAXPEADQEAU__crt_locale_pointers@@@Z 00000001800936c0 f i libucrtd:output.obj
 0001:00092850       ?find_next_state@?$output_processor@DV?$stream_output_adapter@D@__crt_stdio_output@@V?$format_validation_base@DV?$stream_output_adapter@D@__crt_stdio_output@@@2@@__crt_stdio_output@@AEBA?AW4state@2@DW432@@Z 0000000180093850 f i libucrtd:output.obj
 0001:00092900       ?find_next_state@?$output_processor@DV?$stream_output_adapter@D@__crt_stdio_output@@V?$positional_parameter_base@DV?$stream_output_adapter@D@__crt_stdio_output@@@2@@__crt_stdio_output@@AEBA?AW4state@2@DW432@@Z 0000000180093900 f i libucrtd:output.obj
 0001:000929b0       ?find_next_state@?$output_processor@DV?$stream_output_adapter@D@__crt_stdio_output@@V?$standard_base@DV?$stream_output_adapter@D@__crt_stdio_output@@@2@@__crt_stdio_output@@AEBA?AW4state@2@DW432@@Z 00000001800939b0 f i libucrtd:output.obj
 0001:00092a60       ?find_next_state@?$output_processor@DV?$string_output_adapter@D@__crt_stdio_output@@V?$format_validation_base@DV?$string_output_adapter@D@__crt_stdio_output@@@2@@__crt_stdio_output@@AEBA?AW4state@2@DW432@@Z 0000000180093a60 f i libucrtd:output.obj
 0001:00092b10       ?find_next_state@?$output_processor@DV?$string_output_adapter@D@__crt_stdio_output@@V?$positional_parameter_base@DV?$string_output_adapter@D@__crt_stdio_output@@@2@@__crt_stdio_output@@AEBA?AW4state@2@DW432@@Z 0000000180093b10 f i libucrtd:output.obj
 0001:00092bc0       ?find_next_state@?$output_processor@DV?$string_output_adapter@D@__crt_stdio_output@@V?$standard_base@DV?$string_output_adapter@D@__crt_stdio_output@@@2@@__crt_stdio_output@@AEBA?AW4state@2@DW432@@Z 0000000180093bc0 f i libucrtd:output.obj
 0001:00092c70       ?find_next_state@?$output_processor@_WV?$stream_output_adapter@_W@__crt_stdio_output@@V?$format_validation_base@_WV?$stream_output_adapter@_W@__crt_stdio_output@@@2@@__crt_stdio_output@@AEBA?AW4state@2@_WW432@@Z 0000000180093c70 f i libucrtd:output.obj
 0001:00092d30       ?find_next_state@?$output_processor@_WV?$stream_output_adapter@_W@__crt_stdio_output@@V?$positional_parameter_base@_WV?$stream_output_adapter@_W@__crt_stdio_output@@@2@@__crt_stdio_output@@AEBA?AW4state@2@_WW432@@Z 0000000180093d30 f i libucrtd:output.obj
 0001:00092df0       ?find_next_state@?$output_processor@_WV?$stream_output_adapter@_W@__crt_stdio_output@@V?$standard_base@_WV?$stream_output_adapter@_W@__crt_stdio_output@@@2@@__crt_stdio_output@@AEBA?AW4state@2@_WW432@@Z 0000000180093df0 f i libucrtd:output.obj
 0001:00092eb0       ?find_next_state@?$output_processor@_WV?$string_output_adapter@_W@__crt_stdio_output@@V?$format_validation_base@_WV?$string_output_adapter@_W@__crt_stdio_output@@@2@@__crt_stdio_output@@AEBA?AW4state@2@_WW432@@Z 0000000180093eb0 f i libucrtd:output.obj
 0001:00092f70       ?find_next_state@?$output_processor@_WV?$string_output_adapter@_W@__crt_stdio_output@@V?$positional_parameter_base@_WV?$string_output_adapter@_W@__crt_stdio_output@@@2@@__crt_stdio_output@@AEBA?AW4state@2@_WW432@@Z 0000000180093f70 f i libucrtd:output.obj
 0001:00093030       ?find_next_state@?$output_processor@_WV?$string_output_adapter@_W@__crt_stdio_output@@V?$standard_base@_WV?$string_output_adapter@_W@__crt_stdio_output@@@2@@__crt_stdio_output@@AEBA?AW4state@2@_WW432@@Z 0000000180094030 f i libucrtd:output.obj
 0001:000930f0       ?force_decimal_point@__crt_stdio_output@@YAXPEADQEAU__crt_locale_pointers@@@Z 00000001800940f0 f i libucrtd:output.obj
 0001:00093220       ?get@__crt_deferred_errno_cache@@QEAAAEAHXZ 0000000180094220 f i libucrtd:output.obj
 0001:00093260       ?get_flags@__crt_stdio_stream@@QEBAJXZ 0000000180094260 f i libucrtd:output.obj
 0001:00093290       ?get_parameter_type@?$positional_parameter_base@DV?$stream_output_adapter@D@__crt_stdio_output@@@__crt_stdio_output@@CA?AW4parameter_type@12@F@Z 0000000180094290 f i libucrtd:output.obj
 0001:000932a0       ?get_parameter_type@?$positional_parameter_base@DV?$stream_output_adapter@D@__crt_stdio_output@@@__crt_stdio_output@@CA?AW4parameter_type@12@G@Z 00000001800942a0 f i libucrtd:output.obj
 0001:000932b0       ?get_parameter_type@?$positional_parameter_base@DV?$stream_output_adapter@D@__crt_stdio_output@@@__crt_stdio_output@@CA?AW4parameter_type@12@H@Z 00000001800942b0 f i libucrtd:output.obj
 0001:000932c0       ?get_parameter_type@?$positional_parameter_base@DV?$stream_output_adapter@D@__crt_stdio_output@@@__crt_stdio_output@@CA?AW4parameter_type@12@I@Z 00000001800942c0 f i libucrtd:output.obj
 0001:000932d0       ?get_parameter_type@?$positional_parameter_base@DV?$stream_output_adapter@D@__crt_stdio_output@@@__crt_stdio_output@@CA?AW4parameter_type@12@U_CRT_DOUBLE@@@Z 00000001800942d0 f i libucrtd:output.obj
 0001:000932e0       ?get_parameter_type@?$positional_parameter_base@DV?$stream_output_adapter@D@__crt_stdio_output@@@__crt_stdio_output@@CA?AW4parameter_type@12@_J@Z 00000001800942e0 f i libucrtd:output.obj
 0001:000932f0       ?get_parameter_type@?$positional_parameter_base@DV?$stream_output_adapter@D@__crt_stdio_output@@@__crt_stdio_output@@CA?AW4parameter_type@12@_K@Z 00000001800942f0 f i libucrtd:output.obj
 0001:00093300       ?get_parameter_type@?$positional_parameter_base@DV?$stream_output_adapter@D@__crt_stdio_output@@@__crt_stdio_output@@CA?AW4parameter_type@12@_W@Z 0000000180094300 f i libucrtd:output.obj
 0001:00093310       ?get_parameter_type@?$positional_parameter_base@DV?$string_output_adapter@D@__crt_stdio_output@@@__crt_stdio_output@@CA?AW4parameter_type@12@F@Z 0000000180094310 f i libucrtd:output.obj
 0001:00093320       ?get_parameter_type@?$positional_parameter_base@DV?$string_output_adapter@D@__crt_stdio_output@@@__crt_stdio_output@@CA?AW4parameter_type@12@G@Z 0000000180094320 f i libucrtd:output.obj
 0001:00093330       ?get_parameter_type@?$positional_parameter_base@DV?$string_output_adapter@D@__crt_stdio_output@@@__crt_stdio_output@@CA?AW4parameter_type@12@H@Z 0000000180094330 f i libucrtd:output.obj
 0001:00093340       ?get_parameter_type@?$positional_parameter_base@DV?$string_output_adapter@D@__crt_stdio_output@@@__crt_stdio_output@@CA?AW4parameter_type@12@I@Z 0000000180094340 f i libucrtd:output.obj
 0001:00093350       ?get_parameter_type@?$positional_parameter_base@DV?$string_output_adapter@D@__crt_stdio_output@@@__crt_stdio_output@@CA?AW4parameter_type@12@U_CRT_DOUBLE@@@Z 0000000180094350 f i libucrtd:output.obj
 0001:00093360       ?get_parameter_type@?$positional_parameter_base@DV?$string_output_adapter@D@__crt_stdio_output@@@__crt_stdio_output@@CA?AW4parameter_type@12@_J@Z 0000000180094360 f i libucrtd:output.obj
 0001:00093370       ?get_parameter_type@?$positional_parameter_base@DV?$string_output_adapter@D@__crt_stdio_output@@@__crt_stdio_output@@CA?AW4parameter_type@12@_K@Z 0000000180094370 f i libucrtd:output.obj
 0001:00093380       ?get_parameter_type@?$positional_parameter_base@DV?$string_output_adapter@D@__crt_stdio_output@@@__crt_stdio_output@@CA?AW4parameter_type@12@_W@Z 0000000180094380 f i libucrtd:output.obj
 0001:00093390       ?get_parameter_type@?$positional_parameter_base@_WV?$stream_output_adapter@_W@__crt_stdio_output@@@__crt_stdio_output@@CA?AW4parameter_type@12@F@Z 0000000180094390 f i libucrtd:output.obj
 0001:000933a0       ?get_parameter_type@?$positional_parameter_base@_WV?$stream_output_adapter@_W@__crt_stdio_output@@@__crt_stdio_output@@CA?AW4parameter_type@12@G@Z 00000001800943a0 f i libucrtd:output.obj
 0001:000933b0       ?get_parameter_type@?$positional_parameter_base@_WV?$stream_output_adapter@_W@__crt_stdio_output@@@__crt_stdio_output@@CA?AW4parameter_type@12@H@Z 00000001800943b0 f i libucrtd:output.obj
 0001:000933c0       ?get_parameter_type@?$positional_parameter_base@_WV?$stream_output_adapter@_W@__crt_stdio_output@@@__crt_stdio_output@@CA?AW4parameter_type@12@I@Z 00000001800943c0 f i libucrtd:output.obj
 0001:000933d0       ?get_parameter_type@?$positional_parameter_base@_WV?$stream_output_adapter@_W@__crt_stdio_output@@@__crt_stdio_output@@CA?AW4parameter_type@12@U_CRT_DOUBLE@@@Z 00000001800943d0 f i libucrtd:output.obj
 0001:000933e0       ?get_parameter_type@?$positional_parameter_base@_WV?$stream_output_adapter@_W@__crt_stdio_output@@@__crt_stdio_output@@CA?AW4parameter_type@12@_J@Z 00000001800943e0 f i libucrtd:output.obj
 0001:000933f0       ?get_parameter_type@?$positional_parameter_base@_WV?$stream_output_adapter@_W@__crt_stdio_output@@@__crt_stdio_output@@CA?AW4parameter_type@12@_K@Z 00000001800943f0 f i libucrtd:output.obj
 0001:00093400       ?get_parameter_type@?$positional_parameter_base@_WV?$stream_output_adapter@_W@__crt_stdio_output@@@__crt_stdio_output@@CA?AW4parameter_type@12@_W@Z 0000000180094400 f i libucrtd:output.obj
 0001:00093410       ?get_parameter_type@?$positional_parameter_base@_WV?$string_output_adapter@_W@__crt_stdio_output@@@__crt_stdio_output@@CA?AW4parameter_type@12@F@Z 0000000180094410 f i libucrtd:output.obj
 0001:00093420       ?get_parameter_type@?$positional_parameter_base@_WV?$string_output_adapter@_W@__crt_stdio_output@@@__crt_stdio_output@@CA?AW4parameter_type@12@G@Z 0000000180094420 f i libucrtd:output.obj
 0001:00093430       ?get_parameter_type@?$positional_parameter_base@_WV?$string_output_adapter@_W@__crt_stdio_output@@@__crt_stdio_output@@CA?AW4parameter_type@12@H@Z 0000000180094430 f i libucrtd:output.obj
 0001:00093440       ?get_parameter_type@?$positional_parameter_base@_WV?$string_output_adapter@_W@__crt_stdio_output@@@__crt_stdio_output@@CA?AW4parameter_type@12@I@Z 0000000180094440 f i libucrtd:output.obj
 0001:00093450       ?get_parameter_type@?$positional_parameter_base@_WV?$string_output_adapter@_W@__crt_stdio_output@@@__crt_stdio_output@@CA?AW4parameter_type@12@U_CRT_DOUBLE@@@Z 0000000180094450 f i libucrtd:output.obj
 0001:00093460       ?get_parameter_type@?$positional_parameter_base@_WV?$string_output_adapter@_W@__crt_stdio_output@@@__crt_stdio_output@@CA?AW4parameter_type@12@_J@Z 0000000180094460 f i libucrtd:output.obj
 0001:00093470       ?get_parameter_type@?$positional_parameter_base@_WV?$string_output_adapter@_W@__crt_stdio_output@@@__crt_stdio_output@@CA?AW4parameter_type@12@_K@Z 0000000180094470 f i libucrtd:output.obj
 0001:00093480       ?get_parameter_type@?$positional_parameter_base@_WV?$string_output_adapter@_W@__crt_stdio_output@@@__crt_stdio_output@@CA?AW4parameter_type@12@_W@Z 0000000180094480 f i libucrtd:output.obj
 0001:00093490       ?has_flag@?$output_processor@DV?$stream_output_adapter@D@__crt_stdio_output@@V?$format_validation_base@DV?$stream_output_adapter@D@__crt_stdio_output@@@2@@__crt_stdio_output@@AEBA_NI@Z 0000000180094490 f i libucrtd:output.obj
 0001:000934e0       ?has_flag@?$output_processor@DV?$stream_output_adapter@D@__crt_stdio_output@@V?$positional_parameter_base@DV?$stream_output_adapter@D@__crt_stdio_output@@@2@@__crt_stdio_output@@AEBA_NI@Z 00000001800944e0 f i libucrtd:output.obj
 0001:00093530       ?has_flag@?$output_processor@DV?$stream_output_adapter@D@__crt_stdio_output@@V?$standard_base@DV?$stream_output_adapter@D@__crt_stdio_output@@@2@@__crt_stdio_output@@AEBA_NI@Z 0000000180094530 f i libucrtd:output.obj
 0001:00093580       ?has_flag@?$output_processor@DV?$string_output_adapter@D@__crt_stdio_output@@V?$format_validation_base@DV?$string_output_adapter@D@__crt_stdio_output@@@2@@__crt_stdio_output@@AEBA_NI@Z 0000000180094580 f i libucrtd:output.obj
 0001:000935d0       ?has_flag@?$output_processor@DV?$string_output_adapter@D@__crt_stdio_output@@V?$positional_parameter_base@DV?$string_output_adapter@D@__crt_stdio_output@@@2@@__crt_stdio_output@@AEBA_NI@Z 00000001800945d0 f i libucrtd:output.obj
 0001:00093620       ?has_flag@?$output_processor@DV?$string_output_adapter@D@__crt_stdio_output@@V?$standard_base@DV?$string_output_adapter@D@__crt_stdio_output@@@2@@__crt_stdio_output@@AEBA_NI@Z 0000000180094620 f i libucrtd:output.obj
 0001:00093670       ?has_flag@?$output_processor@_WV?$stream_output_adapter@_W@__crt_stdio_output@@V?$format_validation_base@_WV?$stream_output_adapter@_W@__crt_stdio_output@@@2@@__crt_stdio_output@@AEBA_NI@Z 0000000180094670 f i libucrtd:output.obj
 0001:000936c0       ?has_flag@?$output_processor@_WV?$stream_output_adapter@_W@__crt_stdio_output@@V?$positional_parameter_base@_WV?$stream_output_adapter@_W@__crt_stdio_output@@@2@@__crt_stdio_output@@AEBA_NI@Z 00000001800946c0 f i libucrtd:output.obj
 0001:00093710       ?has_flag@?$output_processor@_WV?$stream_output_adapter@_W@__crt_stdio_output@@V?$standard_base@_WV?$stream_output_adapter@_W@__crt_stdio_output@@@2@@__crt_stdio_output@@AEBA_NI@Z 0000000180094710 f i libucrtd:output.obj
 0001:00093760       ?has_flag@?$output_processor@_WV?$string_output_adapter@_W@__crt_stdio_output@@V?$format_validation_base@_WV?$string_output_adapter@_W@__crt_stdio_output@@@2@@__crt_stdio_output@@AEBA_NI@Z 0000000180094760 f i libucrtd:output.obj
 0001:000937b0       ?has_flag@?$output_processor@_WV?$string_output_adapter@_W@__crt_stdio_output@@V?$positional_parameter_base@_WV?$string_output_adapter@_W@__crt_stdio_output@@@2@@__crt_stdio_output@@AEBA_NI@Z 00000001800947b0 f i libucrtd:output.obj
 0001:00093800       ?has_flag@?$output_processor@_WV?$string_output_adapter@_W@__crt_stdio_output@@V?$standard_base@_WV?$string_output_adapter@_W@__crt_stdio_output@@@2@@__crt_stdio_output@@AEBA_NI@Z 0000000180094800 f i libucrtd:output.obj
 0001:00093850       ?is_positional_parameter_reappearance_consistent@?$positional_parameter_base@DV?$stream_output_adapter@D@__crt_stdio_output@@@__crt_stdio_output@@AEAA_NAEBUparameter_data@12@W4parameter_type@12@DW4length_modifier@2@@Z 0000000180094850 f i libucrtd:output.obj
 0001:00093b40       ?is_positional_parameter_reappearance_consistent@?$positional_parameter_base@DV?$string_output_adapter@D@__crt_stdio_output@@@__crt_stdio_output@@AEAA_NAEBUparameter_data@12@W4parameter_type@12@DW4length_modifier@2@@Z 0000000180094b40 f i libucrtd:output.obj
 0001:00093e30       ?is_positional_parameter_reappearance_consistent@?$positional_parameter_base@_WV?$stream_output_adapter@_W@__crt_stdio_output@@@__crt_stdio_output@@AEAA_NAEBUparameter_data@12@W4parameter_type@12@_WW4length_modifier@2@@Z 0000000180094e30 f i libucrtd:output.obj
 0001:00094120       ?is_positional_parameter_reappearance_consistent@?$positional_parameter_base@_WV?$string_output_adapter@_W@__crt_stdio_output@@@__crt_stdio_output@@AEAA_NAEBUparameter_data@12@W4parameter_type@12@_WW4length_modifier@2@@Z 0000000180095120 f i libucrtd:output.obj
 0001:00094410       ?is_string_backed@__crt_stdio_stream@@QEBA_NXZ 0000000180095410 f i libucrtd:output.obj
 0001:00094460       ?narrow_null_string@?$output_processor@DV?$stream_output_adapter@D@__crt_stdio_output@@V?$format_validation_base@DV?$stream_output_adapter@D@__crt_stdio_output@@@2@@__crt_stdio_output@@CAPEADXZ 0000000180095460 f i libucrtd:output.obj
 0001:00094470       ?narrow_null_string@?$output_processor@DV?$stream_output_adapter@D@__crt_stdio_output@@V?$positional_parameter_base@DV?$stream_output_adapter@D@__crt_stdio_output@@@2@@__crt_stdio_output@@CAPEADXZ 0000000180095470 f i libucrtd:output.obj
 0001:00094480       ?narrow_null_string@?$output_processor@DV?$stream_output_adapter@D@__crt_stdio_output@@V?$standard_base@DV?$stream_output_adapter@D@__crt_stdio_output@@@2@@__crt_stdio_output@@CAPEADXZ 0000000180095480 f i libucrtd:output.obj
 0001:00094490       ?narrow_null_string@?$output_processor@DV?$string_output_adapter@D@__crt_stdio_output@@V?$format_validation_base@DV?$string_output_adapter@D@__crt_stdio_output@@@2@@__crt_stdio_output@@CAPEADXZ 0000000180095490 f i libucrtd:output.obj
 0001:000944a0       ?narrow_null_string@?$output_processor@DV?$string_output_adapter@D@__crt_stdio_output@@V?$positional_parameter_base@DV?$string_output_adapter@D@__crt_stdio_output@@@2@@__crt_stdio_output@@CAPEADXZ 00000001800954a0 f i libucrtd:output.obj
 0001:000944b0       ?narrow_null_string@?$output_processor@DV?$string_output_adapter@D@__crt_stdio_output@@V?$standard_base@DV?$string_output_adapter@D@__crt_stdio_output@@@2@@__crt_stdio_output@@CAPEADXZ 00000001800954b0 f i libucrtd:output.obj
 0001:000944c0       ?narrow_null_string@?$output_processor@_WV?$stream_output_adapter@_W@__crt_stdio_output@@V?$format_validation_base@_WV?$stream_output_adapter@_W@__crt_stdio_output@@@2@@__crt_stdio_output@@CAPEADXZ 00000001800954c0 f i libucrtd:output.obj
 0001:000944d0       ?narrow_null_string@?$output_processor@_WV?$stream_output_adapter@_W@__crt_stdio_output@@V?$positional_parameter_base@_WV?$stream_output_adapter@_W@__crt_stdio_output@@@2@@__crt_stdio_output@@CAPEADXZ 00000001800954d0 f i libucrtd:output.obj
 0001:000944e0       ?narrow_null_string@?$output_processor@_WV?$stream_output_adapter@_W@__crt_stdio_output@@V?$standard_base@_WV?$stream_output_adapter@_W@__crt_stdio_output@@@2@@__crt_stdio_output@@CAPEADXZ 00000001800954e0 f i libucrtd:output.obj
 0001:000944f0       ?narrow_null_string@?$output_processor@_WV?$string_output_adapter@_W@__crt_stdio_output@@V?$format_validation_base@_WV?$string_output_adapter@_W@__crt_stdio_output@@@2@@__crt_stdio_output@@CAPEADXZ 00000001800954f0 f i libucrtd:output.obj
 0001:00094500       ?narrow_null_string@?$output_processor@_WV?$string_output_adapter@_W@__crt_stdio_output@@V?$positional_parameter_base@_WV?$string_output_adapter@_W@__crt_stdio_output@@@2@@__crt_stdio_output@@CAPEADXZ 0000000180095500 f i libucrtd:output.obj
 0001:00094510       ?narrow_null_string@?$output_processor@_WV?$string_output_adapter@_W@__crt_stdio_output@@V?$standard_base@_WV?$string_output_adapter@_W@__crt_stdio_output@@@2@@__crt_stdio_output@@CAPEADXZ 0000000180095510 f i libucrtd:output.obj
 0001:00094520       ?parse_int_from_format_string@?$output_processor@DV?$stream_output_adapter@D@__crt_stdio_output@@V?$format_validation_base@DV?$stream_output_adapter@D@__crt_stdio_output@@@2@@__crt_stdio_output@@AEAA_NQEAH@Z 0000000180095520 f i libucrtd:output.obj
 0001:00094650       ?parse_int_from_format_string@?$output_processor@DV?$stream_output_adapter@D@__crt_stdio_output@@V?$positional_parameter_base@DV?$stream_output_adapter@D@__crt_stdio_output@@@2@@__crt_stdio_output@@AEAA_NQEAH@Z 0000000180095650 f i libucrtd:output.obj
 0001:00094780       ?parse_int_from_format_string@?$output_processor@DV?$stream_output_adapter@D@__crt_stdio_output@@V?$standard_base@DV?$stream_output_adapter@D@__crt_stdio_output@@@2@@__crt_stdio_output@@AEAA_NQEAH@Z 0000000180095780 f i libucrtd:output.obj
 0001:000948b0       ?parse_int_from_format_string@?$output_processor@DV?$string_output_adapter@D@__crt_stdio_output@@V?$format_validation_base@DV?$string_output_adapter@D@__crt_stdio_output@@@2@@__crt_stdio_output@@AEAA_NQEAH@Z 00000001800958b0 f i libucrtd:output.obj
 0001:000949e0       ?parse_int_from_format_string@?$output_processor@DV?$string_output_adapter@D@__crt_stdio_output@@V?$positional_parameter_base@DV?$string_output_adapter@D@__crt_stdio_output@@@2@@__crt_stdio_output@@AEAA_NQEAH@Z 00000001800959e0 f i libucrtd:output.obj
 0001:00094b10       ?parse_int_from_format_string@?$output_processor@DV?$string_output_adapter@D@__crt_stdio_output@@V?$standard_base@DV?$string_output_adapter@D@__crt_stdio_output@@@2@@__crt_stdio_output@@AEAA_NQEAH@Z 0000000180095b10 f i libucrtd:output.obj
 0001:00094c40       ?parse_int_from_format_string@?$output_processor@_WV?$stream_output_adapter@_W@__crt_stdio_output@@V?$format_validation_base@_WV?$stream_output_adapter@_W@__crt_stdio_output@@@2@@__crt_stdio_output@@AEAA_NQEAH@Z 0000000180095c40 f i libucrtd:output.obj
 0001:00094d70       ?parse_int_from_format_string@?$output_processor@_WV?$stream_output_adapter@_W@__crt_stdio_output@@V?$positional_parameter_base@_WV?$stream_output_adapter@_W@__crt_stdio_output@@@2@@__crt_stdio_output@@AEAA_NQEAH@Z 0000000180095d70 f i libucrtd:output.obj
 0001:00094ea0       ?parse_int_from_format_string@?$output_processor@_WV?$stream_output_adapter@_W@__crt_stdio_output@@V?$standard_base@_WV?$stream_output_adapter@_W@__crt_stdio_output@@@2@@__crt_stdio_output@@AEAA_NQEAH@Z 0000000180095ea0 f i libucrtd:output.obj
 0001:00094fd0       ?parse_int_from_format_string@?$output_processor@_WV?$string_output_adapter@_W@__crt_stdio_output@@V?$format_validation_base@_WV?$string_output_adapter@_W@__crt_stdio_output@@@2@@__crt_stdio_output@@AEAA_NQEAH@Z 0000000180095fd0 f i libucrtd:output.obj
 0001:00095100       ?parse_int_from_format_string@?$output_processor@_WV?$string_output_adapter@_W@__crt_stdio_output@@V?$positional_parameter_base@_WV?$string_output_adapter@_W@__crt_stdio_output@@@2@@__crt_stdio_output@@AEAA_NQEAH@Z 0000000180096100 f i libucrtd:output.obj
 0001:00095230       ?parse_int_from_format_string@?$output_processor@_WV?$string_output_adapter@_W@__crt_stdio_output@@V?$standard_base@_WV?$string_output_adapter@_W@__crt_stdio_output@@@2@@__crt_stdio_output@@AEAA_NQEAH@Z 0000000180096230 f i libucrtd:output.obj
 0001:00095360       ?process@?$output_processor@DV?$stream_output_adapter@D@__crt_stdio_output@@V?$format_validation_base@DV?$stream_output_adapter@D@__crt_stdio_output@@@2@@__crt_stdio_output@@QEAAHXZ 0000000180096360 f i libucrtd:output.obj
 0001:000957a0       ?process@?$output_processor@DV?$stream_output_adapter@D@__crt_stdio_output@@V?$positional_parameter_base@DV?$stream_output_adapter@D@__crt_stdio_output@@@2@@__crt_stdio_output@@QEAAHXZ 00000001800967a0 f i libucrtd:output.obj
 0001:00095be0       ?process@?$output_processor@DV?$stream_output_adapter@D@__crt_stdio_output@@V?$standard_base@DV?$stream_output_adapter@D@__crt_stdio_output@@@2@@__crt_stdio_output@@QEAAHXZ 0000000180096be0 f i libucrtd:output.obj
 0001:00096020       ?process@?$output_processor@DV?$string_output_adapter@D@__crt_stdio_output@@V?$format_validation_base@DV?$string_output_adapter@D@__crt_stdio_output@@@2@@__crt_stdio_output@@QEAAHXZ 0000000180097020 f i libucrtd:output.obj
 0001:00096460       ?process@?$output_processor@DV?$string_output_adapter@D@__crt_stdio_output@@V?$positional_parameter_base@DV?$string_output_adapter@D@__crt_stdio_output@@@2@@__crt_stdio_output@@QEAAHXZ 0000000180097460 f i libucrtd:output.obj
 0001:000968a0       ?process@?$output_processor@DV?$string_output_adapter@D@__crt_stdio_output@@V?$standard_base@DV?$string_output_adapter@D@__crt_stdio_output@@@2@@__crt_stdio_output@@QEAAHXZ 00000001800978a0 f i libucrtd:output.obj
 0001:00096ce0       ?process@?$output_processor@_WV?$stream_output_adapter@_W@__crt_stdio_output@@V?$format_validation_base@_WV?$stream_output_adapter@_W@__crt_stdio_output@@@2@@__crt_stdio_output@@QEAAHXZ 0000000180097ce0 f i libucrtd:output.obj
 0001:00097120       ?process@?$output_processor@_WV?$stream_output_adapter@_W@__crt_stdio_output@@V?$positional_parameter_base@_WV?$stream_output_adapter@_W@__crt_stdio_output@@@2@@__crt_stdio_output@@QEAAHXZ 0000000180098120 f i libucrtd:output.obj
 0001:00097560       ?process@?$output_processor@_WV?$stream_output_adapter@_W@__crt_stdio_output@@V?$standard_base@_WV?$stream_output_adapter@_W@__crt_stdio_output@@@2@@__crt_stdio_output@@QEAAHXZ 0000000180098560 f i libucrtd:output.obj
 0001:000979a0       ?process@?$output_processor@_WV?$string_output_adapter@_W@__crt_stdio_output@@V?$format_validation_base@_WV?$string_output_adapter@_W@__crt_stdio_output@@@2@@__crt_stdio_output@@QEAAHXZ 00000001800989a0 f i libucrtd:output.obj
 0001:00097de0       ?process@?$output_processor@_WV?$string_output_adapter@_W@__crt_stdio_output@@V?$positional_parameter_base@_WV?$string_output_adapter@_W@__crt_stdio_output@@@2@@__crt_stdio_output@@QEAAHXZ 0000000180098de0 f i libucrtd:output.obj
 0001:00098220       ?process@?$output_processor@_WV?$string_output_adapter@_W@__crt_stdio_output@@V?$standard_base@_WV?$string_output_adapter@_W@__crt_stdio_output@@@2@@__crt_stdio_output@@QEAAHXZ 0000000180099220 f i libucrtd:output.obj
 0001:00098660       ?public_stream@__crt_stdio_stream@@QEBAPEAU_iobuf@@XZ 0000000180099660 f i libucrtd:output.obj
 0001:00098680       ?set_flag@?$output_processor@DV?$stream_output_adapter@D@__crt_stdio_output@@V?$format_validation_base@DV?$stream_output_adapter@D@__crt_stdio_output@@@2@@__crt_stdio_output@@AEAAXI@Z 0000000180099680 f i libucrtd:output.obj
 0001:000986b0       ?set_flag@?$output_processor@DV?$stream_output_adapter@D@__crt_stdio_output@@V?$positional_parameter_base@DV?$stream_output_adapter@D@__crt_stdio_output@@@2@@__crt_stdio_output@@AEAAXI@Z 00000001800996b0 f i libucrtd:output.obj
 0001:000986e0       ?set_flag@?$output_processor@DV?$stream_output_adapter@D@__crt_stdio_output@@V?$standard_base@DV?$stream_output_adapter@D@__crt_stdio_output@@@2@@__crt_stdio_output@@AEAAXI@Z 00000001800996e0 f i libucrtd:output.obj
 0001:00098710       ?set_flag@?$output_processor@DV?$string_output_adapter@D@__crt_stdio_output@@V?$format_validation_base@DV?$string_output_adapter@D@__crt_stdio_output@@@2@@__crt_stdio_output@@AEAAXI@Z 0000000180099710 f i libucrtd:output.obj
 0001:00098740       ?set_flag@?$output_processor@DV?$string_output_adapter@D@__crt_stdio_output@@V?$positional_parameter_base@DV?$string_output_adapter@D@__crt_stdio_output@@@2@@__crt_stdio_output@@AEAAXI@Z 0000000180099740 f i libucrtd:output.obj
 0001:00098770       ?set_flag@?$output_processor@DV?$string_output_adapter@D@__crt_stdio_output@@V?$standard_base@DV?$string_output_adapter@D@__crt_stdio_output@@@2@@__crt_stdio_output@@AEAAXI@Z 0000000180099770 f i libucrtd:output.obj
 0001:000987a0       ?set_flag@?$output_processor@_WV?$stream_output_adapter@_W@__crt_stdio_output@@V?$format_validation_base@_WV?$stream_output_adapter@_W@__crt_stdio_output@@@2@@__crt_stdio_output@@AEAAXI@Z 00000001800997a0 f i libucrtd:output.obj
 0001:000987d0       ?set_flag@?$output_processor@_WV?$stream_output_adapter@_W@__crt_stdio_output@@V?$positional_parameter_base@_WV?$stream_output_adapter@_W@__crt_stdio_output@@@2@@__crt_stdio_output@@AEAAXI@Z 00000001800997d0 f i libucrtd:output.obj
 0001:00098800       ?set_flag@?$output_processor@_WV?$stream_output_adapter@_W@__crt_stdio_output@@V?$standard_base@_WV?$stream_output_adapter@_W@__crt_stdio_output@@@2@@__crt_stdio_output@@AEAAXI@Z 0000000180099800 f i libucrtd:output.obj
 0001:00098830       ?set_flag@?$output_processor@_WV?$string_output_adapter@_W@__crt_stdio_output@@V?$format_validation_base@_WV?$string_output_adapter@_W@__crt_stdio_output@@@2@@__crt_stdio_output@@AEAAXI@Z 0000000180099830 f i libucrtd:output.obj
 0001:00098860       ?set_flag@?$output_processor@_WV?$string_output_adapter@_W@__crt_stdio_output@@V?$positional_parameter_base@_WV?$string_output_adapter@_W@__crt_stdio_output@@@2@@__crt_stdio_output@@AEAAXI@Z 0000000180099860 f i libucrtd:output.obj
 0001:00098890       ?set_flag@?$output_processor@_WV?$string_output_adapter@_W@__crt_stdio_output@@V?$standard_base@_WV?$string_output_adapter@_W@__crt_stdio_output@@@2@@__crt_stdio_output@@AEAAXI@Z 0000000180099890 f i libucrtd:output.obj
 0001:000988c0       ?should_format@?$positional_parameter_base@DV?$stream_output_adapter@D@__crt_stdio_output@@@__crt_stdio_output@@IEAA_NXZ 00000001800998c0 f i libucrtd:output.obj
 0001:00098910       ?should_format@?$positional_parameter_base@DV?$string_output_adapter@D@__crt_stdio_output@@@__crt_stdio_output@@IEAA_NXZ 0000000180099910 f i libucrtd:output.obj
 0001:00098960       ?should_format@?$positional_parameter_base@_WV?$stream_output_adapter@_W@__crt_stdio_output@@@__crt_stdio_output@@IEAA_NXZ 0000000180099960 f i libucrtd:output.obj
 0001:000989b0       ?should_format@?$positional_parameter_base@_WV?$string_output_adapter@_W@__crt_stdio_output@@@__crt_stdio_output@@IEAA_NXZ 00000001800999b0 f i libucrtd:output.obj
 0001:00098a00       ?should_format@?$standard_base@DV?$stream_output_adapter@D@__crt_stdio_output@@@__crt_stdio_output@@IEAA_NXZ 0000000180099a00 f i libucrtd:output.obj
 0001:00098a10       ?should_format@?$standard_base@DV?$string_output_adapter@D@__crt_stdio_output@@@__crt_stdio_output@@IEAA_NXZ 0000000180099a10 f i libucrtd:output.obj
 0001:00098a20       ?should_format@?$standard_base@_WV?$stream_output_adapter@_W@__crt_stdio_output@@@__crt_stdio_output@@IEAA_NXZ 0000000180099a20 f i libucrtd:output.obj
 0001:00098a30       ?should_format@?$standard_base@_WV?$string_output_adapter@_W@__crt_stdio_output@@@__crt_stdio_output@@IEAA_NXZ 0000000180099a30 f i libucrtd:output.obj
 0001:00098a40       ?should_skip_normal_state_processing@?$positional_parameter_base@DV?$stream_output_adapter@D@__crt_stdio_output@@@__crt_stdio_output@@IEAA_NXZ 0000000180099a40 f i libucrtd:output.obj
 0001:00098aa0       ?should_skip_normal_state_processing@?$positional_parameter_base@DV?$string_output_adapter@D@__crt_stdio_output@@@__crt_stdio_output@@IEAA_NXZ 0000000180099aa0 f i libucrtd:output.obj
 0001:00098b00       ?should_skip_normal_state_processing@?$positional_parameter_base@_WV?$stream_output_adapter@_W@__crt_stdio_output@@@__crt_stdio_output@@IEAA_NXZ 0000000180099b00 f i libucrtd:output.obj
 0001:00098b60       ?should_skip_normal_state_processing@?$positional_parameter_base@_WV?$string_output_adapter@_W@__crt_stdio_output@@@__crt_stdio_output@@IEAA_NXZ 0000000180099b60 f i libucrtd:output.obj
 0001:00098bc0       ?should_skip_normal_state_processing@?$standard_base@DV?$stream_output_adapter@D@__crt_stdio_output@@@__crt_stdio_output@@IEAA_NXZ 0000000180099bc0 f i libucrtd:output.obj
 0001:00098bd0       ?should_skip_normal_state_processing@?$standard_base@DV?$string_output_adapter@D@__crt_stdio_output@@@__crt_stdio_output@@IEAA_NXZ 0000000180099bd0 f i libucrtd:output.obj
 0001:00098be0       ?should_skip_normal_state_processing@?$standard_base@_WV?$stream_output_adapter@_W@__crt_stdio_output@@@__crt_stdio_output@@IEAA_NXZ 0000000180099be0 f i libucrtd:output.obj
 0001:00098bf0       ?should_skip_normal_state_processing@?$standard_base@_WV?$string_output_adapter@_W@__crt_stdio_output@@@__crt_stdio_output@@IEAA_NXZ 0000000180099bf0 f i libucrtd:output.obj
 0001:00098c00       ?should_skip_type_state_output@?$positional_parameter_base@DV?$stream_output_adapter@D@__crt_stdio_output@@@__crt_stdio_output@@IEBA_NXZ 0000000180099c00 f i libucrtd:output.obj
 0001:00098c50       ?should_skip_type_state_output@?$positional_parameter_base@DV?$string_output_adapter@D@__crt_stdio_output@@@__crt_stdio_output@@IEBA_NXZ 0000000180099c50 f i libucrtd:output.obj
 0001:00098ca0       ?should_skip_type_state_output@?$positional_parameter_base@_WV?$stream_output_adapter@_W@__crt_stdio_output@@@__crt_stdio_output@@IEBA_NXZ 0000000180099ca0 f i libucrtd:output.obj
 0001:00098cf0       ?should_skip_type_state_output@?$positional_parameter_base@_WV?$string_output_adapter@_W@__crt_stdio_output@@@__crt_stdio_output@@IEBA_NXZ 0000000180099cf0 f i libucrtd:output.obj
 0001:00098d40       ?should_skip_type_state_output@?$standard_base@DV?$stream_output_adapter@D@__crt_stdio_output@@@__crt_stdio_output@@IEBA_NXZ 0000000180099d40 f i libucrtd:output.obj
 0001:00098d50       ?should_skip_type_state_output@?$standard_base@DV?$string_output_adapter@D@__crt_stdio_output@@@__crt_stdio_output@@IEBA_NXZ 0000000180099d50 f i libucrtd:output.obj
 0001:00098d60       ?should_skip_type_state_output@?$standard_base@_WV?$stream_output_adapter@_W@__crt_stdio_output@@@__crt_stdio_output@@IEBA_NXZ 0000000180099d60 f i libucrtd:output.obj
 0001:00098d70       ?should_skip_type_state_output@?$standard_base@_WV?$string_output_adapter@_W@__crt_stdio_output@@@__crt_stdio_output@@IEBA_NXZ 0000000180099d70 f i libucrtd:output.obj
 0001:00098d80       ?state_case_dot@?$output_processor@DV?$stream_output_adapter@D@__crt_stdio_output@@V?$format_validation_base@DV?$stream_output_adapter@D@__crt_stdio_output@@@2@@__crt_stdio_output@@AEAA_NXZ 0000000180099d80 f i libucrtd:output.obj
 0001:00098da0       ?state_case_dot@?$output_processor@DV?$stream_output_adapter@D@__crt_stdio_output@@V?$positional_parameter_base@DV?$stream_output_adapter@D@__crt_stdio_output@@@2@@__crt_stdio_output@@AEAA_NXZ 0000000180099da0 f i libucrtd:output.obj
 0001:00098dc0       ?state_case_dot@?$output_processor@DV?$stream_output_adapter@D@__crt_stdio_output@@V?$standard_base@DV?$stream_output_adapter@D@__crt_stdio_output@@@2@@__crt_stdio_output@@AEAA_NXZ 0000000180099dc0 f i libucrtd:output.obj
 0001:00098de0       ?state_case_dot@?$output_processor@DV?$string_output_adapter@D@__crt_stdio_output@@V?$format_validation_base@DV?$string_output_adapter@D@__crt_stdio_output@@@2@@__crt_stdio_output@@AEAA_NXZ 0000000180099de0 f i libucrtd:output.obj
 0001:00098e00       ?state_case_dot@?$output_processor@DV?$string_output_adapter@D@__crt_stdio_output@@V?$positional_parameter_base@DV?$string_output_adapter@D@__crt_stdio_output@@@2@@__crt_stdio_output@@AEAA_NXZ 0000000180099e00 f i libucrtd:output.obj
 0001:00098e20       ?state_case_dot@?$output_processor@DV?$string_output_adapter@D@__crt_stdio_output@@V?$standard_base@DV?$string_output_adapter@D@__crt_stdio_output@@@2@@__crt_stdio_output@@AEAA_NXZ 0000000180099e20 f i libucrtd:output.obj
 0001:00098e40       ?state_case_dot@?$output_processor@_WV?$stream_output_adapter@_W@__crt_stdio_output@@V?$format_validation_base@_WV?$stream_output_adapter@_W@__crt_stdio_output@@@2@@__crt_stdio_output@@AEAA_NXZ 0000000180099e40 f i libucrtd:output.obj
 0001:00098e60       ?state_case_dot@?$output_processor@_WV?$stream_output_adapter@_W@__crt_stdio_output@@V?$positional_parameter_base@_WV?$stream_output_adapter@_W@__crt_stdio_output@@@2@@__crt_stdio_output@@AEAA_NXZ 0000000180099e60 f i libucrtd:output.obj
 0001:00098e80       ?state_case_dot@?$output_processor@_WV?$stream_output_adapter@_W@__crt_stdio_output@@V?$standard_base@_WV?$stream_output_adapter@_W@__crt_stdio_output@@@2@@__crt_stdio_output@@AEAA_NXZ 0000000180099e80 f i libucrtd:output.obj
 0001:00098ea0       ?state_case_dot@?$output_processor@_WV?$string_output_adapter@_W@__crt_stdio_output@@V?$format_validation_base@_WV?$string_output_adapter@_W@__crt_stdio_output@@@2@@__crt_stdio_output@@AEAA_NXZ 0000000180099ea0 f i libucrtd:output.obj
 0001:00098ec0       ?state_case_dot@?$output_processor@_WV?$string_output_adapter@_W@__crt_stdio_output@@V?$positional_parameter_base@_WV?$string_output_adapter@_W@__crt_stdio_output@@@2@@__crt_stdio_output@@AEAA_NXZ 0000000180099ec0 f i libucrtd:output.obj
 0001:00098ee0       ?state_case_dot@?$output_processor@_WV?$string_output_adapter@_W@__crt_stdio_output@@V?$standard_base@_WV?$string_output_adapter@_W@__crt_stdio_output@@@2@@__crt_stdio_output@@AEAA_NXZ 0000000180099ee0 f i libucrtd:output.obj
 0001:00098f00       ?state_case_flag@?$output_processor@DV?$stream_output_adapter@D@__crt_stdio_output@@V?$format_validation_base@DV?$stream_output_adapter@D@__crt_stdio_output@@@2@@__crt_stdio_output@@AEAA_NXZ 0000000180099f00 f i libucrtd:output.obj
 0001:00098fc0       ?state_case_flag@?$output_processor@DV?$stream_output_adapter@D@__crt_stdio_output@@V?$positional_parameter_base@DV?$stream_output_adapter@D@__crt_stdio_output@@@2@@__crt_stdio_output@@AEAA_NXZ 0000000180099fc0 f i libucrtd:output.obj
 0001:00099080       ?state_case_flag@?$output_processor@DV?$stream_output_adapter@D@__crt_stdio_output@@V?$standard_base@DV?$stream_output_adapter@D@__crt_stdio_output@@@2@@__crt_stdio_output@@AEAA_NXZ 000000018009a080 f i libucrtd:output.obj
 0001:00099140       ?state_case_flag@?$output_processor@DV?$string_output_adapter@D@__crt_stdio_output@@V?$format_validation_base@DV?$string_output_adapter@D@__crt_stdio_output@@@2@@__crt_stdio_output@@AEAA_NXZ 000000018009a140 f i libucrtd:output.obj
 0001:00099200       ?state_case_flag@?$output_processor@DV?$string_output_adapter@D@__crt_stdio_output@@V?$positional_parameter_base@DV?$string_output_adapter@D@__crt_stdio_output@@@2@@__crt_stdio_output@@AEAA_NXZ 000000018009a200 f i libucrtd:output.obj
 0001:000992c0       ?state_case_flag@?$output_processor@DV?$string_output_adapter@D@__crt_stdio_output@@V?$standard_base@DV?$string_output_adapter@D@__crt_stdio_output@@@2@@__crt_stdio_output@@AEAA_NXZ 000000018009a2c0 f i libucrtd:output.obj
 0001:00099380       ?state_case_flag@?$output_processor@_WV?$stream_output_adapter@_W@__crt_stdio_output@@V?$format_validation_base@_WV?$stream_output_adapter@_W@__crt_stdio_output@@@2@@__crt_stdio_output@@AEAA_NXZ 000000018009a380 f i libucrtd:output.obj
 0001:00099440       ?state_case_flag@?$output_processor@_WV?$stream_output_adapter@_W@__crt_stdio_output@@V?$positional_parameter_base@_WV?$stream_output_adapter@_W@__crt_stdio_output@@@2@@__crt_stdio_output@@AEAA_NXZ 000000018009a440 f i libucrtd:output.obj
 0001:00099500       ?state_case_flag@?$output_processor@_WV?$stream_output_adapter@_W@__crt_stdio_output@@V?$standard_base@_WV?$stream_output_adapter@_W@__crt_stdio_output@@@2@@__crt_stdio_output@@AEAA_NXZ 000000018009a500 f i libucrtd:output.obj
 0001:000995c0       ?state_case_flag@?$output_processor@_WV?$string_output_adapter@_W@__crt_stdio_output@@V?$format_validation_base@_WV?$string_output_adapter@_W@__crt_stdio_output@@@2@@__crt_stdio_output@@AEAA_NXZ 000000018009a5c0 f i libucrtd:output.obj
 0001:00099680       ?state_case_flag@?$output_processor@_WV?$string_output_adapter@_W@__crt_stdio_output@@V?$positional_parameter_base@_WV?$string_output_adapter@_W@__crt_stdio_output@@@2@@__crt_stdio_output@@AEAA_NXZ 000000018009a680 f i libucrtd:output.obj
 0001:00099740       ?state_case_flag@?$output_processor@_WV?$string_output_adapter@_W@__crt_stdio_output@@V?$standard_base@_WV?$string_output_adapter@_W@__crt_stdio_output@@@2@@__crt_stdio_output@@AEAA_NXZ 000000018009a740 f i libucrtd:output.obj
 0001:00099800       ?state_case_normal@?$output_processor@DV?$stream_output_adapter@D@__crt_stdio_output@@V?$format_validation_base@DV?$stream_output_adapter@D@__crt_stdio_output@@@2@@__crt_stdio_output@@AEAA_NXZ 000000018009a800 f i libucrtd:output.obj
 0001:00099910       ?state_case_normal@?$output_processor@DV?$stream_output_adapter@D@__crt_stdio_output@@V?$positional_parameter_base@DV?$stream_output_adapter@D@__crt_stdio_output@@@2@@__crt_stdio_output@@AEAA_NXZ 000000018009a910 f i libucrtd:output.obj
 0001:00099a20       ?state_case_normal@?$output_processor@DV?$stream_output_adapter@D@__crt_stdio_output@@V?$standard_base@DV?$stream_output_adapter@D@__crt_stdio_output@@@2@@__crt_stdio_output@@AEAA_NXZ 000000018009aa20 f i libucrtd:output.obj
 0001:00099b30       ?state_case_normal@?$output_processor@DV?$string_output_adapter@D@__crt_stdio_output@@V?$format_validation_base@DV?$string_output_adapter@D@__crt_stdio_output@@@2@@__crt_stdio_output@@AEAA_NXZ 000000018009ab30 f i libucrtd:output.obj
 0001:00099c40       ?state_case_normal@?$output_processor@DV?$string_output_adapter@D@__crt_stdio_output@@V?$positional_parameter_base@DV?$string_output_adapter@D@__crt_stdio_output@@@2@@__crt_stdio_output@@AEAA_NXZ 000000018009ac40 f i libucrtd:output.obj
 0001:00099d50       ?state_case_normal@?$output_processor@DV?$string_output_adapter@D@__crt_stdio_output@@V?$standard_base@DV?$string_output_adapter@D@__crt_stdio_output@@@2@@__crt_stdio_output@@AEAA_NXZ 000000018009ad50 f i libucrtd:output.obj
 0001:00099e60       ?state_case_normal@?$output_processor@_WV?$stream_output_adapter@_W@__crt_stdio_output@@V?$format_validation_base@_WV?$stream_output_adapter@_W@__crt_stdio_output@@@2@@__crt_stdio_output@@AEAA_NXZ 000000018009ae60 f i libucrtd:output.obj
 0001:00099f70       ?state_case_normal@?$output_processor@_WV?$stream_output_adapter@_W@__crt_stdio_output@@V?$positional_parameter_base@_WV?$stream_output_adapter@_W@__crt_stdio_output@@@2@@__crt_stdio_output@@AEAA_NXZ 000000018009af70 f i libucrtd:output.obj
 0001:0009a080       ?state_case_normal@?$output_processor@_WV?$stream_output_adapter@_W@__crt_stdio_output@@V?$standard_base@_WV?$stream_output_adapter@_W@__crt_stdio_output@@@2@@__crt_stdio_output@@AEAA_NXZ 000000018009b080 f i libucrtd:output.obj
 0001:0009a190       ?state_case_normal@?$output_processor@_WV?$string_output_adapter@_W@__crt_stdio_output@@V?$format_validation_base@_WV?$string_output_adapter@_W@__crt_stdio_output@@@2@@__crt_stdio_output@@AEAA_NXZ 000000018009b190 f i libucrtd:output.obj
 0001:0009a2a0       ?state_case_normal@?$output_processor@_WV?$string_output_adapter@_W@__crt_stdio_output@@V?$positional_parameter_base@_WV?$string_output_adapter@_W@__crt_stdio_output@@@2@@__crt_stdio_output@@AEAA_NXZ 000000018009b2a0 f i libucrtd:output.obj
 0001:0009a3b0       ?state_case_normal@?$output_processor@_WV?$string_output_adapter@_W@__crt_stdio_output@@V?$standard_base@_WV?$string_output_adapter@_W@__crt_stdio_output@@@2@@__crt_stdio_output@@AEAA_NXZ 000000018009b3b0 f i libucrtd:output.obj
 0001:0009a4c0       ?state_case_normal_common@?$output_processor@DV?$stream_output_adapter@D@__crt_stdio_output@@V?$format_validation_base@DV?$stream_output_adapter@D@__crt_stdio_output@@@2@@__crt_stdio_output@@AEAA_NXZ 000000018009b4c0 f i libucrtd:output.obj
 0001:0009a520       ?state_case_normal_common@?$output_processor@DV?$stream_output_adapter@D@__crt_stdio_output@@V?$positional_parameter_base@DV?$stream_output_adapter@D@__crt_stdio_output@@@2@@__crt_stdio_output@@AEAA_NXZ 000000018009b520 f i libucrtd:output.obj
 0001:0009a580       ?state_case_normal_common@?$output_processor@DV?$stream_output_adapter@D@__crt_stdio_output@@V?$standard_base@DV?$stream_output_adapter@D@__crt_stdio_output@@@2@@__crt_stdio_output@@AEAA_NXZ 000000018009b580 f i libucrtd:output.obj
 0001:0009a5e0       ?state_case_normal_common@?$output_processor@DV?$string_output_adapter@D@__crt_stdio_output@@V?$format_validation_base@DV?$string_output_adapter@D@__crt_stdio_output@@@2@@__crt_stdio_output@@AEAA_NXZ 000000018009b5e0 f i libucrtd:output.obj
 0001:0009a640       ?state_case_normal_common@?$output_processor@DV?$string_output_adapter@D@__crt_stdio_output@@V?$positional_parameter_base@DV?$string_output_adapter@D@__crt_stdio_output@@@2@@__crt_stdio_output@@AEAA_NXZ 000000018009b640 f i libucrtd:output.obj
 0001:0009a6a0       ?state_case_normal_common@?$output_processor@DV?$string_output_adapter@D@__crt_stdio_output@@V?$standard_base@DV?$string_output_adapter@D@__crt_stdio_output@@@2@@__crt_stdio_output@@AEAA_NXZ 000000018009b6a0 f i libucrtd:output.obj
 0001:0009a700       ?state_case_normal_common@?$output_processor@_WV?$stream_output_adapter@_W@__crt_stdio_output@@V?$format_validation_base@_WV?$stream_output_adapter@_W@__crt_stdio_output@@@2@@__crt_stdio_output@@AEAA_NXZ 000000018009b700 f i libucrtd:output.obj
 0001:0009a760       ?state_case_normal_common@?$output_processor@_WV?$stream_output_adapter@_W@__crt_stdio_output@@V?$positional_parameter_base@_WV?$stream_output_adapter@_W@__crt_stdio_output@@@2@@__crt_stdio_output@@AEAA_NXZ 000000018009b760 f i libucrtd:output.obj
 0001:0009a7c0       ?state_case_normal_common@?$output_processor@_WV?$stream_output_adapter@_W@__crt_stdio_output@@V?$standard_base@_WV?$stream_output_adapter@_W@__crt_stdio_output@@@2@@__crt_stdio_output@@AEAA_NXZ 000000018009b7c0 f i libucrtd:output.obj
 0001:0009a820       ?state_case_normal_common@?$output_processor@_WV?$string_output_adapter@_W@__crt_stdio_output@@V?$format_validation_base@_WV?$string_output_adapter@_W@__crt_stdio_output@@@2@@__crt_stdio_output@@AEAA_NXZ 000000018009b820 f i libucrtd:output.obj
 0001:0009a880       ?state_case_normal_common@?$output_processor@_WV?$string_output_adapter@_W@__crt_stdio_output@@V?$positional_parameter_base@_WV?$string_output_adapter@_W@__crt_stdio_output@@@2@@__crt_stdio_output@@AEAA_NXZ 000000018009b880 f i libucrtd:output.obj
 0001:0009a8e0       ?state_case_normal_common@?$output_processor@_WV?$string_output_adapter@_W@__crt_stdio_output@@V?$standard_base@_WV?$string_output_adapter@_W@__crt_stdio_output@@@2@@__crt_stdio_output@@AEAA_NXZ 000000018009b8e0 f i libucrtd:output.obj
 0001:0009a940       ?state_case_normal_tchar@?$output_processor@DV?$stream_output_adapter@D@__crt_stdio_output@@V?$format_validation_base@DV?$stream_output_adapter@D@__crt_stdio_output@@@2@@__crt_stdio_output@@AEAA_ND@Z 000000018009b940 f i libucrtd:output.obj
 0001:0009aad0       ?state_case_normal_tchar@?$output_processor@DV?$stream_output_adapter@D@__crt_stdio_output@@V?$positional_parameter_base@DV?$stream_output_adapter@D@__crt_stdio_output@@@2@@__crt_stdio_output@@AEAA_ND@Z 000000018009bad0 f i libucrtd:output.obj
 0001:0009ac60       ?state_case_normal_tchar@?$output_processor@DV?$stream_output_adapter@D@__crt_stdio_output@@V?$standard_base@DV?$stream_output_adapter@D@__crt_stdio_output@@@2@@__crt_stdio_output@@AEAA_ND@Z 000000018009bc60 f i libucrtd:output.obj
 0001:0009adf0       ?state_case_normal_tchar@?$output_processor@DV?$string_output_adapter@D@__crt_stdio_output@@V?$format_validation_base@DV?$string_output_adapter@D@__crt_stdio_output@@@2@@__crt_stdio_output@@AEAA_ND@Z 000000018009bdf0 f i libucrtd:output.obj
 0001:0009af80       ?state_case_normal_tchar@?$output_processor@DV?$string_output_adapter@D@__crt_stdio_output@@V?$positional_parameter_base@DV?$string_output_adapter@D@__crt_stdio_output@@@2@@__crt_stdio_output@@AEAA_ND@Z 000000018009bf80 f i libucrtd:output.obj
 0001:0009b110       ?state_case_normal_tchar@?$output_processor@DV?$string_output_adapter@D@__crt_stdio_output@@V?$standard_base@DV?$string_output_adapter@D@__crt_stdio_output@@@2@@__crt_stdio_output@@AEAA_ND@Z 000000018009c110 f i libucrtd:output.obj
 0001:0009b2a0       ?state_case_normal_tchar@?$output_processor@_WV?$stream_output_adapter@_W@__crt_stdio_output@@V?$format_validation_base@_WV?$stream_output_adapter@_W@__crt_stdio_output@@@2@@__crt_stdio_output@@AEAA_N_W@Z 000000018009c2a0 f i libucrtd:output.obj
 0001:0009b2c0       ?state_case_normal_tchar@?$output_processor@_WV?$stream_output_adapter@_W@__crt_stdio_output@@V?$positional_parameter_base@_WV?$stream_output_adapter@_W@__crt_stdio_output@@@2@@__crt_stdio_output@@AEAA_N_W@Z 000000018009c2c0 f i libucrtd:output.obj
 0001:0009b2e0       ?state_case_normal_tchar@?$output_processor@_WV?$stream_output_adapter@_W@__crt_stdio_output@@V?$standard_base@_WV?$stream_output_adapter@_W@__crt_stdio_output@@@2@@__crt_stdio_output@@AEAA_N_W@Z 000000018009c2e0 f i libucrtd:output.obj
 0001:0009b300       ?state_case_normal_tchar@?$output_processor@_WV?$string_output_adapter@_W@__crt_stdio_output@@V?$format_validation_base@_WV?$string_output_adapter@_W@__crt_stdio_output@@@2@@__crt_stdio_output@@AEAA_N_W@Z 000000018009c300 f i libucrtd:output.obj
 0001:0009b320       ?state_case_normal_tchar@?$output_processor@_WV?$string_output_adapter@_W@__crt_stdio_output@@V?$positional_parameter_base@_WV?$string_output_adapter@_W@__crt_stdio_output@@@2@@__crt_stdio_output@@AEAA_N_W@Z 000000018009c320 f i libucrtd:output.obj
 0001:0009b340       ?state_case_normal_tchar@?$output_processor@_WV?$string_output_adapter@_W@__crt_stdio_output@@V?$standard_base@_WV?$string_output_adapter@_W@__crt_stdio_output@@@2@@__crt_stdio_output@@AEAA_N_W@Z 000000018009c340 f i libucrtd:output.obj
 0001:0009b360       ?state_case_percent@?$output_processor@DV?$stream_output_adapter@D@__crt_stdio_output@@V?$format_validation_base@DV?$stream_output_adapter@D@__crt_stdio_output@@@2@@__crt_stdio_output@@AEAA_NXZ 000000018009c360 f i libucrtd:output.obj
 0001:0009b3c0       ?state_case_percent@?$output_processor@DV?$stream_output_adapter@D@__crt_stdio_output@@V?$positional_parameter_base@DV?$stream_output_adapter@D@__crt_stdio_output@@@2@@__crt_stdio_output@@AEAA_NXZ 000000018009c3c0 f i libucrtd:output.obj
 0001:0009b420       ?state_case_percent@?$output_processor@DV?$stream_output_adapter@D@__crt_stdio_output@@V?$standard_base@DV?$stream_output_adapter@D@__crt_stdio_output@@@2@@__crt_stdio_output@@AEAA_NXZ 000000018009c420 f i libucrtd:output.obj
 0001:0009b480       ?state_case_percent@?$output_processor@DV?$string_output_adapter@D@__crt_stdio_output@@V?$format_validation_base@DV?$string_output_adapter@D@__crt_stdio_output@@@2@@__crt_stdio_output@@AEAA_NXZ 000000018009c480 f i libucrtd:output.obj
 0001:0009b4e0       ?state_case_percent@?$output_processor@DV?$string_output_adapter@D@__crt_stdio_output@@V?$positional_parameter_base@DV?$string_output_adapter@D@__crt_stdio_output@@@2@@__crt_stdio_output@@AEAA_NXZ 000000018009c4e0 f i libucrtd:output.obj
 0001:0009b540       ?state_case_percent@?$output_processor@DV?$string_output_adapter@D@__crt_stdio_output@@V?$standard_base@DV?$string_output_adapter@D@__crt_stdio_output@@@2@@__crt_stdio_output@@AEAA_NXZ 000000018009c540 f i libucrtd:output.obj
 0001:0009b5a0       ?state_case_percent@?$output_processor@_WV?$stream_output_adapter@_W@__crt_stdio_output@@V?$format_validation_base@_WV?$stream_output_adapter@_W@__crt_stdio_output@@@2@@__crt_stdio_output@@AEAA_NXZ 000000018009c5a0 f i libucrtd:output.obj
 0001:0009b600       ?state_case_percent@?$output_processor@_WV?$stream_output_adapter@_W@__crt_stdio_output@@V?$positional_parameter_base@_WV?$stream_output_adapter@_W@__crt_stdio_output@@@2@@__crt_stdio_output@@AEAA_NXZ 000000018009c600 f i libucrtd:output.obj
 0001:0009b660       ?state_case_percent@?$output_processor@_WV?$stream_output_adapter@_W@__crt_stdio_output@@V?$standard_base@_WV?$stream_output_adapter@_W@__crt_stdio_output@@@2@@__crt_stdio_output@@AEAA_NXZ 000000018009c660 f i libucrtd:output.obj
 0001:0009b6c0       ?state_case_percent@?$output_processor@_WV?$string_output_adapter@_W@__crt_stdio_output@@V?$format_validation_base@_WV?$string_output_adapter@_W@__crt_stdio_output@@@2@@__crt_stdio_output@@AEAA_NXZ 000000018009c6c0 f i libucrtd:output.obj
 0001:0009b720       ?state_case_percent@?$output_processor@_WV?$string_output_adapter@_W@__crt_stdio_output@@V?$positional_parameter_base@_WV?$string_output_adapter@_W@__crt_stdio_output@@@2@@__crt_stdio_output@@AEAA_NXZ 000000018009c720 f i libucrtd:output.obj
 0001:0009b780       ?state_case_percent@?$output_processor@_WV?$string_output_adapter@_W@__crt_stdio_output@@V?$standard_base@_WV?$string_output_adapter@_W@__crt_stdio_output@@@2@@__crt_stdio_output@@AEAA_NXZ 000000018009c780 f i libucrtd:output.obj
 0001:0009b7e0       ?state_case_precision@?$output_processor@DV?$stream_output_adapter@D@__crt_stdio_output@@V?$format_validation_base@DV?$stream_output_adapter@D@__crt_stdio_output@@@2@@__crt_stdio_output@@AEAA_NXZ 000000018009c7e0 f i libucrtd:output.obj
 0001:0009b880       ?state_case_precision@?$output_processor@DV?$stream_output_adapter@D@__crt_stdio_output@@V?$positional_parameter_base@DV?$stream_output_adapter@D@__crt_stdio_output@@@2@@__crt_stdio_output@@AEAA_NXZ 000000018009c880 f i libucrtd:output.obj
 0001:0009b920       ?state_case_precision@?$output_processor@DV?$stream_output_adapter@D@__crt_stdio_output@@V?$standard_base@DV?$stream_output_adapter@D@__crt_stdio_output@@@2@@__crt_stdio_output@@AEAA_NXZ 000000018009c920 f i libucrtd:output.obj
 0001:0009b9c0       ?state_case_precision@?$output_processor@DV?$string_output_adapter@D@__crt_stdio_output@@V?$format_validation_base@DV?$string_output_adapter@D@__crt_stdio_output@@@2@@__crt_stdio_output@@AEAA_NXZ 000000018009c9c0 f i libucrtd:output.obj
 0001:0009ba60       ?state_case_precision@?$output_processor@DV?$string_output_adapter@D@__crt_stdio_output@@V?$positional_parameter_base@DV?$string_output_adapter@D@__crt_stdio_output@@@2@@__crt_stdio_output@@AEAA_NXZ 000000018009ca60 f i libucrtd:output.obj
 0001:0009bb00       ?state_case_precision@?$output_processor@DV?$string_output_adapter@D@__crt_stdio_output@@V?$standard_base@DV?$string_output_adapter@D@__crt_stdio_output@@@2@@__crt_stdio_output@@AEAA_NXZ 000000018009cb00 f i libucrtd:output.obj
 0001:0009bba0       ?state_case_precision@?$output_processor@_WV?$stream_output_adapter@_W@__crt_stdio_output@@V?$format_validation_base@_WV?$stream_output_adapter@_W@__crt_stdio_output@@@2@@__crt_stdio_output@@AEAA_NXZ 000000018009cba0 f i libucrtd:output.obj
 0001:0009bc40       ?state_case_precision@?$output_processor@_WV?$stream_output_adapter@_W@__crt_stdio_output@@V?$positional_parameter_base@_WV?$stream_output_adapter@_W@__crt_stdio_output@@@2@@__crt_stdio_output@@AEAA_NXZ 000000018009cc40 f i libucrtd:output.obj
 0001:0009bce0       ?state_case_precision@?$output_processor@_WV?$stream_output_adapter@_W@__crt_stdio_output@@V?$standard_base@_WV?$stream_output_adapter@_W@__crt_stdio_output@@@2@@__crt_stdio_output@@AEAA_NXZ 000000018009cce0 f i libucrtd:output.obj
 0001:0009bd80       ?state_case_precision@?$output_processor@_WV?$string_output_adapter@_W@__crt_stdio_output@@V?$format_validation_base@_WV?$string_output_adapter@_W@__crt_stdio_output@@@2@@__crt_stdio_output@@AEAA_NXZ 000000018009cd80 f i libucrtd:output.obj
 0001:0009be20       ?state_case_precision@?$output_processor@_WV?$string_output_adapter@_W@__crt_stdio_output@@V?$positional_parameter_base@_WV?$string_output_adapter@_W@__crt_stdio_output@@@2@@__crt_stdio_output@@AEAA_NXZ 000000018009ce20 f i libucrtd:output.obj
 0001:0009bec0       ?state_case_precision@?$output_processor@_WV?$string_output_adapter@_W@__crt_stdio_output@@V?$standard_base@_WV?$string_output_adapter@_W@__crt_stdio_output@@@2@@__crt_stdio_output@@AEAA_NXZ 000000018009cec0 f i libucrtd:output.obj
 0001:0009bf60       ?state_case_size@?$output_processor@DV?$stream_output_adapter@D@__crt_stdio_output@@V?$format_validation_base@DV?$stream_output_adapter@D@__crt_stdio_output@@@2@@__crt_stdio_output@@AEAA_NXZ 000000018009cf60 f i libucrtd:output.obj
 0001:0009c4f0       ?state_case_size@?$output_processor@DV?$stream_output_adapter@D@__crt_stdio_output@@V?$positional_parameter_base@DV?$stream_output_adapter@D@__crt_stdio_output@@@2@@__crt_stdio_output@@AEAA_NXZ 000000018009d4f0 f i libucrtd:output.obj
 0001:0009ca80       ?state_case_size@?$output_processor@DV?$stream_output_adapter@D@__crt_stdio_output@@V?$standard_base@DV?$stream_output_adapter@D@__crt_stdio_output@@@2@@__crt_stdio_output@@AEAA_NXZ 000000018009da80 f i libucrtd:output.obj
 0001:0009d010       ?state_case_size@?$output_processor@DV?$string_output_adapter@D@__crt_stdio_output@@V?$format_validation_base@DV?$string_output_adapter@D@__crt_stdio_output@@@2@@__crt_stdio_output@@AEAA_NXZ 000000018009e010 f i libucrtd:output.obj
 0001:0009d5a0       ?state_case_size@?$output_processor@DV?$string_output_adapter@D@__crt_stdio_output@@V?$positional_parameter_base@DV?$string_output_adapter@D@__crt_stdio_output@@@2@@__crt_stdio_output@@AEAA_NXZ 000000018009e5a0 f i libucrtd:output.obj
 0001:0009db30       ?state_case_size@?$output_processor@DV?$string_output_adapter@D@__crt_stdio_output@@V?$standard_base@DV?$string_output_adapter@D@__crt_stdio_output@@@2@@__crt_stdio_output@@AEAA_NXZ 000000018009eb30 f i libucrtd:output.obj
 0001:0009e0c0       ?state_case_size@?$output_processor@_WV?$stream_output_adapter@_W@__crt_stdio_output@@V?$format_validation_base@_WV?$stream_output_adapter@_W@__crt_stdio_output@@@2@@__crt_stdio_output@@AEAA_NXZ 000000018009f0c0 f i libucrtd:output.obj
 0001:0009e650       ?state_case_size@?$output_processor@_WV?$stream_output_adapter@_W@__crt_stdio_output@@V?$positional_parameter_base@_WV?$stream_output_adapter@_W@__crt_stdio_output@@@2@@__crt_stdio_output@@AEAA_NXZ 000000018009f650 f i libucrtd:output.obj
 0001:0009ebe0       ?state_case_size@?$output_processor@_WV?$stream_output_adapter@_W@__crt_stdio_output@@V?$standard_base@_WV?$stream_output_adapter@_W@__crt_stdio_output@@@2@@__crt_stdio_output@@AEAA_NXZ 000000018009fbe0 f i libucrtd:output.obj
 0001:0009f170       ?state_case_size@?$output_processor@_WV?$string_output_adapter@_W@__crt_stdio_output@@V?$format_validation_base@_WV?$string_output_adapter@_W@__crt_stdio_output@@@2@@__crt_stdio_output@@AEAA_NXZ 00000001800a0170 f i libucrtd:output.obj
 0001:0009f700       ?state_case_size@?$output_processor@_WV?$string_output_adapter@_W@__crt_stdio_output@@V?$positional_parameter_base@_WV?$string_output_adapter@_W@__crt_stdio_output@@@2@@__crt_stdio_output@@AEAA_NXZ 00000001800a0700 f i libucrtd:output.obj
 0001:0009fc90       ?state_case_size@?$output_processor@_WV?$string_output_adapter@_W@__crt_stdio_output@@V?$standard_base@_WV?$string_output_adapter@_W@__crt_stdio_output@@@2@@__crt_stdio_output@@AEAA_NXZ 00000001800a0c90 f i libucrtd:output.obj
 0001:000a0220       ?state_case_type@?$output_processor@DV?$stream_output_adapter@D@__crt_stdio_output@@V?$format_validation_base@DV?$stream_output_adapter@D@__crt_stdio_output@@@2@@__crt_stdio_output@@AEAA_NXZ 00000001800a1220 f i libucrtd:output.obj
 0001:000a07f0       ?state_case_type@?$output_processor@DV?$stream_output_adapter@D@__crt_stdio_output@@V?$positional_parameter_base@DV?$stream_output_adapter@D@__crt_stdio_output@@@2@@__crt_stdio_output@@AEAA_NXZ 00000001800a17f0 f i libucrtd:output.obj
 0001:000a0dc0       ?state_case_type@?$output_processor@DV?$stream_output_adapter@D@__crt_stdio_output@@V?$standard_base@DV?$stream_output_adapter@D@__crt_stdio_output@@@2@@__crt_stdio_output@@AEAA_NXZ 00000001800a1dc0 f i libucrtd:output.obj
 0001:000a1390       ?state_case_type@?$output_processor@DV?$string_output_adapter@D@__crt_stdio_output@@V?$format_validation_base@DV?$string_output_adapter@D@__crt_stdio_output@@@2@@__crt_stdio_output@@AEAA_NXZ 00000001800a2390 f i libucrtd:output.obj
 0001:000a1960       ?state_case_type@?$output_processor@DV?$string_output_adapter@D@__crt_stdio_output@@V?$positional_parameter_base@DV?$string_output_adapter@D@__crt_stdio_output@@@2@@__crt_stdio_output@@AEAA_NXZ 00000001800a2960 f i libucrtd:output.obj
 0001:000a1f30       ?state_case_type@?$output_processor@DV?$string_output_adapter@D@__crt_stdio_output@@V?$standard_base@DV?$string_output_adapter@D@__crt_stdio_output@@@2@@__crt_stdio_output@@AEAA_NXZ 00000001800a2f30 f i libucrtd:output.obj
 0001:000a2500       ?state_case_type@?$output_processor@_WV?$stream_output_adapter@_W@__crt_stdio_output@@V?$format_validation_base@_WV?$stream_output_adapter@_W@__crt_stdio_output@@@2@@__crt_stdio_output@@AEAA_NXZ 00000001800a3500 f i libucrtd:output.obj
 0001:000a2bb0       ?state_case_type@?$output_processor@_WV?$stream_output_adapter@_W@__crt_stdio_output@@V?$positional_parameter_base@_WV?$stream_output_adapter@_W@__crt_stdio_output@@@2@@__crt_stdio_output@@AEAA_NXZ 00000001800a3bb0 f i libucrtd:output.obj
 0001:000a3260       ?state_case_type@?$output_processor@_WV?$stream_output_adapter@_W@__crt_stdio_output@@V?$standard_base@_WV?$stream_output_adapter@_W@__crt_stdio_output@@@2@@__crt_stdio_output@@AEAA_NXZ 00000001800a4260 f i libucrtd:output.obj
 0001:000a3910       ?state_case_type@?$output_processor@_WV?$string_output_adapter@_W@__crt_stdio_output@@V?$format_validation_base@_WV?$string_output_adapter@_W@__crt_stdio_output@@@2@@__crt_stdio_output@@AEAA_NXZ 00000001800a4910 f i libucrtd:output.obj
 0001:000a3fc0       ?state_case_type@?$output_processor@_WV?$string_output_adapter@_W@__crt_stdio_output@@V?$positional_parameter_base@_WV?$string_output_adapter@_W@__crt_stdio_output@@@2@@__crt_stdio_output@@AEAA_NXZ 00000001800a4fc0 f i libucrtd:output.obj
 0001:000a4670       ?state_case_type@?$output_processor@_WV?$string_output_adapter@_W@__crt_stdio_output@@V?$standard_base@_WV?$string_output_adapter@_W@__crt_stdio_output@@@2@@__crt_stdio_output@@AEAA_NXZ 00000001800a5670 f i libucrtd:output.obj
 0001:000a4d20       ?state_case_width@?$output_processor@DV?$stream_output_adapter@D@__crt_stdio_output@@V?$format_validation_base@DV?$stream_output_adapter@D@__crt_stdio_output@@@2@@__crt_stdio_output@@AEAA_NXZ 00000001800a5d20 f i libucrtd:output.obj
 0001:000a4dd0       ?state_case_width@?$output_processor@DV?$stream_output_adapter@D@__crt_stdio_output@@V?$positional_parameter_base@DV?$stream_output_adapter@D@__crt_stdio_output@@@2@@__crt_stdio_output@@AEAA_NXZ 00000001800a5dd0 f i libucrtd:output.obj
 0001:000a4e80       ?state_case_width@?$output_processor@DV?$stream_output_adapter@D@__crt_stdio_output@@V?$standard_base@DV?$stream_output_adapter@D@__crt_stdio_output@@@2@@__crt_stdio_output@@AEAA_NXZ 00000001800a5e80 f i libucrtd:output.obj
 0001:000a4f30       ?state_case_width@?$output_processor@DV?$string_output_adapter@D@__crt_stdio_output@@V?$format_validation_base@DV?$string_output_adapter@D@__crt_stdio_output@@@2@@__crt_stdio_output@@AEAA_NXZ 00000001800a5f30 f i libucrtd:output.obj
 0001:000a4fe0       ?state_case_width@?$output_processor@DV?$string_output_adapter@D@__crt_stdio_output@@V?$positional_parameter_base@DV?$string_output_adapter@D@__crt_stdio_output@@@2@@__crt_stdio_output@@AEAA_NXZ 00000001800a5fe0 f i libucrtd:output.obj
 0001:000a5090       ?state_case_width@?$output_processor@DV?$string_output_adapter@D@__crt_stdio_output@@V?$standard_base@DV?$string_output_adapter@D@__crt_stdio_output@@@2@@__crt_stdio_output@@AEAA_NXZ 00000001800a6090 f i libucrtd:output.obj
 0001:000a5140       ?state_case_width@?$output_processor@_WV?$stream_output_adapter@_W@__crt_stdio_output@@V?$format_validation_base@_WV?$stream_output_adapter@_W@__crt_stdio_output@@@2@@__crt_stdio_output@@AEAA_NXZ 00000001800a6140 f i libucrtd:output.obj
 0001:000a51f0       ?state_case_width@?$output_processor@_WV?$stream_output_adapter@_W@__crt_stdio_output@@V?$positional_parameter_base@_WV?$stream_output_adapter@_W@__crt_stdio_output@@@2@@__crt_stdio_output@@AEAA_NXZ 00000001800a61f0 f i libucrtd:output.obj
 0001:000a52a0       ?state_case_width@?$output_processor@_WV?$stream_output_adapter@_W@__crt_stdio_output@@V?$standard_base@_WV?$stream_output_adapter@_W@__crt_stdio_output@@@2@@__crt_stdio_output@@AEAA_NXZ 00000001800a62a0 f i libucrtd:output.obj
 0001:000a5350       ?state_case_width@?$output_processor@_WV?$string_output_adapter@_W@__crt_stdio_output@@V?$format_validation_base@_WV?$string_output_adapter@_W@__crt_stdio_output@@@2@@__crt_stdio_output@@AEAA_NXZ 00000001800a6350 f i libucrtd:output.obj
 0001:000a5400       ?state_case_width@?$output_processor@_WV?$string_output_adapter@_W@__crt_stdio_output@@V?$positional_parameter_base@_WV?$string_output_adapter@_W@__crt_stdio_output@@@2@@__crt_stdio_output@@AEAA_NXZ 00000001800a6400 f i libucrtd:output.obj
 0001:000a54b0       ?state_case_width@?$output_processor@_WV?$string_output_adapter@_W@__crt_stdio_output@@V?$standard_base@_WV?$string_output_adapter@_W@__crt_stdio_output@@@2@@__crt_stdio_output@@AEAA_NXZ 00000001800a64b0 f i libucrtd:output.obj
 0001:000a5560       ?state_count@?$format_validation_base@DV?$stream_output_adapter@D@__crt_stdio_output@@@__crt_stdio_output@@KAIXZ 00000001800a6560 f i libucrtd:output.obj
 0001:000a5570       ?state_count@?$format_validation_base@DV?$string_output_adapter@D@__crt_stdio_output@@@__crt_stdio_output@@KAIXZ 00000001800a6570 f i libucrtd:output.obj
 0001:000a5580       ?state_count@?$format_validation_base@_WV?$stream_output_adapter@_W@__crt_stdio_output@@@__crt_stdio_output@@KAIXZ 00000001800a6580 f i libucrtd:output.obj
 0001:000a5590       ?state_count@?$format_validation_base@_WV?$string_output_adapter@_W@__crt_stdio_output@@@__crt_stdio_output@@KAIXZ 00000001800a6590 f i libucrtd:output.obj
 0001:000a55a0       ?state_count@?$standard_base@DV?$stream_output_adapter@D@__crt_stdio_output@@@__crt_stdio_output@@KAIXZ 00000001800a65a0 f i libucrtd:output.obj
 0001:000a55b0       ?state_count@?$standard_base@DV?$string_output_adapter@D@__crt_stdio_output@@@__crt_stdio_output@@KAIXZ 00000001800a65b0 f i libucrtd:output.obj
 0001:000a55c0       ?state_count@?$standard_base@_WV?$stream_output_adapter@_W@__crt_stdio_output@@@__crt_stdio_output@@KAIXZ 00000001800a65c0 f i libucrtd:output.obj
 0001:000a55d0       ?state_count@?$standard_base@_WV?$string_output_adapter@_W@__crt_stdio_output@@@__crt_stdio_output@@KAIXZ 00000001800a65d0 f i libucrtd:output.obj
 0001:000a55e0       ?state_transition_table@?$format_validation_base@DV?$stream_output_adapter@D@__crt_stdio_output@@@__crt_stdio_output@@KAAEBV?$spectre_mitigated_lookup_table@Ustate_transition_pair@__crt_stdio_output@@$0IA@@2@XZ 00000001800a65e0 f i libucrtd:output.obj
 0001:000a55f0       ?state_transition_table@?$format_validation_base@DV?$string_output_adapter@D@__crt_stdio_output@@@__crt_stdio_output@@KAAEBV?$spectre_mitigated_lookup_table@Ustate_transition_pair@__crt_stdio_output@@$0IA@@2@XZ 00000001800a65f0 f i libucrtd:output.obj
 0001:000a5600       ?state_transition_table@?$format_validation_base@_WV?$stream_output_adapter@_W@__crt_stdio_output@@@__crt_stdio_output@@KAAEBV?$spectre_mitigated_lookup_table@Ustate_transition_pair@__crt_stdio_output@@$0IA@@2@XZ 00000001800a6600 f i libucrtd:output.obj
 0001:000a5610       ?state_transition_table@?$format_validation_base@_WV?$string_output_adapter@_W@__crt_stdio_output@@@__crt_stdio_output@@KAAEBV?$spectre_mitigated_lookup_table@Ustate_transition_pair@__crt_stdio_output@@$0IA@@2@XZ 00000001800a6610 f i libucrtd:output.obj
 0001:000a5620       ?state_transition_table@?$standard_base@DV?$stream_output_adapter@D@__crt_stdio_output@@@__crt_stdio_output@@KAAEBV?$spectre_mitigated_lookup_table@Ustate_transition_pair@__crt_stdio_output@@$0IA@@2@XZ 00000001800a6620 f i libucrtd:output.obj
 0001:000a5630       ?state_transition_table@?$standard_base@DV?$string_output_adapter@D@__crt_stdio_output@@@__crt_stdio_output@@KAAEBV?$spectre_mitigated_lookup_table@Ustate_transition_pair@__crt_stdio_output@@$0IA@@2@XZ 00000001800a6630 f i libucrtd:output.obj
 0001:000a5640       ?state_transition_table@?$standard_base@_WV?$stream_output_adapter@_W@__crt_stdio_output@@@__crt_stdio_output@@KAAEBV?$spectre_mitigated_lookup_table@Ustate_transition_pair@__crt_stdio_output@@$0IA@@2@XZ 00000001800a6640 f i libucrtd:output.obj
 0001:000a5650       ?state_transition_table@?$standard_base@_WV?$string_output_adapter@_W@__crt_stdio_output@@@__crt_stdio_output@@KAAEBV?$spectre_mitigated_lookup_table@Ustate_transition_pair@__crt_stdio_output@@$0IA@@2@XZ 00000001800a6650 f i libucrtd:output.obj
 0001:000a5660       ?tchar_string@?$common_data@D@__crt_stdio_output@@IEAAAEAPEADD@Z 00000001800a6660 f i libucrtd:output.obj
 0001:000a5680       ?tchar_string@?$common_data@D@__crt_stdio_output@@IEAAAEAPEADXZ 00000001800a6680 f i libucrtd:output.obj
 0001:000a56a0       ?tchar_string@?$common_data@_W@__crt_stdio_output@@IEAAAEAPEA_WXZ 00000001800a66a0 f i libucrtd:output.obj
 0001:000a56c0       ?tchar_string@?$common_data@_W@__crt_stdio_output@@IEAAAEAPEA_W_W@Z 00000001800a66c0 f i libucrtd:output.obj
 0001:000a56e0       ?to_integer_size@__crt_stdio_output@@YA_KW4length_modifier@1@@Z 00000001800a66e0 f i libucrtd:output.obj
 0001:000a57c0       ?type_case_X@?$output_processor@DV?$stream_output_adapter@D@__crt_stdio_output@@V?$format_validation_base@DV?$stream_output_adapter@D@__crt_stdio_output@@@2@@__crt_stdio_output@@AEAA_NXZ 00000001800a67c0 f i libucrtd:output.obj
 0001:000a57f0       ?type_case_X@?$output_processor@DV?$stream_output_adapter@D@__crt_stdio_output@@V?$positional_parameter_base@DV?$stream_output_adapter@D@__crt_stdio_output@@@2@@__crt_stdio_output@@AEAA_NXZ 00000001800a67f0 f i libucrtd:output.obj
 0001:000a5820       ?type_case_X@?$output_processor@DV?$stream_output_adapter@D@__crt_stdio_output@@V?$standard_base@DV?$stream_output_adapter@D@__crt_stdio_output@@@2@@__crt_stdio_output@@AEAA_NXZ 00000001800a6820 f i libucrtd:output.obj
 0001:000a5850       ?type_case_X@?$output_processor@DV?$string_output_adapter@D@__crt_stdio_output@@V?$format_validation_base@DV?$string_output_adapter@D@__crt_stdio_output@@@2@@__crt_stdio_output@@AEAA_NXZ 00000001800a6850 f i libucrtd:output.obj
 0001:000a5880       ?type_case_X@?$output_processor@DV?$string_output_adapter@D@__crt_stdio_output@@V?$positional_parameter_base@DV?$string_output_adapter@D@__crt_stdio_output@@@2@@__crt_stdio_output@@AEAA_NXZ 00000001800a6880 f i libucrtd:output.obj
 0001:000a58b0       ?type_case_X@?$output_processor@DV?$string_output_adapter@D@__crt_stdio_output@@V?$standard_base@DV?$string_output_adapter@D@__crt_stdio_output@@@2@@__crt_stdio_output@@AEAA_NXZ 00000001800a68b0 f i libucrtd:output.obj
 0001:000a58e0       ?type_case_X@?$output_processor@_WV?$stream_output_adapter@_W@__crt_stdio_output@@V?$format_validation_base@_WV?$stream_output_adapter@_W@__crt_stdio_output@@@2@@__crt_stdio_output@@AEAA_NXZ 00000001800a68e0 f i libucrtd:output.obj
 0001:000a5910       ?type_case_X@?$output_processor@_WV?$stream_output_adapter@_W@__crt_stdio_output@@V?$positional_parameter_base@_WV?$stream_output_adapter@_W@__crt_stdio_output@@@2@@__crt_stdio_output@@AEAA_NXZ 00000001800a6910 f i libucrtd:output.obj
 0001:000a5940       ?type_case_X@?$output_processor@_WV?$stream_output_adapter@_W@__crt_stdio_output@@V?$standard_base@_WV?$stream_output_adapter@_W@__crt_stdio_output@@@2@@__crt_stdio_output@@AEAA_NXZ 00000001800a6940 f i libucrtd:output.obj
 0001:000a5970       ?type_case_X@?$output_processor@_WV?$string_output_adapter@_W@__crt_stdio_output@@V?$format_validation_base@_WV?$string_output_adapter@_W@__crt_stdio_output@@@2@@__crt_stdio_output@@AEAA_NXZ 00000001800a6970 f i libucrtd:output.obj
 0001:000a59a0       ?type_case_X@?$output_processor@_WV?$string_output_adapter@_W@__crt_stdio_output@@V?$positional_parameter_base@_WV?$string_output_adapter@_W@__crt_stdio_output@@@2@@__crt_stdio_output@@AEAA_NXZ 00000001800a69a0 f i libucrtd:output.obj
 0001:000a59d0       ?type_case_X@?$output_processor@_WV?$string_output_adapter@_W@__crt_stdio_output@@V?$standard_base@_WV?$string_output_adapter@_W@__crt_stdio_output@@@2@@__crt_stdio_output@@AEAA_NXZ 00000001800a69d0 f i libucrtd:output.obj
 0001:000a5a00       ?type_case_Z@?$output_processor@DV?$stream_output_adapter@D@__crt_stdio_output@@V?$format_validation_base@DV?$stream_output_adapter@D@__crt_stdio_output@@@2@@__crt_stdio_output@@AEAA_NXZ 00000001800a6a00 f i libucrtd:output.obj
 0001:000a5b60       ?type_case_Z@?$output_processor@DV?$stream_output_adapter@D@__crt_stdio_output@@V?$positional_parameter_base@DV?$stream_output_adapter@D@__crt_stdio_output@@@2@@__crt_stdio_output@@AEAA_NXZ 00000001800a6b60 f i libucrtd:output.obj
 0001:000a5cc0       ?type_case_Z@?$output_processor@DV?$stream_output_adapter@D@__crt_stdio_output@@V?$standard_base@DV?$stream_output_adapter@D@__crt_stdio_output@@@2@@__crt_stdio_output@@AEAA_NXZ 00000001800a6cc0 f i libucrtd:output.obj
 0001:000a5e20       ?type_case_Z@?$output_processor@DV?$string_output_adapter@D@__crt_stdio_output@@V?$format_validation_base@DV?$string_output_adapter@D@__crt_stdio_output@@@2@@__crt_stdio_output@@AEAA_NXZ 00000001800a6e20 f i libucrtd:output.obj
 0001:000a5f80       ?type_case_Z@?$output_processor@DV?$string_output_adapter@D@__crt_stdio_output@@V?$positional_parameter_base@DV?$string_output_adapter@D@__crt_stdio_output@@@2@@__crt_stdio_output@@AEAA_NXZ 00000001800a6f80 f i libucrtd:output.obj
 0001:000a60e0       ?type_case_Z@?$output_processor@DV?$string_output_adapter@D@__crt_stdio_output@@V?$standard_base@DV?$string_output_adapter@D@__crt_stdio_output@@@2@@__crt_stdio_output@@AEAA_NXZ 00000001800a70e0 f i libucrtd:output.obj
 0001:000a6240       ?type_case_Z@?$output_processor@_WV?$stream_output_adapter@_W@__crt_stdio_output@@V?$format_validation_base@_WV?$stream_output_adapter@_W@__crt_stdio_output@@@2@@__crt_stdio_output@@AEAA_NXZ 00000001800a7240 f i libucrtd:output.obj
 0001:000a63a0       ?type_case_Z@?$output_processor@_WV?$stream_output_adapter@_W@__crt_stdio_output@@V?$positional_parameter_base@_WV?$stream_output_adapter@_W@__crt_stdio_output@@@2@@__crt_stdio_output@@AEAA_NXZ 00000001800a73a0 f i libucrtd:output.obj
 0001:000a6500       ?type_case_Z@?$output_processor@_WV?$stream_output_adapter@_W@__crt_stdio_output@@V?$standard_base@_WV?$stream_output_adapter@_W@__crt_stdio_output@@@2@@__crt_stdio_output@@AEAA_NXZ 00000001800a7500 f i libucrtd:output.obj
 0001:000a6660       ?type_case_Z@?$output_processor@_WV?$string_output_adapter@_W@__crt_stdio_output@@V?$format_validation_base@_WV?$string_output_adapter@_W@__crt_stdio_output@@@2@@__crt_stdio_output@@AEAA_NXZ 00000001800a7660 f i libucrtd:output.obj
 0001:000a67c0       ?type_case_Z@?$output_processor@_WV?$string_output_adapter@_W@__crt_stdio_output@@V?$positional_parameter_base@_WV?$string_output_adapter@_W@__crt_stdio_output@@@2@@__crt_stdio_output@@AEAA_NXZ 00000001800a77c0 f i libucrtd:output.obj
 0001:000a6920       ?type_case_Z@?$output_processor@_WV?$string_output_adapter@_W@__crt_stdio_output@@V?$standard_base@_WV?$string_output_adapter@_W@__crt_stdio_output@@@2@@__crt_stdio_output@@AEAA_NXZ 00000001800a7920 f i libucrtd:output.obj
 0001:000a6a80       ?type_case_a@?$output_processor@DV?$stream_output_adapter@D@__crt_stdio_output@@V?$format_validation_base@DV?$stream_output_adapter@D@__crt_stdio_output@@@2@@__crt_stdio_output@@AEAA_NXZ 00000001800a7a80 f i libucrtd:output.obj
 0001:000a6f40       ?type_case_a@?$output_processor@DV?$stream_output_adapter@D@__crt_stdio_output@@V?$positional_parameter_base@DV?$stream_output_adapter@D@__crt_stdio_output@@@2@@__crt_stdio_output@@AEAA_NXZ 00000001800a7f40 f i libucrtd:output.obj
 0001:000a7400       ?type_case_a@?$output_processor@DV?$stream_output_adapter@D@__crt_stdio_output@@V?$standard_base@DV?$stream_output_adapter@D@__crt_stdio_output@@@2@@__crt_stdio_output@@AEAA_NXZ 00000001800a8400 f i libucrtd:output.obj
 0001:000a78c0       ?type_case_a@?$output_processor@DV?$string_output_adapter@D@__crt_stdio_output@@V?$format_validation_base@DV?$string_output_adapter@D@__crt_stdio_output@@@2@@__crt_stdio_output@@AEAA_NXZ 00000001800a88c0 f i libucrtd:output.obj
 0001:000a7d80       ?type_case_a@?$output_processor@DV?$string_output_adapter@D@__crt_stdio_output@@V?$positional_parameter_base@DV?$string_output_adapter@D@__crt_stdio_output@@@2@@__crt_stdio_output@@AEAA_NXZ 00000001800a8d80 f i libucrtd:output.obj
 0001:000a8240       ?type_case_a@?$output_processor@DV?$string_output_adapter@D@__crt_stdio_output@@V?$standard_base@DV?$string_output_adapter@D@__crt_stdio_output@@@2@@__crt_stdio_output@@AEAA_NXZ 00000001800a9240 f i libucrtd:output.obj
 0001:000a8700       ?type_case_a@?$output_processor@_WV?$stream_output_adapter@_W@__crt_stdio_output@@V?$format_validation_base@_WV?$stream_output_adapter@_W@__crt_stdio_output@@@2@@__crt_stdio_output@@AEAA_NXZ 00000001800a9700 f i libucrtd:output.obj
 0001:000a8bc0       ?type_case_a@?$output_processor@_WV?$stream_output_adapter@_W@__crt_stdio_output@@V?$positional_parameter_base@_WV?$stream_output_adapter@_W@__crt_stdio_output@@@2@@__crt_stdio_output@@AEAA_NXZ 00000001800a9bc0 f i libucrtd:output.obj
 0001:000a9080       ?type_case_a@?$output_processor@_WV?$stream_output_adapter@_W@__crt_stdio_output@@V?$standard_base@_WV?$stream_output_adapter@_W@__crt_stdio_output@@@2@@__crt_stdio_output@@AEAA_NXZ 00000001800aa080 f i libucrtd:output.obj
 0001:000a9540       ?type_case_a@?$output_processor@_WV?$string_output_adapter@_W@__crt_stdio_output@@V?$format_validation_base@_WV?$string_output_adapter@_W@__crt_stdio_output@@@2@@__crt_stdio_output@@AEAA_NXZ 00000001800aa540 f i libucrtd:output.obj
 0001:000a9a00       ?type_case_a@?$output_processor@_WV?$string_output_adapter@_W@__crt_stdio_output@@V?$positional_parameter_base@_WV?$string_output_adapter@_W@__crt_stdio_output@@@2@@__crt_stdio_output@@AEAA_NXZ 00000001800aaa00 f i libucrtd:output.obj
 0001:000a9ec0       ?type_case_a@?$output_processor@_WV?$string_output_adapter@_W@__crt_stdio_output@@V?$standard_base@_WV?$string_output_adapter@_W@__crt_stdio_output@@@2@@__crt_stdio_output@@AEAA_NXZ 00000001800aaec0 f i libucrtd:output.obj
 0001:000aa380       ?type_case_c@?$output_processor@DV?$stream_output_adapter@D@__crt_stdio_output@@V?$format_validation_base@DV?$stream_output_adapter@D@__crt_stdio_output@@@2@@__crt_stdio_output@@AEAA_NXZ 00000001800ab380 f i libucrtd:output.obj
 0001:000aa3a0       ?type_case_c@?$output_processor@DV?$stream_output_adapter@D@__crt_stdio_output@@V?$positional_parameter_base@DV?$stream_output_adapter@D@__crt_stdio_output@@@2@@__crt_stdio_output@@AEAA_NXZ 00000001800ab3a0 f i libucrtd:output.obj
 0001:000aa3c0       ?type_case_c@?$output_processor@DV?$stream_output_adapter@D@__crt_stdio_output@@V?$standard_base@DV?$stream_output_adapter@D@__crt_stdio_output@@@2@@__crt_stdio_output@@AEAA_NXZ 00000001800ab3c0 f i libucrtd:output.obj
 0001:000aa3e0       ?type_case_c@?$output_processor@DV?$string_output_adapter@D@__crt_stdio_output@@V?$format_validation_base@DV?$string_output_adapter@D@__crt_stdio_output@@@2@@__crt_stdio_output@@AEAA_NXZ 00000001800ab3e0 f i libucrtd:output.obj
 0001:000aa400       ?type_case_c@?$output_processor@DV?$string_output_adapter@D@__crt_stdio_output@@V?$positional_parameter_base@DV?$string_output_adapter@D@__crt_stdio_output@@@2@@__crt_stdio_output@@AEAA_NXZ 00000001800ab400 f i libucrtd:output.obj
 0001:000aa420       ?type_case_c@?$output_processor@DV?$string_output_adapter@D@__crt_stdio_output@@V?$standard_base@DV?$string_output_adapter@D@__crt_stdio_output@@@2@@__crt_stdio_output@@AEAA_NXZ 00000001800ab420 f i libucrtd:output.obj
 0001:000aa440       ?type_case_c@?$output_processor@_WV?$stream_output_adapter@_W@__crt_stdio_output@@V?$format_validation_base@_WV?$stream_output_adapter@_W@__crt_stdio_output@@@2@@__crt_stdio_output@@AEAA_NXZ 00000001800ab440 f i libucrtd:output.obj
 0001:000aa460       ?type_case_c@?$output_processor@_WV?$stream_output_adapter@_W@__crt_stdio_output@@V?$positional_parameter_base@_WV?$stream_output_adapter@_W@__crt_stdio_output@@@2@@__crt_stdio_output@@AEAA_NXZ 00000001800ab460 f i libucrtd:output.obj
 0001:000aa480       ?type_case_c@?$output_processor@_WV?$stream_output_adapter@_W@__crt_stdio_output@@V?$standard_base@_WV?$stream_output_adapter@_W@__crt_stdio_output@@@2@@__crt_stdio_output@@AEAA_NXZ 00000001800ab480 f i libucrtd:output.obj
 0001:000aa4a0       ?type_case_c@?$output_processor@_WV?$string_output_adapter@_W@__crt_stdio_output@@V?$format_validation_base@_WV?$string_output_adapter@_W@__crt_stdio_output@@@2@@__crt_stdio_output@@AEAA_NXZ 00000001800ab4a0 f i libucrtd:output.obj
 0001:000aa4c0       ?type_case_c@?$output_processor@_WV?$string_output_adapter@_W@__crt_stdio_output@@V?$positional_parameter_base@_WV?$string_output_adapter@_W@__crt_stdio_output@@@2@@__crt_stdio_output@@AEAA_NXZ 00000001800ab4c0 f i libucrtd:output.obj
 0001:000aa4e0       ?type_case_c@?$output_processor@_WV?$string_output_adapter@_W@__crt_stdio_output@@V?$standard_base@_WV?$string_output_adapter@_W@__crt_stdio_output@@@2@@__crt_stdio_output@@AEAA_NXZ 00000001800ab4e0 f i libucrtd:output.obj
 0001:000aa500       ?type_case_c_tchar@?$output_processor@DV?$stream_output_adapter@D@__crt_stdio_output@@V?$format_validation_base@DV?$stream_output_adapter@D@__crt_stdio_output@@@2@@__crt_stdio_output@@AEAA_ND@Z 00000001800ab500 f i libucrtd:output.obj
 0001:000aa6b0       ?type_case_c_tchar@?$output_processor@DV?$stream_output_adapter@D@__crt_stdio_output@@V?$positional_parameter_base@DV?$stream_output_adapter@D@__crt_stdio_output@@@2@@__crt_stdio_output@@AEAA_ND@Z 00000001800ab6b0 f i libucrtd:output.obj
 0001:000aa860       ?type_case_c_tchar@?$output_processor@DV?$stream_output_adapter@D@__crt_stdio_output@@V?$standard_base@DV?$stream_output_adapter@D@__crt_stdio_output@@@2@@__crt_stdio_output@@AEAA_ND@Z 00000001800ab860 f i libucrtd:output.obj
 0001:000aaa10       ?type_case_c_tchar@?$output_processor@DV?$string_output_adapter@D@__crt_stdio_output@@V?$format_validation_base@DV?$string_output_adapter@D@__crt_stdio_output@@@2@@__crt_stdio_output@@AEAA_ND@Z 00000001800aba10 f i libucrtd:output.obj
 0001:000aabc0       ?type_case_c_tchar@?$output_processor@DV?$string_output_adapter@D@__crt_stdio_output@@V?$positional_parameter_base@DV?$string_output_adapter@D@__crt_stdio_output@@@2@@__crt_stdio_output@@AEAA_ND@Z 00000001800abbc0 f i libucrtd:output.obj
 0001:000aad70       ?type_case_c_tchar@?$output_processor@DV?$string_output_adapter@D@__crt_stdio_output@@V?$standard_base@DV?$string_output_adapter@D@__crt_stdio_output@@@2@@__crt_stdio_output@@AEAA_ND@Z 00000001800abd70 f i libucrtd:output.obj
 0001:000aaf20       ?type_case_c_tchar@?$output_processor@_WV?$stream_output_adapter@_W@__crt_stdio_output@@V?$format_validation_base@_WV?$stream_output_adapter@_W@__crt_stdio_output@@@2@@__crt_stdio_output@@AEAA_N_W@Z 00000001800abf20 f i libucrtd:output.obj
 0001:000ab0a0       ?type_case_c_tchar@?$output_processor@_WV?$stream_output_adapter@_W@__crt_stdio_output@@V?$positional_parameter_base@_WV?$stream_output_adapter@_W@__crt_stdio_output@@@2@@__crt_stdio_output@@AEAA_N_W@Z 00000001800ac0a0 f i libucrtd:output.obj
 0001:000ab220       ?type_case_c_tchar@?$output_processor@_WV?$stream_output_adapter@_W@__crt_stdio_output@@V?$standard_base@_WV?$stream_output_adapter@_W@__crt_stdio_output@@@2@@__crt_stdio_output@@AEAA_N_W@Z 00000001800ac220 f i libucrtd:output.obj
 0001:000ab3a0       ?type_case_c_tchar@?$output_processor@_WV?$string_output_adapter@_W@__crt_stdio_output@@V?$format_validation_base@_WV?$string_output_adapter@_W@__crt_stdio_output@@@2@@__crt_stdio_output@@AEAA_N_W@Z 00000001800ac3a0 f i libucrtd:output.obj
 0001:000ab520       ?type_case_c_tchar@?$output_processor@_WV?$string_output_adapter@_W@__crt_stdio_output@@V?$positional_parameter_base@_WV?$string_output_adapter@_W@__crt_stdio_output@@@2@@__crt_stdio_output@@AEAA_N_W@Z 00000001800ac520 f i libucrtd:output.obj
 0001:000ab6a0       ?type_case_c_tchar@?$output_processor@_WV?$string_output_adapter@_W@__crt_stdio_output@@V?$standard_base@_WV?$string_output_adapter@_W@__crt_stdio_output@@@2@@__crt_stdio_output@@AEAA_N_W@Z 00000001800ac6a0 f i libucrtd:output.obj
 0001:000ab820       ?type_case_d@?$output_processor@DV?$stream_output_adapter@D@__crt_stdio_output@@V?$format_validation_base@DV?$stream_output_adapter@D@__crt_stdio_output@@@2@@__crt_stdio_output@@AEAA_NXZ 00000001800ac820 f i libucrtd:output.obj
 0001:000ab860       ?type_case_d@?$output_processor@DV?$stream_output_adapter@D@__crt_stdio_output@@V?$positional_parameter_base@DV?$stream_output_adapter@D@__crt_stdio_output@@@2@@__crt_stdio_output@@AEAA_NXZ 00000001800ac860 f i libucrtd:output.obj
 0001:000ab8a0       ?type_case_d@?$output_processor@DV?$stream_output_adapter@D@__crt_stdio_output@@V?$standard_base@DV?$stream_output_adapter@D@__crt_stdio_output@@@2@@__crt_stdio_output@@AEAA_NXZ 00000001800ac8a0 f i libucrtd:output.obj
 0001:000ab8e0       ?type_case_d@?$output_processor@DV?$string_output_adapter@D@__crt_stdio_output@@V?$format_validation_base@DV?$string_output_adapter@D@__crt_stdio_output@@@2@@__crt_stdio_output@@AEAA_NXZ 00000001800ac8e0 f i libucrtd:output.obj
 0001:000ab920       ?type_case_d@?$output_processor@DV?$string_output_adapter@D@__crt_stdio_output@@V?$positional_parameter_base@DV?$string_output_adapter@D@__crt_stdio_output@@@2@@__crt_stdio_output@@AEAA_NXZ 00000001800ac920 f i libucrtd:output.obj
 0001:000ab960       ?type_case_d@?$output_processor@DV?$string_output_adapter@D@__crt_stdio_output@@V?$standard_base@DV?$string_output_adapter@D@__crt_stdio_output@@@2@@__crt_stdio_output@@AEAA_NXZ 00000001800ac960 f i libucrtd:output.obj
 0001:000ab9a0       ?type_case_d@?$output_processor@_WV?$stream_output_adapter@_W@__crt_stdio_output@@V?$format_validation_base@_WV?$stream_output_adapter@_W@__crt_stdio_output@@@2@@__crt_stdio_output@@AEAA_NXZ 00000001800ac9a0 f i libucrtd:output.obj
 0001:000ab9e0       ?type_case_d@?$output_processor@_WV?$stream_output_adapter@_W@__crt_stdio_output@@V?$positional_parameter_base@_WV?$stream_output_adapter@_W@__crt_stdio_output@@@2@@__crt_stdio_output@@AEAA_NXZ 00000001800ac9e0 f i libucrtd:output.obj
 0001:000aba20       ?type_case_d@?$output_processor@_WV?$stream_output_adapter@_W@__crt_stdio_output@@V?$standard_base@_WV?$stream_output_adapter@_W@__crt_stdio_output@@@2@@__crt_stdio_output@@AEAA_NXZ 00000001800aca20 f i libucrtd:output.obj
 0001:000aba60       ?type_case_d@?$output_processor@_WV?$string_output_adapter@_W@__crt_stdio_output@@V?$format_validation_base@_WV?$string_output_adapter@_W@__crt_stdio_output@@@2@@__crt_stdio_output@@AEAA_NXZ 00000001800aca60 f i libucrtd:output.obj
 0001:000abaa0       ?type_case_d@?$output_processor@_WV?$string_output_adapter@_W@__crt_stdio_output@@V?$positional_parameter_base@_WV?$string_output_adapter@_W@__crt_stdio_output@@@2@@__crt_stdio_output@@AEAA_NXZ 00000001800acaa0 f i libucrtd:output.obj
 0001:000abae0       ?type_case_d@?$output_processor@_WV?$string_output_adapter@_W@__crt_stdio_output@@V?$standard_base@_WV?$string_output_adapter@_W@__crt_stdio_output@@@2@@__crt_stdio_output@@AEAA_NXZ 00000001800acae0 f i libucrtd:output.obj
 0001:000abb20       ?type_case_integer@?$output_processor@DV?$stream_output_adapter@D@__crt_stdio_output@@V?$format_validation_base@DV?$stream_output_adapter@D@__crt_stdio_output@@@2@@__crt_stdio_output@@AEAA_NI_N@Z 00000001800acb20 f i libucrtd:output.obj
 0001:000ac080       ?type_case_integer@?$output_processor@DV?$stream_output_adapter@D@__crt_stdio_output@@V?$positional_parameter_base@DV?$stream_output_adapter@D@__crt_stdio_output@@@2@@__crt_stdio_output@@AEAA_NI_N@Z 00000001800ad080 f i libucrtd:output.obj
 0001:000ac5e0       ?type_case_integer@?$output_processor@DV?$stream_output_adapter@D@__crt_stdio_output@@V?$standard_base@DV?$stream_output_adapter@D@__crt_stdio_output@@@2@@__crt_stdio_output@@AEAA_NI_N@Z 00000001800ad5e0 f i libucrtd:output.obj
 0001:000acb40       ?type_case_integer@?$output_processor@DV?$string_output_adapter@D@__crt_stdio_output@@V?$format_validation_base@DV?$string_output_adapter@D@__crt_stdio_output@@@2@@__crt_stdio_output@@AEAA_NI_N@Z 00000001800adb40 f i libucrtd:output.obj
 0001:000ad0a0       ?type_case_integer@?$output_processor@DV?$string_output_adapter@D@__crt_stdio_output@@V?$positional_parameter_base@DV?$string_output_adapter@D@__crt_stdio_output@@@2@@__crt_stdio_output@@AEAA_NI_N@Z 00000001800ae0a0 f i libucrtd:output.obj
 0001:000ad600       ?type_case_integer@?$output_processor@DV?$string_output_adapter@D@__crt_stdio_output@@V?$standard_base@DV?$string_output_adapter@D@__crt_stdio_output@@@2@@__crt_stdio_output@@AEAA_NI_N@Z 00000001800ae600 f i libucrtd:output.obj
 0001:000adb60       ?type_case_integer@?$output_processor@_WV?$stream_output_adapter@_W@__crt_stdio_output@@V?$format_validation_base@_WV?$stream_output_adapter@_W@__crt_stdio_output@@@2@@__crt_stdio_output@@AEAA_NI_N@Z 00000001800aeb60 f i libucrtd:output.obj
 0001:000ae0c0       ?type_case_integer@?$output_processor@_WV?$stream_output_adapter@_W@__crt_stdio_output@@V?$positional_parameter_base@_WV?$stream_output_adapter@_W@__crt_stdio_output@@@2@@__crt_stdio_output@@AEAA_NI_N@Z 00000001800af0c0 f i libucrtd:output.obj
 0001:000ae620       ?type_case_integer@?$output_processor@_WV?$stream_output_adapter@_W@__crt_stdio_output@@V?$standard_base@_WV?$stream_output_adapter@_W@__crt_stdio_output@@@2@@__crt_stdio_output@@AEAA_NI_N@Z 00000001800af620 f i libucrtd:output.obj
 0001:000aeb80       ?type_case_integer@?$output_processor@_WV?$string_output_adapter@_W@__crt_stdio_output@@V?$format_validation_base@_WV?$string_output_adapter@_W@__crt_stdio_output@@@2@@__crt_stdio_output@@AEAA_NI_N@Z 00000001800afb80 f i libucrtd:output.obj
 0001:000af0e0       ?type_case_integer@?$output_processor@_WV?$string_output_adapter@_W@__crt_stdio_output@@V?$positional_parameter_base@_WV?$string_output_adapter@_W@__crt_stdio_output@@@2@@__crt_stdio_output@@AEAA_NI_N@Z 00000001800b00e0 f i libucrtd:output.obj
 0001:000af640       ?type_case_integer@?$output_processor@_WV?$string_output_adapter@_W@__crt_stdio_output@@V?$standard_base@_WV?$string_output_adapter@_W@__crt_stdio_output@@@2@@__crt_stdio_output@@AEAA_NI_N@Z 00000001800b0640 f i libucrtd:output.obj
 0001:000afba0       ?type_case_n@?$output_processor@DV?$stream_output_adapter@D@__crt_stdio_output@@V?$format_validation_base@DV?$stream_output_adapter@D@__crt_stdio_output@@@2@@__crt_stdio_output@@AEAA_NXZ 00000001800b0ba0 f i libucrtd:output.obj
 0001:000afe70       ?type_case_n@?$output_processor@DV?$stream_output_adapter@D@__crt_stdio_output@@V?$positional_parameter_base@DV?$stream_output_adapter@D@__crt_stdio_output@@@2@@__crt_stdio_output@@AEAA_NXZ 00000001800b0e70 f i libucrtd:output.obj
 0001:000b0140       ?type_case_n@?$output_processor@DV?$stream_output_adapter@D@__crt_stdio_output@@V?$standard_base@DV?$stream_output_adapter@D@__crt_stdio_output@@@2@@__crt_stdio_output@@AEAA_NXZ 00000001800b1140 f i libucrtd:output.obj
 0001:000b0410       ?type_case_n@?$output_processor@DV?$string_output_adapter@D@__crt_stdio_output@@V?$format_validation_base@DV?$string_output_adapter@D@__crt_stdio_output@@@2@@__crt_stdio_output@@AEAA_NXZ 00000001800b1410 f i libucrtd:output.obj
 0001:000b06e0       ?type_case_n@?$output_processor@DV?$string_output_adapter@D@__crt_stdio_output@@V?$positional_parameter_base@DV?$string_output_adapter@D@__crt_stdio_output@@@2@@__crt_stdio_output@@AEAA_NXZ 00000001800b16e0 f i libucrtd:output.obj
 0001:000b09b0       ?type_case_n@?$output_processor@DV?$string_output_adapter@D@__crt_stdio_output@@V?$standard_base@DV?$string_output_adapter@D@__crt_stdio_output@@@2@@__crt_stdio_output@@AEAA_NXZ 00000001800b19b0 f i libucrtd:output.obj
 0001:000b0c80       ?type_case_n@?$output_processor@_WV?$stream_output_adapter@_W@__crt_stdio_output@@V?$format_validation_base@_WV?$stream_output_adapter@_W@__crt_stdio_output@@@2@@__crt_stdio_output@@AEAA_NXZ 00000001800b1c80 f i libucrtd:output.obj
 0001:000b0f50       ?type_case_n@?$output_processor@_WV?$stream_output_adapter@_W@__crt_stdio_output@@V?$positional_parameter_base@_WV?$stream_output_adapter@_W@__crt_stdio_output@@@2@@__crt_stdio_output@@AEAA_NXZ 00000001800b1f50 f i libucrtd:output.obj
 0001:000b1220       ?type_case_n@?$output_processor@_WV?$stream_output_adapter@_W@__crt_stdio_output@@V?$standard_base@_WV?$stream_output_adapter@_W@__crt_stdio_output@@@2@@__crt_stdio_output@@AEAA_NXZ 00000001800b2220 f i libucrtd:output.obj
 0001:000b14f0       ?type_case_n@?$output_processor@_WV?$string_output_adapter@_W@__crt_stdio_output@@V?$format_validation_base@_WV?$string_output_adapter@_W@__crt_stdio_output@@@2@@__crt_stdio_output@@AEAA_NXZ 00000001800b24f0 f i libucrtd:output.obj
 0001:000b17c0       ?type_case_n@?$output_processor@_WV?$string_output_adapter@_W@__crt_stdio_output@@V?$positional_parameter_base@_WV?$string_output_adapter@_W@__crt_stdio_output@@@2@@__crt_stdio_output@@AEAA_NXZ 00000001800b27c0 f i libucrtd:output.obj
 0001:000b1a90       ?type_case_n@?$output_processor@_WV?$string_output_adapter@_W@__crt_stdio_output@@V?$standard_base@_WV?$string_output_adapter@_W@__crt_stdio_output@@@2@@__crt_stdio_output@@AEAA_NXZ 00000001800b2a90 f i libucrtd:output.obj
 0001:000b1d60       ?type_case_o@?$output_processor@DV?$stream_output_adapter@D@__crt_stdio_output@@V?$format_validation_base@DV?$stream_output_adapter@D@__crt_stdio_output@@@2@@__crt_stdio_output@@AEAA_NXZ 00000001800b2d60 f i libucrtd:output.obj
 0001:000b1dc0       ?type_case_o@?$output_processor@DV?$stream_output_adapter@D@__crt_stdio_output@@V?$positional_parameter_base@DV?$stream_output_adapter@D@__crt_stdio_output@@@2@@__crt_stdio_output@@AEAA_NXZ 00000001800b2dc0 f i libucrtd:output.obj
 0001:000b1e20       ?type_case_o@?$output_processor@DV?$stream_output_adapter@D@__crt_stdio_output@@V?$standard_base@DV?$stream_output_adapter@D@__crt_stdio_output@@@2@@__crt_stdio_output@@AEAA_NXZ 00000001800b2e20 f i libucrtd:output.obj
 0001:000b1e80       ?type_case_o@?$output_processor@DV?$string_output_adapter@D@__crt_stdio_output@@V?$format_validation_base@DV?$string_output_adapter@D@__crt_stdio_output@@@2@@__crt_stdio_output@@AEAA_NXZ 00000001800b2e80 f i libucrtd:output.obj
 0001:000b1ee0       ?type_case_o@?$output_processor@DV?$string_output_adapter@D@__crt_stdio_output@@V?$positional_parameter_base@DV?$string_output_adapter@D@__crt_stdio_output@@@2@@__crt_stdio_output@@AEAA_NXZ 00000001800b2ee0 f i libucrtd:output.obj
 0001:000b1f40       ?type_case_o@?$output_processor@DV?$string_output_adapter@D@__crt_stdio_output@@V?$standard_base@DV?$string_output_adapter@D@__crt_stdio_output@@@2@@__crt_stdio_output@@AEAA_NXZ 00000001800b2f40 f i libucrtd:output.obj
 0001:000b1fa0       ?type_case_o@?$output_processor@_WV?$stream_output_adapter@_W@__crt_stdio_output@@V?$format_validation_base@_WV?$stream_output_adapter@_W@__crt_stdio_output@@@2@@__crt_stdio_output@@AEAA_NXZ 00000001800b2fa0 f i libucrtd:output.obj
 0001:000b2000       ?type_case_o@?$output_processor@_WV?$stream_output_adapter@_W@__crt_stdio_output@@V?$positional_parameter_base@_WV?$stream_output_adapter@_W@__crt_stdio_output@@@2@@__crt_stdio_output@@AEAA_NXZ 00000001800b3000 f i libucrtd:output.obj
 0001:000b2060       ?type_case_o@?$output_processor@_WV?$stream_output_adapter@_W@__crt_stdio_output@@V?$standard_base@_WV?$stream_output_adapter@_W@__crt_stdio_output@@@2@@__crt_stdio_output@@AEAA_NXZ 00000001800b3060 f i libucrtd:output.obj
 0001:000b20c0       ?type_case_o@?$output_processor@_WV?$string_output_adapter@_W@__crt_stdio_output@@V?$format_validation_base@_WV?$string_output_adapter@_W@__crt_stdio_output@@@2@@__crt_stdio_output@@AEAA_NXZ 00000001800b30c0 f i libucrtd:output.obj
 0001:000b2120       ?type_case_o@?$output_processor@_WV?$string_output_adapter@_W@__crt_stdio_output@@V?$positional_parameter_base@_WV?$string_output_adapter@_W@__crt_stdio_output@@@2@@__crt_stdio_output@@AEAA_NXZ 00000001800b3120 f i libucrtd:output.obj
 0001:000b2180       ?type_case_o@?$output_processor@_WV?$string_output_adapter@_W@__crt_stdio_output@@V?$standard_base@_WV?$string_output_adapter@_W@__crt_stdio_output@@@2@@__crt_stdio_output@@AEAA_NXZ 00000001800b3180 f i libucrtd:output.obj
 0001:000b21e0       ?type_case_p@?$output_processor@DV?$stream_output_adapter@D@__crt_stdio_output@@V?$format_validation_base@DV?$stream_output_adapter@D@__crt_stdio_output@@@2@@__crt_stdio_output@@AEAA_NXZ 00000001800b31e0 f i libucrtd:output.obj
 0001:000b2230       ?type_case_p@?$output_processor@DV?$stream_output_adapter@D@__crt_stdio_output@@V?$positional_parameter_base@DV?$stream_output_adapter@D@__crt_stdio_output@@@2@@__crt_stdio_output@@AEAA_NXZ 00000001800b3230 f i libucrtd:output.obj
 0001:000b2280       ?type_case_p@?$output_processor@DV?$stream_output_adapter@D@__crt_stdio_output@@V?$standard_base@DV?$stream_output_adapter@D@__crt_stdio_output@@@2@@__crt_stdio_output@@AEAA_NXZ 00000001800b3280 f i libucrtd:output.obj
 0001:000b22d0       ?type_case_p@?$output_processor@DV?$string_output_adapter@D@__crt_stdio_output@@V?$format_validation_base@DV?$string_output_adapter@D@__crt_stdio_output@@@2@@__crt_stdio_output@@AEAA_NXZ 00000001800b32d0 f i libucrtd:output.obj
 0001:000b2320       ?type_case_p@?$output_processor@DV?$string_output_adapter@D@__crt_stdio_output@@V?$positional_parameter_base@DV?$string_output_adapter@D@__crt_stdio_output@@@2@@__crt_stdio_output@@AEAA_NXZ 00000001800b3320 f i libucrtd:output.obj
 0001:000b2370       ?type_case_p@?$output_processor@DV?$string_output_adapter@D@__crt_stdio_output@@V?$standard_base@DV?$string_output_adapter@D@__crt_stdio_output@@@2@@__crt_stdio_output@@AEAA_NXZ 00000001800b3370 f i libucrtd:output.obj
 0001:000b23c0       ?type_case_p@?$output_processor@_WV?$stream_output_adapter@_W@__crt_stdio_output@@V?$format_validation_base@_WV?$stream_output_adapter@_W@__crt_stdio_output@@@2@@__crt_stdio_output@@AEAA_NXZ 00000001800b33c0 f i libucrtd:output.obj
 0001:000b2410       ?type_case_p@?$output_processor@_WV?$stream_output_adapter@_W@__crt_stdio_output@@V?$positional_parameter_base@_WV?$stream_output_adapter@_W@__crt_stdio_output@@@2@@__crt_stdio_output@@AEAA_NXZ 00000001800b3410 f i libucrtd:output.obj
 0001:000b2460       ?type_case_p@?$output_processor@_WV?$stream_output_adapter@_W@__crt_stdio_output@@V?$standard_base@_WV?$stream_output_adapter@_W@__crt_stdio_output@@@2@@__crt_stdio_output@@AEAA_NXZ 00000001800b3460 f i libucrtd:output.obj
 0001:000b24b0       ?type_case_p@?$output_processor@_WV?$string_output_adapter@_W@__crt_stdio_output@@V?$format_validation_base@_WV?$string_output_adapter@_W@__crt_stdio_output@@@2@@__crt_stdio_output@@AEAA_NXZ 00000001800b34b0 f i libucrtd:output.obj
 0001:000b2500       ?type_case_p@?$output_processor@_WV?$string_output_adapter@_W@__crt_stdio_output@@V?$positional_parameter_base@_WV?$string_output_adapter@_W@__crt_stdio_output@@@2@@__crt_stdio_output@@AEAA_NXZ 00000001800b3500 f i libucrtd:output.obj
 0001:000b2550       ?type_case_p@?$output_processor@_WV?$string_output_adapter@_W@__crt_stdio_output@@V?$standard_base@_WV?$string_output_adapter@_W@__crt_stdio_output@@@2@@__crt_stdio_output@@AEAA_NXZ 00000001800b3550 f i libucrtd:output.obj
 0001:000b25a0       ?type_case_s@?$output_processor@DV?$stream_output_adapter@D@__crt_stdio_output@@V?$format_validation_base@DV?$stream_output_adapter@D@__crt_stdio_output@@@2@@__crt_stdio_output@@AEAA_NXZ 00000001800b35a0 f i libucrtd:output.obj
 0001:000b2700       ?type_case_s@?$output_processor@DV?$stream_output_adapter@D@__crt_stdio_output@@V?$positional_parameter_base@DV?$stream_output_adapter@D@__crt_stdio_output@@@2@@__crt_stdio_output@@AEAA_NXZ 00000001800b3700 f i libucrtd:output.obj
 0001:000b2860       ?type_case_s@?$output_processor@DV?$stream_output_adapter@D@__crt_stdio_output@@V?$standard_base@DV?$stream_output_adapter@D@__crt_stdio_output@@@2@@__crt_stdio_output@@AEAA_NXZ 00000001800b3860 f i libucrtd:output.obj
 0001:000b29c0       ?type_case_s@?$output_processor@DV?$string_output_adapter@D@__crt_stdio_output@@V?$format_validation_base@DV?$string_output_adapter@D@__crt_stdio_output@@@2@@__crt_stdio_output@@AEAA_NXZ 00000001800b39c0 f i libucrtd:output.obj
 0001:000b2b20       ?type_case_s@?$output_processor@DV?$string_output_adapter@D@__crt_stdio_output@@V?$positional_parameter_base@DV?$string_output_adapter@D@__crt_stdio_output@@@2@@__crt_stdio_output@@AEAA_NXZ 00000001800b3b20 f i libucrtd:output.obj
 0001:000b2c80       ?type_case_s@?$output_processor@DV?$string_output_adapter@D@__crt_stdio_output@@V?$standard_base@DV?$string_output_adapter@D@__crt_stdio_output@@@2@@__crt_stdio_output@@AEAA_NXZ 00000001800b3c80 f i libucrtd:output.obj
 0001:000b2de0       ?type_case_s@?$output_processor@_WV?$stream_output_adapter@_W@__crt_stdio_output@@V?$format_validation_base@_WV?$stream_output_adapter@_W@__crt_stdio_output@@@2@@__crt_stdio_output@@AEAA_NXZ 00000001800b3de0 f i libucrtd:output.obj
 0001:000b2f40       ?type_case_s@?$output_processor@_WV?$stream_output_adapter@_W@__crt_stdio_output@@V?$positional_parameter_base@_WV?$stream_output_adapter@_W@__crt_stdio_output@@@2@@__crt_stdio_output@@AEAA_NXZ 00000001800b3f40 f i libucrtd:output.obj
 0001:000b30a0       ?type_case_s@?$output_processor@_WV?$stream_output_adapter@_W@__crt_stdio_output@@V?$standard_base@_WV?$stream_output_adapter@_W@__crt_stdio_output@@@2@@__crt_stdio_output@@AEAA_NXZ 00000001800b40a0 f i libucrtd:output.obj
 0001:000b3200       ?type_case_s@?$output_processor@_WV?$string_output_adapter@_W@__crt_stdio_output@@V?$format_validation_base@_WV?$string_output_adapter@_W@__crt_stdio_output@@@2@@__crt_stdio_output@@AEAA_NXZ 00000001800b4200 f i libucrtd:output.obj
 0001:000b3360       ?type_case_s@?$output_processor@_WV?$string_output_adapter@_W@__crt_stdio_output@@V?$positional_parameter_base@_WV?$string_output_adapter@_W@__crt_stdio_output@@@2@@__crt_stdio_output@@AEAA_NXZ 00000001800b4360 f i libucrtd:output.obj
 0001:000b34c0       ?type_case_s@?$output_processor@_WV?$string_output_adapter@_W@__crt_stdio_output@@V?$standard_base@_WV?$string_output_adapter@_W@__crt_stdio_output@@@2@@__crt_stdio_output@@AEAA_NXZ 00000001800b44c0 f i libucrtd:output.obj
 0001:000b3620       ?type_case_s_compute_narrow_string_length@?$output_processor@DV?$stream_output_adapter@D@__crt_stdio_output@@V?$format_validation_base@DV?$stream_output_adapter@D@__crt_stdio_output@@@2@@__crt_stdio_output@@AEBAHHD@Z 00000001800b4620 f i libucrtd:output.obj
 0001:000b3660       ?type_case_s_compute_narrow_string_length@?$output_processor@DV?$stream_output_adapter@D@__crt_stdio_output@@V?$positional_parameter_base@DV?$stream_output_adapter@D@__crt_stdio_output@@@2@@__crt_stdio_output@@AEBAHHD@Z 00000001800b4660 f i libucrtd:output.obj
 0001:000b36a0       ?type_case_s_compute_narrow_string_length@?$output_processor@DV?$stream_output_adapter@D@__crt_stdio_output@@V?$standard_base@DV?$stream_output_adapter@D@__crt_stdio_output@@@2@@__crt_stdio_output@@AEBAHHD@Z 00000001800b46a0 f i libucrtd:output.obj
 0001:000b36e0       ?type_case_s_compute_narrow_string_length@?$output_processor@DV?$string_output_adapter@D@__crt_stdio_output@@V?$format_validation_base@DV?$string_output_adapter@D@__crt_stdio_output@@@2@@__crt_stdio_output@@AEBAHHD@Z 00000001800b46e0 f i libucrtd:output.obj
 0001:000b3720       ?type_case_s_compute_narrow_string_length@?$output_processor@DV?$string_output_adapter@D@__crt_stdio_output@@V?$positional_parameter_base@DV?$string_output_adapter@D@__crt_stdio_output@@@2@@__crt_stdio_output@@AEBAHHD@Z 00000001800b4720 f i libucrtd:output.obj
 0001:000b3760       ?type_case_s_compute_narrow_string_length@?$output_processor@DV?$string_output_adapter@D@__crt_stdio_output@@V?$standard_base@DV?$string_output_adapter@D@__crt_stdio_output@@@2@@__crt_stdio_output@@AEBAHHD@Z 00000001800b4760 f i libucrtd:output.obj
 0001:000b37a0       ?type_case_s_compute_narrow_string_length@?$output_processor@_WV?$stream_output_adapter@_W@__crt_stdio_output@@V?$format_validation_base@_WV?$stream_output_adapter@_W@__crt_stdio_output@@@2@@__crt_stdio_output@@AEBAHH_W@Z 00000001800b47a0 f i libucrtd:output.obj
 0001:000b3850       ?type_case_s_compute_narrow_string_length@?$output_processor@_WV?$stream_output_adapter@_W@__crt_stdio_output@@V?$positional_parameter_base@_WV?$stream_output_adapter@_W@__crt_stdio_output@@@2@@__crt_stdio_output@@AEBAHH_W@Z 00000001800b4850 f i libucrtd:output.obj
 0001:000b3900       ?type_case_s_compute_narrow_string_length@?$output_processor@_WV?$stream_output_adapter@_W@__crt_stdio_output@@V?$standard_base@_WV?$stream_output_adapter@_W@__crt_stdio_output@@@2@@__crt_stdio_output@@AEBAHH_W@Z 00000001800b4900 f i libucrtd:output.obj
 0001:000b39b0       ?type_case_s_compute_narrow_string_length@?$output_processor@_WV?$string_output_adapter@_W@__crt_stdio_output@@V?$format_validation_base@_WV?$string_output_adapter@_W@__crt_stdio_output@@@2@@__crt_stdio_output@@AEBAHH_W@Z 00000001800b49b0 f i libucrtd:output.obj
 0001:000b3a60       ?type_case_s_compute_narrow_string_length@?$output_processor@_WV?$string_output_adapter@_W@__crt_stdio_output@@V?$positional_parameter_base@_WV?$string_output_adapter@_W@__crt_stdio_output@@@2@@__crt_stdio_output@@AEBAHH_W@Z 00000001800b4a60 f i libucrtd:output.obj
 0001:000b3b10       ?type_case_s_compute_narrow_string_length@?$output_processor@_WV?$string_output_adapter@_W@__crt_stdio_output@@V?$standard_base@_WV?$string_output_adapter@_W@__crt_stdio_output@@@2@@__crt_stdio_output@@AEBAHH_W@Z 00000001800b4b10 f i libucrtd:output.obj
 0001:000b3bc0       ?type_case_u@?$output_processor@DV?$stream_output_adapter@D@__crt_stdio_output@@V?$format_validation_base@DV?$stream_output_adapter@D@__crt_stdio_output@@@2@@__crt_stdio_output@@AEAA_NXZ 00000001800b4bc0 f i libucrtd:output.obj
 0001:000b3bf0       ?type_case_u@?$output_processor@DV?$stream_output_adapter@D@__crt_stdio_output@@V?$positional_parameter_base@DV?$stream_output_adapter@D@__crt_stdio_output@@@2@@__crt_stdio_output@@AEAA_NXZ 00000001800b4bf0 f i libucrtd:output.obj
 0001:000b3c20       ?type_case_u@?$output_processor@DV?$stream_output_adapter@D@__crt_stdio_output@@V?$standard_base@DV?$stream_output_adapter@D@__crt_stdio_output@@@2@@__crt_stdio_output@@AEAA_NXZ 00000001800b4c20 f i libucrtd:output.obj
 0001:000b3c50       ?type_case_u@?$output_processor@DV?$string_output_adapter@D@__crt_stdio_output@@V?$format_validation_base@DV?$string_output_adapter@D@__crt_stdio_output@@@2@@__crt_stdio_output@@AEAA_NXZ 00000001800b4c50 f i libucrtd:output.obj
 0001:000b3c80       ?type_case_u@?$output_processor@DV?$string_output_adapter@D@__crt_stdio_output@@V?$positional_parameter_base@DV?$string_output_adapter@D@__crt_stdio_output@@@2@@__crt_stdio_output@@AEAA_NXZ 00000001800b4c80 f i libucrtd:output.obj
 0001:000b3cb0       ?type_case_u@?$output_processor@DV?$string_output_adapter@D@__crt_stdio_output@@V?$standard_base@DV?$string_output_adapter@D@__crt_stdio_output@@@2@@__crt_stdio_output@@AEAA_NXZ 00000001800b4cb0 f i libucrtd:output.obj
 0001:000b3ce0       ?type_case_u@?$output_processor@_WV?$stream_output_adapter@_W@__crt_stdio_output@@V?$format_validation_base@_WV?$stream_output_adapter@_W@__crt_stdio_output@@@2@@__crt_stdio_output@@AEAA_NXZ 00000001800b4ce0 f i libucrtd:output.obj
 0001:000b3d10       ?type_case_u@?$output_processor@_WV?$stream_output_adapter@_W@__crt_stdio_output@@V?$positional_parameter_base@_WV?$stream_output_adapter@_W@__crt_stdio_output@@@2@@__crt_stdio_output@@AEAA_NXZ 00000001800b4d10 f i libucrtd:output.obj
 0001:000b3d40       ?type_case_u@?$output_processor@_WV?$stream_output_adapter@_W@__crt_stdio_output@@V?$standard_base@_WV?$stream_output_adapter@_W@__crt_stdio_output@@@2@@__crt_stdio_output@@AEAA_NXZ 00000001800b4d40 f i libucrtd:output.obj
 0001:000b3d70       ?type_case_u@?$output_processor@_WV?$string_output_adapter@_W@__crt_stdio_output@@V?$format_validation_base@_WV?$string_output_adapter@_W@__crt_stdio_output@@@2@@__crt_stdio_output@@AEAA_NXZ 00000001800b4d70 f i libucrtd:output.obj
 0001:000b3da0       ?type_case_u@?$output_processor@_WV?$string_output_adapter@_W@__crt_stdio_output@@V?$positional_parameter_base@_WV?$string_output_adapter@_W@__crt_stdio_output@@@2@@__crt_stdio_output@@AEAA_NXZ 00000001800b4da0 f i libucrtd:output.obj
 0001:000b3dd0       ?type_case_u@?$output_processor@_WV?$string_output_adapter@_W@__crt_stdio_output@@V?$standard_base@_WV?$string_output_adapter@_W@__crt_stdio_output@@@2@@__crt_stdio_output@@AEAA_NXZ 00000001800b4dd0 f i libucrtd:output.obj
 0001:000b3e00       ?type_case_x@?$output_processor@DV?$stream_output_adapter@D@__crt_stdio_output@@V?$format_validation_base@DV?$stream_output_adapter@D@__crt_stdio_output@@@2@@__crt_stdio_output@@AEAA_NXZ 00000001800b4e00 f i libucrtd:output.obj
 0001:000b3e30       ?type_case_x@?$output_processor@DV?$stream_output_adapter@D@__crt_stdio_output@@V?$positional_parameter_base@DV?$stream_output_adapter@D@__crt_stdio_output@@@2@@__crt_stdio_output@@AEAA_NXZ 00000001800b4e30 f i libucrtd:output.obj
 0001:000b3e60       ?type_case_x@?$output_processor@DV?$stream_output_adapter@D@__crt_stdio_output@@V?$standard_base@DV?$stream_output_adapter@D@__crt_stdio_output@@@2@@__crt_stdio_output@@AEAA_NXZ 00000001800b4e60 f i libucrtd:output.obj
 0001:000b3e90       ?type_case_x@?$output_processor@DV?$string_output_adapter@D@__crt_stdio_output@@V?$format_validation_base@DV?$string_output_adapter@D@__crt_stdio_output@@@2@@__crt_stdio_output@@AEAA_NXZ 00000001800b4e90 f i libucrtd:output.obj
 0001:000b3ec0       ?type_case_x@?$output_processor@DV?$string_output_adapter@D@__crt_stdio_output@@V?$positional_parameter_base@DV?$string_output_adapter@D@__crt_stdio_output@@@2@@__crt_stdio_output@@AEAA_NXZ 00000001800b4ec0 f i libucrtd:output.obj
 0001:000b3ef0       ?type_case_x@?$output_processor@DV?$string_output_adapter@D@__crt_stdio_output@@V?$standard_base@DV?$string_output_adapter@D@__crt_stdio_output@@@2@@__crt_stdio_output@@AEAA_NXZ 00000001800b4ef0 f i libucrtd:output.obj
 0001:000b3f20       ?type_case_x@?$output_processor@_WV?$stream_output_adapter@_W@__crt_stdio_output@@V?$format_validation_base@_WV?$stream_output_adapter@_W@__crt_stdio_output@@@2@@__crt_stdio_output@@AEAA_NXZ 00000001800b4f20 f i libucrtd:output.obj
 0001:000b3f50       ?type_case_x@?$output_processor@_WV?$stream_output_adapter@_W@__crt_stdio_output@@V?$positional_parameter_base@_WV?$stream_output_adapter@_W@__crt_stdio_output@@@2@@__crt_stdio_output@@AEAA_NXZ 00000001800b4f50 f i libucrtd:output.obj
 0001:000b3f80       ?type_case_x@?$output_processor@_WV?$stream_output_adapter@_W@__crt_stdio_output@@V?$standard_base@_WV?$stream_output_adapter@_W@__crt_stdio_output@@@2@@__crt_stdio_output@@AEAA_NXZ 00000001800b4f80 f i libucrtd:output.obj
 0001:000b3fb0       ?type_case_x@?$output_processor@_WV?$string_output_adapter@_W@__crt_stdio_output@@V?$format_validation_base@_WV?$string_output_adapter@_W@__crt_stdio_output@@@2@@__crt_stdio_output@@AEAA_NXZ 00000001800b4fb0 f i libucrtd:output.obj
 0001:000b3fe0       ?type_case_x@?$output_processor@_WV?$string_output_adapter@_W@__crt_stdio_output@@V?$positional_parameter_base@_WV?$string_output_adapter@_W@__crt_stdio_output@@@2@@__crt_stdio_output@@AEAA_NXZ 00000001800b4fe0 f i libucrtd:output.obj
 0001:000b4010       ?type_case_x@?$output_processor@_WV?$string_output_adapter@_W@__crt_stdio_output@@V?$standard_base@_WV?$string_output_adapter@_W@__crt_stdio_output@@@2@@__crt_stdio_output@@AEAA_NXZ 00000001800b5010 f i libucrtd:output.obj
 0001:000b4040       ?unset_flag@?$output_processor@DV?$stream_output_adapter@D@__crt_stdio_output@@V?$format_validation_base@DV?$stream_output_adapter@D@__crt_stdio_output@@@2@@__crt_stdio_output@@AEAAXI@Z 00000001800b5040 f i libucrtd:output.obj
 0001:000b4070       ?unset_flag@?$output_processor@DV?$stream_output_adapter@D@__crt_stdio_output@@V?$positional_parameter_base@DV?$stream_output_adapter@D@__crt_stdio_output@@@2@@__crt_stdio_output@@AEAAXI@Z 00000001800b5070 f i libucrtd:output.obj
 0001:000b40a0       ?unset_flag@?$output_processor@DV?$stream_output_adapter@D@__crt_stdio_output@@V?$standard_base@DV?$stream_output_adapter@D@__crt_stdio_output@@@2@@__crt_stdio_output@@AEAAXI@Z 00000001800b50a0 f i libucrtd:output.obj
 0001:000b40d0       ?unset_flag@?$output_processor@DV?$string_output_adapter@D@__crt_stdio_output@@V?$format_validation_base@DV?$string_output_adapter@D@__crt_stdio_output@@@2@@__crt_stdio_output@@AEAAXI@Z 00000001800b50d0 f i libucrtd:output.obj
 0001:000b4100       ?unset_flag@?$output_processor@DV?$string_output_adapter@D@__crt_stdio_output@@V?$positional_parameter_base@DV?$string_output_adapter@D@__crt_stdio_output@@@2@@__crt_stdio_output@@AEAAXI@Z 00000001800b5100 f i libucrtd:output.obj
 0001:000b4130       ?unset_flag@?$output_processor@DV?$string_output_adapter@D@__crt_stdio_output@@V?$standard_base@DV?$string_output_adapter@D@__crt_stdio_output@@@2@@__crt_stdio_output@@AEAAXI@Z 00000001800b5130 f i libucrtd:output.obj
 0001:000b4160       ?unset_flag@?$output_processor@_WV?$stream_output_adapter@_W@__crt_stdio_output@@V?$format_validation_base@_WV?$stream_output_adapter@_W@__crt_stdio_output@@@2@@__crt_stdio_output@@AEAAXI@Z 00000001800b5160 f i libucrtd:output.obj
 0001:000b4190       ?unset_flag@?$output_processor@_WV?$stream_output_adapter@_W@__crt_stdio_output@@V?$positional_parameter_base@_WV?$stream_output_adapter@_W@__crt_stdio_output@@@2@@__crt_stdio_output@@AEAAXI@Z 00000001800b5190 f i libucrtd:output.obj
 0001:000b41c0       ?unset_flag@?$output_processor@_WV?$stream_output_adapter@_W@__crt_stdio_output@@V?$standard_base@_WV?$stream_output_adapter@_W@__crt_stdio_output@@@2@@__crt_stdio_output@@AEAAXI@Z 00000001800b51c0 f i libucrtd:output.obj
 0001:000b41f0       ?unset_flag@?$output_processor@_WV?$string_output_adapter@_W@__crt_stdio_output@@V?$format_validation_base@_WV?$string_output_adapter@_W@__crt_stdio_output@@@2@@__crt_stdio_output@@AEAAXI@Z 00000001800b51f0 f i libucrtd:output.obj
 0001:000b4220       ?unset_flag@?$output_processor@_WV?$string_output_adapter@_W@__crt_stdio_output@@V?$positional_parameter_base@_WV?$string_output_adapter@_W@__crt_stdio_output@@@2@@__crt_stdio_output@@AEAAXI@Z 00000001800b5220 f i libucrtd:output.obj
 0001:000b4250       ?unset_flag@?$output_processor@_WV?$string_output_adapter@_W@__crt_stdio_output@@V?$standard_base@_WV?$string_output_adapter@_W@__crt_stdio_output@@@2@@__crt_stdio_output@@AEAAXI@Z 00000001800b5250 f i libucrtd:output.obj
 0001:000b4280       ?update_field_width@?$positional_parameter_base@DV?$stream_output_adapter@D@__crt_stdio_output@@@__crt_stdio_output@@IEAA_NXZ 00000001800b5280 f i libucrtd:output.obj
 0001:000b44e0       ?update_field_width@?$positional_parameter_base@DV?$string_output_adapter@D@__crt_stdio_output@@@__crt_stdio_output@@IEAA_NXZ 00000001800b54e0 f i libucrtd:output.obj
 0001:000b4740       ?update_field_width@?$positional_parameter_base@_WV?$stream_output_adapter@_W@__crt_stdio_output@@@__crt_stdio_output@@IEAA_NXZ 00000001800b5740 f i libucrtd:output.obj
 0001:000b49a0       ?update_field_width@?$positional_parameter_base@_WV?$string_output_adapter@_W@__crt_stdio_output@@@__crt_stdio_output@@IEAA_NXZ 00000001800b59a0 f i libucrtd:output.obj
 0001:000b4c00       ?update_field_width@?$standard_base@DV?$stream_output_adapter@D@__crt_stdio_output@@@__crt_stdio_output@@IEAA_NXZ 00000001800b5c00 f i libucrtd:output.obj
 0001:000b4c40       ?update_field_width@?$standard_base@DV?$string_output_adapter@D@__crt_stdio_output@@@__crt_stdio_output@@IEAA_NXZ 00000001800b5c40 f i libucrtd:output.obj
 0001:000b4c80       ?update_field_width@?$standard_base@_WV?$stream_output_adapter@_W@__crt_stdio_output@@@__crt_stdio_output@@IEAA_NXZ 00000001800b5c80 f i libucrtd:output.obj
 0001:000b4cc0       ?update_field_width@?$standard_base@_WV?$string_output_adapter@_W@__crt_stdio_output@@@__crt_stdio_output@@IEAA_NXZ 00000001800b5cc0 f i libucrtd:output.obj
 0001:000b4d00       ?update_precision@?$positional_parameter_base@DV?$stream_output_adapter@D@__crt_stdio_output@@@__crt_stdio_output@@IEAA_NXZ 00000001800b5d00 f i libucrtd:output.obj
 0001:000b4f60       ?update_precision@?$positional_parameter_base@DV?$string_output_adapter@D@__crt_stdio_output@@@__crt_stdio_output@@IEAA_NXZ 00000001800b5f60 f i libucrtd:output.obj
 0001:000b51c0       ?update_precision@?$positional_parameter_base@_WV?$stream_output_adapter@_W@__crt_stdio_output@@@__crt_stdio_output@@IEAA_NXZ 00000001800b61c0 f i libucrtd:output.obj
 0001:000b5420       ?update_precision@?$positional_parameter_base@_WV?$string_output_adapter@_W@__crt_stdio_output@@@__crt_stdio_output@@IEAA_NXZ 00000001800b6420 f i libucrtd:output.obj
 0001:000b5680       ?update_precision@?$standard_base@DV?$stream_output_adapter@D@__crt_stdio_output@@@__crt_stdio_output@@IEAA_NXZ 00000001800b6680 f i libucrtd:output.obj
 0001:000b56c0       ?update_precision@?$standard_base@DV?$string_output_adapter@D@__crt_stdio_output@@@__crt_stdio_output@@IEAA_NXZ 00000001800b66c0 f i libucrtd:output.obj
 0001:000b5700       ?update_precision@?$standard_base@_WV?$stream_output_adapter@_W@__crt_stdio_output@@@__crt_stdio_output@@IEAA_NXZ 00000001800b6700 f i libucrtd:output.obj
 0001:000b5740       ?update_precision@?$standard_base@_WV?$string_output_adapter@_W@__crt_stdio_output@@@__crt_stdio_output@@IEAA_NXZ 00000001800b6740 f i libucrtd:output.obj
 0001:000b5780       ?valid@__crt_stdio_stream@@QEBA_NXZ 00000001800b6780 f i libucrtd:output.obj
 0001:000b57c0       ?validate@?$stream_output_adapter@D@__crt_stdio_output@@QEBA_NXZ 00000001800b67c0 f i libucrtd:output.obj
 0001:000b58d0       ?validate@?$stream_output_adapter@_W@__crt_stdio_output@@QEBA_NXZ 00000001800b68d0 f i libucrtd:output.obj
 0001:000b59e0       ?validate@?$string_output_adapter@D@__crt_stdio_output@@QEBA_NXZ 00000001800b69e0 f i libucrtd:output.obj
 0001:000b5ad0       ?validate@?$string_output_adapter@_W@__crt_stdio_output@@QEBA_NXZ 00000001800b6ad0 f i libucrtd:output.obj
 0001:000b5bc0       ?validate_and_store_parameter_data@?$positional_parameter_base@DV?$stream_output_adapter@D@__crt_stdio_output@@@__crt_stdio_output@@AEAA_NAEAUparameter_data@12@W4parameter_type@12@DW4length_modifier@2@@Z 00000001800b6bc0 f i libucrtd:output.obj
 0001:000b5d20       ?validate_and_store_parameter_data@?$positional_parameter_base@DV?$string_output_adapter@D@__crt_stdio_output@@@__crt_stdio_output@@AEAA_NAEAUparameter_data@12@W4parameter_type@12@DW4length_modifier@2@@Z 00000001800b6d20 f i libucrtd:output.obj
 0001:000b5e80       ?validate_and_store_parameter_data@?$positional_parameter_base@_WV?$stream_output_adapter@_W@__crt_stdio_output@@@__crt_stdio_output@@AEAA_NAEAUparameter_data@12@W4parameter_type@12@_WW4length_modifier@2@@Z 00000001800b6e80 f i libucrtd:output.obj
 0001:000b5fe0       ?validate_and_store_parameter_data@?$positional_parameter_base@_WV?$string_output_adapter@_W@__crt_stdio_output@@@__crt_stdio_output@@AEAA_NAEAUparameter_data@12@W4parameter_type@12@_WW4length_modifier@2@@Z 00000001800b6fe0 f i libucrtd:output.obj
 0001:000b6140       ?validate_and_update_state_at_beginning_of_format_character@?$positional_parameter_base@DV?$stream_output_adapter@D@__crt_stdio_output@@@__crt_stdio_output@@IEAA_NXZ 00000001800b7140 f i libucrtd:output.obj
 0001:000b64d0       ?validate_and_update_state_at_beginning_of_format_character@?$positional_parameter_base@DV?$string_output_adapter@D@__crt_stdio_output@@@__crt_stdio_output@@IEAA_NXZ 00000001800b74d0 f i libucrtd:output.obj
 0001:000b6860       ?validate_and_update_state_at_beginning_of_format_character@?$positional_parameter_base@_WV?$stream_output_adapter@_W@__crt_stdio_output@@@__crt_stdio_output@@IEAA_NXZ 00000001800b7860 f i libucrtd:output.obj
 0001:000b6bf0       ?validate_and_update_state_at_beginning_of_format_character@?$positional_parameter_base@_WV?$string_output_adapter@_W@__crt_stdio_output@@@__crt_stdio_output@@IEAA_NXZ 00000001800b7bf0 f i libucrtd:output.obj
 0001:000b6f80       ?validate_and_update_state_at_beginning_of_format_character@?$standard_base@DV?$stream_output_adapter@D@__crt_stdio_output@@@__crt_stdio_output@@IEAA_NXZ 00000001800b7f80 f i libucrtd:output.obj
 0001:000b6f90       ?validate_and_update_state_at_beginning_of_format_character@?$standard_base@DV?$string_output_adapter@D@__crt_stdio_output@@@__crt_stdio_output@@IEAA_NXZ 00000001800b7f90 f i libucrtd:output.obj
 0001:000b6fa0       ?validate_and_update_state_at_beginning_of_format_character@?$standard_base@_WV?$stream_output_adapter@_W@__crt_stdio_output@@@__crt_stdio_output@@IEAA_NXZ 00000001800b7fa0 f i libucrtd:output.obj
 0001:000b6fb0       ?validate_and_update_state_at_beginning_of_format_character@?$standard_base@_WV?$string_output_adapter@_W@__crt_stdio_output@@@__crt_stdio_output@@IEAA_NXZ 00000001800b7fb0 f i libucrtd:output.obj
 0001:000b6fc0       ?validate_and_update_state_at_end_of_format_string@?$format_validation_base@DV?$stream_output_adapter@D@__crt_stdio_output@@@__crt_stdio_output@@IEBA_NXZ 00000001800b7fc0 f i libucrtd:output.obj
 0001:000b70b0       ?validate_and_update_state_at_end_of_format_string@?$format_validation_base@DV?$string_output_adapter@D@__crt_stdio_output@@@__crt_stdio_output@@IEBA_NXZ 00000001800b80b0 f i libucrtd:output.obj
 0001:000b71a0       ?validate_and_update_state_at_end_of_format_string@?$format_validation_base@_WV?$stream_output_adapter@_W@__crt_stdio_output@@@__crt_stdio_output@@IEBA_NXZ 00000001800b81a0 f i libucrtd:output.obj
 0001:000b7290       ?validate_and_update_state_at_end_of_format_string@?$format_validation_base@_WV?$string_output_adapter@_W@__crt_stdio_output@@@__crt_stdio_output@@IEBA_NXZ 00000001800b8290 f i libucrtd:output.obj
 0001:000b7380       ?validate_and_update_state_at_end_of_format_string@?$positional_parameter_base@DV?$stream_output_adapter@D@__crt_stdio_output@@@__crt_stdio_output@@IEAA_NXZ 00000001800b8380 f i libucrtd:output.obj
 0001:000b75e0       ?validate_and_update_state_at_end_of_format_string@?$positional_parameter_base@DV?$string_output_adapter@D@__crt_stdio_output@@@__crt_stdio_output@@IEAA_NXZ 00000001800b85e0 f i libucrtd:output.obj
 0001:000b7840       ?validate_and_update_state_at_end_of_format_string@?$positional_parameter_base@_WV?$stream_output_adapter@_W@__crt_stdio_output@@@__crt_stdio_output@@IEAA_NXZ 00000001800b8840 f i libucrtd:output.obj
 0001:000b7aa0       ?validate_and_update_state_at_end_of_format_string@?$positional_parameter_base@_WV?$string_output_adapter@_W@__crt_stdio_output@@@__crt_stdio_output@@IEAA_NXZ 00000001800b8aa0 f i libucrtd:output.obj
 0001:000b7d00       ?validate_and_update_state_at_end_of_format_string@?$standard_base@DV?$stream_output_adapter@D@__crt_stdio_output@@@__crt_stdio_output@@IEBA_NXZ 00000001800b8d00 f i libucrtd:output.obj
 0001:000b7d10       ?validate_and_update_state_at_end_of_format_string@?$standard_base@DV?$string_output_adapter@D@__crt_stdio_output@@@__crt_stdio_output@@IEBA_NXZ 00000001800b8d10 f i libucrtd:output.obj
 0001:000b7d20       ?validate_and_update_state_at_end_of_format_string@?$standard_base@_WV?$stream_output_adapter@_W@__crt_stdio_output@@@__crt_stdio_output@@IEBA_NXZ 00000001800b8d20 f i libucrtd:output.obj
 0001:000b7d30       ?validate_and_update_state_at_end_of_format_string@?$standard_base@_WV?$string_output_adapter@_W@__crt_stdio_output@@@__crt_stdio_output@@IEBA_NXZ 00000001800b8d30 f i libucrtd:output.obj
 0001:000b7d40       ?validate_state_for_type_case_a@?$positional_parameter_base@DV?$stream_output_adapter@D@__crt_stdio_output@@@__crt_stdio_output@@IEAA_NXZ 00000001800b8d40 f i libucrtd:output.obj
 0001:000b7ec0       ?validate_state_for_type_case_a@?$positional_parameter_base@DV?$string_output_adapter@D@__crt_stdio_output@@@__crt_stdio_output@@IEAA_NXZ 00000001800b8ec0 f i libucrtd:output.obj
 0001:000b8040       ?validate_state_for_type_case_a@?$positional_parameter_base@_WV?$stream_output_adapter@_W@__crt_stdio_output@@@__crt_stdio_output@@IEAA_NXZ 00000001800b9040 f i libucrtd:output.obj
 0001:000b81c0       ?validate_state_for_type_case_a@?$positional_parameter_base@_WV?$string_output_adapter@_W@__crt_stdio_output@@@__crt_stdio_output@@IEAA_NXZ 00000001800b91c0 f i libucrtd:output.obj
 0001:000b8340       ?validate_state_for_type_case_a@?$standard_base@DV?$stream_output_adapter@D@__crt_stdio_output@@@__crt_stdio_output@@IEBA_NXZ 00000001800b9340 f i libucrtd:output.obj
 0001:000b8350       ?validate_state_for_type_case_a@?$standard_base@DV?$string_output_adapter@D@__crt_stdio_output@@@__crt_stdio_output@@IEBA_NXZ 00000001800b9350 f i libucrtd:output.obj
 0001:000b8360       ?validate_state_for_type_case_a@?$standard_base@_WV?$stream_output_adapter@_W@__crt_stdio_output@@@__crt_stdio_output@@IEBA_NXZ 00000001800b9360 f i libucrtd:output.obj
 0001:000b8370       ?validate_state_for_type_case_a@?$standard_base@_WV?$string_output_adapter@_W@__crt_stdio_output@@@__crt_stdio_output@@IEBA_NXZ 00000001800b9370 f i libucrtd:output.obj
 0001:000b8380       ?validate_stream_is_ansi_if_required@?$__acrt_stdio_char_traits@D@@SA_NQEAU_iobuf@@@Z 00000001800b9380 f i libucrtd:output.obj
 0001:000b8570       ?validate_stream_is_ansi_if_required@?$__acrt_stdio_char_traits@_W@@SA_NQEAU_iobuf@@@Z 00000001800b9570 f i libucrtd:output.obj
 0001:000b8580       ?wide_null_string@?$output_processor@DV?$stream_output_adapter@D@__crt_stdio_output@@V?$format_validation_base@DV?$stream_output_adapter@D@__crt_stdio_output@@@2@@__crt_stdio_output@@CAPEA_WXZ 00000001800b9580 f i libucrtd:output.obj
 0001:000b8590       ?wide_null_string@?$output_processor@DV?$stream_output_adapter@D@__crt_stdio_output@@V?$positional_parameter_base@DV?$stream_output_adapter@D@__crt_stdio_output@@@2@@__crt_stdio_output@@CAPEA_WXZ 00000001800b9590 f i libucrtd:output.obj
 0001:000b85a0       ?wide_null_string@?$output_processor@DV?$stream_output_adapter@D@__crt_stdio_output@@V?$standard_base@DV?$stream_output_adapter@D@__crt_stdio_output@@@2@@__crt_stdio_output@@CAPEA_WXZ 00000001800b95a0 f i libucrtd:output.obj
 0001:000b85b0       ?wide_null_string@?$output_processor@DV?$string_output_adapter@D@__crt_stdio_output@@V?$format_validation_base@DV?$string_output_adapter@D@__crt_stdio_output@@@2@@__crt_stdio_output@@CAPEA_WXZ 00000001800b95b0 f i libucrtd:output.obj
 0001:000b85c0       ?wide_null_string@?$output_processor@DV?$string_output_adapter@D@__crt_stdio_output@@V?$positional_parameter_base@DV?$string_output_adapter@D@__crt_stdio_output@@@2@@__crt_stdio_output@@CAPEA_WXZ 00000001800b95c0 f i libucrtd:output.obj
 0001:000b85d0       ?wide_null_string@?$output_processor@DV?$string_output_adapter@D@__crt_stdio_output@@V?$standard_base@DV?$string_output_adapter@D@__crt_stdio_output@@@2@@__crt_stdio_output@@CAPEA_WXZ 00000001800b95d0 f i libucrtd:output.obj
 0001:000b85e0       ?wide_null_string@?$output_processor@_WV?$stream_output_adapter@_W@__crt_stdio_output@@V?$format_validation_base@_WV?$stream_output_adapter@_W@__crt_stdio_output@@@2@@__crt_stdio_output@@CAPEA_WXZ 00000001800b95e0 f i libucrtd:output.obj
 0001:000b85f0       ?wide_null_string@?$output_processor@_WV?$stream_output_adapter@_W@__crt_stdio_output@@V?$positional_parameter_base@_WV?$stream_output_adapter@_W@__crt_stdio_output@@@2@@__crt_stdio_output@@CAPEA_WXZ 00000001800b95f0 f i libucrtd:output.obj
 0001:000b8600       ?wide_null_string@?$output_processor@_WV?$stream_output_adapter@_W@__crt_stdio_output@@V?$standard_base@_WV?$stream_output_adapter@_W@__crt_stdio_output@@@2@@__crt_stdio_output@@CAPEA_WXZ 00000001800b9600 f i libucrtd:output.obj
 0001:000b8610       ?wide_null_string@?$output_processor@_WV?$string_output_adapter@_W@__crt_stdio_output@@V?$format_validation_base@_WV?$string_output_adapter@_W@__crt_stdio_output@@@2@@__crt_stdio_output@@CAPEA_WXZ 00000001800b9610 f i libucrtd:output.obj
 0001:000b8620       ?wide_null_string@?$output_processor@_WV?$string_output_adapter@_W@__crt_stdio_output@@V?$positional_parameter_base@_WV?$string_output_adapter@_W@__crt_stdio_output@@@2@@__crt_stdio_output@@CAPEA_WXZ 00000001800b9620 f i libucrtd:output.obj
 0001:000b8630       ?wide_null_string@?$output_processor@_WV?$string_output_adapter@_W@__crt_stdio_output@@V?$standard_base@_WV?$string_output_adapter@_W@__crt_stdio_output@@@2@@__crt_stdio_output@@CAPEA_WXZ 00000001800b9630 f i libucrtd:output.obj
 0001:000b8640       ?write_character@?$output_adapter_common@DV?$stream_output_adapter@D@__crt_stdio_output@@@__crt_stdio_output@@QEBAXDQEAH@Z 00000001800b9640 f i libucrtd:output.obj
 0001:000b86a0       ?write_character@?$output_adapter_common@_WV?$stream_output_adapter@_W@__crt_stdio_output@@@__crt_stdio_output@@QEBAX_WQEAH@Z 00000001800b96a0 f i libucrtd:output.obj
 0001:000b8700       ?write_character@?$string_output_adapter@D@__crt_stdio_output@@QEBA_NDQEAH@Z 00000001800b9700 f i libucrtd:output.obj
 0001:000b87f0       ?write_character@?$string_output_adapter@_W@__crt_stdio_output@@QEBA_N_WQEAH@Z 00000001800b97f0 f i libucrtd:output.obj
 0001:000b88e0       ?write_character_without_count_update@?$stream_output_adapter@D@__crt_stdio_output@@QEBA_ND@Z 00000001800b98e0 f i libucrtd:output.obj
 0001:000b8980       ?write_character_without_count_update@?$stream_output_adapter@_W@__crt_stdio_output@@QEBA_N_W@Z 00000001800b9980 f i libucrtd:output.obj
 0001:000b8a30       ?write_stored_string_tchar@?$output_processor@DV?$stream_output_adapter@D@__crt_stdio_output@@V?$format_validation_base@DV?$stream_output_adapter@D@__crt_stdio_output@@@2@@__crt_stdio_output@@AEAA_ND@Z 00000001800b9a30 f i libucrtd:output.obj
 0001:000b8c50       ?write_stored_string_tchar@?$output_processor@DV?$stream_output_adapter@D@__crt_stdio_output@@V?$positional_parameter_base@DV?$stream_output_adapter@D@__crt_stdio_output@@@2@@__crt_stdio_output@@AEAA_ND@Z 00000001800b9c50 f i libucrtd:output.obj
 0001:000b8e70       ?write_stored_string_tchar@?$output_processor@DV?$stream_output_adapter@D@__crt_stdio_output@@V?$standard_base@DV?$stream_output_adapter@D@__crt_stdio_output@@@2@@__crt_stdio_output@@AEAA_ND@Z 00000001800b9e70 f i libucrtd:output.obj
 0001:000b9090       ?write_stored_string_tchar@?$output_processor@DV?$string_output_adapter@D@__crt_stdio_output@@V?$format_validation_base@DV?$string_output_adapter@D@__crt_stdio_output@@@2@@__crt_stdio_output@@AEAA_ND@Z 00000001800ba090 f i libucrtd:output.obj
 0001:000b92b0       ?write_stored_string_tchar@?$output_processor@DV?$string_output_adapter@D@__crt_stdio_output@@V?$positional_parameter_base@DV?$string_output_adapter@D@__crt_stdio_output@@@2@@__crt_stdio_output@@AEAA_ND@Z 00000001800ba2b0 f i libucrtd:output.obj
 0001:000b94d0       ?write_stored_string_tchar@?$output_processor@DV?$string_output_adapter@D@__crt_stdio_output@@V?$standard_base@DV?$string_output_adapter@D@__crt_stdio_output@@@2@@__crt_stdio_output@@AEAA_ND@Z 00000001800ba4d0 f i libucrtd:output.obj
 0001:000b96f0       ?write_stored_string_tchar@?$output_processor@_WV?$stream_output_adapter@_W@__crt_stdio_output@@V?$format_validation_base@_WV?$stream_output_adapter@_W@__crt_stdio_output@@@2@@__crt_stdio_output@@AEAA_N_W@Z 00000001800ba6f0 f i libucrtd:output.obj
 0001:000b9890       ?write_stored_string_tchar@?$output_processor@_WV?$stream_output_adapter@_W@__crt_stdio_output@@V?$positional_parameter_base@_WV?$stream_output_adapter@_W@__crt_stdio_output@@@2@@__crt_stdio_output@@AEAA_N_W@Z 00000001800ba890 f i libucrtd:output.obj
 0001:000b9a30       ?write_stored_string_tchar@?$output_processor@_WV?$stream_output_adapter@_W@__crt_stdio_output@@V?$standard_base@_WV?$stream_output_adapter@_W@__crt_stdio_output@@@2@@__crt_stdio_output@@AEAA_N_W@Z 00000001800baa30 f i libucrtd:output.obj
 0001:000b9bd0       ?write_stored_string_tchar@?$output_processor@_WV?$string_output_adapter@_W@__crt_stdio_output@@V?$format_validation_base@_WV?$string_output_adapter@_W@__crt_stdio_output@@@2@@__crt_stdio_output@@AEAA_N_W@Z 00000001800babd0 f i libucrtd:output.obj
 0001:000b9d70       ?write_stored_string_tchar@?$output_processor@_WV?$string_output_adapter@_W@__crt_stdio_output@@V?$positional_parameter_base@_WV?$string_output_adapter@_W@__crt_stdio_output@@@2@@__crt_stdio_output@@AEAA_N_W@Z 00000001800bad70 f i libucrtd:output.obj
 0001:000b9f10       ?write_stored_string_tchar@?$output_processor@_WV?$string_output_adapter@_W@__crt_stdio_output@@V?$standard_base@_WV?$string_output_adapter@_W@__crt_stdio_output@@@2@@__crt_stdio_output@@AEAA_N_W@Z 00000001800baf10 f i libucrtd:output.obj
 0001:000ba0b0       ?write_string@?$stream_output_adapter@D@__crt_stdio_output@@QEBAXQEBDHQEAHAEAV__crt_deferred_errno_cache@@@Z 00000001800bb0b0 f i libucrtd:output.obj
 0001:000ba150       ?write_string@?$stream_output_adapter@_W@__crt_stdio_output@@QEBAXQEB_WHQEAHAEAV__crt_deferred_errno_cache@@@Z 00000001800bb150 f i libucrtd:output.obj
 0001:000ba1f0       ?write_string@?$string_output_adapter@D@__crt_stdio_output@@QEBAXQEBDHQEAHAEAV__crt_deferred_errno_cache@@@Z 00000001800bb1f0 f i libucrtd:output.obj
 0001:000ba3b0       ?write_string@?$string_output_adapter@_W@__crt_stdio_output@@QEBAXQEB_WHQEAHAEAV__crt_deferred_errno_cache@@@Z 00000001800bb3b0 f i libucrtd:output.obj
 0001:000ba580       ?write_string_impl@?$output_adapter_common@DV?$stream_output_adapter@D@__crt_stdio_output@@@__crt_stdio_output@@IEBAXQEBDHQEAHAEAV__crt_deferred_errno_cache@@@Z 00000001800bb580 f i libucrtd:output.obj
 0001:000ba690       ?write_string_impl@?$output_adapter_common@_WV?$stream_output_adapter@_W@__crt_stdio_output@@@__crt_stdio_output@@IEBAXQEB_WHQEAHAEAV__crt_deferred_errno_cache@@@Z 00000001800bb690 f i libucrtd:output.obj
 0001:000ba7a0       __acrt_isleadbyte_l_noupdate 00000001800bb7a0 f i libucrtd:output.obj
 0001:000ba7e0       __acrt_locale_get_ctype_array_value 00000001800bb7e0 f i libucrtd:output.obj
 0001:000ba830       __stdio_common_vfprintf    00000001800bb830 f   libucrtd:output.obj
 0001:000ba880       __stdio_common_vfprintf_p  00000001800bb880 f   libucrtd:output.obj
 0001:000ba8d0       __stdio_common_vfprintf_s  00000001800bb8d0 f   libucrtd:output.obj
 0001:000ba920       __stdio_common_vfwprintf   00000001800bb920 f   libucrtd:output.obj
 0001:000ba970       __stdio_common_vfwprintf_p 00000001800bb970 f   libucrtd:output.obj
 0001:000ba9c0       __stdio_common_vfwprintf_s 00000001800bb9c0 f   libucrtd:output.obj
 0001:000baa10       __stdio_common_vsnprintf_s 00000001800bba10 f   libucrtd:output.obj
 0001:000baa80       __stdio_common_vsnwprintf_s 00000001800bba80 f   libucrtd:output.obj
 0001:000baaf0       __stdio_common_vsprintf    00000001800bbaf0 f   libucrtd:output.obj
 0001:000bab50       __stdio_common_vsprintf_p  00000001800bbb50 f   libucrtd:output.obj
 0001:000babb0       __stdio_common_vsprintf_s  00000001800bbbb0 f   libucrtd:output.obj
 0001:000bac10       __stdio_common_vswprintf   00000001800bbc10 f   libucrtd:output.obj
 0001:000bac70       __stdio_common_vswprintf_p 00000001800bbc70 f   libucrtd:output.obj
 0001:000bacd0       __stdio_common_vswprintf_s 00000001800bbcd0 f   libucrtd:output.obj
 0001:000bad30       _ctype_fast_check_internal 00000001800bbd30 f i libucrtd:output.obj
 0001:000bad60       _isdigit_fast_internal     00000001800bbd60 f i libucrtd:output.obj
 0001:000bad90       _tolower_fast_internal     00000001800bbd90 f i libucrtd:output.obj
 0001:000bbed0       _makepath                  00000001800bced0 f   libucrtd:makepath.obj
 0001:000bbf30       _makepath_s                00000001800bcf30 f   libucrtd:makepath.obj
 0001:000bbf90       _wmakepath                 00000001800bcf90 f   libucrtd:makepath.obj
 0001:000bbff0       _wmakepath_s               00000001800bcff0 f   libucrtd:makepath.obj
 0001:000befb0       ??$tcsncpy_s@AEAPEAD_KAEAPEBDAEB_K@?$__crt_char_traits@D@@SAHAEAPEAD$$QEA_KAEAPEBDAEB_K@Z 00000001800bffb0 f i libucrtd:splitpath.obj
 0001:000bf010       ??$tcsncpy_s@AEAPEAD_KAEAPEBDH@?$__crt_char_traits@D@@SAHAEAPEAD$$QEA_KAEAPEBD$$QEAH@Z 00000001800c0010 f i libucrtd:splitpath.obj
 0001:000bf070       ??$tcsncpy_s@AEAPEA_W_KAEAPEB_WAEB_K@?$__crt_char_traits@_W@@SAHAEAPEA_W$$QEA_KAEAPEB_WAEB_K@Z 00000001800c0070 f i libucrtd:splitpath.obj
 0001:000bf0d0       ??$tcsncpy_s@AEAPEA_W_KAEAPEB_WH@?$__crt_char_traits@_W@@SAHAEAPEA_W$$QEA_KAEAPEB_W$$QEAH@Z 00000001800c00d0 f i libucrtd:splitpath.obj
 0001:000bf420       _splitpath                 00000001800c0420 f   libucrtd:splitpath.obj
 0001:000bf470       _splitpath_s               00000001800c0470 f   libucrtd:splitpath.obj
 0001:000bf530       _wsplitpath                00000001800c0530 f   libucrtd:splitpath.obj
 0001:000bf580       _wsplitpath_s              00000001800c0580 f   libucrtd:splitpath.obj
 0001:000bfc60       wcscpy_s                   00000001800c0c60 f   libucrtd:wcscpy_s.obj
 0001:000bfca0       _set_abort_behavior        00000001800c0ca0 f   libucrtd:abort.obj
 0001:000bfcf0       abort                      00000001800c0cf0 f   libucrtd:abort.obj
 0001:000bfda0       strcmp                     00000001800c0da0 f   libucrtd:strcmp.obj
 0001:000bfe40       strlen                     00000001800c0e40 f   libucrtd:strlen.obj
 0001:000bff20       ??$__crt_fast_decode_pointer@P6AXPEB_W00I_K@Z@@YAP6AXPEB_W00I_K@ZQ6AX000I1@Z@Z 00000001800c0f20 f i libucrtd:invalid_parameter.obj
 0001:000bff70       ??$__crt_fast_encode_pointer@P6AXPEB_W00I_K@Z@@YAP6AXPEB_W00I_K@ZQ6AX000I1@Z@Z 00000001800c0f70 f i libucrtd:invalid_parameter.obj
 0001:000bffc0       ??$initialize_from_array@$$BY00Q6AXPEB_W00I_K@Z@?$dual_state_global@P6AXPEB_W00I_K@Z@__crt_state_management@@QEAAXAEAY00Q6AXPEB_W00I_K@Z@Z 00000001800c0fc0 f i libucrtd:invalid_parameter.obj
 0001:000c0100       ?dangerous_get_state_array@?$dual_state_global@P6AXPEB_W00I_K@Z@__crt_state_management@@QEAAPEAP6AXPEB_W00I_K@ZXZ 00000001800c1100 f i libucrtd:invalid_parameter.obj
 0001:000c0110       ?value@?$dual_state_global@P6AXPEB_W00I_K@Z@__crt_state_management@@QEAAAEAP6AXPEB_W00I_K@ZXZ 00000001800c1110 f i libucrtd:invalid_parameter.obj
 0001:000c0140       __acrt_call_reportfault    00000001800c1140 f   libucrtd:invalid_parameter.obj
 0001:000c02c0       __acrt_initialize_invalid_parameter_handler 00000001800c12c0 f   libucrtd:invalid_parameter.obj
 0001:000c0300       _get_invalid_parameter_handler 00000001800c1300 f   libucrtd:invalid_parameter.obj
 0001:000c0330       _get_thread_local_invalid_parameter_handler 00000001800c1330 f   libucrtd:invalid_parameter.obj
 0001:000c0370       _invalid_parameter         00000001800c1370 f   libucrtd:invalid_parameter.obj
 0001:000c04b0       _invalid_parameter_noinfo  00000001800c14b0 f   libucrtd:invalid_parameter.obj
 0001:000c04e0       _invalid_parameter_noinfo_noreturn 00000001800c14e0 f   libucrtd:invalid_parameter.obj
 0001:000c0530       _invoke_watson             00000001800c1530 f   libucrtd:invalid_parameter.obj
 0001:000c05b0       _set_invalid_parameter_handler 00000001800c15b0 f   libucrtd:invalid_parameter.obj
 0001:000c0620       _set_thread_local_invalid_parameter_handler 00000001800c1620 f   libucrtd:invalid_parameter.obj
 0001:000c0670       ??$is_overflow_condition@K@__crt_strtox@@YA_NIK@Z 00000001800c1670 f i libucrtd:atox.obj
 0001:000c06f0       ??$is_overflow_condition@_K@__crt_strtox@@YA_NI_K@Z 00000001800c16f0 f i libucrtd:atox.obj
 0001:000c0780       ??$make_c_string_character_source@D$$T@__crt_strtox@@YA?AV?$c_string_character_source@D@0@QEBD$$T@Z 00000001800c1780 f i libucrtd:atox.obj
 0001:000c07c0       ??$make_c_string_character_source@_W$$T@__crt_strtox@@YA?AV?$c_string_character_source@_W@0@QEB_W$$T@Z 00000001800c17c0 f i libucrtd:atox.obj
 0001:000c0800       ??$parse_integer@KV?$c_string_character_source@D@__crt_strtox@@@__crt_strtox@@YAKQEAU__crt_locale_pointers@@V?$c_string_character_source@D@0@H_N@Z 00000001800c1800 f i libucrtd:atox.obj
 0001:000c0dc0       ??$parse_integer@KV?$c_string_character_source@_W@__crt_strtox@@@__crt_strtox@@YAKQEAU__crt_locale_pointers@@V?$c_string_character_source@_W@0@H_N@Z 00000001800c1dc0 f i libucrtd:atox.obj
 0001:000c13a0       ??$parse_integer@_KV?$c_string_character_source@D@__crt_strtox@@@__crt_strtox@@YA_KQEAU__crt_locale_pointers@@V?$c_string_character_source@D@0@H_N@Z 00000001800c23a0 f i libucrtd:atox.obj
 0001:000c1a00       ??$parse_integer@_KV?$c_string_character_source@_W@__crt_strtox@@@__crt_strtox@@YA_KQEAU__crt_locale_pointers@@V?$c_string_character_source@_W@0@H_N@Z 00000001800c2a00 f i libucrtd:atox.obj
 0001:000c2070       ??$parse_integer_from_string@JD$$T@__crt_strtox@@YAJQEBD$$THQEAU__crt_locale_pointers@@@Z 00000001800c3070 f i libucrtd:atox.obj
 0001:000c20e0       ??$parse_integer_from_string@J_W$$T@__crt_strtox@@YAJQEB_W$$THQEAU__crt_locale_pointers@@@Z 00000001800c30e0 f i libucrtd:atox.obj
 0001:000c2150       ??$parse_integer_from_string@_JD$$T@__crt_strtox@@YA_JQEBD$$THQEAU__crt_locale_pointers@@@Z 00000001800c3150 f i libucrtd:atox.obj
 0001:000c21c0       ??$parse_integer_from_string@_J_W$$T@__crt_strtox@@YA_JQEB_W$$THQEAU__crt_locale_pointers@@@Z 00000001800c31c0 f i libucrtd:atox.obj
 0001:000c2230       ??0?$c_string_character_source@D@__crt_strtox@@QEAA@QEBDQEAPEBD@Z 00000001800c3230 f i libucrtd:atox.obj
 0001:000c2290       ??0?$c_string_character_source@_W@__crt_strtox@@QEAA@QEB_WQEAPEB_W@Z 00000001800c3290 f i libucrtd:atox.obj
 0001:000c22f0       ??1?$c_string_character_source@D@__crt_strtox@@QEAA@XZ 00000001800c32f0 f i libucrtd:atox.obj
 0001:000c2320       ??1?$c_string_character_source@_W@__crt_strtox@@QEAA@XZ 00000001800c3320 f i libucrtd:atox.obj
 0001:000c2350       ?get@?$c_string_character_source@D@__crt_strtox@@QEAADXZ 00000001800c3350 f i libucrtd:atox.obj
 0001:000c2390       ?get@?$c_string_character_source@_W@__crt_strtox@@QEAA_WXZ 00000001800c3390 f i libucrtd:atox.obj
 0001:000c23e0       ?is_space@__crt_strtox@@YA_NDQEAU__crt_locale_pointers@@@Z 00000001800c33e0 f i libucrtd:atox.obj
 0001:000c2440       ?is_space@__crt_strtox@@YA_N_WPEAU__crt_locale_pointers@@@Z 00000001800c3440 f i libucrtd:atox.obj
 0001:000c2490       ?maximum_signed_value@__crt_strtox@@YAJK@Z 00000001800c3490 f i libucrtd:atox.obj
 0001:000c24a0       ?maximum_signed_value@__crt_strtox@@YA_J_K@Z 00000001800c34a0 f i libucrtd:atox.obj
 0001:000c24c0       ?minimum_signed_value@__crt_strtox@@YAJK@Z 00000001800c34c0 f i libucrtd:atox.obj
 0001:000c24d0       ?minimum_signed_value@__crt_strtox@@YA_J_K@Z 00000001800c34d0 f i libucrtd:atox.obj
 0001:000c24f0       ?parse_digit@__crt_strtox@@YAID@Z 00000001800c34f0 f i libucrtd:atox.obj
 0001:000c2570       ?parse_digit@__crt_strtox@@YAI_W@Z 00000001800c3570 f i libucrtd:atox.obj
 0001:000c25e0       ?restore_state@?$c_string_character_source@D@__crt_strtox@@QEAA_NQEBD@Z 00000001800c35e0 f i libucrtd:atox.obj
 0001:000c2600       ?restore_state@?$c_string_character_source@_W@__crt_strtox@@QEAA_NQEB_W@Z 00000001800c3600 f i libucrtd:atox.obj
 0001:000c2620       ?save_state@?$c_string_character_source@D@__crt_strtox@@QEBAPEBDXZ 00000001800c3620 f i libucrtd:atox.obj
 0001:000c2640       ?save_state@?$c_string_character_source@_W@__crt_strtox@@QEBAPEB_WXZ 00000001800c3640 f i libucrtd:atox.obj
 0001:000c2660       ?unget@?$c_string_character_source@D@__crt_strtox@@QEAAXD@Z 00000001800c3660 f i libucrtd:atox.obj
 0001:000c2770       ?unget@?$c_string_character_source@_W@__crt_strtox@@QEAAX_W@Z 00000001800c3770 f i libucrtd:atox.obj
 0001:000c2880       ?validate@?$c_string_character_source@D@__crt_strtox@@QEBA_NXZ 00000001800c3880 f i libucrtd:atox.obj
 0001:000c2970       ?validate@?$c_string_character_source@_W@__crt_strtox@@QEBA_NXZ 00000001800c3970 f i libucrtd:atox.obj
 0001:000c2a60       ?wide_character_to_digit@__crt_strtox@@YAH_W@Z 00000001800c3a60 f i libucrtd:atox.obj
 0001:000c2ea0       __ascii_iswalpha           00000001800c3ea0 f i libucrtd:atox.obj
 0001:000c2ef0       __ascii_toupper            00000001800c3ef0 f i libucrtd:atox.obj
 0001:000c2f20       __ascii_towupper           00000001800c3f20 f i libucrtd:atox.obj
 0001:000c2f40       _atoi64                    00000001800c3f40 f   libucrtd:atox.obj
 0001:000c2f70       _atoi64_l                  00000001800c3f70 f   libucrtd:atox.obj
 0001:000c2fb0       _atoi_l                    00000001800c3fb0 f   libucrtd:atox.obj
 0001:000c2ff0       _atol_l                    00000001800c3ff0 f   libucrtd:atox.obj
 0001:000c3030       _atoll_l                   00000001800c4030 f   libucrtd:atox.obj
 0001:000c3070       _wtoi                      00000001800c4070 f   libucrtd:atox.obj
 0001:000c30a0       _wtoi64                    00000001800c40a0 f   libucrtd:atox.obj
 0001:000c30d0       _wtoi64_l                  00000001800c40d0 f   libucrtd:atox.obj
 0001:000c3110       _wtoi_l                    00000001800c4110 f   libucrtd:atox.obj
 0001:000c3150       _wtol                      00000001800c4150 f   libucrtd:atox.obj
 0001:000c3180       _wtol_l                    00000001800c4180 f   libucrtd:atox.obj
 0001:000c31c0       _wtoll                     00000001800c41c0 f   libucrtd:atox.obj
 0001:000c31f0       _wtoll_l                   00000001800c41f0 f   libucrtd:atox.obj
 0001:000c3230       atoi                       00000001800c4230 f   libucrtd:atox.obj
 0001:000c3260       atol                       00000001800c4260 f   libucrtd:atox.obj
 0001:000c3290       atoll                      00000001800c4290 f   libucrtd:atox.obj
 0001:000c32d0       strncmp                    00000001800c42d0 f   libucrtd:strncmp.obj
