 PhysX3CookingDEBUG_x64

 Timestamp is 64717ee7 (Sat May 27 11:54:15 2023)

 Preferred load address is 0000000180000000

 Start         Length     Name                   Class
 0001:00000000 0000d1c0H .text$di                CODE
 0001:0000d1c0 00130fd0H .text$mn                CODE
 0001:0013e190 00001040H .text$mn$00             CODE
 0001:0013f1d0 000022b8H .text$x                 CODE
 0002:00000000 00000110H .CRT$XCA                DATA
 0002:00000110 00000320H .CRT$XCU                DATA
 0002:00000430 00000110H .CRT$XCZ                DATA
 0002:00000540 00000110H .CRT$XIA                DATA
 0002:00000650 00000130H .CRT$XIC                DATA
 0002:00000780 00000110H .CRT$XIZ                DATA
 0002:00000890 00000110H .CRT$XPA                DATA
 0002:000009a0 00000120H .CRT$XPX                DATA
 0002:00000ac0 00000110H .CRT$XPXA               DATA
 0002:00000bd0 00000110H .CRT$XPZ                DATA
 0002:00000ce0 00000110H .CRT$XTA                DATA
 0002:00000df0 00000110H .CRT$XTZ                DATA
 0002:00000f00 0002df00H .rdata                  DATA
 0002:0002ee00 00000200H .rdata$CastGuardVftablesA DATA
 0002:0002f000 000001a0H .rdata$CastGuardVftablesC DATA
 0002:0002f1a0 0000060cH .rdata$r                DATA
 0002:0002f7ac 000001acH .rdata$zzzdbg           DATA
 0002:0002f958 00000110H .rtc$IAA                DATA
 0002:0002fa68 00000250H .rtc$IMZ                DATA
 0002:0002fcb8 00000110H .rtc$IZZ                DATA
 0002:0002fdc8 00000110H .rtc$TAA                DATA
 0002:0002fed8 00000250H .rtc$TMZ                DATA
 0002:00030128 00000118H .rtc$TZZ                DATA
 0002:00030240 00009b98H .xdata                  DATA
 0002:00039dd8 00000198H .xdata$x                DATA
 0002:00039f70 000001a0H .edata                  DATA
 0003:00000000 00000e88H .data                   DATA
 0003:00000e88 000005d0H .data$r                 DATA
 0003:00001458 00000228H .data$rs                DATA
 0003:00001680 000026f1H .bss                    DATA
 0004:00000000 0000c324H .pdata                  DATA
 0005:00000000 000003c0H .idata$5                DATA
 0005:000003c0 00000014H .idata$2                DATA
 0005:000003d4 00000014H .idata$3                DATA
 0005:000003e8 000003c0H .idata$4                DATA
 0005:000007a8 00000868H .idata$6                DATA
 0006:00000000 00000040H .didat$2                DATA
 0006:00000040 00000020H .didat$3                DATA
 0006:00000060 000002a0H .didat$4                DATA
 0006:00000300 000002a0H .didat$5                DATA
 0006:000005a0 00000c40H .didat$6                DATA
 0006:000011e0 000002dbH .didat$7                DATA
 0007:00000000 00000175H .00cfg                  DATA
 0008:00000000 0000029fH _RDATA                  DATA
 0009:00000000 000001c0H .rsrc$01                DATA
 0009:000001c0 000006a9H .rsrc$02                DATA

  Address         Publics by Value              Rva+Base               Lib:Object

 0000:00000000       __AbsoluteZero             0000000000000000     <absolute>
 0000:00000000       ___safe_se_handler_count   0000000000000000     <absolute>
 0000:00000000       ___safe_se_handler_table   0000000000000000     <absolute>
 0000:00000000       __arm64x_extra_rfe_table   0000000000000000     <absolute>
 0000:00000000       __arm64x_extra_rfe_table_size 0000000000000000     <absolute>
 0000:00000000       __arm64x_native_entrypoint 0000000000000000     <absolute>
 0000:00000000       __arm64x_redirection_metadata 0000000000000000     <absolute>
 0000:00000000       __arm64x_redirection_metadata_count 0000000000000000     <absolute>
 0000:00000000       __dynamic_value_reloc_table 0000000000000000     <absolute>
 0000:00000000       __enclave_config           0000000000000000     <absolute>
 0000:00000000       __guard_check_icall_a64n_fptr 0000000000000000     <absolute>
 0000:00000000       __guard_eh_cont_count      0000000000000000     <absolute>
 0000:00000000       __guard_eh_cont_table      0000000000000000     <absolute>
 0000:00000000       __guard_fids_count         0000000000000000     <absolute>
 0000:00000000       __guard_fids_table         0000000000000000     <absolute>
 0000:00000000       __guard_iat_count          0000000000000000     <absolute>
 0000:00000000       __guard_iat_table          0000000000000000     <absolute>
 0000:00000000       __guard_longjmp_count      0000000000000000     <absolute>
 0000:00000000       __guard_longjmp_table      0000000000000000     <absolute>
 0000:00000000       __hybrid_auxiliary_iat     0000000000000000     <absolute>
 0000:00000000       __hybrid_auxiliary_iat_copy 0000000000000000     <absolute>
 0000:00000000       __hybrid_code_map          0000000000000000     <absolute>
 0000:00000000       __hybrid_code_map_count    0000000000000000     <absolute>
 0000:00000000       __volatile_metadata        0000000000000000     <absolute>
 0000:00000000       __x64_code_ranges_to_entry_points 0000000000000000     <absolute>
 0000:00000000       __x64_code_ranges_to_entry_points_count 0000000000000000     <absolute>
 0000:00000100       __guard_flags              0000000000000100     <absolute>
 0000:00000000       __ImageBase                0000000180000000     <linker-defined>
 0001:0000d1c0       PxSetPhysXCookingDelayLoadHook 000000018000e1c0 f   WindowsCookingDelayLoadHook.obj
 0001:0000d1e0       ?delayHook@@YAP6A_JXZIPEAUDelayLoadInfo@@@Z 000000018000e1e0 f   WindowsCookingDelayLoadHook.obj
 0001:0000d290       ?foundationDliNotePreLoadLibrary@shdfnd@physx@@YAP6A_JXZPEBDPEBVPxFoundationDelayLoadHook@2@@Z 000000018000e290 f i WindowsCookingDelayLoadHook.obj
 0001:0000d3d0       ?loadLibrary@Cm@physx@@YAPEAUHINSTANCE__@@PEBD@Z 000000018000e3d0 f i WindowsCookingDelayLoadHook.obj
 0001:0000d3f0       ?physXCommonDliNotePreLoadLibrary@Cm@physx@@YAP6A_JXZPEBDPEBVPxDelayLoadHook@2@@Z 000000018000e3f0 f i WindowsCookingDelayLoadHook.obj
 0001:0000d660       ?saveHeightField@physx@@YA_NAEBVHeightField@Gu@1@AEAVPxOutputStream@1@_N@Z 000000018000e660 f   HeightFieldCooking.obj
 0001:0000db20       ??APxVec3@physx@@QEBAAEBMI@Z 000000018000eb20 f i HeightFieldCooking.obj
 0001:0000dbb0       ??B?$PxFlags@W4Enum@PxHeightFieldFlag@physx@@G@physx@@QEBAGXZ 000000018000ebb0 f i HeightFieldCooking.obj
 0001:0000dbd0       ?__empty_global_delete@@YAXPEAX@Z 000000018000ebd0 f i HeightFieldCooking.obj
 0001:0000dbe0       ?__empty_global_delete@@YAXPEAX_K@Z 000000018000ebe0 f i HeightFieldCooking.obj
 0001:0000dbe0       ?__global_array_delete@@YAXPEAX_K@Z 000000018000ebe0 f i HeightFieldCooking.obj
 0001:0000dbe0       ?__global_delete@@YAXPEAX_K@Z 000000018000ebe0 f i HeightFieldCooking.obj
 0001:0000dbf0       ?getData@HeightField@Gu@physx@@QEBAAEBUHeightFieldData@23@XZ 000000018000ebf0 f i HeightFieldCooking.obj
 0001:0000dc10       ?getMax@CenterExtents@Gu@physx@@QEBAMI@Z 000000018000ec10 f i HeightFieldCooking.obj
 0001:0000dc70       ?getMin@CenterExtents@Gu@physx@@QEBAMI@Z 000000018000ec70 f i HeightFieldCooking.obj
 0001:0000dcd0       ?buildFromTriangles@RTreeCooker@physx@@SAXAEAURTree@Gu@2@PEBVPxVec3@2@IPEBGPEBIIAEAV?$Array@IVNamedAllocator@shdfnd@physx@@@shdfnd@2@PEAURemapCallback@12@MW4Enum@PxMeshCookingHint@2@@Z 000000018000ecd0 f   RTreeCooking.obj
 0001:0000fb30       ??$PX_UNUSED@I@@YAXAEBI@Z  0000000180010b30 f i RTreeCooking.obj
 0001:0000fb40       ??$PX_UNUSED@M@@YAXAEBM@Z  0000000180010b40 f i RTreeCooking.obj
 0001:0000fb50       ??$PX_UNUSED@PEAURTreeNodeNQ@physx@@@@YAXAEBQEAURTreeNodeNQ@physx@@@Z 0000000180010b50 f i RTreeCooking.obj
 0001:0000fb60       ??$PX_UNUSED@URTreeNodeNQ@physx@@@@YAXAEBURTreeNodeNQ@physx@@@Z 0000000180010b60 f i RTreeCooking.obj
 0001:0000fb70       ??$PxMax@H@physx@@YAHHH@Z  0000000180010b70 f i RTreeCooking.obj
 0001:0000fbb0       ??$PxMax@I@physx@@YAIII@Z  0000000180010bb0 f i RTreeCooking.obj
 0001:0000fbf0       ??$PxMax@M@physx@@YAMMM@Z  0000000180010bf0 f i RTreeCooking.obj
 0001:0000fc20       ??$PxMin@I@physx@@YAIII@Z  0000000180010c20 f i RTreeCooking.obj
 0001:0000fc60       ??$PxMin@M@physx@@YAMMM@Z  0000000180010c60 f i RTreeCooking.obj
 0001:0000fc90       ??$median3@I$$CBU?$Less@I@shdfnd@physx@@@internal@shdfnd@physx@@YAXPEAIHHAEBU?$Less@I@12@@Z 0000000180010c90 f i RTreeCooking.obj
 0001:0000fe50       ??$median3@I$$CBUSortBoundsPredicate@physx@@@internal@shdfnd@physx@@YAXPEAIHHAEBUSortBoundsPredicate@2@@Z 0000000180010e50 f i RTreeCooking.obj
 0001:00010010       ??$partition@I$$CBU?$Less@I@shdfnd@physx@@@internal@shdfnd@physx@@YAHPEAIHHAEBU?$Less@I@12@@Z 0000000180011010 f i RTreeCooking.obj
 0001:00010280       ??$partition@I$$CBUSortBoundsPredicate@physx@@@internal@shdfnd@physx@@YAHPEAIHHAEBUSortBoundsPredicate@2@@Z 0000000180011280 f i RTreeCooking.obj
 0001:000104f0       ??$partition@UBoundsLTE@physx@@@quickSelect@physx@@YAIPEIAIIIIAEBUBoundsLTE@1@@Z 00000001800114f0 f i RTreeCooking.obj
 0001:00010910       ??$quickSelectFirstK@UBoundsLTE@physx@@@quickSelect@physx@@YAXPEIAIIIIAEBUBoundsLTE@1@@Z 0000000180011910 f i RTreeCooking.obj
 0001:00010ac0       ??$smallSort@I$$CBU?$Less@I@shdfnd@physx@@@internal@shdfnd@physx@@YAXPEAIHHAEBU?$Less@I@12@@Z 0000000180011ac0 f i RTreeCooking.obj
 0001:00010bd0       ??$smallSort@I$$CBUSortBoundsPredicate@physx@@@internal@shdfnd@physx@@YAXPEAIHHAEBUSortBoundsPredicate@2@@Z 0000000180011bd0 f i RTreeCooking.obj
 0001:00010ce0       ??$sort@I@shdfnd@physx@@YAXPEAII@Z 0000000180011ce0 f i RTreeCooking.obj
 0001:00010d40       ??$sort@IU?$Less@I@shdfnd@physx@@VNamedAllocator@23@@shdfnd@physx@@YAXPEAIIAEBU?$Less@I@01@AEBVNamedAllocator@01@I@Z 0000000180011d40 f i RTreeCooking.obj
 0001:000110f0       ??$sort@IUSortBoundsPredicate@physx@@@shdfnd@physx@@YAXPEAIIAEBUSortBoundsPredicate@1@@Z 00000001800120f0 f i RTreeCooking.obj
 0001:00011150       ??$sort@IUSortBoundsPredicate@physx@@VNamedAllocator@shdfnd@2@@shdfnd@physx@@YAXPEAIIAEBUSortBoundsPredicate@1@AEBVNamedAllocator@01@I@Z 0000000180012150 f i RTreeCooking.obj
 0001:00011500       ??$swap@I@shdfnd@physx@@YAXAEAI0@Z 0000000180012500 f i RTreeCooking.obj
 0001:00011550       ??0?$AlignedAllocator@$0IA@VNonTrackingAllocator@shdfnd@physx@@@shdfnd@physx@@QEAA@AEBVNonTrackingAllocator@12@@Z 0000000180012550 f i RTreeCooking.obj
 0001:00011570       ??0?$Array@IVNamedAllocator@shdfnd@physx@@@shdfnd@physx@@QEAA@IAEBIAEBVNamedAllocator@12@@Z 0000000180012570 f i RTreeCooking.obj
 0001:00011600       ??0?$Array@UInterval@physx@@V?$InlineAllocator@$0CAAA@VNamedAllocator@shdfnd@physx@@@shdfnd@2@@shdfnd@physx@@QEAA@AEBV?$InlineAllocator@$0CAAA@VNamedAllocator@shdfnd@physx@@@12@@Z 0000000180012600 f i RTreeCooking.obj
 0001:00011670       ??0?$Array@UPxBounds3V@physx@@VNamedAllocator@shdfnd@2@@shdfnd@physx@@QEAA@AEBVNamedAllocator@12@@Z 0000000180012670 f i RTreeCooking.obj
 0001:000116d0       ??0?$Array@URTreeNodeNQ@physx@@VNamedAllocator@shdfnd@2@@shdfnd@physx@@QEAA@AEBVNamedAllocator@12@@Z 00000001800126d0 f i RTreeCooking.obj
 0001:00011730       ??0?$Array@URTreeNodeQ@Gu@physx@@VNamedAllocator@shdfnd@3@@shdfnd@physx@@QEAA@AEBVNamedAllocator@12@@Z 0000000180012730 f i RTreeCooking.obj
 0001:00011790       ??0?$Array@VPxVec3@physx@@VNamedAllocator@shdfnd@2@@shdfnd@physx@@QEAA@AEBVNamedAllocator@12@@Z 0000000180012790 f i RTreeCooking.obj
 0001:000117f0       ??0?$InlineAllocator@$0CAAA@VNamedAllocator@shdfnd@physx@@@shdfnd@physx@@QEAA@AEBV012@@Z 00000001800127f0 f i RTreeCooking.obj
 0001:00011840       ??0?$InlineAllocator@$0CAAA@VNamedAllocator@shdfnd@physx@@@shdfnd@physx@@QEAA@AEBVNamedAllocator@12@@Z 0000000180012840 f i RTreeCooking.obj
 0001:00011890       ??0?$InlineArray@UInterval@physx@@$0EAA@VNamedAllocator@shdfnd@2@@shdfnd@physx@@QEAA@AEBVNamedAllocator@12@@Z 0000000180012890 f i RTreeCooking.obj
 0001:00011940       ??0?$ScopedPointer@HVTempAllocator@shdfnd@physx@@@shdfnd@physx@@QEAA@XZ 0000000180012940 f i RTreeCooking.obj
 0001:00011970       ??0?$Stack@VNamedAllocator@shdfnd@physx@@@internal@shdfnd@physx@@QEAA@PEAHIAEBVNamedAllocator@23@@Z 0000000180012970 f i RTreeCooking.obj
 0001:000119f0       ??0BoundsLTE@physx@@QEAA@IPEBVPxVec3@1@@Z 00000001800129f0 f i RTreeCooking.obj
 0001:00011a30       ??0Interval@physx@@QEAA@II@Z 0000000180012a30 f i RTreeCooking.obj
 0001:00011a70       ??0NonTrackingAllocator@shdfnd@physx@@QEAA@PEBD@Z 0000000180012a70 f i RTreeCooking.obj
 0001:00011a90       ??0PxBounds3@physx@@QEAA@AEBV01@@Z 0000000180012a90 f i RTreeCooking.obj
 0001:00011af0       ??0PxBounds3@physx@@QEAA@AEBVPxVec3@1@0@Z 0000000180012af0 f i RTreeCooking.obj
 0001:00011b50       ??0PxBounds3V@physx@@QEAA@AEAT__m128@@0@Z 0000000180012b50 f i RTreeCooking.obj
 0001:00011ba0       ??0PxBounds3V@physx@@QEAA@UU@01@@Z 0000000180012ba0 f i RTreeCooking.obj
 0001:00011bc0       ??0PxVec3@physx@@QEAA@AEBV01@@Z 0000000180012bc0 f i RTreeCooking.obj
 0001:00011c20       ??0PxVec3@physx@@QEAA@M@Z  0000000180012c20 f i RTreeCooking.obj
 0001:00011c70       ??0PxVec3@physx@@QEAA@MMM@Z 0000000180012c70 f i RTreeCooking.obj
 0001:00011cd0       ??0PxVec3@physx@@QEAA@XZ   0000000180012cd0 f i RTreeCooking.obj
 0001:00011ce0       ??0PxVec4@physx@@QEAA@AEBVPxVec3@1@M@Z 0000000180012ce0 f i RTreeCooking.obj
 0001:00011d60       ??0PxVec4@physx@@QEAA@M@Z  0000000180012d60 f i RTreeCooking.obj
 0001:00011dd0       ??0PxVec4@physx@@QEAA@MMMM@Z 0000000180012dd0 f i RTreeCooking.obj
 0001:00011e50       ??0RTreeNodeNQ@physx@@QEAA@AEBU01@@Z 0000000180012e50 f i RTreeCooking.obj
 0001:00011eb0       ??0RTreeNodeNQ@physx@@QEAA@XZ 0000000180012eb0 f i RTreeCooking.obj
 0001:00011f00       ??0SortBoundsPredicate@physx@@QEAA@IPEBUPxBounds3V@1@@Z 0000000180012f00 f i RTreeCooking.obj
 0001:00011f40       ??0SubSortQuick@physx@@QEAA@PEAIPEBUPxBounds3V@1@IM@Z 0000000180012f40 f i RTreeCooking.obj
 0001:00012110       ??0SubSortSAH@physx@@QEAA@PEAIPEBUPxBounds3V@1@IPEBI22222M@Z 0000000180013110 f i RTreeCooking.obj
 0001:000123d0       ??0TempAllocator@shdfnd@physx@@QEAA@PEBD@Z 00000001800133d0 f i RTreeCooking.obj
 0001:000123f0       ??1?$Array@IVNamedAllocator@shdfnd@physx@@@shdfnd@physx@@QEAA@XZ 00000001800133f0 f i RTreeCooking.obj
 0001:00012480       ??1?$Array@UInterval@physx@@V?$InlineAllocator@$0CAAA@VNamedAllocator@shdfnd@physx@@@shdfnd@2@@shdfnd@physx@@QEAA@XZ 0000000180013480 f i RTreeCooking.obj
 0001:00012520       ??1?$Array@UPxBounds3V@physx@@VNamedAllocator@shdfnd@2@@shdfnd@physx@@QEAA@XZ 0000000180013520 f i RTreeCooking.obj
 0001:000125b0       ??1?$Array@URTreeNodeNQ@physx@@VNamedAllocator@shdfnd@2@@shdfnd@physx@@QEAA@XZ 00000001800135b0 f i RTreeCooking.obj
 0001:00012640       ??1?$Array@URTreeNodeQ@Gu@physx@@VNamedAllocator@shdfnd@3@@shdfnd@physx@@QEAA@XZ 0000000180013640 f i RTreeCooking.obj
 0001:000126d0       ??1?$Array@VPxVec3@physx@@VNamedAllocator@shdfnd@2@@shdfnd@physx@@QEAA@XZ 00000001800136d0 f i RTreeCooking.obj
 0001:00012760       ??1?$InlineAllocator@$0CAAA@VNamedAllocator@shdfnd@physx@@@shdfnd@physx@@QEAA@XZ 0000000180013760 f i RTreeCooking.obj
 0001:00012780       ??1?$InlineArray@UInterval@physx@@$0EAA@VNamedAllocator@shdfnd@2@@shdfnd@physx@@QEAA@XZ 0000000180013780 f i RTreeCooking.obj
 0001:000127a0       ??1?$ScopedPointer@HVTempAllocator@shdfnd@physx@@@shdfnd@physx@@QEAA@XZ 00000001800137a0 f i RTreeCooking.obj
 0001:000127e0       ??1?$Stack@VNamedAllocator@shdfnd@physx@@@internal@shdfnd@physx@@QEAA@XZ 00000001800137e0 f i RTreeCooking.obj
 0001:00012830       ??1SubSortQuick@physx@@QEAA@XZ 0000000180013830 f i RTreeCooking.obj
 0001:00012860       ??1SubSortSAH@physx@@QEAA@XZ 0000000180013860 f i RTreeCooking.obj
 0001:00012950       ??2@YAPEAX_KPEAX@Z         0000000180013950 f i RTreeCooking.obj
 0001:00012970       ??4PxVec3@physx@@QEAAAEAV01@AEBV01@@Z 0000000180013970 f i RTreeCooking.obj
 0001:000129d0       ??4PxVec4@physx@@QEAAAEAV01@AEBV01@@Z 00000001800139d0 f i RTreeCooking.obj
 0001:00012a50       ??A?$Array@IVNamedAllocator@shdfnd@physx@@@shdfnd@physx@@QEAAAEAII@Z 0000000180013a50 f i RTreeCooking.obj
 0001:00012af0       ??A?$Array@UInterval@physx@@V?$InlineAllocator@$0CAAA@VNamedAllocator@shdfnd@physx@@@shdfnd@2@@shdfnd@physx@@QEAAAEAUInterval@2@I@Z 0000000180013af0 f i RTreeCooking.obj
 0001:00012b90       ??A?$Array@URTreeNodeNQ@physx@@VNamedAllocator@shdfnd@2@@shdfnd@physx@@QEAAAEAURTreeNodeNQ@2@I@Z 0000000180013b90 f i RTreeCooking.obj
 0001:00012c30       ??A?$Array@URTreeNodeQ@Gu@physx@@VNamedAllocator@shdfnd@3@@shdfnd@physx@@QEAAAEAURTreeNodeQ@Gu@2@I@Z 0000000180013c30 f i RTreeCooking.obj
 0001:00012cd0       ??B?$ScopedPointer@HVTempAllocator@shdfnd@physx@@@shdfnd@physx@@QEBAPEAHXZ 0000000180013cd0 f i RTreeCooking.obj
 0001:00012cf0       ??GPxVec4@physx@@QEBA?AV01@AEBV01@@Z 0000000180013cf0 f i RTreeCooking.obj
 0001:00012da0       ??HPxVec3@physx@@QEBA?AV01@AEBV01@@Z 0000000180013da0 f i RTreeCooking.obj
 0001:00012e40       ??KPxVec4@physx@@QEBA?AV01@M@Z 0000000180013e40 f i RTreeCooking.obj
 0001:00012f00       ??R?$Less@I@shdfnd@physx@@QEBA_NAEBI0@Z 0000000180013f00 f i RTreeCooking.obj
 0001:00012f50       ??RBoundsLTE@physx@@QEBA_NAEBI0@Z 0000000180013f50 f i RTreeCooking.obj
 0001:00013010       ??RSortBoundsPredicate@physx@@QEBA_NAEBI0@Z 0000000180014010 f i RTreeCooking.obj
 0001:00013190       ??_H@YAXPEAX_K1P6APEAX0@Z@Z 0000000180014190 f i RTreeCooking.obj
 0001:00013230       ?FLoad@aos@shdfnd@physx@@YA?AT__m128@@M@Z 0000000180014230 f i RTreeCooking.obj
 0001:00013260       ?FMax@aos@shdfnd@physx@@YA?AT__m128@@XZ 0000000180014260 f i RTreeCooking.obj
 0001:00013290       ?FNegMax@aos@shdfnd@physx@@YA?AT__m128@@XZ 0000000180014290 f i RTreeCooking.obj
 0001:000132c0       ?FStore@aos@shdfnd@physx@@YAXT__m128@@PEIAM@Z 00000001800142c0 f i RTreeCooking.obj
 0001:00013370       ?PxAbs@physx@@YAHH@Z       0000000180014370 f i RTreeCooking.obj
 0001:00013390       ?PxAbs@physx@@YAMM@Z       0000000180014390 f i RTreeCooking.obj
 0001:000133b0       ?PxIsFinite@physx@@YA_NM@Z 00000001800143b0 f i RTreeCooking.obj
 0001:000133d0       ?PxMemCopy@physx@@YAPEAXPEAXPEBXI@Z 00000001800143d0 f i RTreeCooking.obj
 0001:00013410       ?V3Add@aos@shdfnd@physx@@YA?AT__m128@@T4@0@Z 0000000180014410 f i RTreeCooking.obj
 0001:00013560       ?V3Dot@aos@shdfnd@physx@@YA?AT__m128@@T4@0@Z 0000000180014560 f i RTreeCooking.obj
 0001:00013770       ?V3Load@aos@shdfnd@physx@@YA?AT__m128@@M@Z 0000000180014770 f i RTreeCooking.obj
 0001:000137c0       ?V3LoadU@aos@shdfnd@physx@@YA?AT__m128@@AEBVPxVec3@3@@Z 00000001800147c0 f i RTreeCooking.obj
 0001:00013820       ?V3Max@aos@shdfnd@physx@@YA?AT__m128@@T4@0@Z 0000000180014820 f i RTreeCooking.obj
 0001:00013970       ?V3Min@aos@shdfnd@physx@@YA?AT__m128@@T4@0@Z 0000000180014970 f i RTreeCooking.obj
 0001:00013ac0       ?V3PermZXY@aos@shdfnd@physx@@YA?AT__m128@@T4@@Z 0000000180014ac0 f i RTreeCooking.obj
 0001:00013b80       ?V3ReadXYZ@aos@shdfnd@physx@@YAAEBVPxVec3@3@AEBT__m128@@@Z 0000000180014b80 f i RTreeCooking.obj
 0001:00013b90       ?V3Splat@aos@shdfnd@physx@@YA?AT__m128@@T4@@Z 0000000180014b90 f i RTreeCooking.obj
 0001:00013ca0       ?V3StoreA@aos@shdfnd@physx@@YAXT__m128@@AEAVPxVec3@3@@Z 0000000180014ca0 f i RTreeCooking.obj
 0001:00013d90       ?V3StoreU@aos@shdfnd@physx@@YAXT__m128@@AEAVPxVec3@3@@Z 0000000180014d90 f i RTreeCooking.obj
 0001:00013e10       ?V3Sub@aos@shdfnd@physx@@YA?AT__m128@@T4@0@Z 0000000180014e10 f i RTreeCooking.obj
 0001:00013f60       ?V3Zero@aos@shdfnd@physx@@YA?AT__m128@@XZ 0000000180014f60 f i RTreeCooking.obj
 0001:00013f80       ?V4ClearW@aos@shdfnd@physx@@YA?AT__m128@@T4@@Z 0000000180014f80 f i RTreeCooking.obj
 0001:00013fb0       ?V4Load@aos@shdfnd@physx@@YA?AT__m128@@M@Z 0000000180014fb0 f i RTreeCooking.obj
 0001:00013fe0       ?V4ReadW@aos@shdfnd@physx@@YAMAEBT__m128@@@Z 0000000180014fe0 f i RTreeCooking.obj
 0001:00014000       ?V4ReadX@aos@shdfnd@physx@@YAMAEBT__m128@@@Z 0000000180015000 f i RTreeCooking.obj
 0001:00014020       ?V4ReadY@aos@shdfnd@physx@@YAMAEBT__m128@@@Z 0000000180015020 f i RTreeCooking.obj
 0001:00014040       ?V4ReadZ@aos@shdfnd@physx@@YAMAEBT__m128@@@Z 0000000180015040 f i RTreeCooking.obj
 0001:00014060       ?V4StoreA@aos@shdfnd@physx@@YAXT__m128@@PEAM@Z 0000000180015060 f i RTreeCooking.obj
 0001:00014100       ?Vec3V_From_FloatV@aos@shdfnd@physx@@YA?AT__m128@@T4@@Z 0000000180015100 f i RTreeCooking.obj
 0001:00014160       ?Vec3V_From_Vec4V@aos@shdfnd@physx@@YA?AT__m128@@T4@@Z 0000000180015160 f i RTreeCooking.obj
 0001:000141a0       ?Vec4V_From_FloatV@aos@shdfnd@physx@@YA?AT__m128@@T4@@Z 00000001800151a0 f i RTreeCooking.obj
 0001:000141c0       ?abs@intrinsics@physx@@YAMM@Z 00000001800151c0 f i RTreeCooking.obj
 0001:000141e0       ?allocate@?$AlignedAllocator@$0IA@VNonTrackingAllocator@shdfnd@physx@@@shdfnd@physx@@QEAAPEAX_KPEBDH@Z 00000001800151e0 f i RTreeCooking.obj
 0001:000142b0       ?allocate@?$Array@IVNamedAllocator@shdfnd@physx@@@shdfnd@physx@@IEAAPEAII@Z 00000001800152b0 f i RTreeCooking.obj
 0001:00014360       ?allocate@?$Array@UInterval@physx@@V?$InlineAllocator@$0CAAA@VNamedAllocator@shdfnd@physx@@@shdfnd@2@@shdfnd@physx@@IEAAPEAUInterval@3@I@Z 0000000180015360 f i RTreeCooking.obj
 0001:00014410       ?allocate@?$Array@UPxBounds3V@physx@@VNamedAllocator@shdfnd@2@@shdfnd@physx@@IEAAPEAUPxBounds3V@3@I@Z 0000000180015410 f i RTreeCooking.obj
 0001:000144c0       ?allocate@?$Array@URTreeNodeNQ@physx@@VNamedAllocator@shdfnd@2@@shdfnd@physx@@IEAAPEAURTreeNodeNQ@3@I@Z 00000001800154c0 f i RTreeCooking.obj
 0001:00014570       ?allocate@?$Array@URTreeNodeQ@Gu@physx@@VNamedAllocator@shdfnd@3@@shdfnd@physx@@IEAAPEAURTreeNodeQ@Gu@3@I@Z 0000000180015570 f i RTreeCooking.obj
 0001:00014620       ?allocate@?$Array@VPxVec3@physx@@VNamedAllocator@shdfnd@2@@shdfnd@physx@@IEAAPEAVPxVec3@3@I@Z 0000000180015620 f i RTreeCooking.obj
 0001:000146d0       ?allocate@?$InlineAllocator@$0CAAA@VNamedAllocator@shdfnd@physx@@@shdfnd@physx@@QEAAPEAXIPEBDH@Z 00000001800156d0 f i RTreeCooking.obj
 0001:00014750       ?allocate@NonTrackingAllocator@shdfnd@physx@@QEAAPEAX_KPEBDH@Z 0000000180015750 f i RTreeCooking.obj
 0001:000147e0       ?begin@?$Array@IVNamedAllocator@shdfnd@physx@@@shdfnd@physx@@QEAAPEAIXZ 00000001800157e0 f i RTreeCooking.obj
 0001:00014800       ?begin@?$Array@UPxBounds3V@physx@@VNamedAllocator@shdfnd@2@@shdfnd@physx@@QEAAPEAUPxBounds3V@3@XZ 0000000180015800 f i RTreeCooking.obj
 0001:00014820       ?begin@?$Array@VPxVec3@physx@@VNamedAllocator@shdfnd@2@@shdfnd@physx@@QEAAPEAVPxVec3@3@XZ 0000000180015820 f i RTreeCooking.obj
 0001:00014840       ?capacity@?$Array@IVNamedAllocator@shdfnd@physx@@@shdfnd@physx@@QEBAIXZ 0000000180015840 f i RTreeCooking.obj
 0001:00014860       ?capacity@?$Array@UInterval@physx@@V?$InlineAllocator@$0CAAA@VNamedAllocator@shdfnd@physx@@@shdfnd@2@@shdfnd@physx@@QEBAIXZ 0000000180015860 f i RTreeCooking.obj
 0001:00014880       ?capacity@?$Array@UPxBounds3V@physx@@VNamedAllocator@shdfnd@2@@shdfnd@physx@@QEBAIXZ 0000000180015880 f i RTreeCooking.obj
 0001:000148a0       ?capacity@?$Array@URTreeNodeNQ@physx@@VNamedAllocator@shdfnd@2@@shdfnd@physx@@QEBAIXZ 00000001800158a0 f i RTreeCooking.obj
 0001:000148c0       ?capacity@?$Array@URTreeNodeQ@Gu@physx@@VNamedAllocator@shdfnd@3@@shdfnd@physx@@QEBAIXZ 00000001800158c0 f i RTreeCooking.obj
 0001:000148e0       ?capacity@?$Array@VPxVec3@physx@@VNamedAllocator@shdfnd@2@@shdfnd@physx@@QEBAIXZ 00000001800158e0 f i RTreeCooking.obj
 0001:00014900       ?capacityIncrement@?$Array@IVNamedAllocator@shdfnd@physx@@@shdfnd@physx@@IEBAIXZ 0000000180015900 f i RTreeCooking.obj
 0001:00014950       ?capacityIncrement@?$Array@UInterval@physx@@V?$InlineAllocator@$0CAAA@VNamedAllocator@shdfnd@physx@@@shdfnd@2@@shdfnd@physx@@IEBAIXZ 0000000180015950 f i RTreeCooking.obj
 0001:000149a0       ?capacityIncrement@?$Array@UPxBounds3V@physx@@VNamedAllocator@shdfnd@2@@shdfnd@physx@@IEBAIXZ 00000001800159a0 f i RTreeCooking.obj
 0001:000149f0       ?capacityIncrement@?$Array@URTreeNodeNQ@physx@@VNamedAllocator@shdfnd@2@@shdfnd@physx@@IEBAIXZ 00000001800159f0 f i RTreeCooking.obj
 0001:00014a40       ?capacityIncrement@?$Array@URTreeNodeQ@Gu@physx@@VNamedAllocator@shdfnd@3@@shdfnd@physx@@IEBAIXZ 0000000180015a40 f i RTreeCooking.obj
 0001:00014a90       ?capacityIncrement@?$Array@VPxVec3@physx@@VNamedAllocator@shdfnd@2@@shdfnd@physx@@IEBAIXZ 0000000180015a90 f i RTreeCooking.obj
 0001:00014ae0       ?computeSA@SubSortSAH@physx@@QEAAMPEBIAEBUInterval@2@@Z 0000000180015ae0 f i RTreeCooking.obj
 0001:00014d70       ?copy@?$Array@IVNamedAllocator@shdfnd@physx@@@shdfnd@physx@@KAXPEAI0PEBI@Z 0000000180015d70 f i RTreeCooking.obj
 0001:00014e10       ?copy@?$Array@UInterval@physx@@V?$InlineAllocator@$0CAAA@VNamedAllocator@shdfnd@physx@@@shdfnd@2@@shdfnd@physx@@KAXPEAUInterval@3@0PEBU43@@Z 0000000180015e10 f i RTreeCooking.obj
 0001:00014eb0       ?copy@?$Array@UPxBounds3V@physx@@VNamedAllocator@shdfnd@2@@shdfnd@physx@@KAXPEAUPxBounds3V@3@0PEBU43@@Z 0000000180015eb0 f i RTreeCooking.obj
 0001:00014f50       ?copy@?$Array@URTreeNodeNQ@physx@@VNamedAllocator@shdfnd@2@@shdfnd@physx@@KAXPEAURTreeNodeNQ@3@0PEBU43@@Z 0000000180015f50 f i RTreeCooking.obj
 0001:00014ff0       ?copy@?$Array@URTreeNodeQ@Gu@physx@@VNamedAllocator@shdfnd@3@@shdfnd@physx@@KAXPEAURTreeNodeQ@Gu@3@0PEBU453@@Z 0000000180015ff0 f i RTreeCooking.obj
 0001:00015090       ?copy@?$Array@VPxVec3@physx@@VNamedAllocator@shdfnd@2@@shdfnd@physx@@KAXPEAVPxVec3@3@0PEBV43@@Z 0000000180016090 f i RTreeCooking.obj
 0001:00015130       ?create@?$Array@IVNamedAllocator@shdfnd@physx@@@shdfnd@physx@@KAXPEAI0AEBI@Z 0000000180016130 f i RTreeCooking.obj
 0001:000151a0       ?deallocate@?$Array@IVNamedAllocator@shdfnd@physx@@@shdfnd@physx@@IEAAXPEAX@Z 00000001800161a0 f i RTreeCooking.obj
 0001:000151d0       ?deallocate@?$Array@UInterval@physx@@V?$InlineAllocator@$0CAAA@VNamedAllocator@shdfnd@physx@@@shdfnd@2@@shdfnd@physx@@IEAAXPEAX@Z 00000001800161d0 f i RTreeCooking.obj
 0001:00015200       ?deallocate@?$Array@UPxBounds3V@physx@@VNamedAllocator@shdfnd@2@@shdfnd@physx@@IEAAXPEAX@Z 0000000180016200 f i RTreeCooking.obj
 0001:00015230       ?deallocate@?$Array@URTreeNodeNQ@physx@@VNamedAllocator@shdfnd@2@@shdfnd@physx@@IEAAXPEAX@Z 0000000180016230 f i RTreeCooking.obj
 0001:00015260       ?deallocate@?$Array@URTreeNodeQ@Gu@physx@@VNamedAllocator@shdfnd@3@@shdfnd@physx@@IEAAXPEAX@Z 0000000180016260 f i RTreeCooking.obj
 0001:00015290       ?deallocate@?$Array@VPxVec3@physx@@VNamedAllocator@shdfnd@2@@shdfnd@physx@@IEAAXPEAX@Z 0000000180016290 f i RTreeCooking.obj
 0001:000152c0       ?deallocate@?$InlineAllocator@$0CAAA@VNamedAllocator@shdfnd@physx@@@shdfnd@physx@@QEAAXPEAX@Z 00000001800162c0 f i RTreeCooking.obj
 0001:00015310       ?deallocate@NonTrackingAllocator@shdfnd@physx@@QEAAXPEAX@Z 0000000180016310 f i RTreeCooking.obj
 0001:00015360       ?destroy@?$Array@IVNamedAllocator@shdfnd@physx@@@shdfnd@physx@@KAXPEAI0@Z 0000000180016360 f i RTreeCooking.obj
 0001:000153a0       ?destroy@?$Array@UInterval@physx@@V?$InlineAllocator@$0CAAA@VNamedAllocator@shdfnd@physx@@@shdfnd@2@@shdfnd@physx@@KAXPEAUInterval@3@0@Z 00000001800163a0 f i RTreeCooking.obj
 0001:000153e0       ?destroy@?$Array@UPxBounds3V@physx@@VNamedAllocator@shdfnd@2@@shdfnd@physx@@KAXPEAUPxBounds3V@3@0@Z 00000001800163e0 f i RTreeCooking.obj
 0001:00015420       ?destroy@?$Array@URTreeNodeNQ@physx@@VNamedAllocator@shdfnd@2@@shdfnd@physx@@KAXPEAURTreeNodeNQ@3@0@Z 0000000180016420 f i RTreeCooking.obj
 0001:00015460       ?destroy@?$Array@URTreeNodeQ@Gu@physx@@VNamedAllocator@shdfnd@3@@shdfnd@physx@@KAXPEAURTreeNodeQ@Gu@3@0@Z 0000000180016460 f i RTreeCooking.obj
 0001:000154a0       ?destroy@?$Array@VPxVec3@physx@@VNamedAllocator@shdfnd@2@@shdfnd@physx@@KAXPEAVPxVec3@3@0@Z 00000001800164a0 f i RTreeCooking.obj
 0001:000154e0       ?empty@?$Stack@VNamedAllocator@shdfnd@physx@@@internal@shdfnd@physx@@QEAA_NXZ 00000001800164e0 f i RTreeCooking.obj
 0001:00015520       ?empty@PxBounds3@physx@@SA?AV12@XZ 0000000180016520 f i RTreeCooking.obj
 0001:00015590       ?getExtents@PxBounds3V@physx@@QEBA?AT__m128@@XZ 0000000180016590 f i RTreeCooking.obj
 0001:00015600       ?getMaxVec3@PxBounds3V@physx@@QEBA?BVPxVec3@2@XZ 0000000180016600 f i RTreeCooking.obj
 0001:00015670       ?getMinVec3@PxBounds3V@physx@@QEBA?BVPxVec3@2@XZ 0000000180016670 f i RTreeCooking.obj
 0001:000156d0       ?grow@?$Array@IVNamedAllocator@shdfnd@physx@@@shdfnd@physx@@IEAAXI@Z 00000001800166d0 f i RTreeCooking.obj
 0001:00015770       ?grow@?$Array@UPxBounds3V@physx@@VNamedAllocator@shdfnd@2@@shdfnd@physx@@IEAAXI@Z 0000000180016770 f i RTreeCooking.obj
 0001:00015810       ?grow@?$Array@URTreeNodeNQ@physx@@VNamedAllocator@shdfnd@2@@shdfnd@physx@@IEAAXI@Z 0000000180016810 f i RTreeCooking.obj
 0001:000158b0       ?grow@?$Array@URTreeNodeQ@Gu@physx@@VNamedAllocator@shdfnd@3@@shdfnd@physx@@IEAAXI@Z 00000001800168b0 f i RTreeCooking.obj
 0001:00015950       ?grow@?$Array@VPxVec3@physx@@VNamedAllocator@shdfnd@2@@shdfnd@physx@@IEAAXI@Z 0000000180016950 f i RTreeCooking.obj
 0001:000159f0       ?grow@?$Stack@VNamedAllocator@shdfnd@physx@@@internal@shdfnd@physx@@QEAAXXZ 00000001800169f0 f i RTreeCooking.obj
 0001:00015ad0       ?growAndPushBack@?$Array@IVNamedAllocator@shdfnd@physx@@@shdfnd@physx@@IEAAAEAIAEBI@Z 0000000180016ad0 f i RTreeCooking.obj
 0001:00015cb0       ?growAndPushBack@?$Array@UInterval@physx@@V?$InlineAllocator@$0CAAA@VNamedAllocator@shdfnd@physx@@@shdfnd@2@@shdfnd@physx@@IEAAAEAUInterval@3@AEBU43@@Z 0000000180016cb0 f i RTreeCooking.obj
 0001:00015ed0       ?growAndPushBack@?$Array@UPxBounds3V@physx@@VNamedAllocator@shdfnd@2@@shdfnd@physx@@IEAAAEAUPxBounds3V@3@AEBU43@@Z 0000000180016ed0 f i RTreeCooking.obj
 0001:00016110       ?growAndPushBack@?$Array@URTreeNodeNQ@physx@@VNamedAllocator@shdfnd@2@@shdfnd@physx@@IEAAAEAURTreeNodeNQ@3@AEBU43@@Z 0000000180017110 f i RTreeCooking.obj
 0001:00016300       ?growAndPushBack@?$Array@URTreeNodeQ@Gu@physx@@VNamedAllocator@shdfnd@3@@shdfnd@physx@@IEAAAEAURTreeNodeQ@Gu@3@AEBU453@@Z 0000000180017300 f i RTreeCooking.obj
 0001:00016540       ?growAndPushBack@?$Array@VPxVec3@physx@@VNamedAllocator@shdfnd@2@@shdfnd@physx@@IEAAAEAVPxVec3@3@AEBV43@@Z 0000000180017540 f i RTreeCooking.obj
 0001:00016730       ?include@PxBounds3V@physx@@QEAAXAEBU12@@Z 0000000180017730 f i RTreeCooking.obj
 0001:00016800       ?isAligned16@aos@shdfnd@physx@@YA_NPEAX@Z 0000000180017800 f i RTreeCooking.obj
 0001:00016840       ?isFinite@PxBounds3@physx@@QEBA_NXZ 0000000180017840 f i RTreeCooking.obj
 0001:000168b0       ?isFinite@PxVec3@physx@@QEBA_NXZ 00000001800178b0 f i RTreeCooking.obj
 0001:00016930       ?isFinite@intrinsics@physx@@YA_NM@Z 0000000180017930 f i RTreeCooking.obj
 0001:00016980       ?isInUserMemory@?$Array@IVNamedAllocator@shdfnd@physx@@@shdfnd@physx@@QEBAIXZ 0000000180017980 f i RTreeCooking.obj
 0001:000169a0       ?isInUserMemory@?$Array@UInterval@physx@@V?$InlineAllocator@$0CAAA@VNamedAllocator@shdfnd@physx@@@shdfnd@2@@shdfnd@physx@@QEBAIXZ 00000001800179a0 f i RTreeCooking.obj
 0001:000169c0       ?isInUserMemory@?$Array@UPxBounds3V@physx@@VNamedAllocator@shdfnd@2@@shdfnd@physx@@QEBAIXZ 00000001800179c0 f i RTreeCooking.obj
 0001:000169e0       ?isInUserMemory@?$Array@URTreeNodeNQ@physx@@VNamedAllocator@shdfnd@2@@shdfnd@physx@@QEBAIXZ 00000001800179e0 f i RTreeCooking.obj
 0001:00016a00       ?isInUserMemory@?$Array@URTreeNodeQ@Gu@physx@@VNamedAllocator@shdfnd@3@@shdfnd@physx@@QEBAIXZ 0000000180017a00 f i RTreeCooking.obj
 0001:00016a20       ?isInUserMemory@?$Array@VPxVec3@physx@@VNamedAllocator@shdfnd@2@@shdfnd@physx@@QEBAIXZ 0000000180017a20 f i RTreeCooking.obj
 0001:00016a40       ?isInside@PxBounds3@physx@@QEBA_NAEBV12@@Z 0000000180017a40 f i RTreeCooking.obj
 0001:00016ba0       ?isLeaf@RTreeNodeQ@Gu@physx@@QEBAIXZ 0000000180017ba0 f i RTreeCooking.obj
 0001:00016bc0       ?isValid@PxBounds3@physx@@QEBA_NXZ 0000000180017bc0 f i RTreeCooking.obj
 0001:00016cf0       ?isValidFloatV@aos@shdfnd@physx@@YA_NT__m128@@@Z 0000000180017cf0 f i RTreeCooking.obj
 0001:00016e40       ?isValidVec3V@aos@shdfnd@physx@@YA_NT__m128@@@Z 0000000180017e40 f i RTreeCooking.obj
 0001:00016eb0       ?memCopy@intrinsics@physx@@YAPEAXPEAXPEBXI@Z 0000000180017eb0 f i RTreeCooking.obj
 0001:00016ef0       ?pop@?$Stack@VNamedAllocator@shdfnd@physx@@@internal@shdfnd@physx@@QEAAXAEAH0@Z 0000000180017ef0 f i RTreeCooking.obj
 0001:00017000       ?popBack@?$Array@IVNamedAllocator@shdfnd@physx@@@shdfnd@physx@@QEAAIXZ 0000000180018000 f i RTreeCooking.obj
 0001:000170c0       ?push@?$Stack@VNamedAllocator@shdfnd@physx@@@internal@shdfnd@physx@@QEAAXHH@Z 00000001800180c0 f i RTreeCooking.obj
 0001:00017170       ?pushBack@?$Array@IVNamedAllocator@shdfnd@physx@@@shdfnd@physx@@QEAAAEAIAEBI@Z 0000000180018170 f i RTreeCooking.obj
 0001:00017240       ?pushBack@?$Array@UInterval@physx@@V?$InlineAllocator@$0CAAA@VNamedAllocator@shdfnd@physx@@@shdfnd@2@@shdfnd@physx@@QEAAAEAUInterval@3@AEBU43@@Z 0000000180018240 f i RTreeCooking.obj
 0001:00017330       ?pushBack@?$Array@UPxBounds3V@physx@@VNamedAllocator@shdfnd@2@@shdfnd@physx@@QEAAAEAUPxBounds3V@3@AEBU43@@Z 0000000180018330 f i RTreeCooking.obj
 0001:00017400       ?pushBack@?$Array@URTreeNodeNQ@physx@@VNamedAllocator@shdfnd@2@@shdfnd@physx@@QEAAAEAURTreeNodeNQ@3@AEBU43@@Z 0000000180018400 f i RTreeCooking.obj
 0001:000174d0       ?pushBack@?$Array@URTreeNodeQ@Gu@physx@@VNamedAllocator@shdfnd@3@@shdfnd@physx@@QEAAAEAURTreeNodeQ@Gu@3@AEBU453@@Z 00000001800184d0 f i RTreeCooking.obj
 0001:000175a0       ?pushBack@?$Array@VPxVec3@physx@@VNamedAllocator@shdfnd@2@@shdfnd@physx@@QEAAAEAVPxVec3@3@AEBV43@@Z 00000001800185a0 f i RTreeCooking.obj
 0001:00017670       ?recreate@?$Array@IVNamedAllocator@shdfnd@physx@@@shdfnd@physx@@IEAAXI@Z 0000000180018670 f i RTreeCooking.obj
 0001:000177d0       ?recreate@?$Array@UPxBounds3V@physx@@VNamedAllocator@shdfnd@2@@shdfnd@physx@@IEAAXI@Z 00000001800187d0 f i RTreeCooking.obj
 0001:00017930       ?recreate@?$Array@URTreeNodeNQ@physx@@VNamedAllocator@shdfnd@2@@shdfnd@physx@@IEAAXI@Z 0000000180018930 f i RTreeCooking.obj
 0001:00017a90       ?recreate@?$Array@URTreeNodeQ@Gu@physx@@VNamedAllocator@shdfnd@3@@shdfnd@physx@@IEAAXI@Z 0000000180018a90 f i RTreeCooking.obj
 0001:00017bf0       ?recreate@?$Array@VPxVec3@physx@@VNamedAllocator@shdfnd@2@@shdfnd@physx@@IEAAXI@Z 0000000180018bf0 f i RTreeCooking.obj
 0001:00017d50       ?replaceWithLast@?$Array@UInterval@physx@@V?$InlineAllocator@$0CAAA@VNamedAllocator@shdfnd@physx@@@shdfnd@2@@shdfnd@physx@@QEAAXI@Z 0000000180018d50 f i RTreeCooking.obj
 0001:00017e30       ?reserve@?$Array@IVNamedAllocator@shdfnd@physx@@@shdfnd@physx@@QEAAXI@Z 0000000180018e30 f i RTreeCooking.obj
 0001:00017e70       ?reserve@?$Array@UPxBounds3V@physx@@VNamedAllocator@shdfnd@2@@shdfnd@physx@@QEAAXI@Z 0000000180018e70 f i RTreeCooking.obj
 0001:00017eb0       ?reserve@?$Array@URTreeNodeNQ@physx@@VNamedAllocator@shdfnd@2@@shdfnd@physx@@QEAAXI@Z 0000000180018eb0 f i RTreeCooking.obj
 0001:00017ef0       ?reserve@?$Array@URTreeNodeQ@Gu@physx@@VNamedAllocator@shdfnd@3@@shdfnd@physx@@QEAAXI@Z 0000000180018ef0 f i RTreeCooking.obj
 0001:00017f30       ?reserve@?$Array@VPxVec3@physx@@VNamedAllocator@shdfnd@2@@shdfnd@physx@@QEAAXI@Z 0000000180018f30 f i RTreeCooking.obj
 0001:00017f70       ?resize@?$Array@IVNamedAllocator@shdfnd@physx@@@shdfnd@physx@@QEAAXIAEBI@Z 0000000180018f70 f i RTreeCooking.obj
 0001:00018030       ?resizeUninitialized@?$Array@URTreeNodeNQ@physx@@VNamedAllocator@shdfnd@2@@shdfnd@physx@@QEAAXI@Z 0000000180019030 f i RTreeCooking.obj
 0001:00018070       ?selectMax@intrinsics@physx@@YAMMM@Z 0000000180019070 f i RTreeCooking.obj
 0001:000180c0       ?selectMin@intrinsics@physx@@YAMMM@Z 00000001800190c0 f i RTreeCooking.obj
 0001:00018110       ?setEmpty@PxBounds3@physx@@QEAAXXZ 0000000180019110 f i RTreeCooking.obj
 0001:00018180       ?setLeaf@RTreeNodeQ@Gu@physx@@QEAAX_N@Z 0000000180019180 f i RTreeCooking.obj
 0001:000181d0       ?size@?$Array@IVNamedAllocator@shdfnd@physx@@@shdfnd@physx@@QEBAIXZ 00000001800191d0 f i RTreeCooking.obj
 0001:000181f0       ?size@?$Array@UInterval@physx@@V?$InlineAllocator@$0CAAA@VNamedAllocator@shdfnd@physx@@@shdfnd@2@@shdfnd@physx@@QEBAIXZ 00000001800191f0 f i RTreeCooking.obj
 0001:00018210       ?size@?$Array@URTreeNodeNQ@physx@@VNamedAllocator@shdfnd@2@@shdfnd@physx@@QEBAIXZ 0000000180019210 f i RTreeCooking.obj
 0001:00018230       ?size@?$Array@URTreeNodeQ@Gu@physx@@VNamedAllocator@shdfnd@3@@shdfnd@physx@@QEBAIXZ 0000000180019230 f i RTreeCooking.obj
 0001:00018250       ?size@?$Array@VPxVec3@physx@@VNamedAllocator@shdfnd@2@@shdfnd@physx@@QEBAIXZ 0000000180019250 f i RTreeCooking.obj
 0001:00018270       ?sort4@SubSortQuick@physx@@QEAAXPEIAIIAEAV?$Array@URTreeNodeNQ@physx@@VNamedAllocator@shdfnd@2@@shdfnd@2@AEAIAEAUPxBounds3V@2@I@Z 0000000180019270 f i RTreeCooking.obj
 0001:00018f20       ?sort4@SubSortSAH@physx@@QEAAXPEAIIAEAV?$Array@URTreeNodeNQ@physx@@VNamedAllocator@shdfnd@2@@shdfnd@2@AEAIIPEAURTreeNodeNQ@2@@Z 0000000180019f20 f i RTreeCooking.obj
 0001:0001a0c0       ?split@SubSortSAH@physx@@QEAAIPEAII@Z 000000018001b0c0 f i RTreeCooking.obj
 0001:0001b360       fabsf                      000000018001c360 f i RTreeCooking.obj
 0001:0001b390       ??0TriangleMeshBuilder@physx@@QEAA@AEAVTriangleMeshData@Gu@1@AEBUPxCookingParams@1@@Z 000000018001c390 f   TriangleMeshBuilder.obj
 0001:0001b3f0       ??1TriangleMeshBuilder@physx@@UEAA@XZ 000000018001c3f0 f   TriangleMeshBuilder.obj
 0001:0001b420       ?cleanMesh@TriangleMeshBuilder@physx@@QEAA_N_NPEAW4Enum@PxTriangleMeshCookingResult@2@@Z 000000018001c420 f   TriangleMeshBuilder.obj
 0001:0001bcb0       ?remapTopology@TriangleMeshBuilder@physx@@QEAAXPEBI@Z 000000018001ccb0 f   TriangleMeshBuilder.obj
 0001:0001c0d0       ?createSharedEdgeData@TriangleMeshBuilder@physx@@QEAAX_N0@Z 000000018001d0d0 f   TriangleMeshBuilder.obj
 0001:0001c990       ?recordTriangleIndices@TriangleMeshBuilder@physx@@QEAAXXZ 000000018001d990 f   TriangleMeshBuilder.obj
 0001:0001cb90       ?createGRBMidPhaseAndData@TriangleMeshBuilder@physx@@QEAAXI@Z 000000018001db90 f   TriangleMeshBuilder.obj
 0001:0001cef0       ?createGRBData@TriangleMeshBuilder@physx@@QEAAXXZ 000000018001def0 f   TriangleMeshBuilder.obj
 0001:0001d090       ?loadFromDesc@TriangleMeshBuilder@physx@@QEAA_NAEBVPxTriangleMeshDesc@2@PEAW4Enum@PxTriangleMeshCookingResult@2@_N@Z 000000018001e090 f   TriangleMeshBuilder.obj
 0001:0001d380       ?save@TriangleMeshBuilder@physx@@QEBA_NAEAVPxOutputStream@2@_NAEBUPxCookingParams@2@@Z 000000018001e380 f   TriangleMeshBuilder.obj
 0001:0001dcb0       ?checkMeshIndicesSize@TriangleMeshBuilder@physx@@QEAAXXZ 000000018001ecb0 f   TriangleMeshBuilder.obj
 0001:0001deb0       ?computeLocalBounds@TriangleMeshBuilder@physx@@IEAAXXZ 000000018001eeb0 f   TriangleMeshBuilder.obj
 0001:0001dfc0       ?importMesh@TriangleMeshBuilder@physx@@IEAA_NAEBVPxTriangleMeshDesc@2@AEBUPxCookingParams@2@PEAW4Enum@PxTriangleMeshCookingResult@2@_N@Z 000000018001efc0 f   TriangleMeshBuilder.obj
 0001:0001e650       ?releaseEdgeList@TriangleMeshBuilder@physx@@IEAAXXZ 000000018001f650 f   TriangleMeshBuilder.obj
 0001:0001e6b0       ?createEdgeList@TriangleMeshBuilder@physx@@IEAAXXZ 000000018001f6b0 f   TriangleMeshBuilder.obj
 0001:0001e830       ??0RTreeTriangleMeshBuilder@physx@@QEAA@AEBUPxCookingParams@1@@Z 000000018001f830 f   TriangleMeshBuilder.obj
 0001:0001e890       ??1RTreeTriangleMeshBuilder@physx@@UEAA@XZ 000000018001f890 f   TriangleMeshBuilder.obj
 0001:0001e8d0       ?createMidPhaseStructure@RTreeTriangleMeshBuilder@physx@@UEAAXXZ 000000018001f8d0 f   TriangleMeshBuilder.obj
 0001:0001eb80       ?saveMidPhaseStructure@RTreeTriangleMeshBuilder@physx@@UEBAXAEAVPxOutputStream@2@_N@Z 000000018001fb80 f   TriangleMeshBuilder.obj
 0001:0001ee70       ??0BV4TriangleMeshBuilder@physx@@QEAA@AEBUPxCookingParams@1@@Z 000000018001fe70 f   TriangleMeshBuilder.obj
 0001:0001eed0       ??1BV4TriangleMeshBuilder@physx@@UEAA@XZ 000000018001fed0 f   TriangleMeshBuilder.obj
 0001:0001ef10       ?createMidPhaseStructure@BV4TriangleMeshBuilder@physx@@UEAAXXZ 000000018001ff10 f   TriangleMeshBuilder.obj
 0001:0001f3c0       ?saveMidPhaseStructure@BV4TriangleMeshBuilder@physx@@UEBAXAEAVPxOutputStream@2@_N@Z 00000001800203c0 f   TriangleMeshBuilder.obj
 0001:0001f600       ?onMeshIndexFormatChange@BV4TriangleMeshBuilder@physx@@UEAAXXZ 0000000180020600 f   TriangleMeshBuilder.obj
 0001:0001f690       ?createMidPhaseStructure@BV32TriangleMeshBuilder@physx@@SAXAEBUPxCookingParams@2@AEAVTriangleMeshData@Gu@2@AEAVBV32Tree@52@@Z 0000000180020690 f   TriangleMeshBuilder.obj
 0001:0001f980       ?saveMidPhaseStructure@BV32TriangleMeshBuilder@physx@@SAXPEAVBV32Tree@Gu@2@AEAVPxOutputStream@2@_N@Z 0000000180020980 f   TriangleMeshBuilder.obj
 0001:00020420       ?findSharpVertices@GrbTrimeshCookerHelper@physx@@YAXAEAV?$Array@USortedNeighbor@GrbTrimeshCookerHelper@physx@@VNamedAllocator@shdfnd@3@@shdfnd@2@AEAV?$Array@USharpEdgeRange@GrbTrimeshCookerHelper@physx@@VNamedAllocator@shdfnd@3@@42@PEBUuint3@2@PEBUuint4@2@II@Z 0000000180021420 f   TriangleMeshBuilder.obj
 0001:00020930       ?buildVertexConnectionNew_p1@GrbTrimeshCookerHelper@physx@@YAIAEAV?$Array@USortedNeighbor@GrbTrimeshCookerHelper@physx@@VNamedAllocator@shdfnd@3@@shdfnd@2@AEAV?$Array@USharpEdgeRange@GrbTrimeshCookerHelper@physx@@VNamedAllocator@shdfnd@3@@42@PEBUuint3@2@PEBUuint4@2@II@Z 0000000180021930 f   TriangleMeshBuilder.obj
 0001:000209d0       ?buildVertexConnectionNew_p2@GrbTrimeshCookerHelper@physx@@YAXPEAI00AEAV?$Array@USortedNeighbor@GrbTrimeshCookerHelper@physx@@VNamedAllocator@shdfnd@3@@shdfnd@2@AEAV?$Array@USharpEdgeRange@GrbTrimeshCookerHelper@physx@@VNamedAllocator@shdfnd@3@@42@I@Z 00000001800219d0 f   TriangleMeshBuilder.obj
 0001:00022070       ??$?2V?$ReflectionAllocator@VBV32Tree@Gu@physx@@@shdfnd@physx@@@UserAllocated@shdfnd@physx@@SAPEAX_KV?$ReflectionAllocator@VBV32Tree@Gu@physx@@@12@PEBDH@Z 0000000180023070 f i TriangleMeshBuilder.obj
 0001:000220c0       ??$?2V?$ReflectionAllocator@VEdgeListBuilder@Gu@physx@@@shdfnd@physx@@@UserAllocated@shdfnd@physx@@SAPEAX_KV?$ReflectionAllocator@VEdgeListBuilder@Gu@physx@@@12@PEBDH@Z 00000001800230c0 f i TriangleMeshBuilder.obj
 0001:00022110       ??$?_UE@@YAPEAX_KV?$ReflectionAllocator@E@shdfnd@physx@@PEBDH@Z 0000000180023110 f i TriangleMeshBuilder.obj
 0001:00022160       ??$?_UG@@YAPEAX_KV?$ReflectionAllocator@G@shdfnd@physx@@PEBDH@Z 0000000180023160 f i TriangleMeshBuilder.obj
 0001:000221b0       ??$?_UI@@YAPEAX_KV?$ReflectionAllocator@I@shdfnd@physx@@PEBDH@Z 00000001800231b0 f i TriangleMeshBuilder.obj
 0001:00022200       ??$PX_UNUSED@U?$TriangleT@I@Gu@physx@@@@YAXAEBU?$TriangleT@I@Gu@physx@@@Z 0000000180023200 f i TriangleMeshBuilder.obj
 0001:00022210       ??$median3@UEdgeTriLookup@physx@@$$CBU?$Less@UEdgeTriLookup@physx@@@shdfnd@2@@internal@shdfnd@physx@@YAXPEAUEdgeTriLookup@2@HHAEBU?$Less@UEdgeTriLookup@physx@@@12@@Z 0000000180023210 f i TriangleMeshBuilder.obj
 0001:00022430       ??$median3@USortedNeighbor@GrbTrimeshCookerHelper@physx@@$$CBU?$Less@USortedNeighbor@GrbTrimeshCookerHelper@physx@@@shdfnd@3@@internal@shdfnd@physx@@YAXPEAUSortedNeighbor@GrbTrimeshCookerHelper@2@HHAEBU?$Less@USortedNeighbor@GrbTrimeshCookerHelper@physx@@@12@@Z 0000000180023430 f i TriangleMeshBuilder.obj
 0001:00022650       ??$partition@UEdgeTriLookup@physx@@$$CBU?$Less@UEdgeTriLookup@physx@@@shdfnd@2@@internal@shdfnd@physx@@YAHPEAUEdgeTriLookup@2@HHAEBU?$Less@UEdgeTriLookup@physx@@@12@@Z 0000000180023650 f i TriangleMeshBuilder.obj
 0001:000228f0       ??$partition@USortedNeighbor@GrbTrimeshCookerHelper@physx@@$$CBU?$Less@USortedNeighbor@GrbTrimeshCookerHelper@physx@@@shdfnd@3@@internal@shdfnd@physx@@YAHPEAUSortedNeighbor@GrbTrimeshCookerHelper@2@HHAEBU?$Less@USortedNeighbor@GrbTrimeshCookerHelper@physx@@@12@@Z 00000001800238f0 f i TriangleMeshBuilder.obj
 0001:00022b90       ??$smallSort@UEdgeTriLookup@physx@@$$CBU?$Less@UEdgeTriLookup@physx@@@shdfnd@2@@internal@shdfnd@physx@@YAXPEAUEdgeTriLookup@2@HHAEBU?$Less@UEdgeTriLookup@physx@@@12@@Z 0000000180023b90 f i TriangleMeshBuilder.obj
 0001:00022cc0       ??$smallSort@USortedNeighbor@GrbTrimeshCookerHelper@physx@@$$CBU?$Less@USortedNeighbor@GrbTrimeshCookerHelper@physx@@@shdfnd@3@@internal@shdfnd@physx@@YAXPEAUSortedNeighbor@GrbTrimeshCookerHelper@2@HHAEBU?$Less@USortedNeighbor@GrbTrimeshCookerHelper@physx@@@12@@Z 0000000180023cc0 f i TriangleMeshBuilder.obj
 0001:00022df0       ??$sort@UEdgeTriLookup@physx@@@shdfnd@physx@@YAXPEAUEdgeTriLookup@1@I@Z 0000000180023df0 f i TriangleMeshBuilder.obj
 0001:00022e50       ??$sort@UEdgeTriLookup@physx@@U?$Less@UEdgeTriLookup@physx@@@shdfnd@2@VNamedAllocator@42@@shdfnd@physx@@YAXPEAUEdgeTriLookup@1@IAEBU?$Less@UEdgeTriLookup@physx@@@01@AEBVNamedAllocator@01@I@Z 0000000180023e50 f i TriangleMeshBuilder.obj
 0001:00023210       ??$sort@USortedNeighbor@GrbTrimeshCookerHelper@physx@@@shdfnd@physx@@YAXPEAUSortedNeighbor@GrbTrimeshCookerHelper@1@I@Z 0000000180024210 f i TriangleMeshBuilder.obj
 0001:00023270       ??$sort@USortedNeighbor@GrbTrimeshCookerHelper@physx@@U?$Less@USortedNeighbor@GrbTrimeshCookerHelper@physx@@@shdfnd@3@VNamedAllocator@53@@shdfnd@physx@@YAXPEAUSortedNeighbor@GrbTrimeshCookerHelper@1@IAEBU?$Less@USortedNeighbor@GrbTrimeshCookerHelper@physx@@@01@AEBVNamedAllocator@01@I@Z 0000000180024270 f i TriangleMeshBuilder.obj
 0001:00023630       ??$swap@UEdgeTriLookup@physx@@@shdfnd@physx@@YAXAEAUEdgeTriLookup@1@0@Z 0000000180024630 f i TriangleMeshBuilder.obj
 0001:000236a0       ??$swap@USortedNeighbor@GrbTrimeshCookerHelper@physx@@@shdfnd@physx@@YAXAEAUSortedNeighbor@GrbTrimeshCookerHelper@1@0@Z 00000001800246a0 f i TriangleMeshBuilder.obj
 0001:00023710       ??0?$Array@IVNamedAllocator@shdfnd@physx@@@shdfnd@physx@@QEAA@AEBVNamedAllocator@12@@Z 0000000180024710 f i TriangleMeshBuilder.obj
 0001:00023770       ??0?$PxFlags@W4Enum@PxMeshFlag@physx@@G@physx@@QEAA@AEBV01@@Z 0000000180024770 f i TriangleMeshBuilder.obj
 0001:000237a0       ??0?$PxFlags@W4Enum@PxMeshFlag@physx@@G@physx@@QEAA@W4Enum@PxMeshFlag@1@@Z 00000001800247a0 f i TriangleMeshBuilder.obj
 0001:000237d0       ??0?$PxFlags@W4Enum@PxMeshFlag@physx@@G@physx@@QEAA@XZ 00000001800247d0 f i TriangleMeshBuilder.obj
 0001:000237f0       ??0?$PxFlags@W4Enum@PxMeshPreprocessingFlag@physx@@I@physx@@QEAA@AEBV01@@Z 00000001800247f0 f i TriangleMeshBuilder.obj
 0001:00023820       ??0?$ReflectionAllocator@E@shdfnd@physx@@QEAA@PEBD@Z 0000000180024820 f i TriangleMeshBuilder.obj
 0001:00023840       ??0?$ReflectionAllocator@G@shdfnd@physx@@QEAA@PEBD@Z 0000000180024840 f i TriangleMeshBuilder.obj
 0001:00023860       ??0?$ReflectionAllocator@I@shdfnd@physx@@QEAA@PEBD@Z 0000000180024860 f i TriangleMeshBuilder.obj
 0001:00023880       ??0?$ReflectionAllocator@VBV32Tree@Gu@physx@@@shdfnd@physx@@QEAA@PEBD@Z 0000000180024880 f i TriangleMeshBuilder.obj
 0001:000238a0       ??0?$ReflectionAllocator@VEdgeListBuilder@Gu@physx@@@shdfnd@physx@@QEAA@PEBD@Z 00000001800248a0 f i TriangleMeshBuilder.obj
 0001:000238c0       ??0BV4TriangleData@Gu@physx@@QEAA@XZ 00000001800248c0 f i TriangleMeshBuilder.obj
 0001:00023940       ??0EDGELISTCREATE@Gu@physx@@QEAA@XZ 0000000180024940 f i TriangleMeshBuilder.obj
 0001:000239c0       ??0PxPlane@physx@@QEAA@AEBVPxVec3@1@0@Z 00000001800249c0 f i TriangleMeshBuilder.obj
 0001:00023a30       ??0PxSimpleTriangleMesh@physx@@QEAA@AEBV01@@Z 0000000180024a30 f i TriangleMeshBuilder.obj
 0001:00023ab0       ??0PxTriangleMeshDesc@physx@@QEAA@AEBV01@@Z 0000000180024ab0 f i TriangleMeshBuilder.obj
 0001:00023b10       ??0PxVec4@physx@@QEAA@XZ   0000000180024b10 f i TriangleMeshBuilder.obj
 0001:00023b20       ??0RTree@Gu@physx@@QEAA@XZ 0000000180024b20 f i TriangleMeshBuilder.obj
 0001:00023be0       ??0RTreeCookerRemap@physx@@QEAA@I@Z 0000000180024be0 f i TriangleMeshBuilder.obj
 0001:00023c30       ??0RTreeTriangleData@Gu@physx@@QEAA@XZ 0000000180024c30 f i TriangleMeshBuilder.obj
 0001:00023c90       ??0RemapCallback@RTreeCooker@physx@@QEAA@XZ 0000000180024c90 f i TriangleMeshBuilder.obj
 0001:00023cb0       ??0SharpEdgeRange@GrbTrimeshCookerHelper@physx@@QEAA@II@Z 0000000180024cb0 f i TriangleMeshBuilder.obj
 0001:00023cf0       ??0SharpEdgeRange@GrbTrimeshCookerHelper@physx@@QEAA@XZ 0000000180024cf0 f i TriangleMeshBuilder.obj
 0001:00023d20       ??0SortedNeighbor@GrbTrimeshCookerHelper@physx@@QEAA@II_N@Z 0000000180024d20 f i TriangleMeshBuilder.obj
 0001:00023d70       ??0TriangleMeshData@Gu@physx@@QEAA@XZ 0000000180024d70 f i TriangleMeshBuilder.obj
 0001:00023e90       ??1BV4TriangleData@Gu@physx@@UEAA@XZ 0000000180024e90 f i TriangleMeshBuilder.obj
 0001:00023f00       ??1RTree@Gu@physx@@QEAA@XZ 0000000180024f00 f i TriangleMeshBuilder.obj
 0001:00023f20       ??1RTreeCookerRemap@physx@@UEAA@XZ 0000000180024f20 f i TriangleMeshBuilder.obj
 0001:00023f40       ??1RTreeTriangleData@Gu@physx@@UEAA@XZ 0000000180024f40 f i TriangleMeshBuilder.obj
 0001:00023f90       ??1RemapCallback@RTreeCooker@physx@@UEAA@XZ 0000000180024f90 f i TriangleMeshBuilder.obj
 0001:00023fb0       ??1TriangleMeshData@Gu@physx@@UEAA@XZ 0000000180024fb0 f i TriangleMeshBuilder.obj
 0001:00024280       ??3UserAllocated@shdfnd@physx@@SAXPEAX@Z 0000000180025280 f i TriangleMeshBuilder.obj
 0001:000242b0       ??A?$Array@USharpEdgeRange@GrbTrimeshCookerHelper@physx@@VNamedAllocator@shdfnd@3@@shdfnd@physx@@QEAAAEAUSharpEdgeRange@GrbTrimeshCookerHelper@2@I@Z 00000001800252b0 f i TriangleMeshBuilder.obj
 0001:00024350       ??A?$Array@USortedNeighbor@GrbTrimeshCookerHelper@physx@@VNamedAllocator@shdfnd@3@@shdfnd@physx@@QEAAAEAUSortedNeighbor@GrbTrimeshCookerHelper@2@I@Z 0000000180025350 f i TriangleMeshBuilder.obj
 0001:000243f0       ??APxVec3@physx@@QEAAAEAMI@Z 00000001800253f0 f i TriangleMeshBuilder.obj
 0001:00024480       ??B?$PxFlags@W4Enum@PxMeshFlag@physx@@G@physx@@QEBA_NXZ 0000000180025480 f i TriangleMeshBuilder.obj
 0001:000244c0       ??B?$PxFlags@W4Enum@PxMeshPreprocessingFlag@physx@@I@physx@@QEBA_NXZ 00000001800254c0 f i TriangleMeshBuilder.obj
 0001:000244f0       ??DPxVec3@physx@@QEBA?AV01@M@Z 00000001800254f0 f i TriangleMeshBuilder.obj
 0001:00024580       ??GPxVec3@physx@@QEBA?AV01@AEBV01@@Z 0000000180025580 f i TriangleMeshBuilder.obj
 0001:00024620       ??I?$PxFlags@W4Enum@PxMeshFlag@physx@@G@physx@@QEBA?AV01@W4Enum@PxMeshFlag@1@@Z 0000000180025620 f i TriangleMeshBuilder.obj
 0001:00024690       ??I?$PxFlags@W4Enum@PxMeshPreprocessingFlag@physx@@I@physx@@QEBA?AV01@W4Enum@PxMeshPreprocessingFlag@1@@Z 0000000180025690 f i TriangleMeshBuilder.obj
 0001:000246f0       ??MEdgeTriLookup@physx@@QEBA_NAEBU01@@Z 00000001800256f0 f i TriangleMeshBuilder.obj
 0001:00024760       ??MSortedNeighbor@GrbTrimeshCookerHelper@physx@@QEBA_NAEBU012@@Z 0000000180025760 f i TriangleMeshBuilder.obj
 0001:00024820       ??NEdgeTriLookup@physx@@QEBA_NAEBU01@@Z 0000000180025820 f i TriangleMeshBuilder.obj
 0001:00024890       ??R?$Less@UEdgeTriLookup@physx@@@shdfnd@physx@@QEBA_NAEBUEdgeTriLookup@2@0@Z 0000000180025890 f i TriangleMeshBuilder.obj
 0001:000248c0       ??R?$Less@USortedNeighbor@GrbTrimeshCookerHelper@physx@@@shdfnd@physx@@QEBA_NAEBUSortedNeighbor@GrbTrimeshCookerHelper@2@0@Z 00000001800258c0 f i TriangleMeshBuilder.obj
 0001:000248f0       ??S?$PxFlags@W4Enum@PxMeshFlag@physx@@G@physx@@QEBA?AV01@XZ 00000001800258f0 f i TriangleMeshBuilder.obj
 0001:00024940       ??Sphysx@@YA?AV?$PxFlags@W4Enum@PxMeshFlag@physx@@G@0@W4Enum@PxMeshFlag@0@@Z 0000000180025940 f i TriangleMeshBuilder.obj
 0001:00024980       ??_4?$PxFlags@W4Enum@PxMeshFlag@physx@@G@physx@@QEAAAEAV01@AEBV01@@Z 0000000180025980 f i TriangleMeshBuilder.obj
 0001:000249c0       ??_GBV32Tree@Gu@physx@@QEAAPEAXI@Z 00000001800259c0 f i TriangleMeshBuilder.obj
 0001:00024a30       ??_EBV4TriangleData@Gu@physx@@UEAAPEAXI@Z 0000000180025a30 f i TriangleMeshBuilder.obj
 0001:00024a30       ??_GBV4TriangleData@Gu@physx@@UEAAPEAXI@Z 0000000180025a30 f i TriangleMeshBuilder.obj
 0001:00024aa0       ??_EBV4TriangleMeshBuilder@physx@@UEAAPEAXI@Z 0000000180025aa0 f i TriangleMeshBuilder.obj
 0001:00024aa0       ??_GBV4TriangleMeshBuilder@physx@@UEAAPEAXI@Z 0000000180025aa0 f i TriangleMeshBuilder.obj
 0001:00024af0       ??_GEdgeListBuilder@Gu@physx@@QEAAPEAXI@Z 0000000180025af0 f i TriangleMeshBuilder.obj
 0001:00024b60       ??_ERTreeCookerRemap@physx@@UEAAPEAXI@Z 0000000180025b60 f i TriangleMeshBuilder.obj
 0001:00024b60       ??_GRTreeCookerRemap@physx@@UEAAPEAXI@Z 0000000180025b60 f i TriangleMeshBuilder.obj
 0001:00024bb0       ??_ERTreeTriangleData@Gu@physx@@UEAAPEAXI@Z 0000000180025bb0 f i TriangleMeshBuilder.obj
 0001:00024bb0       ??_GRTreeTriangleData@Gu@physx@@UEAAPEAXI@Z 0000000180025bb0 f i TriangleMeshBuilder.obj
 0001:00024c20       ??_ERTreeTriangleMeshBuilder@physx@@UEAAPEAXI@Z 0000000180025c20 f i TriangleMeshBuilder.obj
 0001:00024c20       ??_GRTreeTriangleMeshBuilder@physx@@UEAAPEAXI@Z 0000000180025c20 f i TriangleMeshBuilder.obj
 0001:00024c70       ??_ERemapCallback@RTreeCooker@physx@@UEAAPEAXI@Z 0000000180025c70 f i TriangleMeshBuilder.obj
 0001:00024c70       ??_GRemapCallback@RTreeCooker@physx@@UEAAPEAXI@Z 0000000180025c70 f i TriangleMeshBuilder.obj
 0001:00024cc0       ??_ETriangleMeshBuilder@physx@@UEAAPEAXI@Z 0000000180025cc0 f i TriangleMeshBuilder.obj
 0001:00024cc0       ??_GTriangleMeshBuilder@physx@@UEAAPEAXI@Z 0000000180025cc0 f i TriangleMeshBuilder.obj
 0001:00024d10       ??_ETriangleMeshData@Gu@physx@@UEAAPEAXI@Z 0000000180025d10 f i TriangleMeshBuilder.obj
 0001:00024d10       ??_GTriangleMeshData@Gu@physx@@UEAAPEAXI@Z 0000000180025d10 f i TriangleMeshBuilder.obj
 0001:00024d80       ?HasActiveEdge01@EdgeTriangleAC@Gu@physx@@SAHAEBUEdgeTriangleData@23@@Z 0000000180025d80 f i TriangleMeshBuilder.obj
 0001:00024db0       ?HasActiveEdge12@EdgeTriangleAC@Gu@physx@@SAHAEBUEdgeTriangleData@23@@Z 0000000180025db0 f i TriangleMeshBuilder.obj
 0001:00024de0       ?HasActiveEdge20@EdgeTriangleAC@Gu@physx@@SAHAEBUEdgeTriangleData@23@@Z 0000000180025de0 f i TriangleMeshBuilder.obj
 0001:00024e10       ?LeafSetData@Gu@physx@@YAIII@Z 0000000180025e10 f i TriangleMeshBuilder.obj
 0001:00024f20       ?PxRecipSqrt@physx@@YAMM@Z 0000000180025f20 f i TriangleMeshBuilder.obj
 0001:00024f40       ?SetData@LeafTriangles@Gu@physx@@QEAAXII@Z 0000000180025f40 f i TriangleMeshBuilder.obj
 0001:00024f80       ?WriteDwordBuffer@physx@@YAXPEBII_NAEAVPxOutputStream@1@@Z 0000000180025f80 f i TriangleMeshBuilder.obj
 0001:00024fd0       ?allocate@?$Array@USharpEdgeRange@GrbTrimeshCookerHelper@physx@@VNamedAllocator@shdfnd@3@@shdfnd@physx@@IEAAPEAUSharpEdgeRange@GrbTrimeshCookerHelper@3@I@Z 0000000180025fd0 f i TriangleMeshBuilder.obj
 0001:00025080       ?allocate@?$Array@USortedNeighbor@GrbTrimeshCookerHelper@physx@@VNamedAllocator@shdfnd@3@@shdfnd@physx@@IEAAPEAUSortedNeighbor@GrbTrimeshCookerHelper@3@I@Z 0000000180026080 f i TriangleMeshBuilder.obj
 0001:00025130       ?allocate@?$ReflectionAllocator@E@shdfnd@physx@@QEAAPEAX_KPEBDH@Z 0000000180026130 f i TriangleMeshBuilder.obj
 0001:000251d0       ?allocate@?$ReflectionAllocator@G@shdfnd@physx@@QEAAPEAX_KPEBDH@Z 00000001800261d0 f i TriangleMeshBuilder.obj
 0001:00025270       ?allocate@?$ReflectionAllocator@I@shdfnd@physx@@QEAAPEAX_KPEBDH@Z 0000000180026270 f i TriangleMeshBuilder.obj
 0001:00025310       ?allocate@?$ReflectionAllocator@VBV32Tree@Gu@physx@@@shdfnd@physx@@QEAAPEAX_KPEBDH@Z 0000000180026310 f i TriangleMeshBuilder.obj
 0001:000253b0       ?allocate@?$ReflectionAllocator@VEdgeListBuilder@Gu@physx@@@shdfnd@physx@@QEAAPEAX_KPEBDH@Z 00000001800263b0 f i TriangleMeshBuilder.obj
 0001:00025450       ?allocateMaterials@TriangleMeshData@Gu@physx@@QEAAPEAGXZ 0000000180026450 f i TriangleMeshBuilder.obj
 0001:000255c0       ?allocateTriangles@TriangleMeshData@Gu@physx@@QEAAPEAXI_NI@Z 00000001800265c0 f i TriangleMeshBuilder.obj
 0001:00025890       ?allocateVertices@TriangleMeshData@Gu@physx@@QEAAPEAVPxVec3@3@I@Z 0000000180026890 f i TriangleMeshBuilder.obj
 0001:000259a0       ?begin@?$Array@USortedNeighbor@GrbTrimeshCookerHelper@physx@@VNamedAllocator@shdfnd@3@@shdfnd@physx@@QEAAPEAUSortedNeighbor@GrbTrimeshCookerHelper@3@XZ 00000001800269a0 f i TriangleMeshBuilder.obj
 0001:000259c0       ?capacity@?$Array@USharpEdgeRange@GrbTrimeshCookerHelper@physx@@VNamedAllocator@shdfnd@3@@shdfnd@physx@@QEBAIXZ 00000001800269c0 f i TriangleMeshBuilder.obj
 0001:000259e0       ?capacity@?$Array@USortedNeighbor@GrbTrimeshCookerHelper@physx@@VNamedAllocator@shdfnd@3@@shdfnd@physx@@QEBAIXZ 00000001800269e0 f i TriangleMeshBuilder.obj
 0001:00025a00       ?capacityIncrement@?$Array@USortedNeighbor@GrbTrimeshCookerHelper@physx@@VNamedAllocator@shdfnd@3@@shdfnd@physx@@IEBAIXZ 0000000180026a00 f i TriangleMeshBuilder.obj
 0001:00025a50       ?copy@?$Array@USharpEdgeRange@GrbTrimeshCookerHelper@physx@@VNamedAllocator@shdfnd@3@@shdfnd@physx@@KAXPEAUSharpEdgeRange@GrbTrimeshCookerHelper@3@0PEBU453@@Z 0000000180026a50 f i TriangleMeshBuilder.obj
 0001:00025af0       ?copy@?$Array@USortedNeighbor@GrbTrimeshCookerHelper@physx@@VNamedAllocator@shdfnd@3@@shdfnd@physx@@KAXPEAUSortedNeighbor@GrbTrimeshCookerHelper@3@0PEBU453@@Z 0000000180026af0 f i TriangleMeshBuilder.obj
 0001:00025b90       ?create@?$Array@USharpEdgeRange@GrbTrimeshCookerHelper@physx@@VNamedAllocator@shdfnd@3@@shdfnd@physx@@KAXPEAUSharpEdgeRange@GrbTrimeshCookerHelper@3@0AEBU453@@Z 0000000180026b90 f i TriangleMeshBuilder.obj
 0001:00025c00       ?cross@PxVec3@physx@@QEBA?AV12@AEBV12@@Z 0000000180026c00 f i TriangleMeshBuilder.obj
 0001:00025cf0       ?deallocate@?$AlignedAllocator@$0IA@VNonTrackingAllocator@shdfnd@physx@@@shdfnd@physx@@QEAAXPEAX@Z 0000000180026cf0 f i TriangleMeshBuilder.obj
 0001:00025d60       ?deallocate@?$Array@USharpEdgeRange@GrbTrimeshCookerHelper@physx@@VNamedAllocator@shdfnd@3@@shdfnd@physx@@IEAAXPEAX@Z 0000000180026d60 f i TriangleMeshBuilder.obj
 0001:00025d90       ?deallocate@?$Array@USortedNeighbor@GrbTrimeshCookerHelper@physx@@VNamedAllocator@shdfnd@3@@shdfnd@physx@@IEAAXPEAX@Z 0000000180026d90 f i TriangleMeshBuilder.obj
 0001:00025dc0       ?destroy@?$Array@USharpEdgeRange@GrbTrimeshCookerHelper@physx@@VNamedAllocator@shdfnd@3@@shdfnd@physx@@KAXPEAUSharpEdgeRange@GrbTrimeshCookerHelper@3@0@Z 0000000180026dc0 f i TriangleMeshBuilder.obj
 0001:00025e00       ?destroy@?$Array@USortedNeighbor@GrbTrimeshCookerHelper@physx@@VNamedAllocator@shdfnd@3@@shdfnd@physx@@KAXPEAUSortedNeighbor@GrbTrimeshCookerHelper@3@0@Z 0000000180026e00 f i TriangleMeshBuilder.obj
 0001:00025e40       ?distance@PxPlane@physx@@QEBAMAEBVPxVec3@2@@Z 0000000180026e40 f i TriangleMeshBuilder.obj
 0001:00025e80       ?dot@PxVec3@physx@@QEBAMAEBV12@@Z 0000000180026e80 f i TriangleMeshBuilder.obj
 0001:00025ee0       ?findEdgeCCW@?$TriangleT@I@Gu@physx@@QEBAEII@Z 0000000180026ee0 f i TriangleMeshBuilder.obj
 0001:00026090       ?gatherStrided@Cooking@physx@@SAXPEBXPEAXIII@Z 0000000180027090 f i TriangleMeshBuilder.obj
 0001:00026140       ?getEdgeToTriangles@EdgeList@Gu@physx@@QEBAPEBUEdgeDescData@23@XZ 0000000180027140 f i TriangleMeshBuilder.obj
 0001:00026160       ?getEdgeTriangle@EdgeList@Gu@physx@@QEBAAEBUEdgeTriangleData@23@I@Z 0000000180027160 f i TriangleMeshBuilder.obj
 0001:00026190       ?getEdges@EdgeList@Gu@physx@@QEBAPEBUEdgeData@23@XZ 0000000180027190 f i TriangleMeshBuilder.obj
 0001:000261b0       ?getFacesByEdges@EdgeList@Gu@physx@@QEBAPEBIXZ 00000001800271b0 f i TriangleMeshBuilder.obj
 0001:000261d0       ?getFoundation@shdfnd@physx@@YAAEAVFoundation@12@XZ 00000001800271d0 f i TriangleMeshBuilder.obj
 0001:000261f0       ?getMidphaseID@BV4TriangleMeshBuilder@physx@@UEBA?AW4Enum@PxMeshMidPhase@2@XZ 00000001800271f0 f i TriangleMeshBuilder.obj
 0001:00026200       ?getMidphaseID@RTreeTriangleMeshBuilder@physx@@UEBA?AW4Enum@PxMeshMidPhase@2@XZ 0000000180027200 f i TriangleMeshBuilder.obj
 0001:00026210       ?getName@?$ReflectionAllocator@E@shdfnd@physx@@CAPEBDXZ 0000000180027210 f i TriangleMeshBuilder.obj
 0001:00026260       ?getName@?$ReflectionAllocator@G@shdfnd@physx@@CAPEBDXZ 0000000180027260 f i TriangleMeshBuilder.obj
 0001:000262b0       ?getName@?$ReflectionAllocator@I@shdfnd@physx@@CAPEBDXZ 00000001800272b0 f i TriangleMeshBuilder.obj
 0001:00026300       ?getName@?$ReflectionAllocator@VBV32Tree@Gu@physx@@@shdfnd@physx@@CAPEBDXZ 0000000180027300 f i TriangleMeshBuilder.obj
 0001:00026350       ?getName@?$ReflectionAllocator@VEdgeListBuilder@Gu@physx@@@shdfnd@physx@@CAPEBDXZ 0000000180027350 f i TriangleMeshBuilder.obj
 0001:000263a0       ?getNbEdges@EdgeList@Gu@physx@@QEBAIXZ 00000001800273a0 f i TriangleMeshBuilder.obj
 0001:000263b0       ?getNbFaces@EdgeList@Gu@physx@@QEBAIXZ 00000001800273b0 f i TriangleMeshBuilder.obj
 0001:000263d0       ?getNormalized@PxVec3@physx@@QEBA?AV12@XZ 00000001800273d0 f i TriangleMeshBuilder.obj
 0001:00026480       ?getRemap@SourceMesh@Gu@physx@@QEBAPEBIXZ 0000000180027480 f i TriangleMeshBuilder.obj
 0001:000264a0       ?getType@PxMidphaseDesc@physx@@QEBA?AW4Enum@PxMeshMidPhase@2@XZ 00000001800274a0 f i TriangleMeshBuilder.obj
 0001:000264c0       ?grow@?$Array@USharpEdgeRange@GrbTrimeshCookerHelper@physx@@VNamedAllocator@shdfnd@3@@shdfnd@physx@@IEAAXI@Z 00000001800274c0 f i TriangleMeshBuilder.obj
 0001:00026560       ?grow@?$Array@USortedNeighbor@GrbTrimeshCookerHelper@physx@@VNamedAllocator@shdfnd@3@@shdfnd@physx@@IEAAXI@Z 0000000180027560 f i TriangleMeshBuilder.obj
 0001:00026600       ?growAndPushBack@?$Array@USortedNeighbor@GrbTrimeshCookerHelper@physx@@VNamedAllocator@shdfnd@3@@shdfnd@physx@@IEAAAEAUSortedNeighbor@GrbTrimeshCookerHelper@3@AEBU453@@Z 0000000180027600 f i TriangleMeshBuilder.obj
 0001:00026840       ?has16BitIndices@TriangleMeshData@Gu@physx@@QEBA_NXZ 0000000180027840 f i TriangleMeshBuilder.obj
 0001:00026880       ?initRemap@SourceMesh@Gu@physx@@QEAAXXZ 0000000180027880 f i TriangleMeshBuilder.obj
 0001:000268a0       ?isInUserMemory@?$Array@USharpEdgeRange@GrbTrimeshCookerHelper@physx@@VNamedAllocator@shdfnd@3@@shdfnd@physx@@QEBAIXZ 00000001800278a0 f i TriangleMeshBuilder.obj
 0001:000268c0       ?isInUserMemory@?$Array@USortedNeighbor@GrbTrimeshCookerHelper@physx@@VNamedAllocator@shdfnd@3@@shdfnd@physx@@QEBAIXZ 00000001800278c0 f i TriangleMeshBuilder.obj
 0001:000268e0       ?isValid@PxBVH33MidphaseDesc@physx@@QEBA_NXZ 00000001800278e0 f i TriangleMeshBuilder.obj
 0001:00026920       ?isValid@PxBVH34MidphaseDesc@physx@@QEBA_NXZ 0000000180027920 f i TriangleMeshBuilder.obj
 0001:00026950       ?isValid@PxMidphaseDesc@physx@@QEBA_NXZ 0000000180027950 f i TriangleMeshBuilder.obj
 0001:000269b0       ?isValid@PxSimpleTriangleMesh@physx@@QEBA_NXZ 00000001800279b0 f i TriangleMeshBuilder.obj
 0001:00026ac0       ?isValid@PxTriangleMeshDesc@physx@@QEBA_NXZ 0000000180027ac0 f i TriangleMeshBuilder.obj
 0001:00026b50       ?magnitudeSquared@PxVec3@physx@@QEBAMXZ 0000000180027b50 f i TriangleMeshBuilder.obj
 0001:00026bb0       ?name@type_info@@QEBAPEBDXZ 0000000180027bb0 f i TriangleMeshBuilder.obj
 0001:00026be0       ?onMeshIndexFormatChange@TriangleMeshBuilder@physx@@UEAAXXZ 0000000180027be0 f i TriangleMeshBuilder.obj
 0001:00026bf0       ?pushBack@?$Array@USortedNeighbor@GrbTrimeshCookerHelper@physx@@VNamedAllocator@shdfnd@3@@shdfnd@physx@@QEAAAEAUSortedNeighbor@GrbTrimeshCookerHelper@3@AEBU453@@Z 0000000180027bf0 f i TriangleMeshBuilder.obj
 0001:00026cc0       ?recipSqrt@intrinsics@physx@@YAMM@Z 0000000180027cc0 f i TriangleMeshBuilder.obj
 0001:00026d00       ?recreate@?$Array@USharpEdgeRange@GrbTrimeshCookerHelper@physx@@VNamedAllocator@shdfnd@3@@shdfnd@physx@@IEAAXI@Z 0000000180027d00 f i TriangleMeshBuilder.obj
 0001:00026e60       ?recreate@?$Array@USortedNeighbor@GrbTrimeshCookerHelper@physx@@VNamedAllocator@shdfnd@3@@shdfnd@physx@@IEAAXI@Z 0000000180027e60 f i TriangleMeshBuilder.obj
 0001:00026fc0       ?release@RTree@Gu@physx@@QEAAXXZ 0000000180027fc0 f i TriangleMeshBuilder.obj
 0001:00027040       ?releaseRemap@SourceMesh@Gu@physx@@QEAAXXZ 0000000180028040 f i TriangleMeshBuilder.obj
 0001:00027090       ?remap@RTreeCookerRemap@physx@@UEAAXPEAIII@Z 0000000180028090 f i TriangleMeshBuilder.obj
 0001:00027300       ?reserve@?$Array@USharpEdgeRange@GrbTrimeshCookerHelper@physx@@VNamedAllocator@shdfnd@3@@shdfnd@physx@@QEAAXI@Z 0000000180028300 f i TriangleMeshBuilder.obj
 0001:00027340       ?reserve@?$Array@USortedNeighbor@GrbTrimeshCookerHelper@physx@@VNamedAllocator@shdfnd@3@@shdfnd@physx@@QEAAXI@Z 0000000180028340 f i TriangleMeshBuilder.obj
 0001:00027380       ?resize@?$Array@USharpEdgeRange@GrbTrimeshCookerHelper@physx@@VNamedAllocator@shdfnd@3@@shdfnd@physx@@QEAAXIAEBUSharpEdgeRange@GrbTrimeshCookerHelper@3@@Z 0000000180028380 f i TriangleMeshBuilder.obj
 0001:00027440       ?resizeUninitialized@?$Array@USortedNeighbor@GrbTrimeshCookerHelper@physx@@VNamedAllocator@shdfnd@3@@shdfnd@physx@@QEAAXI@Z 0000000180028440 f i TriangleMeshBuilder.obj
 0001:00027480       ?setNbTriangles@SourceMesh@Gu@physx@@QEAAXI@Z 0000000180028480 f i TriangleMeshBuilder.obj
 0001:000274a0       ?setNbVertices@SourceMesh@Gu@physx@@QEAAXI@Z 00000001800284a0 f i TriangleMeshBuilder.obj
 0001:000274c0       ?setPointers@SourceMesh@Gu@physx@@QEAAXPEAVIndTri32@23@PEAVIndTri16@23@PEBVPxVec3@3@@Z 00000001800284c0 f i TriangleMeshBuilder.obj
 0001:00027510       ?setTriangleAdjacency@TriangleMeshData@Gu@physx@@QEAAXIII@Z 0000000180028510 f i TriangleMeshBuilder.obj
 0001:000275c0       ?size@?$Array@USortedNeighbor@GrbTrimeshCookerHelper@physx@@VNamedAllocator@shdfnd@3@@shdfnd@physx@@QEBAIXZ 00000001800285c0 f i TriangleMeshBuilder.obj
 0001:000275e0       ?to16@shdfnd@physx@@YAGI@Z 00000001800285e0 f i TriangleMeshBuilder.obj
 0001:00027660       ?writeChunk@physx@@YAXCCCCAEAVPxOutputStream@1@@Z 0000000180028660 f i TriangleMeshBuilder.obj
 0001:00027710       ?writeIntBuffer@physx@@YAXPEBII_NAEAVPxOutputStream@1@@Z 0000000180028710 f i TriangleMeshBuilder.obj
 0001:00027760       ??0BigConvexDataBuilder@physx@@QEAA@PEBUConvexHullData@Gu@1@PEAVBigConvexData@1@PEBVPxVec3@1@@Z 0000000180028760 f   BigConvexDataBuilder.obj
 0001:000277b0       ??1BigConvexDataBuilder@physx@@QEAA@XZ 00000001800287b0 f   BigConvexDataBuilder.obj
 0001:000277c0       ?precompute@BigConvexDataBuilder@physx@@QEAA_NI@Z 00000001800287c0 f   BigConvexDataBuilder.obj
 0001:00027de0       ?initialize@BigConvexDataBuilder@physx@@QEAA_NXZ 0000000180028de0 f   BigConvexDataBuilder.obj
 0001:00027e50       ?save@BigConvexDataBuilder@physx@@QEBA_NAEAVPxOutputStream@2@_N@Z 0000000180028e50 f   BigConvexDataBuilder.obj
 0001:00027f80       ?computeValencies@BigConvexDataBuilder@physx@@QEAA_NAEBVConvexHullBuilder@2@@Z 0000000180028f80 f   BigConvexDataBuilder.obj
 0001:000287c0       ?saveValencies@BigConvexDataBuilder@physx@@QEBA_NAEAVPxOutputStream@2@_N@Z 00000001800297c0 f   BigConvexDataBuilder.obj
 0001:00028eb0       ??B?$PxBitAndDataT@G$0IAAA@@physx@@QEBAGXZ 0000000180029eb0 f i BigConvexDataBuilder.obj
 0001:00028ed0       ??_0PxVec3@physx@@QEAAAEAV01@M@Z 0000000180029ed0 f i BigConvexDataBuilder.obj
 0001:00028f60       ?PxMemZero@physx@@YAPEAXPEAXI@Z 0000000180029f60 f i BigConvexDataBuilder.obj
 0001:00028f90       ?PxSqrt@physx@@YAMM@Z      0000000180029f90 f i BigConvexDataBuilder.obj
 0001:00028fb0       ?magnitude@PxVec3@physx@@QEBAMXZ 0000000180029fb0 f i BigConvexDataBuilder.obj
 0001:00028fe0       ?memZero@intrinsics@physx@@YAPEAXPEAXI@Z 0000000180029fe0 f i BigConvexDataBuilder.obj
 0001:00029020       ?normalize@PxVec3@physx@@QEAAMXZ 000000018002a020 f i BigConvexDataBuilder.obj
 0001:00029080       ?precomputeSample@BigConvexDataBuilder@physx@@IEAAXAEBVPxVec3@2@AEAEM@Z 000000018002a080 f i BigConvexDataBuilder.obj
 0001:00029340       ?sqrt@intrinsics@physx@@YAMM@Z 000000018002a340 f i BigConvexDataBuilder.obj
 0001:000293e0       ??0ConvexHullBuilder@physx@@QEAA@PEAUConvexHullData@Gu@1@_N@Z 000000018002a3e0 f   ConvexHullBuilder.obj
 0001:00029470       ??1ConvexHullBuilder@physx@@QEAA@XZ 000000018002a470 f   ConvexHullBuilder.obj
 0001:000295b0       ?init@ConvexHullBuilder@physx@@QEAA_NIPEBVPxVec3@2@PEBIIIPEBUPxHullPolygon@2@_NPEAVConvexHullLib@2@@Z 000000018002a5b0 f   ConvexHullBuilder.obj
 0001:00029e80       ?save@ConvexHullBuilder@physx@@QEBA_NAEAVPxOutputStream@2@_N@Z 000000018002ae80 f   ConvexHullBuilder.obj
 0001:0002a2b0       ?copy@ConvexHullBuilder@physx@@QEAA_NAEAUConvexHullData@Gu@2@AEAI@Z 000000018002b2b0 f   ConvexHullBuilder.obj
 0001:0002aa40       ?createEdgeList@ConvexHullBuilder@physx@@QEAA_N_NI@Z 000000018002ba40 f   ConvexHullBuilder.obj
 0001:0002b840       ?checkHullPolygons@ConvexHullBuilder@physx@@QEBA_NXZ 000000018002c840 f   ConvexHullBuilder.obj
 0001:0002c0f0       ?calculateVertexMapTable@ConvexHullBuilder@physx@@QEAA_NI_N@Z 000000018002d0f0 f   ConvexHullBuilder.obj
 0001:0002c3a0       ?computeGeomCenter@ConvexHullBuilder@physx@@IEBA_NAEAVPxVec3@2@IPEAUHullTriangleData@2@@Z 000000018002d3a0 f   ConvexHullBuilder.obj
 0001:0002d1c0       ??$?_UUEdgeDescData@Gu@physx@@@@YAPEAX_KV?$ReflectionAllocator@UEdgeDescData@Gu@physx@@@shdfnd@physx@@PEBDH@Z 000000018002e1c0 f i ConvexHullBuilder.obj
 0001:0002d210       ??$?_U_N@@YAPEAX_KV?$ReflectionAllocator@_N@shdfnd@physx@@PEBDH@Z 000000018002e210 f i ConvexHullBuilder.obj
 0001:0002d260       ??0?$PxBitAndDataT@G$0IAAA@@physx@@QEAA@G_N@Z 000000018002e260 f i ConvexHullBuilder.obj
 0001:0002d2c0       ??0?$ReflectionAllocator@UEdgeDescData@Gu@physx@@@shdfnd@physx@@QEAA@PEBD@Z 000000018002e2c0 f i ConvexHullBuilder.obj
 0001:0002d2e0       ??0?$ReflectionAllocator@_N@shdfnd@physx@@QEAA@PEBD@Z 000000018002e2e0 f i ConvexHullBuilder.obj
 0001:0002d300       ??0?$TriangleT@I@Gu@physx@@QEAA@III@Z 000000018002e300 f i ConvexHullBuilder.obj
 0001:0002d370       ??0HullPolygonData@Gu@physx@@QEAA@AEBU012@@Z 000000018002e370 f i ConvexHullBuilder.obj
 0001:0002d3f0       ??0PxPlane@physx@@QEAA@AEBV01@@Z 000000018002e3f0 f i ConvexHullBuilder.obj
 0001:0002d440       ??0PxPlane@physx@@QEAA@MMMM@Z 000000018002e440 f i ConvexHullBuilder.obj
 0001:0002d4b0       ??4PxPlane@physx@@QEAAAEAV01@$$QEAV01@@Z 000000018002e4b0 f i ConvexHullBuilder.obj
 0001:0002d500       ??YPxVec3@physx@@QEAAAEAV01@AEBV01@@Z 000000018002e500 f i ConvexHullBuilder.obj
 0001:0002d580       ?PxMemSet@physx@@YAPEAXPEAXHI@Z 000000018002e580 f i ConvexHullBuilder.obj
 0001:0002d5c0       ?allocate@?$ReflectionAllocator@UEdgeDescData@Gu@physx@@@shdfnd@physx@@QEAAPEAX_KPEBDH@Z 000000018002e5c0 f i ConvexHullBuilder.obj
 0001:0002d660       ?allocate@?$ReflectionAllocator@_N@shdfnd@physx@@QEAAPEAX_KPEBDH@Z 000000018002e660 f i ConvexHullBuilder.obj
 0001:0002d700       ?area@?$TriangleT@I@Gu@physx@@QEBAMPEBVPxVec3@3@@Z 000000018002e700 f i ConvexHullBuilder.obj
 0001:0002d820       ?center@?$TriangleT@I@Gu@physx@@QEBAXPEBVPxVec3@3@AEAV43@@Z 000000018002e820 f i ConvexHullBuilder.obj
 0001:0002d930       ?computeBufferSize@Gu@physx@@YAIAEBUConvexHullData@12@I@Z 000000018002e930 f i ConvexHullBuilder.obj
 0001:0002da90       ?computeNbPolygons@ConvexHullBuilder@physx@@QEBAIXZ 000000018002ea90 f i ConvexHullBuilder.obj
 0001:0002db30       ?flip@physx@@YAXAEAG@Z     000000018002eb30 f i ConvexHullBuilder.obj
 0001:0002dbb0       ?flip@physx@@YAXAEAM@Z     000000018002ebb0 f i ConvexHullBuilder.obj
 0001:0002dca0       ?flipData@Gu@physx@@YAXAEAUHullPolygonData@12@@Z 000000018002eca0 f i ConvexHullBuilder.obj
 0001:0002dd20       ?getName@?$ReflectionAllocator@UEdgeDescData@Gu@physx@@@shdfnd@physx@@CAPEBDXZ 000000018002ed20 f i ConvexHullBuilder.obj
 0001:0002dd70       ?getName@?$ReflectionAllocator@_N@shdfnd@physx@@CAPEBDXZ 000000018002ed70 f i ConvexHullBuilder.obj
 0001:0002ddc0       ?isBitSet@?$PxBitAndDataT@G$0IAAA@@physx@@QEBAGXZ 000000018002edc0 f i ConvexHullBuilder.obj
 0001:0002dde0       ?memSet@intrinsics@physx@@YAPEAXPEAXHI@Z 000000018002ede0 f i ConvexHullBuilder.obj
 0001:0002de20       ?to8@shdfnd@physx@@YAEI@Z  000000018002ee20 f i ConvexHullBuilder.obj
 0001:0002dea0       ??1ConvexHullLib@physx@@UEAA@XZ 000000018002eea0 f   ConvexHullLib.obj
 0001:0002df20       ?cleanupVertices@ConvexHullLib@physx@@IEAA_NIPEBVPxVec3@2@IAEAIPEAV32@AEAV32@3@Z 000000018002ef20 f   ConvexHullLib.obj
 0001:0002e5f0       ?shiftAndcleanupVertices@ConvexHullLib@physx@@IEAA_NIPEBVPxVec3@2@IAEAIPEAV32@AEAV32@3@Z 000000018002f5f0 f   ConvexHullLib.obj
 0001:0002e800       ?swapLargestFace@ConvexHullLib@physx@@IEAAXAEAVPxConvexMeshDesc@2@@Z 000000018002f800 f   ConvexHullLib.obj
 0001:0002ebf0       ?shiftConvexMeshDesc@ConvexHullLib@physx@@IEAAXAEAVPxConvexMeshDesc@2@@Z 000000018002fbf0 f   ConvexHullLib.obj
 0001:0002f990       ??0?$PxFlags@W4Enum@PxConvexFlag@physx@@G@physx@@QEAA@AEBV01@@Z 0000000180030990 f i ConvexHullLib.obj
 0001:0002f9c0       ??0PxBounds3@physx@@QEAA@XZ 00000001800309c0 f i ConvexHullLib.obj
 0001:0002fa00       ??B?$PxFlags@W4Enum@PxConvexFlag@physx@@G@physx@@QEBA_NXZ 0000000180030a00 f i ConvexHullLib.obj
 0001:0002fa40       ??I?$PxFlags@W4Enum@PxConvexFlag@physx@@G@physx@@QEBA?AV01@W4Enum@PxConvexFlag@1@@Z 0000000180030a40 f i ConvexHullLib.obj
 0001:0002fab0       ??_EConvexHullLib@physx@@UEAAPEAXI@Z 0000000180030ab0 f i ConvexHullLib.obj
 0001:0002fab0       ??_GConvexHullLib@physx@@UEAAPEAXI@Z 0000000180030ab0 f i ConvexHullLib.obj
 0001:0002fb00       ?getCenter@PxBounds3@physx@@QEBA?AVPxVec3@2@XZ 0000000180030b00 f i ConvexHullLib.obj
 0001:0002fbd0       ?getDimensions@PxBounds3@physx@@QEBA?AVPxVec3@2@XZ 0000000180030bd0 f i ConvexHullLib.obj
 0001:0002fc80       ?include@PxBounds3@physx@@QEAAXAEBVPxVec3@2@@Z 0000000180030c80 f i ConvexHullLib.obj
 0001:0002fd70       ?maximum@PxVec3@physx@@QEBA?AV12@AEBV12@@Z 0000000180030d70 f i ConvexHullLib.obj
 0001:0002fe30       ?minimum@PxVec3@physx@@QEBA?AV12@AEBV12@@Z 0000000180030e30 f i ConvexHullLib.obj
 0001:0002fef0       ?multiply@PxVec3@physx@@QEBA?AV12@AEBV12@@Z 0000000180030ef0 f i ConvexHullLib.obj
 0001:0002ff90       ??0ConvexHull@physx@@QEAA@AEBVPxVec3@1@0AEBV?$Array@VPxPlane@physx@@VNamedAllocator@shdfnd@2@@shdfnd@1@@Z 0000000180030f90 f   ConvexHullUtils.obj
 0001:00030840       ??0ConvexHull@physx@@QEAA@AEBVPxVec3@1@AEBVPxTransform@1@AEBV?$Array@VPxPlane@physx@@VNamedAllocator@shdfnd@2@@shdfnd@1@@Z 0000000180031840 f   ConvexHullUtils.obj
 0001:00031270       ?findCandidatePlane@ConvexHull@physx@@QEBAHMM@Z 0000000180032270 f   ConvexHullUtils.obj
 0001:00031670       ?assertIntact@ConvexHull@physx@@QEBA_NM@Z 0000000180032670 f   ConvexHullUtils.obj
 0001:00031e70       ?maxNumVertsPerFace@ConvexHull@physx@@QEBAIXZ 0000000180032e70 f   ConvexHullUtils.obj
 0001:00031f40       ?convexHullCrop@physx@@YAPEAVConvexHull@1@AEBV21@AEBVPxPlane@1@M@Z 0000000180032f40 f   ConvexHullUtils.obj
 0001:000335c0       ?computeOBBFromConvex@physx@@YA_NAEBVPxConvexMeshDesc@1@AEAVPxVec3@1@AEAVPxTransform@1@@Z 00000001800345c0 f   ConvexHullUtils.obj
 0001:00033f10       ?computeOBBSIMD@local@@YAXIPEBT__m128@@AEAT2@AEBT2@1@Z 0000000180034f10 f   ConvexHullUtils.obj
 0001:000356e0       ??$?2V?$ReflectionAllocator@VConvexHull@physx@@@shdfnd@physx@@@UserAllocated@shdfnd@physx@@SAPEAX_KV?$ReflectionAllocator@VConvexHull@physx@@@12@PEBDH@Z 00000001800366e0 f i ConvexHullUtils.obj
 0001:00035730       ??$PX_UNUSED@W4PxIDENTITY@physx@@@@YAXAEBW4PxIDENTITY@physx@@@Z 0000000180036730 f i ConvexHullUtils.obj
 0001:00035740       ??0?$Array@VHalfEdge@ConvexHull@physx@@VNamedAllocator@shdfnd@3@@shdfnd@physx@@QEAA@AEBVNamedAllocator@12@@Z 0000000180036740 f i ConvexHullUtils.obj
 0001:000357a0       ??0?$Array@VPxPlane@physx@@VNamedAllocator@shdfnd@2@@shdfnd@physx@@QEAA@AEBVNamedAllocator@12@@Z 00000001800367a0 f i ConvexHullUtils.obj
 0001:00035800       ??0?$PxFlags@W4Enum@PxConvexFlag@physx@@G@physx@@QEAA@XZ 0000000180036800 f i ConvexHullUtils.obj
 0001:00035820       ??0?$ReflectionAllocator@VConvexHull@physx@@@shdfnd@physx@@QEAA@PEBD@Z 0000000180036820 f i ConvexHullUtils.obj
 0001:00035840       ??0ConvexHull@physx@@QEAA@AEBV01@@Z 0000000180036840 f i ConvexHullUtils.obj
 0001:00035920       ??0ConvexHull@physx@@QEAA@AEBV?$Array@VPxPlane@physx@@VNamedAllocator@shdfnd@2@@shdfnd@1@@Z 0000000180036920 f i ConvexHullUtils.obj
 0001:000359f0       ??0HalfEdge@ConvexHull@physx@@QEAA@FEE@Z 00000001800369f0 f i ConvexHullUtils.obj
 0001:00035a50       ??0HalfEdge@ConvexHull@physx@@QEAA@XZ 0000000180036a50 f i ConvexHullUtils.obj
 0001:00035a60       ??0Mat33V@aos@shdfnd@physx@@QEAA@XZ 0000000180036a60 f i ConvexHullUtils.obj
 0001:00035a70       ??0PxBoundedData@physx@@QEAA@XZ 0000000180036a70 f i ConvexHullUtils.obj
 0001:00035ab0       ??0PxConvexMeshDesc@physx@@QEAA@XZ 0000000180036ab0 f i ConvexHullUtils.obj
 0001:00035b40       ??0PxIntegrals@physx@@QEAA@XZ 0000000180036b40 f i ConvexHullUtils.obj
 0001:00035b70       ??0PxMat33@physx@@QEAA@AEBV01@@Z 0000000180036b70 f i ConvexHullUtils.obj
 0001:00035bf0       ??0PxMat33@physx@@QEAA@AEBVPxQuat@1@@Z 0000000180036bf0 f i ConvexHullUtils.obj
 0001:00035f30       ??0PxMat33@physx@@QEAA@AEBVPxVec3@1@00@Z 0000000180036f30 f i ConvexHullUtils.obj
 0001:00035fb0       ??0PxMat33@physx@@QEAA@W4PxIDENTITY@1@@Z 0000000180036fb0 f i ConvexHullUtils.obj
 0001:00036050       ??0PxMat33@physx@@QEAA@XZ  0000000180037050 f i ConvexHullUtils.obj
 0001:000360b0       ??0PxPlane@physx@@QEAA@AEBVPxVec3@1@00@Z 00000001800370b0 f i ConvexHullUtils.obj
 0001:000361a0       ??0PxPlane@physx@@QEAA@AEBVPxVec3@1@M@Z 00000001800371a0 f i ConvexHullUtils.obj
 0001:000361f0       ??0PxPlane@physx@@QEAA@XZ  00000001800371f0 f i ConvexHullUtils.obj
 0001:00036220       ??0PxQuat@physx@@QEAA@MAEBVPxVec3@1@@Z 0000000180037220 f i ConvexHullUtils.obj
 0001:00036380       ??0PxQuat@physx@@QEAA@XZ   0000000180037380 f i ConvexHullUtils.obj
 0001:00036390       ??0PxStridedData@physx@@QEAA@XZ 0000000180037390 f i ConvexHullUtils.obj
 0001:000363c0       ??4PxPlane@physx@@QEAAAEAV01@AEBV01@@Z 00000001800373c0 f i ConvexHullUtils.obj
 0001:00036410       ??8PxPlane@physx@@QEBA_NAEBV01@@Z 0000000180037410 f i ConvexHullUtils.obj
 0001:00036480       ??8PxVec3@physx@@QEBA_NAEBV01@@Z 0000000180037480 f i ConvexHullUtils.obj
 0001:00036500       ??A?$Array@VHalfEdge@ConvexHull@physx@@VNamedAllocator@shdfnd@3@@shdfnd@physx@@QEAAAEAVHalfEdge@ConvexHull@2@I@Z 0000000180037500 f i ConvexHullUtils.obj
 0001:000365a0       ??A?$Array@VHalfEdge@ConvexHull@physx@@VNamedAllocator@shdfnd@3@@shdfnd@physx@@QEBAAEBVHalfEdge@ConvexHull@2@I@Z 00000001800375a0 f i ConvexHullUtils.obj
 0001:00036640       ??A?$Array@VPxPlane@physx@@VNamedAllocator@shdfnd@2@@shdfnd@physx@@QEBAAEBVPxPlane@2@I@Z 0000000180037640 f i ConvexHullUtils.obj
 0001:000366e0       ??A?$Array@VPxVec3@physx@@VNamedAllocator@shdfnd@2@@shdfnd@physx@@QEAAAEAVPxVec3@2@I@Z 00000001800376e0 f i ConvexHullUtils.obj
 0001:00036780       ??A?$Array@VPxVec3@physx@@VNamedAllocator@shdfnd@2@@shdfnd@physx@@QEBAAEBVPxVec3@2@I@Z 0000000180037780 f i ConvexHullUtils.obj
 0001:00036820       ??APxMat33@physx@@QEAAAEAVPxVec3@1@I@Z 0000000180037820 f i ConvexHullUtils.obj
 0001:00036850       ??GPxVec3@physx@@QEBA?AV01@XZ 0000000180037850 f i ConvexHullUtils.obj
 0001:000368e0       ??RPxMat33@physx@@QEAAAEAMII@Z 00000001800378e0 f i ConvexHullUtils.obj
 0001:00036920       ??XPxVec3@physx@@QEAAAEAV01@M@Z 0000000180037920 f i ConvexHullUtils.obj
 0001:000369a0       ?FAdd@aos@shdfnd@physx@@YA?AT__m128@@T4@0@Z 00000001800379a0 f i ConvexHullUtils.obj
 0001:00036af0       ?FMul@aos@shdfnd@physx@@YA?AT__m128@@T4@0@Z 0000000180037af0 f i ConvexHullUtils.obj
 0001:00036c40       ?FScaleAdd@aos@shdfnd@physx@@YA?AT__m128@@T4@00@Z 0000000180037c40 f i ConvexHullUtils.obj
 0001:00036ea0       ?PxCos@physx@@YAMM@Z       0000000180037ea0 f i ConvexHullUtils.obj
 0001:00036ec0       ?PxSin@physx@@YAMM@Z       0000000180037ec0 f i ConvexHullUtils.obj
 0001:00036ee0       ?QuatGetMat33V@aos@shdfnd@physx@@YAXAEBT__m128@@AEAT4@11@Z 0000000180037ee0 f i ConvexHullUtils.obj
 0001:00037380       ?QuatRotateInv@aos@shdfnd@physx@@YA?AT__m128@@T4@0@Z 0000000180038380 f i ConvexHullUtils.obj
 0001:00037710       ?QuatVLoadU@aos@shdfnd@physx@@YA?AT__m128@@PEBM@Z 0000000180038710 f i ConvexHullUtils.obj
 0001:00037740       ?V3Cross@aos@shdfnd@physx@@YA?AT__m128@@T4@0@Z 0000000180038740 f i ConvexHullUtils.obj
 0001:000379b0       ?V3NegScaleSub@aos@shdfnd@physx@@YA?AT__m128@@T4@00@Z 00000001800389b0 f i ConvexHullUtils.obj
 0001:00037c10       ?V3Scale@aos@shdfnd@physx@@YA?AT__m128@@T4@0@Z 0000000180038c10 f i ConvexHullUtils.obj
 0001:00037d60       ?V3ScaleAdd@aos@shdfnd@physx@@YA?AT__m128@@T4@00@Z 0000000180038d60 f i ConvexHullUtils.obj
 0001:00037fc0       ?V4Add@aos@shdfnd@physx@@YA?AT__m128@@T4@0@Z 0000000180038fc0 f i ConvexHullUtils.obj
 0001:00038000       ?V4GetW@aos@shdfnd@physx@@YA?AT__m128@@T4@@Z 0000000180039000 f i ConvexHullUtils.obj
 0001:00038030       ?V4GetX@aos@shdfnd@physx@@YA?AT__m128@@T4@@Z 0000000180039030 f i ConvexHullUtils.obj
 0001:00038060       ?V4GetY@aos@shdfnd@physx@@YA?AT__m128@@T4@@Z 0000000180039060 f i ConvexHullUtils.obj
 0001:00038090       ?V4GetZ@aos@shdfnd@physx@@YA?AT__m128@@T4@@Z 0000000180039090 f i ConvexHullUtils.obj
 0001:000380c0       ?V4LoadU@aos@shdfnd@physx@@YA?AT__m128@@QEBM@Z 00000001800390c0 f i ConvexHullUtils.obj
 0001:000380f0       ?V4Max@aos@shdfnd@physx@@YA?AT__m128@@T4@0@Z 00000001800390f0 f i ConvexHullUtils.obj
 0001:00038130       ?V4Min@aos@shdfnd@physx@@YA?AT__m128@@T4@0@Z 0000000180039130 f i ConvexHullUtils.obj
 0001:00038170       ?V4Mul@aos@shdfnd@physx@@YA?AT__m128@@T4@0@Z 0000000180039170 f i ConvexHullUtils.obj
 0001:000381b0       ?V4MulAdd@aos@shdfnd@physx@@YA?AT__m128@@T4@00@Z 00000001800391b0 f i ConvexHullUtils.obj
 0001:00038260       ?V4Neg@aos@shdfnd@physx@@YA?AT__m128@@T4@@Z 0000000180039260 f i ConvexHullUtils.obj
 0001:000382a0       ?V4Scale@aos@shdfnd@physx@@YA?AT__m128@@T4@0@Z 00000001800392a0 f i ConvexHullUtils.obj
 0001:000382e0       ?V4StoreU@aos@shdfnd@physx@@YAXT__m128@@PEAM@Z 00000001800392e0 f i ConvexHullUtils.obj
 0001:00038310       ?V4Sub@aos@shdfnd@physx@@YA?AT__m128@@T4@0@Z 0000000180039310 f i ConvexHullUtils.obj
 0001:00038350       ?Vec4V_From_Vec3V@aos@shdfnd@physx@@YA?AT__m128@@T4@@Z 0000000180039350 f i ConvexHullUtils.obj
 0001:00038370       ?allocate@?$Array@VHalfEdge@ConvexHull@physx@@VNamedAllocator@shdfnd@3@@shdfnd@physx@@IEAAPEAVHalfEdge@ConvexHull@3@I@Z 0000000180039370 f i ConvexHullUtils.obj
 0001:00038420       ?allocate@?$Array@VPxPlane@physx@@VNamedAllocator@shdfnd@2@@shdfnd@physx@@IEAAPEAVPxPlane@3@I@Z 0000000180039420 f i ConvexHullUtils.obj
 0001:000384d0       ?allocate@?$ReflectionAllocator@VConvexHull@physx@@@shdfnd@physx@@QEAAPEAX_KPEBDH@Z 00000001800394d0 f i ConvexHullUtils.obj
 0001:00038570       ?begin@?$Array@VHalfEdge@ConvexHull@physx@@VNamedAllocator@shdfnd@3@@shdfnd@physx@@QEAAPEAVHalfEdge@ConvexHull@3@XZ 0000000180039570 f i ConvexHullUtils.obj
 0001:00038590       ?begin@?$Array@VHalfEdge@ConvexHull@physx@@VNamedAllocator@shdfnd@3@@shdfnd@physx@@QEBAPEBVHalfEdge@ConvexHull@3@XZ 0000000180039590 f i ConvexHullUtils.obj
 0001:000385b0       ?begin@?$Array@VPxPlane@physx@@VNamedAllocator@shdfnd@2@@shdfnd@physx@@QEAAPEAVPxPlane@3@XZ 00000001800395b0 f i ConvexHullUtils.obj
 0001:000385d0       ?begin@?$Array@VPxPlane@physx@@VNamedAllocator@shdfnd@2@@shdfnd@physx@@QEBAPEBVPxPlane@3@XZ 00000001800395d0 f i ConvexHullUtils.obj
 0001:000385f0       ?begin@?$Array@VPxVec3@physx@@VNamedAllocator@shdfnd@2@@shdfnd@physx@@QEBAPEBVPxVec3@3@XZ 00000001800395f0 f i ConvexHullUtils.obj
 0001:00038610       ?capacity@?$Array@VHalfEdge@ConvexHull@physx@@VNamedAllocator@shdfnd@3@@shdfnd@physx@@QEBAIXZ 0000000180039610 f i ConvexHullUtils.obj
 0001:00038630       ?capacity@?$Array@VPxPlane@physx@@VNamedAllocator@shdfnd@2@@shdfnd@physx@@QEBAIXZ 0000000180039630 f i ConvexHullUtils.obj
 0001:00038650       ?capacityIncrement@?$Array@VHalfEdge@ConvexHull@physx@@VNamedAllocator@shdfnd@3@@shdfnd@physx@@IEBAIXZ 0000000180039650 f i ConvexHullUtils.obj
 0001:000386a0       ?capacityIncrement@?$Array@VPxPlane@physx@@VNamedAllocator@shdfnd@2@@shdfnd@physx@@IEBAIXZ 00000001800396a0 f i ConvexHullUtils.obj
 0001:000386f0       ?copy@?$Array@VHalfEdge@ConvexHull@physx@@VNamedAllocator@shdfnd@3@@shdfnd@physx@@KAXPEAVHalfEdge@ConvexHull@3@0PEBV453@@Z 00000001800396f0 f i ConvexHullUtils.obj
 0001:00038790       ?copy@?$Array@VPxPlane@physx@@VNamedAllocator@shdfnd@2@@shdfnd@physx@@KAXPEAVPxPlane@3@0PEBV43@@Z 0000000180039790 f i ConvexHullUtils.obj
 0001:00038830       ?copyHull@ConvexHull@physx@@QEAAXAEBV12@@Z 0000000180039830 f i ConvexHullUtils.obj
 0001:00038ab0       ?cos@intrinsics@physx@@YAMM@Z 0000000180039ab0 f i ConvexHullUtils.obj
 0001:00038ad0       ?create@?$Array@VHalfEdge@ConvexHull@physx@@VNamedAllocator@shdfnd@3@@shdfnd@physx@@KAXPEAVHalfEdge@ConvexHull@3@0AEBV453@@Z 0000000180039ad0 f i ConvexHullUtils.obj
 0001:00038b40       ?create@?$Array@VPxPlane@physx@@VNamedAllocator@shdfnd@2@@shdfnd@physx@@KAXPEAVPxPlane@3@0AEBV43@@Z 0000000180039b40 f i ConvexHullUtils.obj
 0001:00038bb0       ?create@?$Array@VPxVec3@physx@@VNamedAllocator@shdfnd@2@@shdfnd@physx@@KAXPEAVPxVec3@3@0AEBV43@@Z 0000000180039bb0 f i ConvexHullUtils.obj
 0001:00038c20       ?deallocate@?$Array@VHalfEdge@ConvexHull@physx@@VNamedAllocator@shdfnd@3@@shdfnd@physx@@IEAAXPEAX@Z 0000000180039c20 f i ConvexHullUtils.obj
 0001:00038c50       ?deallocate@?$Array@VPxPlane@physx@@VNamedAllocator@shdfnd@2@@shdfnd@physx@@IEAAXPEAX@Z 0000000180039c50 f i ConvexHullUtils.obj
 0001:00038c80       ?degToRad@shdfnd@physx@@YAMM@Z 0000000180039c80 f i ConvexHullUtils.obj
 0001:00038ca0       ?destroy@?$Array@VHalfEdge@ConvexHull@physx@@VNamedAllocator@shdfnd@3@@shdfnd@physx@@KAXPEAVHalfEdge@ConvexHull@3@0@Z 0000000180039ca0 f i ConvexHullUtils.obj
 0001:00038ce0       ?destroy@?$Array@VPxPlane@physx@@VNamedAllocator@shdfnd@2@@shdfnd@physx@@KAXPEAVPxPlane@3@0@Z 0000000180039ce0 f i ConvexHullUtils.obj
 0001:00038d20       ?getDeterminant@PxMat33@physx@@QEBAMXZ 0000000180039d20 f i ConvexHullUtils.obj
 0001:00038d70       ?getEdges@ConvexHull@physx@@QEAAAEAV?$Array@VHalfEdge@ConvexHull@physx@@VNamedAllocator@shdfnd@3@@shdfnd@2@XZ 0000000180039d70 f i ConvexHullUtils.obj
 0001:00038d90       ?getEdges@ConvexHull@physx@@QEBAAEBV?$Array@VHalfEdge@ConvexHull@physx@@VNamedAllocator@shdfnd@3@@shdfnd@2@XZ 0000000180039d90 f i ConvexHullUtils.obj
 0001:00038db0       ?getFacets@ConvexHull@physx@@QEAAAEAV?$Array@VPxPlane@physx@@VNamedAllocator@shdfnd@2@@shdfnd@2@XZ 0000000180039db0 f i ConvexHullUtils.obj
 0001:00038dd0       ?getFacets@ConvexHull@physx@@QEBAAEBV?$Array@VPxPlane@physx@@VNamedAllocator@shdfnd@2@@shdfnd@2@XZ 0000000180039dd0 f i ConvexHullUtils.obj
 0001:00038df0       ?getInputPlanes@ConvexHull@physx@@QEBAAEBV?$Array@VPxPlane@physx@@VNamedAllocator@shdfnd@2@@shdfnd@2@XZ 0000000180039df0 f i ConvexHullUtils.obj
 0001:00038e10       ?getInverse@PxMat33@physx@@QEBA?BV12@XZ 0000000180039e10 f i ConvexHullUtils.obj
 0001:00039190       ?getName@?$ReflectionAllocator@VConvexHull@physx@@@shdfnd@physx@@CAPEBDXZ 000000018003a190 f i ConvexHullUtils.obj
 0001:000391e0       ?getOriginInertia@PxIntegrals@physx@@QEAAXAEAVPxMat33@2@@Z 000000018003a1e0 f i ConvexHullUtils.obj
 0001:00039290       ?getTranspose@PxMat33@physx@@QEBA?BV12@XZ 000000018003a290 f i ConvexHullUtils.obj
 0001:00039370       ?getVertices@ConvexHull@physx@@QEAAAEAV?$Array@VPxVec3@physx@@VNamedAllocator@shdfnd@2@@shdfnd@2@XZ 000000018003a370 f i ConvexHullUtils.obj
 0001:00039380       ?getVertices@ConvexHull@physx@@QEBAAEBV?$Array@VPxVec3@physx@@VNamedAllocator@shdfnd@2@@shdfnd@2@XZ 000000018003a380 f i ConvexHullUtils.obj
 0001:00039390       ?grow@?$Array@VHalfEdge@ConvexHull@physx@@VNamedAllocator@shdfnd@3@@shdfnd@physx@@IEAAXI@Z 000000018003a390 f i ConvexHullUtils.obj
 0001:00039430       ?grow@?$Array@VPxPlane@physx@@VNamedAllocator@shdfnd@2@@shdfnd@physx@@IEAAXI@Z 000000018003a430 f i ConvexHullUtils.obj
 0001:000394d0       ?growAndPushBack@?$Array@VHalfEdge@ConvexHull@physx@@VNamedAllocator@shdfnd@3@@shdfnd@physx@@IEAAAEAVHalfEdge@ConvexHull@3@AEBV453@@Z 000000018003a4d0 f i ConvexHullUtils.obj
 0001:000396b0       ?growAndPushBack@?$Array@VPxPlane@physx@@VNamedAllocator@shdfnd@2@@shdfnd@physx@@IEAAAEAVPxPlane@3@AEBV43@@Z 000000018003a6b0 f i ConvexHullUtils.obj
 0001:000398a0       ?isInUserMemory@?$Array@VHalfEdge@ConvexHull@physx@@VNamedAllocator@shdfnd@3@@shdfnd@physx@@QEBAIXZ 000000018003a8a0 f i ConvexHullUtils.obj
 0001:000398c0       ?isInUserMemory@?$Array@VPxPlane@physx@@VNamedAllocator@shdfnd@2@@shdfnd@physx@@QEBAIXZ 000000018003a8c0 f i ConvexHullUtils.obj
 0001:000398e0       ?pushBack@?$Array@VHalfEdge@ConvexHull@physx@@VNamedAllocator@shdfnd@3@@shdfnd@physx@@QEAAAEAVHalfEdge@ConvexHull@3@AEBV453@@Z 000000018003a8e0 f i ConvexHullUtils.obj
 0001:000399b0       ?pushBack@?$Array@VPxPlane@physx@@VNamedAllocator@shdfnd@2@@shdfnd@physx@@QEAAAEAVPxPlane@3@AEBV43@@Z 000000018003a9b0 f i ConvexHullUtils.obj
 0001:00039a80       ?recreate@?$Array@VHalfEdge@ConvexHull@physx@@VNamedAllocator@shdfnd@3@@shdfnd@physx@@IEAAXI@Z 000000018003aa80 f i ConvexHullUtils.obj
 0001:00039be0       ?recreate@?$Array@VPxPlane@physx@@VNamedAllocator@shdfnd@2@@shdfnd@physx@@IEAAXI@Z 000000018003abe0 f i ConvexHullUtils.obj
 0001:00039d40       ?reserve@?$Array@VHalfEdge@ConvexHull@physx@@VNamedAllocator@shdfnd@3@@shdfnd@physx@@QEAAXI@Z 000000018003ad40 f i ConvexHullUtils.obj
 0001:00039d80       ?reserve@?$Array@VPxPlane@physx@@VNamedAllocator@shdfnd@2@@shdfnd@physx@@QEAAXI@Z 000000018003ad80 f i ConvexHullUtils.obj
 0001:00039dc0       ?resize@?$Array@VHalfEdge@ConvexHull@physx@@VNamedAllocator@shdfnd@3@@shdfnd@physx@@QEAAXIAEBVHalfEdge@ConvexHull@3@@Z 000000018003adc0 f i ConvexHullUtils.obj
 0001:00039e80       ?resize@?$Array@VPxPlane@physx@@VNamedAllocator@shdfnd@2@@shdfnd@physx@@QEAAXIAEBVPxPlane@3@@Z 000000018003ae80 f i ConvexHullUtils.obj
 0001:00039f40       ?resize@?$Array@VPxVec3@physx@@VNamedAllocator@shdfnd@2@@shdfnd@physx@@QEAAXIAEBVPxVec3@3@@Z 000000018003af40 f i ConvexHullUtils.obj
 0001:0003a000       ?sin@intrinsics@physx@@YAMM@Z 000000018003b000 f i ConvexHullUtils.obj
 0001:0003a020       ?size@?$Array@VHalfEdge@ConvexHull@physx@@VNamedAllocator@shdfnd@3@@shdfnd@physx@@QEBAIXZ 000000018003b020 f i ConvexHullUtils.obj
 0001:0003a040       ?size@?$Array@VPxPlane@physx@@VNamedAllocator@shdfnd@2@@shdfnd@physx@@QEBAIXZ 000000018003b040 f i ConvexHullUtils.obj
 0001:0003a060       ?threePlaneIntersection@physx@@YA?AVPxVec3@1@AEBVPxPlane@1@00@Z 000000018003b060 f i ConvexHullUtils.obj
 0001:0003a160       ?to8@shdfnd@physx@@YAEG@Z  000000018003b160 f i ConvexHullUtils.obj
 0001:0003a1e0       ?transform@PxMat33@physx@@QEBA?BVPxVec3@2@AEBV32@@Z 000000018003b1e0 f i ConvexHullUtils.obj
 0001:0003a2c0       ??0ConvexMeshBuilder@physx@@QEAA@_N@Z 000000018003b2c0 f   ConvexMeshBuilder.obj
 0001:0003a340       ??1ConvexMeshBuilder@physx@@QEAA@XZ 000000018003b340 f   ConvexMeshBuilder.obj
 0001:0003a3c0       ?build@ConvexMeshBuilder@physx@@QEAA_NAEBVPxConvexMeshDesc@2@I_NPEAVConvexHullLib@2@@Z 000000018003b3c0 f   ConvexMeshBuilder.obj
 0001:0003a4f0       ?save@ConvexMeshBuilder@physx@@QEBA_NAEAVPxOutputStream@2@_N@Z 000000018003b4f0 f   ConvexMeshBuilder.obj
 0001:0003a840       ?copy@ConvexMeshBuilder@physx@@QEAA_NAEAUConvexHullData@Gu@2@AEAI@Z 000000018003b840 f   ConvexMeshBuilder.obj
 0001:0003a980       ?loadConvexHull@ConvexMeshBuilder@physx@@QEAA_NAEBVPxConvexMeshDesc@2@PEAVConvexHullLib@2@@Z 000000018003b980 f   ConvexMeshBuilder.obj
 0001:0003adb0       ?computeHullPolygons@ConvexMeshBuilder@physx@@QEAA_NAEBIPEBVPxVec3@2@0PEBIAEAVPxAllocatorCallback@2@AEAIAEAPEAV32@4AEAPEAI4AEAPEAUPxHullPolygon@2@@Z 000000018003bdb0 f   ConvexMeshBuilder.obj
 0001:0003b1f0       ?computeGaussMaps@ConvexMeshBuilder@physx@@QEAA_NXZ 000000018003c1f0 f   ConvexMeshBuilder.obj
 0001:0003b340       ?computeMassInfo@ConvexMeshBuilder@physx@@QEAAX_N@Z 000000018003c340 f   ConvexMeshBuilder.obj
 0001:0003b690       ?computeInternalObjects@ConvexMeshBuilder@physx@@QEAAXXZ 000000018003c690 f   ConvexMeshBuilder.obj
 0001:0003c6c0       ??0?$PxBitAndDataT@G$0IAAA@@physx@@QEAA@XZ 000000018003d6c0 f i ConvexMeshBuilder.obj
 0001:0003c6e0       ??0?$ReflectionAllocator@VBigConvexData@physx@@@shdfnd@physx@@QEAA@PEBD@Z 000000018003d6e0 f i ConvexMeshBuilder.obj
 0001:0003c700       ??0CenterExtents@Gu@physx@@QEAA@AEBVPxBounds3@2@@Z 000000018003d700 f i ConvexMeshBuilder.obj
 0001:0003c790       ??0CenterExtents@Gu@physx@@QEAA@XZ 000000018003d790 f i ConvexMeshBuilder.obj
 0001:0003c7d0       ??0ConvexHullData@Gu@physx@@QEAA@XZ 000000018003d7d0 f i ConvexMeshBuilder.obj
 0001:0003c830       ??1CenterExtents@Gu@physx@@QEAA@XZ 000000018003d830 f i ConvexMeshBuilder.obj
 0001:0003c840       ??1ConvexHullData@Gu@physx@@QEAA@XZ 000000018003d840 f i ConvexMeshBuilder.obj
 0001:0003c870       ??2UserAllocated@shdfnd@physx@@SAPEAX_KPEAX@Z 000000018003d870 f i ConvexMeshBuilder.obj
 0001:0003c890       ??4CenterExtents@Gu@physx@@QEAAAEAV012@AEBV012@@Z 000000018003d890 f i ConvexMeshBuilder.obj
 0001:0003c8f0       ??4PxMat33@physx@@QEAAAEAV01@AEBV01@@Z 000000018003d8f0 f i ConvexMeshBuilder.obj
 0001:0003c970       ??GPxMat33@physx@@QEBA?BV01@XZ 000000018003d970 f i ConvexMeshBuilder.obj
 0001:0003ca10       ??_GBigConvexData@physx@@QEAAPEAXI@Z 000000018003da10 f i ConvexMeshBuilder.obj
 0001:0003ca80       ?allocate@?$ReflectionAllocator@VBigConvexData@physx@@@shdfnd@physx@@QEAAPEAX_KPEBDH@Z 000000018003da80 f i ConvexMeshBuilder.obj
 0001:0003cb20       ?getExtents@PxBounds3@physx@@QEBA?AVPxVec3@2@XZ 000000018003db20 f i ConvexMeshBuilder.obj
 0001:0003cbe0       ?getMax@CenterExtents@Gu@physx@@QEBA?AVPxVec3@3@XZ 000000018003dbe0 f i ConvexMeshBuilder.obj
 0001:0003cc20       ?getMin@CenterExtents@Gu@physx@@QEBA?AVPxVec3@3@XZ 000000018003dc20 f i ConvexMeshBuilder.obj
 0001:0003cc60       ?getName@?$ReflectionAllocator@VBigConvexData@physx@@@shdfnd@physx@@CAPEBDXZ 000000018003dc60 f i ConvexMeshBuilder.obj
 0001:0003ccb0       ?getNextIndex3@shdfnd@physx@@YAII@Z 000000018003dcb0 f i ConvexMeshBuilder.obj
 0001:0003ccd0       ?isValid@PxConvexMeshDesc@physx@@QEBA_NXZ 000000018003dcd0 f i ConvexMeshBuilder.obj
 0001:0003cf60       ?largestAxis@shdfnd@physx@@YAIAEBVPxVec3@2@@Z 000000018003df60 f i ConvexMeshBuilder.obj
 0001:0003cff0       ?markSerializedMem@Cm@physx@@YAXPEAXI@Z 000000018003dff0 f i ConvexMeshBuilder.obj
 0001:0003d040       ??0ConvexPolygonsBuilder@physx@@QEAA@PEAUConvexHullData@Gu@1@_N@Z 000000018003e040 f   ConvexPolygonsBuilder.obj
 0001:0003d0a0       ??1ConvexPolygonsBuilder@physx@@QEAA@XZ 000000018003e0a0 f   ConvexPolygonsBuilder.obj
 0001:0003d0f0       ?computeHullPolygons@ConvexPolygonsBuilder@physx@@QEAA_NAEBIPEBVPxVec3@2@0PEBI@Z 000000018003e0f0 f   ConvexPolygonsBuilder.obj
 0001:0003d660       ?createPolygonData@ConvexPolygonsBuilder@physx@@AEAA_NXZ 000000018003e660 f   ConvexPolygonsBuilder.obj
 0001:0003e5b0       ?createTrianglesFromPolygons@ConvexPolygonsBuilder@physx@@AEAA_NXZ 000000018003f5b0 f   ConvexPolygonsBuilder.obj
 0001:000426d0       ??$?4VNamedAllocator@shdfnd@physx@@@?$Array@IVNamedAllocator@shdfnd@physx@@@shdfnd@physx@@QEAAAEAV012@AEBV012@@Z 00000001800436d0 f i ConvexPolygonsBuilder.obj
 0001:00042780       ??$?_UUHullTriangleData@physx@@@@YAPEAX_KV?$ReflectionAllocator@UHullTriangleData@physx@@@shdfnd@physx@@PEBDH@Z 0000000180043780 f i ConvexPolygonsBuilder.obj
 0001:000427d0       ??$PlaneEquation@U?$TriangleT@I@Gu@physx@@@@YA?AVPxPlane@physx@@AEBU?$TriangleT@I@Gu@1@PEBVPxVec3@1@@Z 00000001800437d0 f i ConvexPolygonsBuilder.obj
 0001:000428a0       ??$copy@VNamedAllocator@shdfnd@physx@@@?$Array@VPair@@VNamedAllocator@shdfnd@physx@@@shdfnd@physx@@IEAAXAEBV012@@Z 00000001800438a0 f i ConvexPolygonsBuilder.obj
 0001:00042990       ??$swap@E@shdfnd@physx@@YAXAEAE0@Z 0000000180043990 f i ConvexPolygonsBuilder.obj
 0001:000429e0       ??0?$Array@VPair@@VNamedAllocator@shdfnd@physx@@@shdfnd@physx@@QEAA@AEBV012@AEBVNamedAllocator@12@@Z 00000001800439e0 f i ConvexPolygonsBuilder.obj
 0001:00042a30       ??0?$Array@VPair@@VNamedAllocator@shdfnd@physx@@@shdfnd@physx@@QEAA@AEBVNamedAllocator@12@@Z 0000000180043a30 f i ConvexPolygonsBuilder.obj
 0001:00042a90       ??0?$ReflectionAllocator@UHullTriangleData@physx@@@shdfnd@physx@@QEAA@PEBD@Z 0000000180043a90 f i ConvexPolygonsBuilder.obj
 0001:00042ab0       ??0ADJACENCIESCREATE@physx@@QEAA@XZ 0000000180043ab0 f i ConvexPolygonsBuilder.obj
 0001:00042b20       ??0Pair@@QEAA@II@Z         0000000180043b20 f i ConvexPolygonsBuilder.obj
 0001:00042b60       ??1?$Array@VPair@@VNamedAllocator@shdfnd@physx@@@shdfnd@physx@@QEAA@XZ 0000000180043b60 f i ConvexPolygonsBuilder.obj
 0001:00042bf0       ??1Pair@@QEAA@XZ           0000000180043bf0 f i ConvexPolygonsBuilder.obj
 0001:00042c00       ??4?$Array@IVNamedAllocator@shdfnd@physx@@@shdfnd@physx@@QEAAAEAV012@AEBV012@@Z 0000000180043c00 f i ConvexPolygonsBuilder.obj
 0001:00042c30       ??A?$Array@VPair@@VNamedAllocator@shdfnd@physx@@@shdfnd@physx@@QEAAAEAVPair@@I@Z 0000000180043c30 f i ConvexPolygonsBuilder.obj
 0001:00042cd0       ??_GPair@@QEAAPEAXI@Z      0000000180043cd0 f i ConvexPolygonsBuilder.obj
 0001:00042d40       ?GetAdjTri@AdjTriangle@physx@@QEBAIW4SharedEdgeIndex@2@@Z 0000000180043d40 f i ConvexPolygonsBuilder.obj
 0001:00042d70       ?HasActiveEdge01@AdjTriangle@physx@@QEBAHXZ 0000000180043d70 f i ConvexPolygonsBuilder.obj
 0001:00042da0       ?HasActiveEdge12@AdjTriangle@physx@@QEBAHXZ 0000000180043da0 f i ConvexPolygonsBuilder.obj
 0001:00042dd0       ?HasActiveEdge20@AdjTriangle@physx@@QEBAHXZ 0000000180043dd0 f i ConvexPolygonsBuilder.obj
 0001:00042e00       ?HasActiveEdge@AdjTriangle@physx@@QEBAHI@Z 0000000180043e00 f i ConvexPolygonsBuilder.obj
 0001:00042e30       ?allocate@?$Array@VPair@@VNamedAllocator@shdfnd@physx@@@shdfnd@physx@@IEAAPEAVPair@@I@Z 0000000180043e30 f i ConvexPolygonsBuilder.obj
 0001:00042ee0       ?allocate@?$ReflectionAllocator@UHullTriangleData@physx@@@shdfnd@physx@@QEAAPEAX_KPEBDH@Z 0000000180043ee0 f i ConvexPolygonsBuilder.obj
 0001:00042f80       ?begin@?$Array@VPair@@VNamedAllocator@shdfnd@physx@@@shdfnd@physx@@QEAAPEAVPair@@XZ 0000000180043f80 f i ConvexPolygonsBuilder.obj
 0001:00042fa0       ?begin@?$Array@VPair@@VNamedAllocator@shdfnd@physx@@@shdfnd@physx@@QEBAPEBVPair@@XZ 0000000180043fa0 f i ConvexPolygonsBuilder.obj
 0001:00042fc0       ?capacity@?$Array@VPair@@VNamedAllocator@shdfnd@physx@@@shdfnd@physx@@QEBAIXZ 0000000180043fc0 f i ConvexPolygonsBuilder.obj
 0001:00042fe0       ?capacityIncrement@?$Array@VPair@@VNamedAllocator@shdfnd@physx@@@shdfnd@physx@@IEBAIXZ 0000000180043fe0 f i ConvexPolygonsBuilder.obj
 0001:00043030       ?clear@?$Array@IVNamedAllocator@shdfnd@physx@@@shdfnd@physx@@QEAAXXZ 0000000180044030 f i ConvexPolygonsBuilder.obj
 0001:00043080       ?copy@?$Array@VPair@@VNamedAllocator@shdfnd@physx@@@shdfnd@physx@@KAXPEAVPair@@0PEBV4@@Z 0000000180044080 f i ConvexPolygonsBuilder.obj
 0001:00043120       ?deallocate@?$Array@VPair@@VNamedAllocator@shdfnd@physx@@@shdfnd@physx@@IEAAXPEAX@Z 0000000180044120 f i ConvexPolygonsBuilder.obj
 0001:00043150       ?destroy@?$Array@VPair@@VNamedAllocator@shdfnd@physx@@@shdfnd@physx@@KAXPEAVPair@@0@Z 0000000180044150 f i ConvexPolygonsBuilder.obj
 0001:000431a0       ?empty@?$Array@VPair@@VNamedAllocator@shdfnd@physx@@@shdfnd@physx@@QEBA_NXZ 00000001800441a0 f i ConvexPolygonsBuilder.obj
 0001:000431e0       ?end@?$Array@IVNamedAllocator@shdfnd@physx@@@shdfnd@physx@@QEAAPEAIXZ 00000001800441e0 f i ConvexPolygonsBuilder.obj
 0001:00043200       ?find@?$Array@IVNamedAllocator@shdfnd@physx@@@shdfnd@physx@@QEAAPEAIAEBI@Z 0000000180044200 f i ConvexPolygonsBuilder.obj
 0001:00043270       ?flip@?$TriangleT@I@Gu@physx@@QEAAXXZ 0000000180044270 f i ConvexPolygonsBuilder.obj
 0001:000432c0       ?forceSize_Unsafe@?$Array@IVNamedAllocator@shdfnd@physx@@@shdfnd@physx@@QEAAXI@Z 00000001800442c0 f i ConvexPolygonsBuilder.obj
 0001:00043360       ?getFaces@ConvexPolygonsBuilder@physx@@QEBAPEBUHullTriangleData@2@XZ 0000000180044360 f i ConvexPolygonsBuilder.obj
 0001:00043380       ?getName@?$ReflectionAllocator@UHullTriangleData@physx@@@shdfnd@physx@@CAPEBDXZ 0000000180044380 f i ConvexPolygonsBuilder.obj
 0001:000433d0       ?getNbFaces@ConvexPolygonsBuilder@physx@@QEBAIXZ 00000001800443d0 f i ConvexPolygonsBuilder.obj
 0001:000433f0       ?growAndPushBack@?$Array@VPair@@VNamedAllocator@shdfnd@physx@@@shdfnd@physx@@IEAAAEAVPair@@AEBV4@@Z 00000001800443f0 f i ConvexPolygonsBuilder.obj
 0001:00043600       ?isInUserMemory@?$Array@VPair@@VNamedAllocator@shdfnd@physx@@@shdfnd@physx@@QEBAIXZ 0000000180044600 f i ConvexPolygonsBuilder.obj
 0001:00043620       ?pushBack@?$Array@VPair@@VNamedAllocator@shdfnd@physx@@@shdfnd@physx@@QEAAAEAVPair@@AEBV4@@Z 0000000180044620 f i ConvexPolygonsBuilder.obj
 0001:00043710       ?remove@?$Array@IVNamedAllocator@shdfnd@physx@@@shdfnd@physx@@QEAAXI@Z 0000000180044710 f i ConvexPolygonsBuilder.obj
 0001:00043830       ?remove@?$Array@VPair@@VNamedAllocator@shdfnd@physx@@@shdfnd@physx@@QEAAXI@Z 0000000180044830 f i ConvexPolygonsBuilder.obj
 0001:00043990       ?size@?$Array@VPair@@VNamedAllocator@shdfnd@physx@@@shdfnd@physx@@QEBAIXZ 0000000180044990 f i ConvexPolygonsBuilder.obj
 0001:000439b0       ??0InflationConvexHullLib@physx@@QEAA@AEBVPxConvexMeshDesc@1@AEBUPxCookingParams@1@@Z 00000001800449b0 f   InflationConvexHullLib.obj
 0001:00043a10       ??1InflationConvexHullLib@physx@@UEAA@XZ 0000000180044a10 f   InflationConvexHullLib.obj
 0001:00043ac0       ?createConvexHull@InflationConvexHullLib@physx@@UEAA?AW4Enum@PxConvexMeshCookingResult@2@XZ 0000000180044ac0 f   InflationConvexHullLib.obj
 0001:00043db0       ?fillConvexMeshDesc@InflationConvexHullLib@physx@@UEAAXAEAVPxConvexMeshDesc@2@@Z 0000000180044db0 f   InflationConvexHullLib.obj
 0001:00043f00       ?computeHull@InflationConvexHullLib@physx@@IEAA?AW4ErrorCode@ConvexHullLibResult@2@IPEBVPxVec3@2@@Z 0000000180044f00 f   InflationConvexHullLib.obj
 0001:00044520       ?calchull@InflationConvexHullLib@physx@@IEAA?AW4ErrorCode@ConvexHullLibResult@2@PEBVPxVec3@2@IAEAPEAVConvexHull@2@@Z 0000000180045520 f   InflationConvexHullLib.obj
 0001:000448e0       ?calchullgen@InflationConvexHullLib@physx@@IEAA?AW4ErrorCode@ConvexHullLibResult@2@PEBVPxVec3@2@IAEAVHullTriangles@local@@@Z 00000001800458e0 f   InflationConvexHullLib.obj
 0001:00045b00       ?calchullplanes@InflationConvexHullLib@physx@@IEAA_NPEBVPxVec3@2@AEAVHullTriangles@local@@AEAV?$Array@VPxPlane@physx@@VNamedAllocator@shdfnd@2@@shdfnd@2@@Z 0000000180046b00 f   InflationConvexHullLib.obj
 0001:00045e50       ?overhull@InflationConvexHullLib@physx@@IEAA_NPEBVPxVec3@2@IAEBV?$Array@VPxPlane@physx@@VNamedAllocator@shdfnd@2@@shdfnd@2@AEAPEAVConvexHull@2@@Z 0000000180046e50 f   InflationConvexHullLib.obj
 0001:000464d0       ?expandHull@InflationConvexHullLib@physx@@IEAA?AW4ErrorCode@ConvexHullLibResult@2@PEBVPxVec3@2@IAEBVHullTriangles@local@@AEAPEAVConvexHull@2@@Z 00000001800474d0 f   InflationConvexHullLib.obj
 0001:00047690       ?expandHullOBB@InflationConvexHullLib@physx@@IEAA?AW4ErrorCode@ConvexHullLibResult@2@PEBVPxVec3@2@IAEBVHullTriangles@local@@AEAPEAVConvexHull@2@@Z 0000000180048690 f   InflationConvexHullLib.obj
 0001:00047ee0       ?maxIndexInDirFiltered@local@@YAHPEBVPxVec3@physx@@IAEBV23@PEA_N@Z 0000000180048ee0 f   InflationConvexHullLib.obj
 0001:00048150       ?maxIndexInDirSterid@local@@YAHPEBVPxVec3@physx@@IAEBV23@AEAV?$Array@EVNamedAllocator@shdfnd@physx@@@shdfnd@3@@Z 0000000180049150 f   InflationConvexHullLib.obj
 0001:0004a750       ??$?2V?$ReflectionAllocator@VTri@local@@@shdfnd@physx@@@UserAllocated@shdfnd@physx@@SAPEAX_KV?$ReflectionAllocator@VTri@local@@@12@PEBDH@Z 000000018004b750 f i InflationConvexHullLib.obj
 0001:0004a7a0       ??$?_UUPxHullPolygon@physx@@@@YAPEAX_KV?$ReflectionAllocator@UPxHullPolygon@physx@@@shdfnd@physx@@PEBDH@Z 000000018004b7a0 f i InflationConvexHullLib.obj
 0001:0004a7f0       ??$PX_UNUSED@H@@YAXAEBH@Z  000000018004b7f0 f i InflationConvexHullLib.obj
 0001:0004a800       ??$swap@H@shdfnd@physx@@YAXAEAH0@Z 000000018004b800 f i InflationConvexHullLib.obj
 0001:0004a850       ??0?$Array@EVNamedAllocator@shdfnd@physx@@@shdfnd@physx@@QEAA@AEBVNamedAllocator@12@@Z 000000018004b850 f i InflationConvexHullLib.obj
 0001:0004a8b0       ??0?$Array@HVNamedAllocator@shdfnd@physx@@@shdfnd@physx@@QEAA@AEBVNamedAllocator@12@@Z 000000018004b8b0 f i InflationConvexHullLib.obj
 0001:0004a910       ??0?$Array@PEAVTri@local@@VNamedAllocator@shdfnd@physx@@@shdfnd@physx@@QEAA@AEBVNamedAllocator@12@@Z 000000018004b910 f i InflationConvexHullLib.obj
 0001:0004a970       ??0?$Array@UExpandPlane@local@@VNamedAllocator@shdfnd@physx@@@shdfnd@physx@@QEAA@AEBVNamedAllocator@12@@Z 000000018004b970 f i InflationConvexHullLib.obj
 0001:0004a9d0       ??0?$ReflectionAllocator@UPxHullPolygon@physx@@@shdfnd@physx@@QEAA@PEBD@Z 000000018004b9d0 f i InflationConvexHullLib.obj
 0001:0004a9f0       ??0?$ReflectionAllocator@VTri@local@@@shdfnd@physx@@QEAA@PEBD@Z 000000018004b9f0 f i InflationConvexHullLib.obj
 0001:0004aa10       ??0?$ScopedPointer@_NVTempAllocator@shdfnd@physx@@@shdfnd@physx@@QEAA@XZ 000000018004ba10 f i InflationConvexHullLib.obj
 0001:0004aa40       ??0ConvexHullLib@physx@@QEAA@AEBVPxConvexMeshDesc@1@AEBUPxCookingParams@1@@Z 000000018004ba40 f i InflationConvexHullLib.obj
 0001:0004aad0       ??0ConvexHullLibResult@physx@@QEAA@XZ 000000018004bad0 f i InflationConvexHullLib.obj
 0001:0004ab40       ??0ExpandPlane@local@@QEAA@AEBU01@@Z 000000018004bb40 f i InflationConvexHullLib.obj
 0001:0004ac00       ??0ExpandPlane@local@@QEAA@XZ 000000018004bc00 f i InflationConvexHullLib.obj
 0001:0004acb0       ??0HullSimplex@local@@QEAA@HHHH@Z 000000018004bcb0 f i InflationConvexHullLib.obj
 0001:0004ad10       ??0HullTriangles@local@@QEAA@XZ 000000018004bd10 f i InflationConvexHullLib.obj
 0001:0004ad70       ??0PxTransform@physx@@QEAA@XZ 000000018004bd70 f i InflationConvexHullLib.obj
 0001:0004adb0       ??0Tri@local@@IEAA@HHH@Z   000000018004bdb0 f i InflationConvexHullLib.obj
 0001:0004ae50       ??0int3@local@@QEAA@HHH@Z  000000018004be50 f i InflationConvexHullLib.obj
 0001:0004aea0       ??1?$Array@EVNamedAllocator@shdfnd@physx@@@shdfnd@physx@@QEAA@XZ 000000018004bea0 f i InflationConvexHullLib.obj
 0001:0004af20       ??1?$Array@HVNamedAllocator@shdfnd@physx@@@shdfnd@physx@@QEAA@XZ 000000018004bf20 f i InflationConvexHullLib.obj
 0001:0004afb0       ??1?$Array@PEAVTri@local@@VNamedAllocator@shdfnd@physx@@@shdfnd@physx@@QEAA@XZ 000000018004bfb0 f i InflationConvexHullLib.obj
 0001:0004b040       ??1?$Array@UExpandPlane@local@@VNamedAllocator@shdfnd@physx@@@shdfnd@physx@@QEAA@XZ 000000018004c040 f i InflationConvexHullLib.obj
 0001:0004b0d0       ??1?$Array@VHalfEdge@ConvexHull@physx@@VNamedAllocator@shdfnd@3@@shdfnd@physx@@QEAA@XZ 000000018004c0d0 f i InflationConvexHullLib.obj
 0001:0004b160       ??1?$Array@VPxPlane@physx@@VNamedAllocator@shdfnd@2@@shdfnd@physx@@QEAA@XZ 000000018004c160 f i InflationConvexHullLib.obj
 0001:0004b1f0       ??1?$ScopedPointer@_NVTempAllocator@shdfnd@physx@@@shdfnd@physx@@QEAA@XZ 000000018004c1f0 f i InflationConvexHullLib.obj
 0001:0004b230       ??1ConvexHull@physx@@QEAA@XZ 000000018004c230 f i InflationConvexHullLib.obj
 0001:0004b280       ??1HullTriangles@local@@QEAA@XZ 000000018004c280 f i InflationConvexHullLib.obj
 0001:0004b360       ??1Tri@local@@IEAA@XZ      000000018004c360 f i InflationConvexHullLib.obj
 0001:0004b370       ??4?$PxFlags@W4Enum@PxConvexFlag@physx@@G@physx@@QEAAAEAV01@AEBV01@@Z 000000018004c370 f i InflationConvexHullLib.obj
 0001:0004b3a0       ??A?$Array@EVNamedAllocator@shdfnd@physx@@@shdfnd@physx@@QEAAAEAEI@Z 000000018004c3a0 f i InflationConvexHullLib.obj
 0001:0004b440       ??A?$Array@HVNamedAllocator@shdfnd@physx@@@shdfnd@physx@@QEAAAEAHI@Z 000000018004c440 f i InflationConvexHullLib.obj
 0001:0004b4e0       ??A?$Array@PEAVTri@local@@VNamedAllocator@shdfnd@physx@@@shdfnd@physx@@QEAAAEAPEAVTri@local@@I@Z 000000018004c4e0 f i InflationConvexHullLib.obj
 0001:0004b580       ??A?$Array@PEAVTri@local@@VNamedAllocator@shdfnd@physx@@@shdfnd@physx@@QEBAAEBQEAVTri@local@@I@Z 000000018004c580 f i InflationConvexHullLib.obj
 0001:0004b620       ??A?$Array@UExpandPlane@local@@VNamedAllocator@shdfnd@physx@@@shdfnd@physx@@QEAAAEAUExpandPlane@local@@I@Z 000000018004c620 f i InflationConvexHullLib.obj
 0001:0004b6c0       ??A?$Array@VPxPlane@physx@@VNamedAllocator@shdfnd@2@@shdfnd@physx@@QEAAAEAVPxPlane@2@I@Z 000000018004c6c0 f i InflationConvexHullLib.obj
 0001:0004b760       ??AHullSimplex@local@@QEAAAEAHH@Z 000000018004c760 f i InflationConvexHullLib.obj
 0001:0004b780       ??AHullTriangles@local@@QEAAPEAVTri@1@I@Z 000000018004c780 f i InflationConvexHullLib.obj
 0001:0004b7b0       ??AHullTriangles@local@@QEBAPEBVTri@1@I@Z 000000018004c7b0 f i InflationConvexHullLib.obj
 0001:0004b7e0       ??Aint3@local@@QEAAAEAHH@Z 000000018004c7e0 f i InflationConvexHullLib.obj
 0001:0004b800       ??Aint3@local@@QEBAAEBHH@Z 000000018004c800 f i InflationConvexHullLib.obj
 0001:0004b820       ??B?$ScopedPointer@_NVTempAllocator@shdfnd@physx@@@shdfnd@physx@@QEBAPEA_NXZ 000000018004c820 f i InflationConvexHullLib.obj
 0001:0004b840       ??KPxVec3@physx@@QEBA?AV01@M@Z 000000018004c840 f i InflationConvexHullLib.obj
 0001:0004b8e0       ??_GConvexHull@physx@@QEAAPEAXI@Z 000000018004c8e0 f i InflationConvexHullLib.obj
 0001:0004b950       ??_EInflationConvexHullLib@physx@@UEAAPEAXI@Z 000000018004c950 f i InflationConvexHullLib.obj
 0001:0004b950       ??_GInflationConvexHullLib@physx@@UEAAPEAXI@Z 000000018004c950 f i InflationConvexHullLib.obj
 0001:0004b9c0       ??_GTri@local@@IEAAPEAXI@Z 000000018004c9c0 f i InflationConvexHullLib.obj
 0001:0004ba30       ?allocate@?$Array@EVNamedAllocator@shdfnd@physx@@@shdfnd@physx@@IEAAPEAEI@Z 000000018004ca30 f i InflationConvexHullLib.obj
 0001:0004bad0       ?allocate@?$Array@HVNamedAllocator@shdfnd@physx@@@shdfnd@physx@@IEAAPEAHI@Z 000000018004cad0 f i InflationConvexHullLib.obj
 0001:0004bb80       ?allocate@?$Array@PEAVTri@local@@VNamedAllocator@shdfnd@physx@@@shdfnd@physx@@IEAAPEAPEAVTri@local@@I@Z 000000018004cb80 f i InflationConvexHullLib.obj
 0001:0004bc30       ?allocate@?$Array@UExpandPlane@local@@VNamedAllocator@shdfnd@physx@@@shdfnd@physx@@IEAAPEAUExpandPlane@local@@I@Z 000000018004cc30 f i InflationConvexHullLib.obj
 0001:0004bce0       ?allocate@?$ReflectionAllocator@UPxHullPolygon@physx@@@shdfnd@physx@@QEAAPEAX_KPEBDH@Z 000000018004cce0 f i InflationConvexHullLib.obj
 0001:0004bd80       ?allocate@?$ReflectionAllocator@VTri@local@@@shdfnd@physx@@QEAAPEAX_KPEBDH@Z 000000018004cd80 f i InflationConvexHullLib.obj
 0001:0004be20       ?b2bfix@HullTriangles@local@@IEAAXPEAVTri@2@0@Z 000000018004ce20 f i InflationConvexHullLib.obj
 0001:0004c120       ?capacity@?$Array@EVNamedAllocator@shdfnd@physx@@@shdfnd@physx@@QEBAIXZ 000000018004d120 f i InflationConvexHullLib.obj
 0001:0004c140       ?capacity@?$Array@HVNamedAllocator@shdfnd@physx@@@shdfnd@physx@@QEBAIXZ 000000018004d140 f i InflationConvexHullLib.obj
 0001:0004c160       ?capacity@?$Array@PEAVTri@local@@VNamedAllocator@shdfnd@physx@@@shdfnd@physx@@QEBAIXZ 000000018004d160 f i InflationConvexHullLib.obj
 0001:0004c180       ?capacity@?$Array@UExpandPlane@local@@VNamedAllocator@shdfnd@physx@@@shdfnd@physx@@QEBAIXZ 000000018004d180 f i InflationConvexHullLib.obj
 0001:0004c1a0       ?capacityIncrement@?$Array@EVNamedAllocator@shdfnd@physx@@@shdfnd@physx@@IEBAIXZ 000000018004d1a0 f i InflationConvexHullLib.obj
 0001:0004c1f0       ?capacityIncrement@?$Array@HVNamedAllocator@shdfnd@physx@@@shdfnd@physx@@IEBAIXZ 000000018004d1f0 f i InflationConvexHullLib.obj
 0001:0004c240       ?capacityIncrement@?$Array@PEAVTri@local@@VNamedAllocator@shdfnd@physx@@@shdfnd@physx@@IEBAIXZ 000000018004d240 f i InflationConvexHullLib.obj
 0001:0004c290       ?capacityIncrement@?$Array@UExpandPlane@local@@VNamedAllocator@shdfnd@physx@@@shdfnd@physx@@IEBAIXZ 000000018004d290 f i InflationConvexHullLib.obj
 0001:0004c2e0       ?checkit@HullTriangles@local@@QEBAXPEAVTri@2@@Z 000000018004d2e0 f i InflationConvexHullLib.obj
 0001:0004c540       ?clear@?$Array@HVNamedAllocator@shdfnd@physx@@@shdfnd@physx@@QEAAXXZ 000000018004d540 f i InflationConvexHullLib.obj
 0001:0004c590       ?clear@?$Array@PEAVTri@local@@VNamedAllocator@shdfnd@physx@@@shdfnd@physx@@QEAAXXZ 000000018004d590 f i InflationConvexHullLib.obj
 0001:0004c5e0       ?copy@?$Array@EVNamedAllocator@shdfnd@physx@@@shdfnd@physx@@KAXPEAE0PEBE@Z 000000018004d5e0 f i InflationConvexHullLib.obj
 0001:0004c670       ?copy@?$Array@HVNamedAllocator@shdfnd@physx@@@shdfnd@physx@@KAXPEAH0PEBH@Z 000000018004d670 f i InflationConvexHullLib.obj
 0001:0004c710       ?copy@?$Array@PEAVTri@local@@VNamedAllocator@shdfnd@physx@@@shdfnd@physx@@KAXPEAPEAVTri@local@@0PEBQEAV45@@Z 000000018004d710 f i InflationConvexHullLib.obj
 0001:0004c7b0       ?copy@?$Array@UExpandPlane@local@@VNamedAllocator@shdfnd@physx@@@shdfnd@physx@@KAXPEAUExpandPlane@local@@0PEBU45@@Z 000000018004d7b0 f i InflationConvexHullLib.obj
 0001:0004c850       ?create@?$Array@HVNamedAllocator@shdfnd@physx@@@shdfnd@physx@@KAXPEAH0AEBH@Z 000000018004d850 f i InflationConvexHullLib.obj
 0001:0004c8c0       ?createEdgeList@InflationConvexHullLib@physx@@UEAA_NIPEBEPEAPEAEPEAPEAG2@Z 000000018004d8c0 f i InflationConvexHullLib.obj
 0001:0004c8e0       ?createTri@HullTriangles@local@@QEAAPEAVTri@2@HHH@Z 000000018004d8e0 f i InflationConvexHullLib.obj
 0001:0004c9d0       ?deallocate@?$Array@EVNamedAllocator@shdfnd@physx@@@shdfnd@physx@@IEAAXPEAX@Z 000000018004d9d0 f i InflationConvexHullLib.obj
 0001:0004ca00       ?deallocate@?$Array@HVNamedAllocator@shdfnd@physx@@@shdfnd@physx@@IEAAXPEAX@Z 000000018004da00 f i InflationConvexHullLib.obj
 0001:0004ca30       ?deallocate@?$Array@PEAVTri@local@@VNamedAllocator@shdfnd@physx@@@shdfnd@physx@@IEAAXPEAX@Z 000000018004da30 f i InflationConvexHullLib.obj
 0001:0004ca60       ?deallocate@?$Array@UExpandPlane@local@@VNamedAllocator@shdfnd@physx@@@shdfnd@physx@@IEAAXPEAX@Z 000000018004da60 f i InflationConvexHullLib.obj
 0001:0004ca90       ?deleteTri@HullTriangles@local@@QEAAXPEAVTri@2@@Z 000000018004da90 f i InflationConvexHullLib.obj
 0001:0004cb90       ?destroy@?$Array@EVNamedAllocator@shdfnd@physx@@@shdfnd@physx@@KAXPEAE0@Z 000000018004db90 f i InflationConvexHullLib.obj
 0001:0004cbd0       ?destroy@?$Array@HVNamedAllocator@shdfnd@physx@@@shdfnd@physx@@KAXPEAH0@Z 000000018004dbd0 f i InflationConvexHullLib.obj
 0001:0004cc10       ?destroy@?$Array@PEAVTri@local@@VNamedAllocator@shdfnd@physx@@@shdfnd@physx@@KAXPEAPEAVTri@local@@0@Z 000000018004dc10 f i InflationConvexHullLib.obj
 0001:0004cc50       ?destroy@?$Array@UExpandPlane@local@@VNamedAllocator@shdfnd@physx@@@shdfnd@physx@@KAXPEAUExpandPlane@local@@0@Z 000000018004dc50 f i InflationConvexHullLib.obj
 0001:0004cc90       ?extrude@HullTriangles@local@@QEAAXPEAVTri@2@H@Z 000000018004dc90 f i InflationConvexHullLib.obj
 0001:0004d300       ?findExtrudable@HullTriangles@local@@QEBAPEAVTri@2@M@Z 000000018004e300 f i InflationConvexHullLib.obj
 0001:0004d410       ?getArea2@Tri@local@@QEBAMPEBVPxVec3@physx@@@Z 000000018004e410 f i InflationConvexHullLib.obj
 0001:0004d530       ?getName@?$ReflectionAllocator@UPxHullPolygon@physx@@@shdfnd@physx@@CAPEBDXZ 000000018004e530 f i InflationConvexHullLib.obj
 0001:0004d580       ?getName@?$ReflectionAllocator@VTri@local@@@shdfnd@physx@@CAPEBDXZ 000000018004e580 f i InflationConvexHullLib.obj
 0001:0004d5d0       ?getNormal@Tri@local@@QEBA?AVPxVec3@physx@@PEBV34@@Z 000000018004e5d0 f i InflationConvexHullLib.obj
 0001:0004d780       ?getTriangles@HullTriangles@local@@QEAAAEAV?$Array@PEAVTri@local@@VNamedAllocator@shdfnd@physx@@@shdfnd@physx@@XZ 000000018004e780 f i InflationConvexHullLib.obj
 0001:0004d790       ?grow@?$Array@EVNamedAllocator@shdfnd@physx@@@shdfnd@physx@@IEAAXI@Z 000000018004e790 f i InflationConvexHullLib.obj
 0001:0004d830       ?grow@?$Array@HVNamedAllocator@shdfnd@physx@@@shdfnd@physx@@IEAAXI@Z 000000018004e830 f i InflationConvexHullLib.obj
 0001:0004d8d0       ?grow@?$Array@PEAVTri@local@@VNamedAllocator@shdfnd@physx@@@shdfnd@physx@@IEAAXI@Z 000000018004e8d0 f i InflationConvexHullLib.obj
 0001:0004d970       ?growAndPushBack@?$Array@EVNamedAllocator@shdfnd@physx@@@shdfnd@physx@@IEAAAEAEAEBE@Z 000000018004e970 f i InflationConvexHullLib.obj
 0001:0004db60       ?growAndPushBack@?$Array@HVNamedAllocator@shdfnd@physx@@@shdfnd@physx@@IEAAAEAHAEBH@Z 000000018004eb60 f i InflationConvexHullLib.obj
 0001:0004dd40       ?growAndPushBack@?$Array@PEAVTri@local@@VNamedAllocator@shdfnd@physx@@@shdfnd@physx@@IEAAAEAPEAVTri@local@@AEBQEAV45@@Z 000000018004ed40 f i InflationConvexHullLib.obj
 0001:0004df20       ?growAndPushBack@?$Array@UExpandPlane@local@@VNamedAllocator@shdfnd@physx@@@shdfnd@physx@@IEAAAEAUExpandPlane@local@@AEBU45@@Z 000000018004ef20 f i InflationConvexHullLib.obj
 0001:0004e110       ?hasVolume@HullSimplex@local@@SA_NPEBVPxVec3@physx@@IIII@Z 000000018004f110 f i InflationConvexHullLib.obj
 0001:0004e2f0       ?isInUserMemory@?$Array@EVNamedAllocator@shdfnd@physx@@@shdfnd@physx@@QEBAIXZ 000000018004f2f0 f i InflationConvexHullLib.obj
 0001:0004e310       ?isInUserMemory@?$Array@HVNamedAllocator@shdfnd@physx@@@shdfnd@physx@@QEBAIXZ 000000018004f310 f i InflationConvexHullLib.obj
 0001:0004e330       ?isInUserMemory@?$Array@PEAVTri@local@@VNamedAllocator@shdfnd@physx@@@shdfnd@physx@@QEBAIXZ 000000018004f330 f i InflationConvexHullLib.obj
 0001:0004e350       ?isInUserMemory@?$Array@UExpandPlane@local@@VNamedAllocator@shdfnd@physx@@@shdfnd@physx@@QEBAIXZ 000000018004f350 f i InflationConvexHullLib.obj
 0001:0004e370       ?neib@Tri@local@@QEAAAEAHHH@Z 000000018004f370 f i InflationConvexHullLib.obj
 0001:0004e510       ?pushBack@?$Array@EVNamedAllocator@shdfnd@physx@@@shdfnd@physx@@QEAAAEAEAEBE@Z 000000018004f510 f i InflationConvexHullLib.obj
 0001:0004e5e0       ?pushBack@?$Array@HVNamedAllocator@shdfnd@physx@@@shdfnd@physx@@QEAAAEAHAEBH@Z 000000018004f5e0 f i InflationConvexHullLib.obj
 0001:0004e6b0       ?pushBack@?$Array@PEAVTri@local@@VNamedAllocator@shdfnd@physx@@@shdfnd@physx@@QEAAAEAPEAVTri@local@@AEBQEAV45@@Z 000000018004f6b0 f i InflationConvexHullLib.obj
 0001:0004e780       ?pushBack@?$Array@UExpandPlane@local@@VNamedAllocator@shdfnd@physx@@@shdfnd@physx@@QEAAAEAUExpandPlane@local@@AEBU45@@Z 000000018004f780 f i InflationConvexHullLib.obj
 0001:0004e850       ?recreate@?$Array@EVNamedAllocator@shdfnd@physx@@@shdfnd@physx@@IEAAXI@Z 000000018004f850 f i InflationConvexHullLib.obj
 0001:0004e9a0       ?recreate@?$Array@HVNamedAllocator@shdfnd@physx@@@shdfnd@physx@@IEAAXI@Z 000000018004f9a0 f i InflationConvexHullLib.obj
 0001:0004eb00       ?recreate@?$Array@PEAVTri@local@@VNamedAllocator@shdfnd@physx@@@shdfnd@physx@@IEAAXI@Z 000000018004fb00 f i InflationConvexHullLib.obj
 0001:0004ec60       ?removeb2b@HullTriangles@local@@IEAAXPEAVTri@2@0@Z 000000018004fc60 f i InflationConvexHullLib.obj
 0001:0004ecc0       ?reserve@?$Array@EVNamedAllocator@shdfnd@physx@@@shdfnd@physx@@QEAAXI@Z 000000018004fcc0 f i InflationConvexHullLib.obj
 0001:0004ed00       ?reserve@?$Array@HVNamedAllocator@shdfnd@physx@@@shdfnd@physx@@QEAAXI@Z 000000018004fd00 f i InflationConvexHullLib.obj
 0001:0004ed40       ?reserve@?$Array@PEAVTri@local@@VNamedAllocator@shdfnd@physx@@@shdfnd@physx@@QEAAXI@Z 000000018004fd40 f i InflationConvexHullLib.obj
 0001:0004ed80       ?resize@?$Array@HVNamedAllocator@shdfnd@physx@@@shdfnd@physx@@QEAAXIAEBH@Z 000000018004fd80 f i InflationConvexHullLib.obj
 0001:0004ee40       ?size@?$Array@HVNamedAllocator@shdfnd@physx@@@shdfnd@physx@@QEBAIXZ 000000018004fe40 f i InflationConvexHullLib.obj
 0001:0004ee60       ?size@?$Array@PEAVTri@local@@VNamedAllocator@shdfnd@physx@@@shdfnd@physx@@QEBAIXZ 000000018004fe60 f i InflationConvexHullLib.obj
 0001:0004ee80       ?size@?$Array@UExpandPlane@local@@VNamedAllocator@shdfnd@physx@@@shdfnd@physx@@QEBAIXZ 000000018004fe80 f i InflationConvexHullLib.obj
 0001:0004eea0       ?size@HullTriangles@local@@QEBAIXZ 000000018004fea0 f i InflationConvexHullLib.obj
 0001:0004eed0       ?to8@shdfnd@physx@@YAEH@Z  000000018004fed0 f i InflationConvexHullLib.obj
 0001:0004f030       ??0QuickHullConvexHullLib@physx@@QEAA@AEBVPxConvexMeshDesc@1@AEBUPxCookingParams@1@@Z 0000000180050030 f   QuickHullConvexHullLib.obj
 0001:0004f130       ??1QuickHullConvexHullLib@physx@@UEAA@XZ 0000000180050130 f   QuickHullConvexHullLib.obj
 0001:0004f210       ?createConvexHull@QuickHullConvexHullLib@physx@@UEAA?AW4Enum@PxConvexMeshCookingResult@2@XZ 0000000180050210 f   QuickHullConvexHullLib.obj
 0001:0004f7b0       ?fillConvexMeshDesc@QuickHullConvexHullLib@physx@@UEAAXAEAVPxConvexMeshDesc@2@@Z 00000001800507b0 f   QuickHullConvexHullLib.obj
 0001:0004f840       ?createEdgeList@QuickHullConvexHullLib@physx@@UEAA_NIPEBEPEAPEAEPEAPEAG2@Z 0000000180050840 f   QuickHullConvexHullLib.obj
 0001:0004fda0       ?expandHullOBB@QuickHullConvexHullLib@physx@@IEAA?AW4Enum@PxConvexMeshCookingResult@2@XZ 0000000180050da0 f   QuickHullConvexHullLib.obj
 0001:00050370       ?expandHull@QuickHullConvexHullLib@physx@@IEAA?AW4Enum@PxConvexMeshCookingResult@2@XZ 0000000180051370 f   QuickHullConvexHullLib.obj
 0001:00050b00       ?cleanupForSimplex@QuickHullConvexHullLib@physx@@IEAA_NPEAVPxVec3@2@IPEAUQuickHullVertex@local@@1AEAM2@Z 0000000180051b00 f   QuickHullConvexHullLib.obj
 0001:00051730       ?fillConvexMeshDescFromQuickHull@QuickHullConvexHullLib@physx@@IEAAXAEAVPxConvexMeshDesc@2@@Z 0000000180052730 f   QuickHullConvexHullLib.obj
 0001:00051f20       ?fillConvexMeshDescFromCroppedHull@QuickHullConvexHullLib@physx@@IEAAXAEAVPxConvexMeshDesc@2@@Z 0000000180052f20 f   QuickHullConvexHullLib.obj
 0001:000524b0       ?getOppositeFaceDistance@QuickHullHalfEdge@local@@QEBAMXZ 00000001800534b0 f   QuickHullConvexHullLib.obj
 0001:000525b0       ?mergeAdjacentFace@QuickHullFace@local@@QEAA_NPEAUQuickHullHalfEdge@2@AEAV?$Array@PEAUQuickHullFace@local@@VNamedAllocator@shdfnd@physx@@@shdfnd@physx@@@Z 00000001800535b0 f   QuickHullConvexHullLib.obj
 0001:00052830       ?checkFaceConsistency@QuickHullFace@local@@QEAA_NXZ 0000000180053830 f   QuickHullConvexHullLib.obj
 0001:00052af0       ?connectHalfEdges@QuickHullFace@local@@AEAAPEAU12@PEAUQuickHullHalfEdge@2@0@Z 0000000180053af0 f   QuickHullConvexHullLib.obj
 0001:00052c70       ??0QuickHull@local@@QEAA@AEBUPxCookingParams@physx@@AEBVPxConvexMeshDesc@3@@Z 0000000180053c70 f   QuickHullConvexHullLib.obj
 0001:00052ea0       ??1QuickHull@local@@QEAA@XZ 0000000180053ea0 f   QuickHullConvexHullLib.obj
 0001:00052f50       ?preallocate@QuickHull@local@@QEAAXI@Z 0000000180053f50 f   QuickHullConvexHullLib.obj
 0001:00053110       ?parseInputVertices@QuickHull@local@@QEAAXPEBVPxVec3@physx@@I@Z 0000000180054110 f   QuickHullConvexHullLib.obj
 0001:00053250       ?releaseHull@QuickHull@local@@QEAAXXZ 0000000180054250 f   QuickHullConvexHullLib.obj
 0001:000532b0       ?setPrecomputedMinMax@QuickHull@local@@QEAAXPEBUQuickHullVertex@2@0MM@Z 00000001800542b0 f   QuickHullConvexHullLib.obj
 0001:00053390       ?buildHull@QuickHull@local@@QEAA?AW4Enum@QuickHullResult@2@XZ 0000000180054390 f   QuickHullConvexHullLib.obj
 0001:000536c0       ?maxNumVertsPerFace@QuickHull@local@@QEBAIXZ 00000001800546c0 f   QuickHullConvexHullLib.obj
 0001:00053760       ?computeMinMaxVerts@QuickHull@local@@IEAAXXZ 0000000180054760 f   QuickHullConvexHullLib.obj
 0001:00053c10       ?findSimplex@QuickHull@local@@IEAA_NXZ 0000000180054c10 f   QuickHullConvexHullLib.obj
 0001:00054180       ?addSimplex@QuickHull@local@@IEAAXPEAUQuickHullVertex@2@_N@Z 0000000180055180 f   QuickHullConvexHullLib.obj
 0001:000549c0       ?nextPointToAdd@QuickHull@local@@IEAAPEAUQuickHullVertex@2@AEAPEAUQuickHullFace@2@@Z 00000001800559c0 f   QuickHullConvexHullLib.obj
 0001:00054b10       ?addPointToHull@QuickHull@local@@IEAA_NPEBUQuickHullVertex@2@AEAUQuickHullFace@2@AEA_N@Z 0000000180055b10 f   QuickHullConvexHullLib.obj
 0001:00054e50       ?createTriangle@QuickHull@local@@IEAAPEAUQuickHullFace@2@AEBUQuickHullVertex@2@00@Z 0000000180055e50 f   QuickHullConvexHullLib.obj
 0001:00054f90       ?addPointToFace@QuickHull@local@@IEAAXAEAUQuickHullFace@2@PEAUQuickHullVertex@2@M@Z 0000000180055f90 f   QuickHullConvexHullLib.obj
 0001:000550c0       ?removeEyePointFromFace@QuickHull@local@@IEAAXAEAUQuickHullFace@2@PEBUQuickHullVertex@2@@Z 00000001800560c0 f   QuickHullConvexHullLib.obj
 0001:00055160       ?calculateHorizon@QuickHull@local@@IEAAXAEBVPxVec3@physx@@PEAUQuickHullHalfEdge@2@AEAUQuickHullFace@2@AEAV?$Array@PEAUQuickHullHalfEdge@local@@VNamedAllocator@shdfnd@physx@@@shdfnd@4@AEAV?$Array@PEAUQuickHullFace@local@@VNamedAllocator@shdfnd@physx@@@84@@Z 0000000180056160 f   QuickHullConvexHullLib.obj
 0001:00055300       ?addNewFacesFromHorizon@QuickHull@local@@IEAAXPEBUQuickHullVertex@2@AEBV?$Array@PEAUQuickHullHalfEdge@local@@VNamedAllocator@shdfnd@physx@@@shdfnd@physx@@AEAV?$Array@PEAUQuickHullFace@local@@VNamedAllocator@shdfnd@physx@@@56@@Z 0000000180056300 f   QuickHullConvexHullLib.obj
 0001:00055470       ?doAdjacentMerge@QuickHull@local@@IEAA_NAEAUQuickHullFace@2@_NAEA_N@Z 0000000180056470 f   QuickHullConvexHullLib.obj
 0001:00055750       ?doPostAdjacentMerge@QuickHull@local@@IEAA_NAEAUQuickHullFace@2@M@Z 0000000180056750 f   QuickHullConvexHullLib.obj
 0001:00055970       ?deleteFacePoints@QuickHull@local@@IEAAXAEAUQuickHullFace@2@PEAU32@@Z 0000000180056970 f   QuickHullConvexHullLib.obj
 0001:00055aa0       ?resolveUnclaimedPoints@QuickHull@local@@IEAAXAEBV?$Array@PEAUQuickHullFace@local@@VNamedAllocator@shdfnd@physx@@@shdfnd@physx@@@Z 0000000180056aa0 f   QuickHullConvexHullLib.obj
 0001:00055c10       ?postMergeHull@QuickHull@local@@IEAAXXZ 0000000180056c10 f   QuickHullConvexHullLib.obj
 0001:00055d00       ?canMergeFaces@QuickHull@local@@IEAA_NAEBUQuickHullHalfEdge@2@@Z 0000000180056d00 f   QuickHullConvexHullLib.obj
 0001:000565f0       ?getExpandPoint@local@@YAXAEBUQuickHullHalfEdge@1@AEAUExpandPoint@1@PEBV?$Array@IVNamedAllocator@shdfnd@physx@@@shdfnd@physx@@@Z 00000001800575f0 f   QuickHullConvexHullLib.obj
 0001:00056840       ?addExpandPoint@local@@YAXAEBUExpandPoint@1@AEAV?$Array@UExpandPoint@local@@VNamedAllocator@shdfnd@physx@@@shdfnd@physx@@@Z 0000000180057840 f   QuickHullConvexHullLib.obj
 0001:00058800       ??$?2V?$ReflectionAllocator@VQuickHull@local@@@shdfnd@physx@@@UserAllocated@shdfnd@physx@@SAPEAX_KV?$ReflectionAllocator@VQuickHull@local@@@12@PEBDH@Z 0000000180059800 f i QuickHullConvexHullLib.obj
 0001:00058850       ??$PX_UNUSED@PEAUQuickHullFace@local@@@@YAXAEBQEAUQuickHullFace@local@@@Z 0000000180059850 f i QuickHullConvexHullLib.obj
 0001:00058860       ??$PX_UNUSED@PEBUQuickHullVertex@local@@@@YAXAEBQEBUQuickHullVertex@local@@@Z 0000000180059860 f i QuickHullConvexHullLib.obj
 0001:00058870       ??$PX_UNUSED@W4PxZERO@physx@@@@YAXAEBW4PxZERO@physx@@@Z 0000000180059870 f i QuickHullConvexHullLib.obj
 0001:00058880       ??0?$Array@PEAUQuickHullFace@local@@VNamedAllocator@shdfnd@physx@@@shdfnd@physx@@QEAA@AEBVNamedAllocator@12@@Z 0000000180059880 f i QuickHullConvexHullLib.obj
 0001:000588e0       ??0?$Array@PEAUQuickHullHalfEdge@local@@VNamedAllocator@shdfnd@physx@@@shdfnd@physx@@QEAA@AEBVNamedAllocator@12@@Z 00000001800598e0 f i QuickHullConvexHullLib.obj
 0001:00058940       ??0?$Array@PEAUQuickHullVertex@local@@VNamedAllocator@shdfnd@physx@@@shdfnd@physx@@QEAA@AEBVNamedAllocator@12@@Z 0000000180059940 f i QuickHullConvexHullLib.obj
 0001:000589a0       ??0?$Array@UExpandPoint@local@@VNamedAllocator@shdfnd@physx@@@shdfnd@physx@@QEAA@AEBVNamedAllocator@12@@Z 00000001800599a0 f i QuickHullConvexHullLib.obj
 0001:00058a00       ??0?$MemBlock@UQuickHullFace@local@@$00@local@@QEAA@XZ 0000000180059a00 f i QuickHullConvexHullLib.obj
 0001:00058a80       ??0?$MemBlock@UQuickHullHalfEdge@local@@$0A@@local@@QEAA@XZ 0000000180059a80 f i QuickHullConvexHullLib.obj
 0001:00058b00       ??0?$ReflectionAllocator@VQuickHull@local@@@shdfnd@physx@@QEAA@PEBD@Z 0000000180059b00 f i QuickHullConvexHullLib.obj
 0001:00058b20       ??0?$ScopedPointer@UQuickHullHalfEdge@local@@VTempAllocator@shdfnd@physx@@@shdfnd@physx@@QEAA@XZ 0000000180059b20 f i QuickHullConvexHullLib.obj
 0001:00058b50       ??0?$ScopedPointer@VPxVec3@physx@@VTempAllocator@shdfnd@2@@shdfnd@physx@@QEAA@XZ 0000000180059b50 f i QuickHullConvexHullLib.obj
 0001:00058b80       ??0ExpandPoint@local@@QEAA@AEBU01@@Z 0000000180059b80 f i QuickHullConvexHullLib.obj
 0001:00058c00       ??0ExpandPoint@local@@QEAA@XZ 0000000180059c00 f i QuickHullConvexHullLib.obj
 0001:00058c40       ??0PxVec3@physx@@QEAA@W4PxZERO@1@@Z 0000000180059c40 f i QuickHullConvexHullLib.obj
 0001:00058ca0       ??0QuickHullFace@local@@QEAA@I@Z 0000000180059ca0 f i QuickHullConvexHullLib.obj
 0001:00058d90       ??0QuickHullFace@local@@QEAA@XZ 0000000180059d90 f i QuickHullConvexHullLib.obj
 0001:00058e60       ??0QuickHullHalfEdge@local@@QEAA@I@Z 0000000180059e60 f i QuickHullConvexHullLib.obj
 0001:00058ee0       ??0QuickHullVertex@local@@QEAA@XZ 0000000180059ee0 f i QuickHullConvexHullLib.obj
 0001:00058f10       ??1?$Array@PEAUQuickHullFace@local@@VNamedAllocator@shdfnd@physx@@@shdfnd@physx@@QEAA@XZ 0000000180059f10 f i QuickHullConvexHullLib.obj
 0001:00058fa0       ??1?$Array@PEAUQuickHullHalfEdge@local@@VNamedAllocator@shdfnd@physx@@@shdfnd@physx@@QEAA@XZ 0000000180059fa0 f i QuickHullConvexHullLib.obj
 0001:00059030       ??1?$Array@PEAUQuickHullVertex@local@@VNamedAllocator@shdfnd@physx@@@shdfnd@physx@@QEAA@XZ 000000018005a030 f i QuickHullConvexHullLib.obj
 0001:000590c0       ??1?$Array@UExpandPoint@local@@VNamedAllocator@shdfnd@physx@@@shdfnd@physx@@QEAA@XZ 000000018005a0c0 f i QuickHullConvexHullLib.obj
 0001:00059150       ??1?$MemBlock@UQuickHullFace@local@@$00@local@@QEAA@XZ 000000018005a150 f i QuickHullConvexHullLib.obj
 0001:00059210       ??1?$MemBlock@UQuickHullHalfEdge@local@@$0A@@local@@QEAA@XZ 000000018005a210 f i QuickHullConvexHullLib.obj
 0001:000592d0       ??1?$ScopedPointer@UQuickHullHalfEdge@local@@VTempAllocator@shdfnd@physx@@@shdfnd@physx@@QEAA@XZ 000000018005a2d0 f i QuickHullConvexHullLib.obj
 0001:00059310       ??1?$ScopedPointer@VPxVec3@physx@@VTempAllocator@shdfnd@2@@shdfnd@physx@@QEAA@XZ 000000018005a310 f i QuickHullConvexHullLib.obj
 0001:00059350       ??1QuickHullFace@local@@QEAA@XZ 000000018005a350 f i QuickHullConvexHullLib.obj
 0001:00059360       ??4QuickHullVertex@local@@QEAAAEAU01@AEBU01@@Z 000000018005a360 f i QuickHullConvexHullLib.obj
 0001:000593e0       ??8ExpandPoint@local@@QEBA_NAEBU01@@Z 000000018005a3e0 f i QuickHullConvexHullLib.obj
 0001:00059490       ??8QuickHullVertex@local@@QEBA_NAEBU01@@Z 000000018005a490 f i QuickHullConvexHullLib.obj
 0001:000594d0       ??A?$Array@IVNamedAllocator@shdfnd@physx@@@shdfnd@physx@@QEBAAEBII@Z 000000018005a4d0 f i QuickHullConvexHullLib.obj
 0001:00059570       ??A?$Array@PEAUQuickHullFace@local@@VNamedAllocator@shdfnd@physx@@@shdfnd@physx@@QEAAAEAPEAUQuickHullFace@local@@I@Z 000000018005a570 f i QuickHullConvexHullLib.obj
 0001:00059610       ??A?$Array@PEAUQuickHullFace@local@@VNamedAllocator@shdfnd@physx@@@shdfnd@physx@@QEBAAEBQEAUQuickHullFace@local@@I@Z 000000018005a610 f i QuickHullConvexHullLib.obj
 0001:000596b0       ??A?$Array@PEAUQuickHullHalfEdge@local@@VNamedAllocator@shdfnd@physx@@@shdfnd@physx@@QEAAAEAPEAUQuickHullHalfEdge@local@@I@Z 000000018005a6b0 f i QuickHullConvexHullLib.obj
 0001:00059750       ??A?$Array@PEAUQuickHullHalfEdge@local@@VNamedAllocator@shdfnd@physx@@@shdfnd@physx@@QEBAAEBQEAUQuickHullHalfEdge@local@@I@Z 000000018005a750 f i QuickHullConvexHullLib.obj
 0001:000597f0       ??A?$Array@PEAUQuickHullVertex@local@@VNamedAllocator@shdfnd@physx@@@shdfnd@physx@@QEAAAEAPEAUQuickHullVertex@local@@I@Z 000000018005a7f0 f i QuickHullConvexHullLib.obj
 0001:00059890       ??A?$Array@UExpandPoint@local@@VNamedAllocator@shdfnd@physx@@@shdfnd@physx@@QEAAAEAUExpandPoint@local@@I@Z 000000018005a890 f i QuickHullConvexHullLib.obj
 0001:00059930       ??B?$ScopedPointer@UQuickHullHalfEdge@local@@VTempAllocator@shdfnd@physx@@@shdfnd@physx@@QEBAPEAUQuickHullHalfEdge@local@@XZ 000000018005a930 f i QuickHullConvexHullLib.obj
 0001:00059950       ??B?$ScopedPointer@VPxVec3@physx@@VTempAllocator@shdfnd@2@@shdfnd@physx@@QEBAPEAVPxVec3@2@XZ 000000018005a950 f i QuickHullConvexHullLib.obj
 0001:00059970       ??_GQuickHull@local@@QEAAPEAXI@Z 000000018005a970 f i QuickHullConvexHullLib.obj
 0001:000599e0       ??_EQuickHullConvexHullLib@physx@@UEAAPEAXI@Z 000000018005a9e0 f i QuickHullConvexHullLib.obj
 0001:000599e0       ??_GQuickHullConvexHullLib@physx@@UEAAPEAXI@Z 000000018005a9e0 f i QuickHullConvexHullLib.obj
 0001:00059a50       ??__G@YAXPEAX0_K1P6APEAX00@Z@Z 000000018005aa50 f i QuickHullConvexHullLib.obj
 0001:00059b10       ?allocate@?$Array@PEAUQuickHullFace@local@@VNamedAllocator@shdfnd@physx@@@shdfnd@physx@@IEAAPEAPEAUQuickHullFace@local@@I@Z 000000018005ab10 f i QuickHullConvexHullLib.obj
 0001:00059bc0       ?allocate@?$Array@PEAUQuickHullHalfEdge@local@@VNamedAllocator@shdfnd@physx@@@shdfnd@physx@@IEAAPEAPEAUQuickHullHalfEdge@local@@I@Z 000000018005abc0 f i QuickHullConvexHullLib.obj
 0001:00059c70       ?allocate@?$Array@PEAUQuickHullVertex@local@@VNamedAllocator@shdfnd@physx@@@shdfnd@physx@@IEAAPEAPEAUQuickHullVertex@local@@I@Z 000000018005ac70 f i QuickHullConvexHullLib.obj
 0001:00059d20       ?allocate@?$Array@UExpandPoint@local@@VNamedAllocator@shdfnd@physx@@@shdfnd@physx@@IEAAPEAUExpandPoint@local@@I@Z 000000018005ad20 f i QuickHullConvexHullLib.obj
 0001:00059dd0       ?allocate@?$ReflectionAllocator@VQuickHull@local@@@shdfnd@physx@@QEAAPEAX_KPEBDH@Z 000000018005add0 f i QuickHullConvexHullLib.obj
 0001:00059e70       ?capacity@?$Array@PEAUQuickHullFace@local@@VNamedAllocator@shdfnd@physx@@@shdfnd@physx@@QEBAIXZ 000000018005ae70 f i QuickHullConvexHullLib.obj
 0001:00059e90       ?capacity@?$Array@PEAUQuickHullHalfEdge@local@@VNamedAllocator@shdfnd@physx@@@shdfnd@physx@@QEBAIXZ 000000018005ae90 f i QuickHullConvexHullLib.obj
 0001:00059eb0       ?capacity@?$Array@PEAUQuickHullVertex@local@@VNamedAllocator@shdfnd@physx@@@shdfnd@physx@@QEBAIXZ 000000018005aeb0 f i QuickHullConvexHullLib.obj
 0001:00059ed0       ?capacity@?$Array@UExpandPoint@local@@VNamedAllocator@shdfnd@physx@@@shdfnd@physx@@QEBAIXZ 000000018005aed0 f i QuickHullConvexHullLib.obj
 0001:00059ef0       ?capacityIncrement@?$Array@PEAUQuickHullFace@local@@VNamedAllocator@shdfnd@physx@@@shdfnd@physx@@IEBAIXZ 000000018005aef0 f i QuickHullConvexHullLib.obj
 0001:00059f40       ?capacityIncrement@?$Array@PEAUQuickHullHalfEdge@local@@VNamedAllocator@shdfnd@physx@@@shdfnd@physx@@IEBAIXZ 000000018005af40 f i QuickHullConvexHullLib.obj
 0001:00059f90       ?capacityIncrement@?$Array@PEAUQuickHullVertex@local@@VNamedAllocator@shdfnd@physx@@@shdfnd@physx@@IEBAIXZ 000000018005af90 f i QuickHullConvexHullLib.obj
 0001:00059fe0       ?capacityIncrement@?$Array@UExpandPoint@local@@VNamedAllocator@shdfnd@physx@@@shdfnd@physx@@IEBAIXZ 000000018005afe0 f i QuickHullConvexHullLib.obj
 0001:0005a030       ?clear@?$Array@PEAUQuickHullFace@local@@VNamedAllocator@shdfnd@physx@@@shdfnd@physx@@QEAAXXZ 000000018005b030 f i QuickHullConvexHullLib.obj
 0001:0005a080       ?clear@?$Array@PEAUQuickHullHalfEdge@local@@VNamedAllocator@shdfnd@physx@@@shdfnd@physx@@QEAAXXZ 000000018005b080 f i QuickHullConvexHullLib.obj
 0001:0005a0d0       ?clear@?$Array@PEAUQuickHullVertex@local@@VNamedAllocator@shdfnd@physx@@@shdfnd@physx@@QEAAXXZ 000000018005b0d0 f i QuickHullConvexHullLib.obj
 0001:0005a120       ?computeNormalAndCentroid@QuickHullFace@local@@QEAAXXZ 000000018005b120 f i QuickHullConvexHullLib.obj
 0001:0005a4d0       ?copy@?$Array@PEAUQuickHullFace@local@@VNamedAllocator@shdfnd@physx@@@shdfnd@physx@@KAXPEAPEAUQuickHullFace@local@@0PEBQEAU45@@Z 000000018005b4d0 f i QuickHullConvexHullLib.obj
 0001:0005a570       ?copy@?$Array@PEAUQuickHullHalfEdge@local@@VNamedAllocator@shdfnd@physx@@@shdfnd@physx@@KAXPEAPEAUQuickHullHalfEdge@local@@0PEBQEAU45@@Z 000000018005b570 f i QuickHullConvexHullLib.obj
 0001:0005a610       ?copy@?$Array@PEAUQuickHullVertex@local@@VNamedAllocator@shdfnd@physx@@@shdfnd@physx@@KAXPEAPEAUQuickHullVertex@local@@0PEBQEAU45@@Z 000000018005b610 f i QuickHullConvexHullLib.obj
 0001:0005a6b0       ?copy@?$Array@UExpandPoint@local@@VNamedAllocator@shdfnd@physx@@@shdfnd@physx@@KAXPEAUExpandPoint@local@@0PEBU45@@Z 000000018005b6b0 f i QuickHullConvexHullLib.obj
 0001:0005a750       ?deallocate@?$Array@PEAUQuickHullFace@local@@VNamedAllocator@shdfnd@physx@@@shdfnd@physx@@IEAAXPEAX@Z 000000018005b750 f i QuickHullConvexHullLib.obj
 0001:0005a780       ?deallocate@?$Array@PEAUQuickHullHalfEdge@local@@VNamedAllocator@shdfnd@physx@@@shdfnd@physx@@IEAAXPEAX@Z 000000018005b780 f i QuickHullConvexHullLib.obj
 0001:0005a7b0       ?deallocate@?$Array@PEAUQuickHullVertex@local@@VNamedAllocator@shdfnd@physx@@@shdfnd@physx@@IEAAXPEAX@Z 000000018005b7b0 f i QuickHullConvexHullLib.obj
 0001:0005a7e0       ?deallocate@?$Array@UExpandPoint@local@@VNamedAllocator@shdfnd@physx@@@shdfnd@physx@@IEAAXPEAX@Z 000000018005b7e0 f i QuickHullConvexHullLib.obj
 0001:0005a810       ?destroy@?$Array@PEAUQuickHullFace@local@@VNamedAllocator@shdfnd@physx@@@shdfnd@physx@@KAXPEAPEAUQuickHullFace@local@@0@Z 000000018005b810 f i QuickHullConvexHullLib.obj
 0001:0005a850       ?destroy@?$Array@PEAUQuickHullHalfEdge@local@@VNamedAllocator@shdfnd@physx@@@shdfnd@physx@@KAXPEAPEAUQuickHullHalfEdge@local@@0@Z 000000018005b850 f i QuickHullConvexHullLib.obj
 0001:0005a890       ?destroy@?$Array@PEAUQuickHullVertex@local@@VNamedAllocator@shdfnd@physx@@@shdfnd@physx@@KAXPEAPEAUQuickHullVertex@local@@0@Z 000000018005b890 f i QuickHullConvexHullLib.obj
 0001:0005a8d0       ?destroy@?$Array@UExpandPoint@local@@VNamedAllocator@shdfnd@physx@@@shdfnd@physx@@KAXPEAUExpandPoint@local@@0@Z 000000018005b8d0 f i QuickHullConvexHullLib.obj
 0001:0005a910       ?distanceToPlane@QuickHullFace@local@@QEBAMVPxVec3@physx@@@Z 000000018005b910 f i QuickHullConvexHullLib.obj
 0001:0005a950       ?getEdge@QuickHullFace@local@@QEBAPEAUQuickHullHalfEdge@2@I@Z 000000018005b950 f i QuickHullConvexHullLib.obj
 0001:0005a9b0       ?getFreeHullFace@QuickHull@local@@IEAAPEAUQuickHullFace@2@XZ 000000018005b9b0 f i QuickHullConvexHullLib.obj
 0001:0005a9e0       ?getFreeHullHalfEdge@QuickHull@local@@IEAAPEAUQuickHullHalfEdge@2@XZ 000000018005b9e0 f i QuickHullConvexHullLib.obj
 0001:0005aa10       ?getFreeItem@?$MemBlock@UQuickHullFace@local@@$00@local@@QEAAPEAUQuickHullFace@2@XZ 000000018005ba10 f i QuickHullConvexHullLib.obj
 0001:0005ace0       ?getFreeItem@?$MemBlock@UQuickHullHalfEdge@local@@$0A@@local@@QEAAPEAUQuickHullHalfEdge@2@XZ 000000018005bce0 f i QuickHullConvexHullLib.obj
 0001:0005afb0       ?getHead@QuickHullHalfEdge@local@@QEBAAEBUQuickHullVertex@2@XZ 000000018005bfb0 f i QuickHullConvexHullLib.obj
 0001:0005b040       ?getItem@?$MemBlock@UQuickHullFace@local@@$00@local@@QEAAPEAUQuickHullFace@2@I@Z 000000018005c040 f i QuickHullConvexHullLib.obj
 0001:0005b190       ?getName@?$ReflectionAllocator@VQuickHull@local@@@shdfnd@physx@@CAPEBDXZ 000000018005c190 f i QuickHullConvexHullLib.obj
 0001:0005b1e0       ?getNbHullVerts@QuickHull@local@@IEAAIXZ 000000018005c1e0 f i QuickHullConvexHullLib.obj
 0001:0005b200       ?getOppositeFace@QuickHullHalfEdge@local@@QEBAPEAUQuickHullFace@2@XZ 000000018005c200 f i QuickHullConvexHullLib.obj
 0001:0005b220       ?getTail@QuickHullHalfEdge@local@@QEBAAEBUQuickHullVertex@2@XZ 000000018005c220 f i QuickHullConvexHullLib.obj
 0001:0005b230       ?grow@?$Array@PEAUQuickHullFace@local@@VNamedAllocator@shdfnd@physx@@@shdfnd@physx@@IEAAXI@Z 000000018005c230 f i QuickHullConvexHullLib.obj
 0001:0005b2d0       ?grow@?$Array@PEAUQuickHullHalfEdge@local@@VNamedAllocator@shdfnd@physx@@@shdfnd@physx@@IEAAXI@Z 000000018005c2d0 f i QuickHullConvexHullLib.obj
 0001:0005b370       ?grow@?$Array@PEAUQuickHullVertex@local@@VNamedAllocator@shdfnd@physx@@@shdfnd@physx@@IEAAXI@Z 000000018005c370 f i QuickHullConvexHullLib.obj
 0001:0005b410       ?grow@?$Array@UExpandPoint@local@@VNamedAllocator@shdfnd@physx@@@shdfnd@physx@@IEAAXI@Z 000000018005c410 f i QuickHullConvexHullLib.obj
 0001:0005b4b0       ?growAndPushBack@?$Array@PEAUQuickHullFace@local@@VNamedAllocator@shdfnd@physx@@@shdfnd@physx@@IEAAAEAPEAUQuickHullFace@local@@AEBQEAU45@@Z 000000018005c4b0 f i QuickHullConvexHullLib.obj
 0001:0005b690       ?growAndPushBack@?$Array@PEAUQuickHullHalfEdge@local@@VNamedAllocator@shdfnd@physx@@@shdfnd@physx@@IEAAAEAPEAUQuickHullHalfEdge@local@@AEBQEAU45@@Z 000000018005c690 f i QuickHullConvexHullLib.obj
 0001:0005b870       ?growAndPushBack@?$Array@PEAUQuickHullVertex@local@@VNamedAllocator@shdfnd@physx@@@shdfnd@physx@@IEAAAEAPEAUQuickHullVertex@local@@AEBQEAU45@@Z 000000018005c870 f i QuickHullConvexHullLib.obj
 0001:0005ba50       ?growAndPushBack@?$Array@UExpandPoint@local@@VNamedAllocator@shdfnd@physx@@@shdfnd@physx@@IEAAAEAUExpandPoint@local@@AEBU45@@Z 000000018005ca50 f i QuickHullConvexHullLib.obj
 0001:0005bc40       ?init@?$MemBlock@UQuickHullFace@local@@$00@local@@QEAAXI@Z 000000018005cc40 f i QuickHullConvexHullLib.obj
 0001:0005bdc0       ?init@?$MemBlock@UQuickHullHalfEdge@local@@$0A@@local@@QEAAXI@Z 000000018005cdc0 f i QuickHullConvexHullLib.obj
 0001:0005bf40       ?isInUserMemory@?$Array@PEAUQuickHullFace@local@@VNamedAllocator@shdfnd@physx@@@shdfnd@physx@@QEBAIXZ 000000018005cf40 f i QuickHullConvexHullLib.obj
 0001:0005bf60       ?isInUserMemory@?$Array@PEAUQuickHullHalfEdge@local@@VNamedAllocator@shdfnd@physx@@@shdfnd@physx@@QEBAIXZ 000000018005cf60 f i QuickHullConvexHullLib.obj
 0001:0005bf80       ?isInUserMemory@?$Array@PEAUQuickHullVertex@local@@VNamedAllocator@shdfnd@physx@@@shdfnd@physx@@QEBAIXZ 000000018005cf80 f i QuickHullConvexHullLib.obj
 0001:0005bfa0       ?isInUserMemory@?$Array@UExpandPoint@local@@VNamedAllocator@shdfnd@physx@@@shdfnd@physx@@QEBAIXZ 000000018005cfa0 f i QuickHullConvexHullLib.obj
 0001:0005bfc0       ?isTriangle@QuickHullFace@local@@AEBA_NXZ 000000018005cfc0 f i QuickHullConvexHullLib.obj
 0001:0005c000       ?pushBack@?$Array@PEAUQuickHullFace@local@@VNamedAllocator@shdfnd@physx@@@shdfnd@physx@@QEAAAEAPEAUQuickHullFace@local@@AEBQEAU45@@Z 000000018005d000 f i QuickHullConvexHullLib.obj
 0001:0005c0d0       ?pushBack@?$Array@PEAUQuickHullHalfEdge@local@@VNamedAllocator@shdfnd@physx@@@shdfnd@physx@@QEAAAEAPEAUQuickHullHalfEdge@local@@AEBQEAU45@@Z 000000018005d0d0 f i QuickHullConvexHullLib.obj
 0001:0005c1a0       ?pushBack@?$Array@PEAUQuickHullVertex@local@@VNamedAllocator@shdfnd@physx@@@shdfnd@physx@@QEAAAEAPEAUQuickHullVertex@local@@AEBQEAU45@@Z 000000018005d1a0 f i QuickHullConvexHullLib.obj
 0001:0005c270       ?pushBack@?$Array@UExpandPoint@local@@VNamedAllocator@shdfnd@physx@@@shdfnd@physx@@QEAAAEAUExpandPoint@local@@AEBU45@@Z 000000018005d270 f i QuickHullConvexHullLib.obj
 0001:0005c340       ?recreate@?$Array@PEAUQuickHullFace@local@@VNamedAllocator@shdfnd@physx@@@shdfnd@physx@@IEAAXI@Z 000000018005d340 f i QuickHullConvexHullLib.obj
 0001:0005c4a0       ?recreate@?$Array@PEAUQuickHullHalfEdge@local@@VNamedAllocator@shdfnd@physx@@@shdfnd@physx@@IEAAXI@Z 000000018005d4a0 f i QuickHullConvexHullLib.obj
 0001:0005c600       ?recreate@?$Array@PEAUQuickHullVertex@local@@VNamedAllocator@shdfnd@physx@@@shdfnd@physx@@IEAAXI@Z 000000018005d600 f i QuickHullConvexHullLib.obj
 0001:0005c760       ?recreate@?$Array@UExpandPoint@local@@VNamedAllocator@shdfnd@physx@@@shdfnd@physx@@IEAAXI@Z 000000018005d760 f i QuickHullConvexHullLib.obj
 0001:0005c8c0       ?reserve@?$Array@PEAUQuickHullFace@local@@VNamedAllocator@shdfnd@physx@@@shdfnd@physx@@QEAAXI@Z 000000018005d8c0 f i QuickHullConvexHullLib.obj
 0001:0005c900       ?reserve@?$Array@PEAUQuickHullHalfEdge@local@@VNamedAllocator@shdfnd@physx@@@shdfnd@physx@@QEAAXI@Z 000000018005d900 f i QuickHullConvexHullLib.obj
 0001:0005c940       ?reserve@?$Array@PEAUQuickHullVertex@local@@VNamedAllocator@shdfnd@physx@@@shdfnd@physx@@QEAAXI@Z 000000018005d940 f i QuickHullConvexHullLib.obj
 0001:0005c980       ?reserve@?$Array@UExpandPoint@local@@VNamedAllocator@shdfnd@physx@@@shdfnd@physx@@QEAAXI@Z 000000018005d980 f i QuickHullConvexHullLib.obj
 0001:0005c9c0       ?reset@?$MemBlock@UQuickHullFace@local@@$00@local@@QEAAXXZ 000000018005d9c0 f i QuickHullConvexHullLib.obj
 0001:0005caa0       ?reset@?$MemBlock@UQuickHullHalfEdge@local@@$0A@@local@@QEAAXXZ 000000018005daa0 f i QuickHullConvexHullLib.obj
 0001:0005cb80       ?setTwin@QuickHullHalfEdge@local@@QEAAXPEAU12@@Z 000000018005db80 f i QuickHullConvexHullLib.obj
 0001:0005cbb0       ?size@?$Array@PEAUQuickHullFace@local@@VNamedAllocator@shdfnd@physx@@@shdfnd@physx@@QEBAIXZ 000000018005dbb0 f i QuickHullConvexHullLib.obj
 0001:0005cbd0       ?size@?$Array@PEAUQuickHullHalfEdge@local@@VNamedAllocator@shdfnd@physx@@@shdfnd@physx@@QEBAIXZ 000000018005dbd0 f i QuickHullConvexHullLib.obj
 0001:0005cbf0       ?size@?$Array@PEAUQuickHullVertex@local@@VNamedAllocator@shdfnd@physx@@@shdfnd@physx@@QEBAIXZ 000000018005dbf0 f i QuickHullConvexHullLib.obj
 0001:0005cc10       ?size@?$Array@UExpandPoint@local@@VNamedAllocator@shdfnd@physx@@@shdfnd@physx@@QEBAIXZ 000000018005dc10 f i QuickHullConvexHullLib.obj
 0001:0005ccb0       ?computeVolumeIntegrals@physx@@YA_NAEBVPxSimpleTriangleMesh@1@MAEAUPxIntegrals@1@@Z 000000018005dcb0 f   VolumeIntegration.obj
 0001:0005cd40       ?computeVolumeIntegralsEberly@physx@@YA_NAEBVPxConvexMeshDesc@1@MAEAUPxIntegrals@1@AEBVPxVec3@1@@Z 000000018005dd40 f   VolumeIntegration.obj
 0001:0005cdb0       ?computeVolumeIntegralsEberlySIMD@physx@@YA_NAEBVPxConvexMeshDesc@1@MAEAUPxIntegrals@1@AEBVPxVec3@1@@Z 000000018005ddb0 f   VolumeIntegration.obj
 0001:00063ce0       ??$swap@VPxVec3@physx@@@shdfnd@physx@@YAXAEAVPxVec3@1@0@Z 0000000180064ce0 f i VolumeIntegration.obj
 0001:00063d30       ??0PxSimpleTriangleMesh@physx@@QEAA@XZ 0000000180064d30 f i VolumeIntegration.obj
 0001:00063d90       ??4?$PxFlags@W4Enum@PxMeshFlag@physx@@G@physx@@QEAAAEAV01@AEBV01@@Z 0000000180064d90 f i VolumeIntegration.obj
 0001:00063dc0       ??4PxSimpleTriangleMesh@physx@@QEAAAEAV01@AEBV01@@Z 0000000180064dc0 f i VolumeIntegration.obj
 0001:00063e40       ?FAllGrtr@aos@shdfnd@physx@@YAIT__m128@@0@Z 0000000180064e40 f i VolumeIntegration.obj
 0001:00063f80       ?V4Cross@aos@shdfnd@physx@@YA?AT__m128@@T4@0@Z 0000000180064f80 f i VolumeIntegration.obj
 0001:000640b0       ?V4Dot3@aos@shdfnd@physx@@YA?AT__m128@@T4@0@Z 00000001800650b0 f i VolumeIntegration.obj
 0001:000641a0       ?V4PermYZXW@aos@shdfnd@physx@@YA?AT__m128@@T4@@Z 00000001800651a0 f i VolumeIntegration.obj
 0001:000641d0       ?V4ScaleInv@aos@shdfnd@physx@@YA?AT__m128@@T4@0@Z 00000001800651d0 f i VolumeIntegration.obj
 0001:00064290       ?Vec4V_From_PxVec3_WUndefined@aos@shdfnd@physx@@YA?AT__m128@@AEBVPxVec3@3@@Z 0000000180065290 f i VolumeIntegration.obj
 0001:000642f0       ?isZero@PxVec3@physx@@QEBA_NXZ 00000001800652f0 f i VolumeIntegration.obj
 0001:00064350       ?ComputeNbBoundaryEdges@AdjTriangle@physx@@QEBAIXZ 0000000180065350 f   Adjacencies.obj
 0001:000643e0       ?ComputeNbNeighbors@AdjTriangle@physx@@QEBAIXZ 00000001800653e0 f   Adjacencies.obj
 0001:00064470       ?HasNeighbor@AdjTriangle@physx@@QEBA_NIPEAI@Z 0000000180065470 f   Adjacencies.obj
 0001:00064580       ?Flip@AdjTriangle@physx@@QEAAXXZ 0000000180065580 f   Adjacencies.obj
 0001:000645d0       ??0Adjacencies@physx@@QEAA@XZ 00000001800655d0 f   Adjacencies.obj
 0001:00064600       ??1Adjacencies@physx@@QEAA@XZ 0000000180065600 f   Adjacencies.obj
 0001:00064660       ?Load@Adjacencies@physx@@QEAA_NAEAVPxInputStream@2@@Z 0000000180065660 f   Adjacencies.obj
 0001:000647f0       ?ComputeNbBoundaryEdges@Adjacencies@physx@@QEBAIXZ 00000001800657f0 f   Adjacencies.obj
 0001:00064870       ?GetBoundaryVertices@Adjacencies@physx@@QEBA_NIPEA_NPEBU?$TriangleT@I@Gu@2@@Z 0000000180065870 f   Adjacencies.obj
 0001:00064b80       ?MakeLastRef@Adjacencies@physx@@QEAA_NAEAVAdjTriangle@2@IPEAU?$TriangleT@I@Gu@2@@Z 0000000180065b80 f   Adjacencies.obj
 0001:00064ee0       ?AssignNewEdgeCode@Adjacencies@physx@@AEAAXIE@Z 0000000180065ee0 f   Adjacencies.obj
 0001:00064f80       ??0AdjacenciesBuilder@physx@@QEAA@XZ 0000000180065f80 f   Adjacencies.obj
 0001:00064fb0       ??1AdjacenciesBuilder@physx@@QEAA@XZ 0000000180065fb0 f   Adjacencies.obj
 0001:00064fd0       ?Init@AdjacenciesBuilder@physx@@QEAA_NAEBUADJACENCIESCREATE@2@@Z 0000000180065fd0 f   Adjacencies.obj
 0001:00066aa0       ??$?_UV?$ReflectionAllocator@VAdjEdge@@@shdfnd@physx@@@UserAllocated@shdfnd@physx@@SAPEAX_KV?$ReflectionAllocator@VAdjEdge@@@12@PEBDH@Z 0000000180067aa0 f i Adjacencies.obj
 0001:00066af0       ??$?_UV?$ReflectionAllocator@VAdjTriangle@physx@@@shdfnd@physx@@@UserAllocated@shdfnd@physx@@SAPEAX_KV?$ReflectionAllocator@VAdjTriangle@physx@@@12@PEBDH@Z 0000000180067af0 f i Adjacencies.obj
 0001:00066b40       ??0?$ReflectionAllocator@VAdjEdge@@@shdfnd@physx@@QEAA@PEBD@Z 0000000180067b40 f i Adjacencies.obj
 0001:00066b60       ??0?$ReflectionAllocator@VAdjTriangle@physx@@@shdfnd@physx@@QEAA@PEBD@Z 0000000180067b60 f i Adjacencies.obj
 0001:00066b80       ??0?$TriangleT@I@Gu@physx@@QEAA@XZ 0000000180067b80 f i Adjacencies.obj
 0001:00066b90       ??0AdjEdge@@QEAA@XZ        0000000180067b90 f i Adjacencies.obj
 0001:00066ba0       ??0AdjTriangle@physx@@QEAA@XZ 0000000180067ba0 f i Adjacencies.obj
 0001:00066bb0       ??1AdjEdge@@QEAA@XZ        0000000180067bb0 f i Adjacencies.obj
 0001:00066bc0       ??1AdjTriangle@physx@@QEAA@XZ 0000000180067bc0 f i Adjacencies.obj
 0001:00066bd0       ??_EAdjEdge@@QEAAPEAXI@Z   0000000180067bd0 f i Adjacencies.obj
 0001:00066ce0       ??_EAdjTriangle@physx@@QEAAPEAXI@Z 0000000180067ce0 f i Adjacencies.obj
 0001:00066df0       ??_I@YAXPEAX_K1P6AX0@Z@Z   0000000180067df0 f i Adjacencies.obj
 0001:00066eb0       ??_VUserAllocated@shdfnd@physx@@SAXPEAX@Z 0000000180067eb0 f i Adjacencies.obj
 0001:00066ee0       ?allocate@?$ReflectionAllocator@VAdjEdge@@@shdfnd@physx@@QEAAPEAX_KPEBDH@Z 0000000180067ee0 f i Adjacencies.obj
 0001:00066f80       ?allocate@?$ReflectionAllocator@VAdjTriangle@physx@@@shdfnd@physx@@QEAAPEAX_KPEBDH@Z 0000000180067f80 f i Adjacencies.obj
 0001:00067020       ?findEdge@?$TriangleT@I@Gu@physx@@QEBAEII@Z 0000000180068020 f i Adjacencies.obj
 0001:000671d0       ?getName@?$ReflectionAllocator@VAdjEdge@@@shdfnd@physx@@CAPEBDXZ 00000001800681d0 f i Adjacencies.obj
 0001:00067220       ?getName@?$ReflectionAllocator@VAdjTriangle@physx@@@shdfnd@physx@@CAPEBDXZ 0000000180068220 f i Adjacencies.obj
 0001:00067270       PxCreateCooking            0000000180068270 f   Cooking.obj
 0001:00067360       ?release@Cooking@physx@@UEAAXXZ 0000000180068360 f   Cooking.obj
 0001:000673c0       ?setParams@Cooking@physx@@UEAAXAEBUPxCookingParams@2@@Z 00000001800683c0 f   Cooking.obj
 0001:000673f0       ?getParams@Cooking@physx@@UEBAAEBUPxCookingParams@2@XZ 00000001800683f0 f   Cooking.obj
 0001:00067410       ?platformMismatch@Cooking@physx@@UEBA_NXZ 0000000180068410 f   Cooking.obj
 0001:000674a0       ?cookTriangleMesh@Cooking@physx@@UEBA_NAEBVPxTriangleMeshDesc@2@AEAVPxOutputStream@2@PEAW4Enum@PxTriangleMeshCookingResult@2@@Z 00000001800684a0 f   Cooking.obj
 0001:000675c0       ?createTriangleMesh@Cooking@physx@@UEBAPEAVPxTriangleMesh@2@AEBVPxTriangleMeshDesc@2@AEAVPxPhysicsInsertionCallback@2@PEAW4Enum@PxTriangleMeshCookingResult@2@@Z 00000001800685c0 f   Cooking.obj
 0001:000676e0       ?validateTriangleMesh@Cooking@physx@@UEBA_NAEBVPxTriangleMeshDesc@2@@Z 00000001800686e0 f   Cooking.obj
 0001:000677b0       ?cookConvexMesh@Cooking@physx@@UEBA_NAEBVPxConvexMeshDesc@2@AEAVPxOutputStream@2@PEAW4Enum@PxConvexMeshCookingResult@2@@Z 00000001800687b0 f   Cooking.obj
 0001:00067b90       ?createConvexMesh@Cooking@physx@@UEBAPEAVPxConvexMesh@2@AEBVPxConvexMeshDesc@2@AEAVPxPhysicsInsertionCallback@2@PEAW4Enum@PxConvexMeshCookingResult@2@@Z 0000000180068b90 f   Cooking.obj
 0001:00068050       ?validateConvexMesh@Cooking@physx@@UEBA_NAEBVPxConvexMeshDesc@2@@Z 0000000180069050 f   Cooking.obj
 0001:000680d0       ?computeHullPolygons@Cooking@physx@@UEBA_NAEBVPxSimpleTriangleMesh@2@AEAVPxAllocatorCallback@2@AEAIAEAPEAVPxVec3@2@2AEAPEAI2AEAPEAUPxHullPolygon@2@@Z 00000001800690d0 f   Cooking.obj
 0001:000683a0       ?cookHeightField@Cooking@physx@@UEBA_NAEBVPxHeightFieldDesc@2@AEAVPxOutputStream@2@@Z 00000001800693a0 f   Cooking.obj
 0001:00068510       ?createHeightField@Cooking@physx@@UEBAPEAVPxHeightField@2@AEBVPxHeightFieldDesc@2@AEAVPxPhysicsInsertionCallback@2@@Z 0000000180069510 f   Cooking.obj
 0001:00068800       ?cookConvexMeshInternal@Cooking@physx@@AEBA_NAEBVPxConvexMeshDesc@2@AEAVConvexMeshBuilder@2@PEAVConvexHullLib@2@PEAW4Enum@PxConvexMeshCookingResult@2@@Z 0000000180069800 f   Cooking.obj
 0001:00068b20       ?cookTriangleMesh@Cooking@physx@@AEBA_NAEAVTriangleMeshBuilder@2@AEBVPxTriangleMeshDesc@2@AEAVPxOutputStream@2@PEAW4Enum@PxTriangleMeshCookingResult@2@@Z 0000000180069b20 f   Cooking.obj
 0001:00068c00       ?createTriangleMesh@Cooking@physx@@AEBAPEAVPxTriangleMesh@2@AEAVTriangleMeshBuilder@2@AEBVPxTriangleMeshDesc@2@AEAVPxPhysicsInsertionCallback@2@PEAW4Enum@PxTriangleMeshCookingResult@2@@Z 0000000180069c00 f   Cooking.obj
 0001:000693d0       ??$?2V?$ReflectionAllocator@VCooking@physx@@@shdfnd@physx@@@UserAllocated@shdfnd@physx@@SAPEAX_KV?$ReflectionAllocator@VCooking@physx@@@12@PEBDH@Z 000000018006a3d0 f i Cooking.obj
 0001:00069420       ??$?2V?$ReflectionAllocator@VInflationConvexHullLib@physx@@@shdfnd@physx@@@UserAllocated@shdfnd@physx@@SAPEAX_KV?$ReflectionAllocator@VInflationConvexHullLib@physx@@@12@PEBDH@Z 000000018006a420 f i Cooking.obj
 0001:00069470       ??$?2V?$ReflectionAllocator@VQuickHullConvexHullLib@physx@@@shdfnd@physx@@@UserAllocated@shdfnd@physx@@SAPEAX_KV?$ReflectionAllocator@VQuickHullConvexHullLib@physx@@@12@PEBDH@Z 000000018006a470 f i Cooking.obj
 0001:000694c0       ??$PX_UNUSED@VPxFoundation@physx@@@@YAXAEBVPxFoundation@physx@@@Z 000000018006a4c0 f i Cooking.obj
 0001:000694d0       ??$PxMin@G@physx@@YAGGG@Z  000000018006a4d0 f i Cooking.obj
 0001:00069520       ??0?$PxBitAndDataT@I$0IAAAAAAA@@physx@@QEAA@I_N@Z 000000018006a520 f i Cooking.obj
 0001:00069580       ??0?$PxFlags@W4Enum@PxConvexFlag@physx@@G@physx@@QEAA@W4Enum@PxConvexFlag@1@@Z 000000018006a580 f i Cooking.obj
 0001:000695b0       ??0?$PxFlags@W4Enum@PxHeightFieldFlag@physx@@G@physx@@QEAA@AEBV01@@Z 000000018006a5b0 f i Cooking.obj
 0001:000695e0       ??0?$ReflectionAllocator@VCooking@physx@@@shdfnd@physx@@QEAA@PEBD@Z 000000018006a5e0 f i Cooking.obj
 0001:00069600       ??0?$ReflectionAllocator@VHeightField@Gu@physx@@@shdfnd@physx@@QEAA@PEBD@Z 000000018006a600 f i Cooking.obj
 0001:00069620       ??0?$ReflectionAllocator@VInflationConvexHullLib@physx@@@shdfnd@physx@@QEAA@PEBD@Z 000000018006a620 f i Cooking.obj
 0001:00069640       ??0?$ReflectionAllocator@VQuickHullConvexHullLib@physx@@@shdfnd@physx@@QEAA@PEBD@Z 000000018006a640 f i Cooking.obj
 0001:00069660       ??0Cooking@physx@@QEAA@AEBUPxCookingParams@1@@Z 000000018006a660 f i Cooking.obj
 0001:000696c0       ??0PxConvexMeshDesc@physx@@QEAA@AEBV01@@Z 000000018006a6c0 f i Cooking.obj
 0001:00069790       ??0PxCooking@physx@@QEAA@XZ 000000018006a790 f i Cooking.obj
 0001:000697b0       ??0PxCookingParams@physx@@QEAA@AEBU01@@Z 000000018006a7b0 f i Cooking.obj
 0001:00069940       ??1Cooking@physx@@UEAA@XZ  000000018006a940 f i Cooking.obj
 0001:00069960       ??1PxCooking@physx@@MEAA@XZ 000000018006a960 f i Cooking.obj
 0001:00069980       ??4?$PxFlags@W4Enum@PxMeshPreprocessingFlag@physx@@I@physx@@QEAAAEAV01@AEBV01@@Z 000000018006a980 f i Cooking.obj
 0001:000699b0       ??4PxCookingParams@physx@@QEAAAEAU01@AEBU01@@Z 000000018006a9b0 f i Cooking.obj
 0001:00069b40       ??9?$PxFlags@W4Enum@PxHeightFieldFlag@physx@@G@physx@@QEBA_NAEBV01@@Z 000000018006ab40 f i Cooking.obj
 0001:00069b90       ??I?$PxFlags@W4Enum@PxHeightFieldFlag@physx@@G@physx@@QEBA?AV01@W4Enum@PxHeightFieldFlag@1@@Z 000000018006ab90 f i Cooking.obj
 0001:00069c00       ??S?$PxFlags@W4Enum@PxConvexFlag@physx@@G@physx@@QEBA?AV01@XZ 000000018006ac00 f i Cooking.obj
 0001:00069c50       ??Sphysx@@YA?AV?$PxFlags@W4Enum@PxConvexFlag@physx@@G@0@W4Enum@PxConvexFlag@0@@Z 000000018006ac50 f i Cooking.obj
 0001:00069c90       ??_4?$PxFlags@W4Enum@PxConvexFlag@physx@@G@physx@@QEAAAEAV01@AEBV01@@Z 000000018006ac90 f i Cooking.obj
 0001:00069cd0       ??_ECooking@physx@@UEAAPEAXI@Z 000000018006acd0 f i Cooking.obj
 0001:00069cd0       ??_GCooking@physx@@UEAAPEAXI@Z 000000018006acd0 f i Cooking.obj
 0001:00069d40       ??_EPxCooking@physx@@MEAAPEAXI@Z 000000018006ad40 f i Cooking.obj
 0001:00069d40       ??_GPxCooking@physx@@MEAAPEAXI@Z 000000018006ad40 f i Cooking.obj
 0001:00069d90       ?allocate@?$ReflectionAllocator@VCooking@physx@@@shdfnd@physx@@QEAAPEAX_KPEBDH@Z 000000018006ad90 f i Cooking.obj
 0001:00069e30       ?allocate@?$ReflectionAllocator@VHeightField@Gu@physx@@@shdfnd@physx@@QEAAPEAX_KPEBDH@Z 000000018006ae30 f i Cooking.obj
 0001:00069ed0       ?allocate@?$ReflectionAllocator@VInflationConvexHullLib@physx@@@shdfnd@physx@@QEAAPEAX_KPEBDH@Z 000000018006aed0 f i Cooking.obj
 0001:00069f70       ?allocate@?$ReflectionAllocator@VQuickHullConvexHullLib@physx@@@shdfnd@physx@@QEAAPEAX_KPEBDH@Z 000000018006af70 f i Cooking.obj
 0001:0006a010       ?getBigConvexData@ConvexMeshBuilder@physx@@QEBAPEAVBigConvexData@2@XZ 000000018006b010 f i Cooking.obj
 0001:0006a030       ?getInertia@ConvexMeshBuilder@physx@@QEBAAEBVPxMat33@2@XZ 000000018006b030 f i Cooking.obj
 0001:0006a050       ?getMass@ConvexMeshBuilder@physx@@QEBAMXZ 000000018006b050 f i Cooking.obj
 0001:0006a070       ?getMeshData@TriangleMeshBuilder@physx@@QEAAAEAVTriangleMeshData@Gu@2@XZ 000000018006b070 f i Cooking.obj
 0001:0006a090       ?getName@?$ReflectionAllocator@VCooking@physx@@@shdfnd@physx@@CAPEBDXZ 000000018006b090 f i Cooking.obj
 0001:0006a0e0       ?getName@?$ReflectionAllocator@VHeightField@Gu@physx@@@shdfnd@physx@@CAPEBDXZ 000000018006b0e0 f i Cooking.obj
 0001:0006a130       ?getName@?$ReflectionAllocator@VInflationConvexHullLib@physx@@@shdfnd@physx@@CAPEBDXZ 000000018006b130 f i Cooking.obj
 0001:0006a180       ?getName@?$ReflectionAllocator@VQuickHullConvexHullLib@physx@@@shdfnd@physx@@CAPEBDXZ 000000018006b180 f i Cooking.obj
 0001:0006a1d0       ?isValid@PxHeightFieldDesc@physx@@QEBA_NXZ 000000018006b1d0 f i Cooking.obj
 0001:0006a2e0       ?littleEndian@shdfnd@physx@@YADXZ 000000018006b2e0 f i Cooking.obj
 0001:0006a300       ?setBigConvexData@ConvexMesh@Gu@physx@@QEAAXPEAVBigConvexData@3@@Z 000000018006b300 f i Cooking.obj
 0001:0006a320       ?setBigConvexData@ConvexMeshBuilder@physx@@QEAAXPEAVBigConvexData@2@@Z 000000018006b320 f i Cooking.obj
 0001:0006a350       ?setInertia@ConvexMesh@Gu@physx@@QEAAXAEBVPxMat33@3@@Z 000000018006b350 f i Cooking.obj
 0001:0006a390       ?setMass@ConvexMesh@Gu@physx@@QEAAXM@Z 000000018006b390 f i Cooking.obj
 0001:0006a3c0       ?setNb@ConvexMesh@Gu@physx@@QEAAXI@Z 000000018006b3c0 f i Cooking.obj
 0001:0006a400       ??0ReducedVertexCloud@physx@@QEAA@PEBVPxVec3@1@I@Z 000000018006b400 f   CookingUtils.obj
 0001:0006a460       ??1ReducedVertexCloud@physx@@QEAA@XZ 000000018006b460 f   CookingUtils.obj
 0001:0006a480       ?Clean@ReducedVertexCloud@physx@@QEAAAEAV12@XZ 000000018006b480 f   CookingUtils.obj
 0001:0006a4f0       ?Reduce@ReducedVertexCloud@physx@@QEAA_NPEAUREDUCEDCLOUD@2@@Z 000000018006b4f0 f   CookingUtils.obj
 0001:0006ab70       ??$?_UM@@YAPEAX_KV?$ReflectionAllocator@M@shdfnd@physx@@PEBDH@Z 000000018006bb70 f i CookingUtils.obj
 0001:0006abc0       ??0?$ReflectionAllocator@M@shdfnd@physx@@QEAA@PEBD@Z 000000018006bbc0 f i CookingUtils.obj
 0001:0006abe0       ?allocate@?$ReflectionAllocator@M@shdfnd@physx@@QEAAPEAX_KPEBDH@Z 000000018006bbe0 f i CookingUtils.obj
 0001:0006ac80       ?getName@?$ReflectionAllocator@M@shdfnd@physx@@CAPEBDXZ 000000018006bc80 f i CookingUtils.obj
 0001:0006acd0       ??0EdgeList@Gu@physx@@QEAA@XZ 000000018006bcd0 f   EdgeList.obj
 0001:0006ad20       ??1EdgeList@Gu@physx@@QEAA@XZ 000000018006bd20 f   EdgeList.obj
 0001:0006ade0       ?load@EdgeList@Gu@physx@@QEAA_NAEAVPxInputStream@3@@Z 000000018006bde0 f   EdgeList.obj
 0001:0006b120       ??0EdgeListBuilder@Gu@physx@@QEAA@XZ 000000018006c120 f   EdgeList.obj
 0001:0006b150       ??1EdgeListBuilder@Gu@physx@@QEAA@XZ 000000018006c150 f   EdgeList.obj
 0001:0006b170       ?init@EdgeListBuilder@Gu@physx@@QEAA_NAEBUEDGELISTCREATE@23@@Z 000000018006c170 f   EdgeList.obj
 0001:0006b350       ?createFacesToEdges@EdgeListBuilder@Gu@physx@@AEAA_NIPEBIPEBG@Z 000000018006c350 f   EdgeList.obj
 0001:0006bb20       ?createEdgesToFaces@EdgeListBuilder@Gu@physx@@AEAA_NIPEBIPEBG@Z 000000018006cb20 f   EdgeList.obj
 0001:0006c0c0       ?computeActiveEdges@EdgeListBuilder@Gu@physx@@AEAA_NIPEBIPEBGPEBVPxVec3@3@M@Z 000000018006d0c0 f   EdgeList.obj
 0001:0006e780       ??$?_UUEdgeData@Gu@physx@@@@YAPEAX_KV?$ReflectionAllocator@UEdgeData@Gu@physx@@@shdfnd@physx@@PEBDH@Z 000000018006f780 f i EdgeList.obj
 0001:0006e7d0       ??$?_UUEdgeTriangleData@Gu@physx@@@@YAPEAX_KV?$ReflectionAllocator@UEdgeTriangleData@Gu@physx@@@shdfnd@physx@@PEBDH@Z 000000018006f7d0 f i EdgeList.obj
 0001:0006e820       ??0?$ReflectionAllocator@UEdgeData@Gu@physx@@@shdfnd@physx@@QEAA@PEBD@Z 000000018006f820 f i EdgeList.obj
 0001:0006e840       ??0?$ReflectionAllocator@UEdgeTriangleData@Gu@physx@@@shdfnd@physx@@QEAA@PEBD@Z 000000018006f840 f i EdgeList.obj
 0001:0006e860       ??0PxTriangle@physx@@QEAA@AEBVPxVec3@1@00@Z 000000018006f860 f i EdgeList.obj
 0001:0006e930       ??1PxTriangle@physx@@QEAA@XZ 000000018006f930 f i EdgeList.obj
 0001:0006e940       ?PxAtan2@physx@@YAMMM@Z    000000018006f940 f i EdgeList.obj
 0001:0006e970       ?allocate@?$ReflectionAllocator@UEdgeData@Gu@physx@@@shdfnd@physx@@QEAAPEAX_KPEBDH@Z 000000018006f970 f i EdgeList.obj
 0001:0006ea10       ?allocate@?$ReflectionAllocator@UEdgeTriangleData@Gu@physx@@@shdfnd@physx@@QEAAPEAX_KPEBDH@Z 000000018006fa10 f i EdgeList.obj
 0001:0006eab0       ?angle@shdfnd@physx@@YAMAEBVPxVec3@2@0@Z 000000018006fab0 f i EdgeList.obj
 0001:0006eb30       ?getName@?$ReflectionAllocator@UEdgeData@Gu@physx@@@shdfnd@physx@@CAPEBDXZ 000000018006fb30 f i EdgeList.obj
 0001:0006eb80       ?getName@?$ReflectionAllocator@UEdgeTriangleData@Gu@physx@@@shdfnd@physx@@CAPEBDXZ 000000018006fb80 f i EdgeList.obj
 0001:0006ebd0       ?normal@PxTriangle@physx@@QEBAXAEAVPxVec3@2@@Z 000000018006fbd0 f i EdgeList.obj
 0001:0006ecc0       ??0MeshCleaner@physx@@QEAA@IPEBVPxVec3@1@IPEBIM@Z 000000018006fcc0 f   MeshCleaner.obj
 0001:0006f9a0       ??1MeshCleaner@physx@@QEAA@XZ 00000001800709a0 f   MeshCleaner.obj
 0001:000700b0       ??9Indices@@QEBA_NAEBU0@@Z 00000001800710b0 f i MeshCleaner.obj
 0001:00070170       ??9PxVec3@physx@@QEBA_NAEBV01@@Z 0000000180071170 f i MeshCleaner.obj
 0001:000701f0       ?PxFloor@physx@@YAMM@Z     00000001800711f0 f i MeshCleaner.obj
 0001:00070210       ?nextPowerOfTwo@shdfnd@physx@@YAII@Z 0000000180071210 f i MeshCleaner.obj
 0001:000702a0       ?createQuantizer@physx@@YAPEAVQuantizer@1@XZ 00000001800712a0 f   Quantizer.obj
 0001:00070320       ?kmeans_cluster3d@@YAIPEBVPxVec3@physx@@IIPEAV12@PEAIMM@Z 0000000180071320 f   Quantizer.obj
 0001:000703b0       ??$?2V?$ReflectionAllocator@VQuantizerImpl@@@shdfnd@physx@@@UserAllocated@shdfnd@physx@@SAPEAX_KV?$ReflectionAllocator@VQuantizerImpl@@@12@PEBDH@Z 00000001800713b0 f i Quantizer.obj
 0001:00070400       ??$kmeans_cluster@VPxVec3@physx@@M@@YAIPEBVPxVec3@physx@@IIPEAV01@PEAIMM@Z 0000000180071400 f i Quantizer.obj
 0001:00070d40       ??0?$ReflectionAllocator@VQuantizerImpl@@@shdfnd@physx@@QEAA@PEBD@Z 0000000180071d40 f i Quantizer.obj
 0001:00070d60       ??0Quantizer@physx@@QEAA@XZ 0000000180071d60 f i Quantizer.obj
 0001:00070d80       ??0QuantizerImpl@@QEAA@XZ  0000000180071d80 f i Quantizer.obj
 0001:00070ec0       ??1Quantizer@physx@@MEAA@XZ 0000000180071ec0 f i Quantizer.obj
 0001:00070ee0       ??1QuantizerImpl@@EEAA@XZ  0000000180071ee0 f i Quantizer.obj
 0001:00070f40       ??_EQuantizer@physx@@MEAAPEAXI@Z 0000000180071f40 f i Quantizer.obj
 0001:00070f40       ??_GQuantizer@physx@@MEAAPEAXI@Z 0000000180071f40 f i Quantizer.obj
 0001:00070f90       ??_EQuantizerImpl@@EEAAPEAXI@Z 0000000180071f90 f i Quantizer.obj
 0001:00070f90       ??_GQuantizerImpl@@EEAAPEAXI@Z 0000000180071f90 f i Quantizer.obj
 0001:00071000       ?allocate@?$ReflectionAllocator@VQuantizerImpl@@@shdfnd@physx@@QEAAPEAX_KPEBDH@Z 0000000180072000 f i Quantizer.obj
 0001:000710a0       ?clear@?$Array@VPxVec3@physx@@VNamedAllocator@shdfnd@2@@shdfnd@physx@@QEAAXXZ 00000001800720a0 f i Quantizer.obj
 0001:000710f0       ?getDenormalizeCenter@QuantizerImpl@@UEBAAEBVPxVec3@physx@@XZ 00000001800720f0 f i Quantizer.obj
 0001:00071110       ?getDenormalizeScale@QuantizerImpl@@UEBAAEBVPxVec3@physx@@XZ 0000000180072110 f i Quantizer.obj
 0001:00071130       ?getName@?$ReflectionAllocator@VQuantizerImpl@@@shdfnd@physx@@CAPEBDXZ 0000000180072130 f i Quantizer.obj
 0001:00071180       ?kmeansQuantize3D@QuantizerImpl@@UEAAPEBVPxVec3@physx@@IPEBV23@I_NIAEAI@Z 0000000180072180 f i Quantizer.obj
 0001:00071580       ?normalizeInput@QuantizerImpl@@AEAAXIPEBVPxVec3@physx@@I@Z 0000000180072580 f i Quantizer.obj
 0001:000718d0       ?release@QuantizerImpl@@UEAAXXZ 00000001800728d0 f i Quantizer.obj
 0001:00071926       LoadLibraryA               0000000180072926 f   kernel32:KERNEL32.dll
 0001:0007192c       __imp_load_?PxGetAssertHandler@physx@@YAAEAVPxAssertHandler@1@XZ 000000018007292c f   PxFoundationDEBUG_x64:PxFoundationDEBUG_x64.dll
 0001:00071938       ?PxGetAssertHandler@physx@@YAAEAVPxAssertHandler@1@XZ 0000000180072938 f   PxFoundationDEBUG_x64:PxFoundationDEBUG_x64.dll
 0001:0007193e       __tailMerge_pxfoundationdebug_x64_dll 000000018007293e     PxFoundationDEBUG_x64:PxFoundationDEBUG_x64.dll
 0001:000719b7       __imp_load_?getAllocator@shdfnd@physx@@YAAEAVPxAllocatorCallback@2@XZ 00000001800729b7 f   PxFoundationDEBUG_x64:PxFoundationDEBUG_x64.dll
 0001:000719c3       ?getAllocator@shdfnd@physx@@YAAEAVPxAllocatorCallback@2@XZ 00000001800729c3 f   PxFoundationDEBUG_x64:PxFoundationDEBUG_x64.dll
 0001:000719c9       __imp_load_??0NamedAllocator@shdfnd@physx@@QEAA@PEBD@Z 00000001800729c9 f   PxFoundationDEBUG_x64:PxFoundationDEBUG_x64.dll
 0001:000719d5       ??0NamedAllocator@shdfnd@physx@@QEAA@PEBD@Z 00000001800729d5 f   PxFoundationDEBUG_x64:PxFoundationDEBUG_x64.dll
 0001:000719db       __imp_load_??0NamedAllocator@shdfnd@physx@@QEAA@AEBV012@@Z 00000001800729db f   PxFoundationDEBUG_x64:PxFoundationDEBUG_x64.dll
 0001:000719e7       ??0NamedAllocator@shdfnd@physx@@QEAA@AEBV012@@Z 00000001800729e7 f   PxFoundationDEBUG_x64:PxFoundationDEBUG_x64.dll
 0001:000719ed       __imp_load_??1NamedAllocator@shdfnd@physx@@QEAA@XZ 00000001800729ed f   PxFoundationDEBUG_x64:PxFoundationDEBUG_x64.dll
 0001:000719f9       ??1NamedAllocator@shdfnd@physx@@QEAA@XZ 00000001800729f9 f   PxFoundationDEBUG_x64:PxFoundationDEBUG_x64.dll
 0001:000719ff       __imp_load_?allocate@NamedAllocator@shdfnd@physx@@QEAAPEAX_KPEBDH@Z 00000001800729ff f   PxFoundationDEBUG_x64:PxFoundationDEBUG_x64.dll
 0001:00071a0b       ?allocate@NamedAllocator@shdfnd@physx@@QEAAPEAX_KPEBDH@Z 0000000180072a0b f   PxFoundationDEBUG_x64:PxFoundationDEBUG_x64.dll
 0001:00071a11       __imp_load_?deallocate@NamedAllocator@shdfnd@physx@@QEAAXPEAX@Z 0000000180072a11 f   PxFoundationDEBUG_x64:PxFoundationDEBUG_x64.dll
 0001:00071a1d       ?deallocate@NamedAllocator@shdfnd@physx@@QEAAXPEAX@Z 0000000180072a1d f   PxFoundationDEBUG_x64:PxFoundationDEBUG_x64.dll
 0001:00071a23       __imp_load_?allocate@TempAllocator@shdfnd@physx@@QEAAPEAX_KPEBDH@Z 0000000180072a23 f   PxFoundationDEBUG_x64:PxFoundationDEBUG_x64.dll
 0001:00071a2f       ?allocate@TempAllocator@shdfnd@physx@@QEAAPEAX_KPEBDH@Z 0000000180072a2f f   PxFoundationDEBUG_x64:PxFoundationDEBUG_x64.dll
 0001:00071a35       __imp_load_?deallocate@TempAllocator@shdfnd@physx@@QEAAXPEAX@Z 0000000180072a35 f   PxFoundationDEBUG_x64:PxFoundationDEBUG_x64.dll
 0001:00071a41       ?deallocate@TempAllocator@shdfnd@physx@@QEAAXPEAX@Z 0000000180072a41 f   PxFoundationDEBUG_x64:PxFoundationDEBUG_x64.dll
 0001:00071a47       __imp_load_PxGetFoundation 0000000180072a47 f   PxFoundationDEBUG_x64:PxFoundationDEBUG_x64.dll
 0001:00071a53       PxGetFoundation            0000000180072a53 f   PxFoundationDEBUG_x64:PxFoundationDEBUG_x64.dll
 0001:00071a59       __imp_load_?getInstance@Foundation@shdfnd@physx@@SAAEAV123@XZ 0000000180072a59 f   PxFoundationDEBUG_x64:PxFoundationDEBUG_x64.dll
 0001:00071a65       ?getInstance@Foundation@shdfnd@physx@@SAAEAV123@XZ 0000000180072a65 f   PxFoundationDEBUG_x64:PxFoundationDEBUG_x64.dll
 0001:00071a6b       __imp_load_?error@Foundation@shdfnd@physx@@QEAAXW4Enum@PxErrorCode@3@PEBDH1ZZ 0000000180072a6b f   PxFoundationDEBUG_x64:PxFoundationDEBUG_x64.dll
 0001:00071a77       ?error@Foundation@shdfnd@physx@@QEAAXW4Enum@PxErrorCode@3@PEBDH1ZZ 0000000180072a77 f   PxFoundationDEBUG_x64:PxFoundationDEBUG_x64.dll
 0001:00071a7d       __imp_load_?PxDiagonalize@physx@@YA?AVPxVec3@1@AEBVPxMat33@1@AEAVPxQuat@1@@Z 0000000180072a7d f   PxFoundationDEBUG_x64:PxFoundationDEBUG_x64.dll
 0001:00071a89       ?PxDiagonalize@physx@@YA?AVPxVec3@1@AEBVPxMat33@1@AEAVPxQuat@1@@Z 0000000180072a89 f   PxFoundationDEBUG_x64:PxFoundationDEBUG_x64.dll
 0001:00071a8f       __imp_load_?incRefCount@Foundation@shdfnd@physx@@SAXXZ 0000000180072a8f f   PxFoundationDEBUG_x64:PxFoundationDEBUG_x64.dll
 0001:00071a9b       ?incRefCount@Foundation@shdfnd@physx@@SAXXZ 0000000180072a9b f   PxFoundationDEBUG_x64:PxFoundationDEBUG_x64.dll
 0001:00071aa1       __imp_load_?decRefCount@Foundation@shdfnd@physx@@SAXXZ 0000000180072aa1 f   PxFoundationDEBUG_x64:PxFoundationDEBUG_x64.dll
 0001:00071aad       ?decRefCount@Foundation@shdfnd@physx@@SAXXZ 0000000180072aad f   PxFoundationDEBUG_x64:PxFoundationDEBUG_x64.dll
 0001:00071ab3       __imp_load_??0FPUGuard@shdfnd@physx@@QEAA@XZ 0000000180072ab3 f   PxFoundationDEBUG_x64:PxFoundationDEBUG_x64.dll
 0001:00071abf       ??0FPUGuard@shdfnd@physx@@QEAA@XZ 0000000180072abf f   PxFoundationDEBUG_x64:PxFoundationDEBUG_x64.dll
 0001:00071ac5       __imp_load_??1FPUGuard@shdfnd@physx@@QEAA@XZ 0000000180072ac5 f   PxFoundationDEBUG_x64:PxFoundationDEBUG_x64.dll
 0001:00071ad1       ??1FPUGuard@shdfnd@physx@@QEAA@XZ 0000000180072ad1 f   PxFoundationDEBUG_x64:PxFoundationDEBUG_x64.dll
 0001:00071ad7       __imp_load_?writeWord@physx@@YAXG_NAEAVPxOutputStream@1@@Z 0000000180072ad7 f   PhysX3CommonDEBUG_x64:PhysX3CommonDEBUG_x64.dll
 0001:00071ae3       ?writeWord@physx@@YAXG_NAEAVPxOutputStream@1@@Z 0000000180072ae3 f   PhysX3CommonDEBUG_x64:PhysX3CommonDEBUG_x64.dll
 0001:00071ae9       __tailMerge_physx3commondebug_x64_dll 0000000180072ae9     PhysX3CommonDEBUG_x64:PhysX3CommonDEBUG_x64.dll
 0001:00071b62       __imp_load_?writeDword@physx@@YAXI_NAEAVPxOutputStream@1@@Z 0000000180072b62 f   PhysX3CommonDEBUG_x64:PhysX3CommonDEBUG_x64.dll
 0001:00071b6e       ?writeDword@physx@@YAXI_NAEAVPxOutputStream@1@@Z 0000000180072b6e f   PhysX3CommonDEBUG_x64:PhysX3CommonDEBUG_x64.dll
 0001:00071b74       __imp_load_?writeFloat@physx@@YAXM_NAEAVPxOutputStream@1@@Z 0000000180072b74 f   PhysX3CommonDEBUG_x64:PhysX3CommonDEBUG_x64.dll
 0001:00071b80       ?writeFloat@physx@@YAXM_NAEAVPxOutputStream@1@@Z 0000000180072b80 f   PhysX3CommonDEBUG_x64:PhysX3CommonDEBUG_x64.dll
 0001:00071b86       __imp_load_?writeHeader@physx@@YA_NCCCCI_NAEAVPxOutputStream@1@@Z 0000000180072b86 f   PhysX3CommonDEBUG_x64:PhysX3CommonDEBUG_x64.dll
 0001:00071b92       ?writeHeader@physx@@YA_NCCCCI_NAEAVPxOutputStream@1@@Z 0000000180072b92 f   PhysX3CommonDEBUG_x64:PhysX3CommonDEBUG_x64.dll
 0001:00071b98       __imp_load_?validate@RTree@Gu@physx@@QEAAXPEAUCallbackRefit@123@@Z 0000000180072b98 f   PhysX3CommonDEBUG_x64:PhysX3CommonDEBUG_x64.dll
 0001:00071ba4       ?validate@RTree@Gu@physx@@QEAAXPEAUCallbackRefit@123@@Z 0000000180072ba4 f   PhysX3CommonDEBUG_x64:PhysX3CommonDEBUG_x64.dll
 0001:00071baa       __imp_load_??0SourceMesh@Gu@physx@@QEAA@XZ 0000000180072baa f   PhysX3CommonDEBUG_x64:PhysX3CommonDEBUG_x64.dll
 0001:00071bb6       ??0SourceMesh@Gu@physx@@QEAA@XZ 0000000180072bb6 f   PhysX3CommonDEBUG_x64:PhysX3CommonDEBUG_x64.dll
 0001:00071bbc       __imp_load_??1SourceMesh@Gu@physx@@QEAA@XZ 0000000180072bbc f   PhysX3CommonDEBUG_x64:PhysX3CommonDEBUG_x64.dll
 0001:00071bc8       ??1SourceMesh@Gu@physx@@QEAA@XZ 0000000180072bc8 f   PhysX3CommonDEBUG_x64:PhysX3CommonDEBUG_x64.dll
 0001:00071bce       __imp_load_??0BV4Tree@Gu@physx@@QEAA@XZ 0000000180072bce f   PhysX3CommonDEBUG_x64:PhysX3CommonDEBUG_x64.dll
 0001:00071bda       ??0BV4Tree@Gu@physx@@QEAA@XZ 0000000180072bda f   PhysX3CommonDEBUG_x64:PhysX3CommonDEBUG_x64.dll
 0001:00071be0       __imp_load_??1BV4Tree@Gu@physx@@QEAA@XZ 0000000180072be0 f   PhysX3CommonDEBUG_x64:PhysX3CommonDEBUG_x64.dll
 0001:00071bec       ??1BV4Tree@Gu@physx@@QEAA@XZ 0000000180072bec f   PhysX3CommonDEBUG_x64:PhysX3CommonDEBUG_x64.dll
 0001:00071bf2       __imp_load_??0BV32Tree@Gu@physx@@QEAA@XZ 0000000180072bf2 f   PhysX3CommonDEBUG_x64:PhysX3CommonDEBUG_x64.dll
 0001:00071bfe       ??0BV32Tree@Gu@physx@@QEAA@XZ 0000000180072bfe f   PhysX3CommonDEBUG_x64:PhysX3CommonDEBUG_x64.dll
 0001:00071c04       __imp_load_??1BV32Tree@Gu@physx@@QEAA@XZ 0000000180072c04 f   PhysX3CommonDEBUG_x64:PhysX3CommonDEBUG_x64.dll
 0001:00071c10       ??1BV32Tree@Gu@physx@@QEAA@XZ 0000000180072c10 f   PhysX3CommonDEBUG_x64:PhysX3CommonDEBUG_x64.dll
 0001:00071c16       __imp_load_?writeFloatBuffer@physx@@YAXPEBMI_NAEAVPxOutputStream@1@@Z 0000000180072c16 f   PhysX3CommonDEBUG_x64:PhysX3CommonDEBUG_x64.dll
 0001:00071c22       ?writeFloatBuffer@physx@@YAXPEBMI_NAEAVPxOutputStream@1@@Z 0000000180072c22 f   PhysX3CommonDEBUG_x64:PhysX3CommonDEBUG_x64.dll
 0001:00071c28       __imp_load_?writeWordBuffer@physx@@YAXPEBGI_NAEAVPxOutputStream@1@@Z 0000000180072c28 f   PhysX3CommonDEBUG_x64:PhysX3CommonDEBUG_x64.dll
 0001:00071c34       ?writeWordBuffer@physx@@YAXPEBGI_NAEAVPxOutputStream@1@@Z 0000000180072c34 f   PhysX3CommonDEBUG_x64:PhysX3CommonDEBUG_x64.dll
 0001:00071c3a       __imp_load_?computeMaxIndex@physx@@YAIPEBII@Z 0000000180072c3a f   PhysX3CommonDEBUG_x64:PhysX3CommonDEBUG_x64.dll
 0001:00071c46       ?computeMaxIndex@physx@@YAIPEBII@Z 0000000180072c46 f   PhysX3CommonDEBUG_x64:PhysX3CommonDEBUG_x64.dll
 0001:00071c4c       __imp_load_?storeIndices@physx@@YAXIIPEBIAEAVPxOutputStream@1@_N@Z 0000000180072c4c f   PhysX3CommonDEBUG_x64:PhysX3CommonDEBUG_x64.dll
 0001:00071c58       ?storeIndices@physx@@YAXIIPEBIAEAVPxOutputStream@1@_N@Z 0000000180072c58 f   PhysX3CommonDEBUG_x64:PhysX3CommonDEBUG_x64.dll
 0001:00071c5e       __imp_load_?computeBoundsAroundVertices@Gu@physx@@YAXAEAVPxBounds3@2@IPEIBVPxVec3@2@@Z 0000000180072c5e f   PhysX3CommonDEBUG_x64:PhysX3CommonDEBUG_x64.dll
 0001:00071c6a       ?computeBoundsAroundVertices@Gu@physx@@YAXAEAVPxBounds3@2@IPEIBVPxVec3@2@@Z 0000000180072c6a f   PhysX3CommonDEBUG_x64:PhysX3CommonDEBUG_x64.dll
 0001:00071c70       __imp_load_?BuildBV4Ex@Gu@physx@@YA_NAEAVBV4Tree@12@AEAVSourceMesh@12@MI@Z 0000000180072c70 f   PhysX3CommonDEBUG_x64:PhysX3CommonDEBUG_x64.dll
 0001:00071c7c       ?BuildBV4Ex@Gu@physx@@YA_NAEAVBV4Tree@12@AEAVSourceMesh@12@MI@Z 0000000180072c7c f   PhysX3CommonDEBUG_x64:PhysX3CommonDEBUG_x64.dll
 0001:00071c82       __imp_load_?BuildBV32Ex@Gu@physx@@YA_NAEAVBV32Tree@12@AEAVSourceMesh@12@MI@Z 0000000180072c82 f   PhysX3CommonDEBUG_x64:PhysX3CommonDEBUG_x64.dll
 0001:00071c8e       ?BuildBV32Ex@Gu@physx@@YA_NAEAVBV32Tree@12@AEAVSourceMesh@12@MI@Z 0000000180072c8e f   PhysX3CommonDEBUG_x64:PhysX3CommonDEBUG_x64.dll
 0001:00071c94       __imp_load_?computeMaxIndex@physx@@YAGPEBGI@Z 0000000180072c94 f   PhysX3CommonDEBUG_x64:PhysX3CommonDEBUG_x64.dll
 0001:00071ca0       ?computeMaxIndex@physx@@YAGPEBGI@Z 0000000180072ca0 f   PhysX3CommonDEBUG_x64:PhysX3CommonDEBUG_x64.dll
 0001:00071ca6       __imp_load_?WriteHeader@Gu@physx@@YA_NEEEEI_NAEAVPxOutputStream@2@@Z 0000000180072ca6 f   PhysX3CommonDEBUG_x64:PhysX3CommonDEBUG_x64.dll
 0001:00071cb2       ?WriteHeader@Gu@physx@@YA_NEEEEI_NAEAVPxOutputStream@2@@Z 0000000180072cb2 f   PhysX3CommonDEBUG_x64:PhysX3CommonDEBUG_x64.dll
 0001:00071cb8       __imp_load_?StoreIndices@Gu@physx@@YAXGIPEBGAEAVPxOutputStream@2@_N@Z 0000000180072cb8 f   PhysX3CommonDEBUG_x64:PhysX3CommonDEBUG_x64.dll
 0001:00071cc4       ?StoreIndices@Gu@physx@@YAXGIPEBGAEAVPxOutputStream@2@_N@Z 0000000180072cc4 f   PhysX3CommonDEBUG_x64:PhysX3CommonDEBUG_x64.dll
 0001:00071cca       __imp_load_?CreateOffsets@BigConvexData@physx@@IEAAXXZ 0000000180072cca f   PhysX3CommonDEBUG_x64:PhysX3CommonDEBUG_x64.dll
 0001:00071cd6       ?CreateOffsets@BigConvexData@physx@@IEAAXXZ 0000000180072cd6 f   PhysX3CommonDEBUG_x64:PhysX3CommonDEBUG_x64.dll
 0001:00071cdc       __imp_load_?GetRanks@RadixSort@Cm@physx@@QEBAPEBIXZ 0000000180072cdc f   PhysX3CommonDEBUG_x64:PhysX3CommonDEBUG_x64.dll
 0001:00071ce8       ?GetRanks@RadixSort@Cm@physx@@QEBAPEBIXZ 0000000180072ce8 f   PhysX3CommonDEBUG_x64:PhysX3CommonDEBUG_x64.dll
 0001:00071cee       __imp_load_??0RadixSortBuffered@Cm@physx@@QEAA@XZ 0000000180072cee f   PhysX3CommonDEBUG_x64:PhysX3CommonDEBUG_x64.dll
 0001:00071cfa       ??0RadixSortBuffered@Cm@physx@@QEAA@XZ 0000000180072cfa f   PhysX3CommonDEBUG_x64:PhysX3CommonDEBUG_x64.dll
 0001:00071d00       __imp_load_??1RadixSortBuffered@Cm@physx@@UEAA@XZ 0000000180072d00 f   PhysX3CommonDEBUG_x64:PhysX3CommonDEBUG_x64.dll
 0001:00071d0c       ??1RadixSortBuffered@Cm@physx@@UEAA@XZ 0000000180072d0c f   PhysX3CommonDEBUG_x64:PhysX3CommonDEBUG_x64.dll
 0001:00071d12       __imp_load_?Sort@RadixSortBuffered@Cm@physx@@QEAAAEAV123@PEBIIW4RadixHint@23@@Z 0000000180072d12 f   PhysX3CommonDEBUG_x64:PhysX3CommonDEBUG_x64.dll
 0001:00071d1e       ?Sort@RadixSortBuffered@Cm@physx@@QEAAAEAV123@PEBIIW4RadixHint@23@@Z 0000000180072d1e f   PhysX3CommonDEBUG_x64:PhysX3CommonDEBUG_x64.dll
 0001:00071d24       __imp_load_?computeOBBPoints@Gu@physx@@YAXPEIAVPxVec3@2@AEBV32@1111@Z 0000000180072d24 f   PhysX3CommonDEBUG_x64:PhysX3CommonDEBUG_x64.dll
 0001:00071d30       ?computeOBBPoints@Gu@physx@@YAXPEIAVPxVec3@2@AEBV32@1111@Z 0000000180072d30 f   PhysX3CommonDEBUG_x64:PhysX3CommonDEBUG_x64.dll
 0001:00071d36       __imp_load_??0BigConvexData@physx@@QEAA@XZ 0000000180072d36 f   PhysX3CommonDEBUG_x64:PhysX3CommonDEBUG_x64.dll
 0001:00071d42       ??0BigConvexData@physx@@QEAA@XZ 0000000180072d42 f   PhysX3CommonDEBUG_x64:PhysX3CommonDEBUG_x64.dll
 0001:00071d48       __imp_load_??1BigConvexData@physx@@QEAA@XZ 0000000180072d48 f   PhysX3CommonDEBUG_x64:PhysX3CommonDEBUG_x64.dll
 0001:00071d54       ??1BigConvexData@physx@@QEAA@XZ 0000000180072d54 f   PhysX3CommonDEBUG_x64:PhysX3CommonDEBUG_x64.dll
 0001:00071d5a       __imp_load_?readDword@physx@@YAI_NAEAVPxInputStream@1@@Z 0000000180072d5a f   PhysX3CommonDEBUG_x64:PhysX3CommonDEBUG_x64.dll
 0001:00071d66       ?readDword@physx@@YAI_NAEAVPxInputStream@1@@Z 0000000180072d66 f   PhysX3CommonDEBUG_x64:PhysX3CommonDEBUG_x64.dll
 0001:00071d6c       __imp_load_?ReadHeader@Gu@physx@@YA_NEEEEAEAIAEA_NAEAVPxInputStream@2@@Z 0000000180072d6c f   PhysX3CommonDEBUG_x64:PhysX3CommonDEBUG_x64.dll
 0001:00071d78       ?ReadHeader@Gu@physx@@YA_NEEEEAEAIAEA_NAEAVPxInputStream@2@@Z 0000000180072d78 f   PhysX3CommonDEBUG_x64:PhysX3CommonDEBUG_x64.dll
 0001:00071d7e       __imp_load_??0HeightField@Gu@physx@@QEAA@PEAVGuMeshFactory@2@@Z 0000000180072d7e f   PhysX3CommonDEBUG_x64:PhysX3CommonDEBUG_x64.dll
 0001:00071d8a       ??0HeightField@Gu@physx@@QEAA@PEAVGuMeshFactory@2@@Z 0000000180072d8a f   PhysX3CommonDEBUG_x64:PhysX3CommonDEBUG_x64.dll
 0001:00071d90       __imp_load_?loadFromDesc@HeightField@Gu@physx@@QEAA_NAEBVPxHeightFieldDesc@3@@Z 0000000180072d90 f   PhysX3CommonDEBUG_x64:PhysX3CommonDEBUG_x64.dll
 0001:00071d9c       ?loadFromDesc@HeightField@Gu@physx@@QEAA_NAEBVPxHeightFieldDesc@3@@Z 0000000180072d9c f   PhysX3CommonDEBUG_x64:PhysX3CommonDEBUG_x64.dll
 0001:00071da2       __imp_load_?releaseMemory@HeightField@Gu@physx@@QEAAXXZ 0000000180072da2 f   PhysX3CommonDEBUG_x64:PhysX3CommonDEBUG_x64.dll
 0001:00071dae       ?releaseMemory@HeightField@Gu@physx@@QEAAXXZ 0000000180072dae f   PhysX3CommonDEBUG_x64:PhysX3CommonDEBUG_x64.dll
 0001:00071db4       __imp_load_??1HeightField@Gu@physx@@UEAA@XZ 0000000180072db4 f   PhysX3CommonDEBUG_x64:PhysX3CommonDEBUG_x64.dll
 0001:00071dc0       ??1HeightField@Gu@physx@@UEAA@XZ 0000000180072dc0 f   PhysX3CommonDEBUG_x64:PhysX3CommonDEBUG_x64.dll
 0001:00071dc8       ??$PFromRva@PEAP6A_JXZ@@YAPEAP6A_JXZK@Z 0000000180072dc8 f i delayimp:delayhlp.obj
 0001:00071dd8       ??$PFromRva@PEAPEAUHINSTANCE__@@@@YAPEAPEAUHINSTANCE__@@K@Z 0000000180072dd8 f i delayimp:delayhlp.obj
 0001:00071de8       ??$PFromRva@PEAU_IMAGE_IMPORT_BY_NAME@@@@YAPEAU_IMAGE_IMPORT_BY_NAME@@K@Z 0000000180072de8 f i delayimp:delayhlp.obj
 0001:00071df8       ??$PFromRva@PEAU_IMAGE_THUNK_DATA64@@@@YAPEAU_IMAGE_THUNK_DATA64@@K@Z 0000000180072df8 f i delayimp:delayhlp.obj
 0001:00071e08       ??$PFromRva@PEBD@@YAPEBDK@Z 0000000180072e08 f i delayimp:delayhlp.obj
 0001:00071e18       ??$PFromRva@PEBUImgDelayDescr@@@@YAPEBUImgDelayDescr@@K@Z 0000000180072e18 f i delayimp:delayhlp.obj
 0001:00071e28       ??$PFromRva@PEBU_IMAGE_THUNK_DATA64@@@@YAPEBU_IMAGE_THUNK_DATA64@@K@Z 0000000180072e28 f i delayimp:delayhlp.obj
 0001:00071e38       ?CountOfImports@@YAIPEBU_IMAGE_THUNK_DATA64@@@Z 0000000180072e38 f i delayimp:delayhlp.obj
 0001:00071e54       ?DloadAcquireSectionWriteAccess@@YAXXZ 0000000180072e54 f i delayimp:delayhlp.obj
 0001:00071f28       ?DloadGetSRWLockFunctionPointers@@YAEXZ 0000000180072f28 f i delayimp:delayhlp.obj
 0001:00071ff0       ?DloadLock@@YAXXZ          0000000180072ff0 f i delayimp:delayhlp.obj
 0001:00072048       ?DloadMakePermanentImageCommit@@YAXPEAX_K@Z 0000000180073048 f i delayimp:delayhlp.obj
 0001:00072108       ?DloadObtainSection@@YAPEAXPEAK0@Z 0000000180073108 f i delayimp:delayhlp.obj
 0001:000721c8       ?DloadProtectSection@@YAXKPEAK@Z 00000001800731c8 f i delayimp:delayhlp.obj
 0001:0007227c       ?DloadReleaseSectionWriteAccess@@YAXXZ 000000018007327c f i delayimp:delayhlp.obj
 0001:00072334       ?DloadUnlock@@YAXXZ        0000000180073334 f i delayimp:delayhlp.obj
 0001:00072384       ?IndexFromPImgThunkData@@YAIPEBU_IMAGE_THUNK_DATA64@@0@Z 0000000180073384 f i delayimp:delayhlp.obj
 0001:00072518       HRESULT_FROM_WIN32         0000000180073518 f i delayimp:delayhlp.obj
 0001:0007252c       ReadAcquire64              000000018007352c f i delayimp:delayhlp.obj
 0001:00072530       ReadPointerAcquire         0000000180073530 f i delayimp:delayhlp.obj
 0001:00072534       WritePointerRelease        0000000180073534 f i delayimp:delayhlp.obj
 0001:00072538       WriteRelease64             0000000180073538 f i delayimp:delayhlp.obj
 0001:0007253c       __FUnloadDelayLoadedDLL2   000000018007353c f   delayimp:delayhlp.obj
 0001:00072624       __HrLoadAllImportsForDll   0000000180073624 f   delayimp:delayhlp.obj
 0001:000726b4       __delayLoadHelper2         00000001800736b4 f   delayimp:delayhlp.obj
 0001:00072a40       _CRT_RTC_INIT              0000000180073a40 f   LIBCMTD:init.obj
 0001:00072a50       _CRT_RTC_INITW             0000000180073a50 f   LIBCMTD:init.obj
 0001:00072a60       _RTC_InitBase              0000000180073a60 f   LIBCMTD:init.obj
 0001:00072ab0       _RTC_Shutdown              0000000180073ab0 f   LIBCMTD:init.obj
 0001:00072af0       __chkstk                   0000000180073af0 f   LIBCMTD:chkstk.obj
 0001:00072af0       _alloca_probe              0000000180073af0 f   LIBCMTD:chkstk.obj
 0001:00072b60       ??3@YAXPEAX_K@Z            0000000180073b60 f   LIBCMTD:delete_scalar_size.obj
 0001:00072b90       ??1type_info@@UEAA@XZ      0000000180073b90 f   LIBCMTD:std_type_info_static.obj
 0001:00072bb0       ??_Etype_info@@UEAAPEAXI@Z 0000000180073bb0 f i LIBCMTD:std_type_info_static.obj
 0001:00072bb0       ??_Gtype_info@@UEAAPEAXI@Z 0000000180073bb0 f i LIBCMTD:std_type_info_static.obj
 0001:00072c00       ?__scrt_initialize_type_info@@YAXXZ 0000000180073c00 f   LIBCMTD:tncleanup.obj
 0001:00072c20       ?__scrt_uninitialize_type_info@@YAXXZ 0000000180073c20 f   LIBCMTD:tncleanup.obj
 0001:00073140       _CRT_INIT                  0000000180074140 f   LIBCMTD:dll_dllmain.obj
 0001:00073180       _DllMainCRTStartup         0000000180074180 f   LIBCMTD:dll_dllmain.obj
 0001:000731d0       _guard_check_icall_nop     00000001800741d0 f i LIBCMTD:guard_support.obj
 0001:000731e0       ReadNoFence64              00000001800741e0 f i LIBCMTD:guard_support.obj
 0001:00073210       ReadPointerNoFence         0000000180074210 f i LIBCMTD:guard_support.obj
 0001:00073230       __castguard_check_failure_debugbreak 0000000180074230 f i LIBCMTD:guard_support.obj
 0001:00073260       __castguard_check_failure_fastfail 0000000180074260 f i LIBCMTD:guard_support.obj
 0001:00073290       __castguard_check_failure_nop 0000000180074290 f i LIBCMTD:guard_support.obj
 0001:000732a0       __castguard_check_failure_os_handled 00000001800742a0 f i LIBCMTD:guard_support.obj
 0001:000733a0       __castguard_slow_path_check_debugbreak 00000001800743a0 f i LIBCMTD:guard_support.obj
 0001:000733f0       __castguard_slow_path_check_fastfail 00000001800743f0 f i LIBCMTD:guard_support.obj
 0001:00073450       __castguard_slow_path_check_nop 0000000180074450 f i LIBCMTD:guard_support.obj
 0001:00073470       __castguard_slow_path_check_os_handled 0000000180074470 f i LIBCMTD:guard_support.obj
 0001:00073560       _guard_icall_checks_enforced 0000000180074560 f i LIBCMTD:guard_support.obj
 0001:000735b0       _guard_rf_checks_enforced  00000001800745b0 f i LIBCMTD:guard_support.obj
 0001:000735c0       ?_RTC_GetErrorFunc@@YAP6AHHPEBDH00ZZPEBX@Z 00000001800745c0 f   LIBCMTD:userapi.obj
 0001:000735d0       ?_RTC_GetErrorFuncW@@YAP6AHHPEB_WH00ZZPEBX@Z 00000001800745d0 f   LIBCMTD:userapi.obj
 0001:000735e0       _RTC_GetErrDesc            00000001800745e0 f   LIBCMTD:userapi.obj
 0001:00073600       _RTC_NumErrors             0000000180074600 f   LIBCMTD:userapi.obj
 0001:00073610       _RTC_SetErrorFunc          0000000180074610 f   LIBCMTD:userapi.obj
 0001:00073630       _RTC_SetErrorFuncW         0000000180074630 f   LIBCMTD:userapi.obj
 0001:00073650       _RTC_SetErrorType          0000000180074650 f   LIBCMTD:userapi.obj
 0001:00073680       ??3@YAXPEAX@Z              0000000180074680 f   LIBCMTD:delete_scalar.obj
 0001:000737a0       __security_init_cookie     00000001800747a0 f   LIBCMTD:gs_support.obj
 0001:00073840       DllMain                    0000000180074840 f   LIBCMTD:dll_dllmain_stub.obj
 0001:00073860       __local_stdio_printf_options 0000000180074860 f i LIBCMTD:default_local_stdio_options.obj
 0001:00073870       __local_stdio_scanf_options 0000000180074870 f i LIBCMTD:default_local_stdio_options.obj
 0001:00073880       __scrt_initialize_default_local_stdio_options 0000000180074880 f   LIBCMTD:default_local_stdio_options.obj
 0001:000738e0       ?configure_argv@__scrt_narrow_argv_policy@@SAHXZ 00000001800748e0 f i LIBCMTD:utility.obj
 0001:00073a00       ?initialize_environment@__scrt_narrow_environment_policy@@SAHXZ 0000000180074a00 f i LIBCMTD:utility.obj
 0001:00073ad0       NtCurrentTeb               0000000180074ad0 f i LIBCMTD:utility.obj
 0001:00073ae0       __scrt_acquire_startup_lock 0000000180074ae0 f   LIBCMTD:utility.obj
 0001:00073b60       __scrt_dllmain_after_initialize_c 0000000180074b60 f   LIBCMTD:utility.obj
 0001:00073ba0       __scrt_dllmain_before_initialize_c 0000000180074ba0 f   LIBCMTD:utility.obj
 0001:00073bd0       __scrt_dllmain_crt_thread_attach 0000000180074bd0 f   LIBCMTD:utility.obj
 0001:00073c10       __scrt_dllmain_crt_thread_detach 0000000180074c10 f   LIBCMTD:utility.obj
 0001:00073c30       __scrt_dllmain_exception_filter 0000000180074c30 f   LIBCMTD:utility.obj
 0001:00073cb0       __scrt_dllmain_uninitialize_c 0000000180074cb0 f   LIBCMTD:utility.obj
 0001:00073cf0       __scrt_dllmain_uninitialize_critical 0000000180074cf0 f   LIBCMTD:utility.obj
 0001:00073d10       __scrt_initialize_crt      0000000180074d10 f   LIBCMTD:utility.obj
 0001:00073d70       __scrt_initialize_onexit_tables 0000000180074d70 f   LIBCMTD:utility.obj
 0001:00073ec0       __scrt_is_nonwritable_in_current_image 0000000180074ec0 f   LIBCMTD:utility.obj
 0001:00073f70       __scrt_release_startup_lock 0000000180074f70 f   LIBCMTD:utility.obj
 0001:00073fb0       __scrt_uninitialize_crt    0000000180074fb0 f   LIBCMTD:utility.obj
 0001:00074000       _onexit                    0000000180075000 f   LIBCMTD:utility.obj
 0001:000740a0       at_quick_exit              00000001800750a0 f   LIBCMTD:utility.obj
 0001:00074100       atexit                     0000000180075100 f   LIBCMTD:utility.obj
 0001:00074140       __scrt_get_dyn_tls_init_callback 0000000180075140 f   LIBCMTD:dyn_tls_init.obj
 0001:00074150       __crt_debugger_hook        0000000180075150 f   LIBCMTD:utility_desktop.obj
 0001:00074170       __scrt_fastfail            0000000180075170 f   LIBCMTD:utility_desktop.obj
 0001:00074370       __scrt_get_show_window_mode 0000000180075370 f   LIBCMTD:utility_desktop.obj
 0001:000743e0       __scrt_initialize_mta      00000001800753e0 f   LIBCMTD:utility_desktop.obj
 0001:00074400       __scrt_initialize_winrt    0000000180075400 f   LIBCMTD:utility_desktop.obj
 0001:00074410       __scrt_is_managed_app      0000000180075410 f   LIBCMTD:utility_desktop.obj
 0001:000744e0       __scrt_set_unhandled_exception_filter 00000001800754e0 f   LIBCMTD:utility_desktop.obj
 0001:00074500       __scrt_exe_initialize_mta  0000000180075500 f   LIBCMTD:utility_desktop.obj
 0001:00074500       __scrt_stub_for_initialize_mta 0000000180075500 f   LIBCMTD:utility_desktop.obj
 0001:00074510       __scrt_unhandled_exception_filter 0000000180075510 f   LIBCMTD:utility_desktop.obj
 0001:000745d0       _RTC_Initialize            00000001800755d0 f   LIBCMTD:initsect.obj
 0001:00074630       _RTC_Terminate             0000000180075630 f   LIBCMTD:initsect.obj
 0001:00074740       ?_RTC_AllocaFailure@@YAXPEAXPEAU_RTC_ALLOCA_NODE@@H@Z 0000000180075740 f   LIBCMTD:error.obj
 0001:000748f0       ?_RTC_Failure@@YAXPEAXH@Z  00000001800758f0 f   LIBCMTD:error.obj
 0001:00074960       ?_RTC_StackFailure@@YAXPEAXPEBD@Z 0000000180075960 f   LIBCMTD:error.obj
 0001:00074ea0       _RTC_UninitUse             0000000180075ea0 f   LIBCMTD:error.obj
 0001:00074fa0       _vsprintf_s_l              0000000180075fa0 f i LIBCMTD:error.obj
 0001:00075020       sprintf_s                  0000000180076020 f i LIBCMTD:error.obj
 0001:00075050       __isa_available_init       0000000180076050 f   LIBCMTD:cpu_disp.obj
 0001:000754e0       _get_startup_argv_mode     00000001800764e0 f   LIBCMTD:argv_mode.obj
 0001:000754f0       __scrt_is_ucrt_dll_in_use  00000001800764f0 f   LIBCMTD:ucrt_detection.obj
 0001:00075b90       ?_RTC_GetSrcLine@@YAHPEAEPEA_WKPEAH1K@Z 0000000180076b90 f   LIBCMTD:pdblkup.obj
 0001:00076050       __GSHandlerCheck           0000000180077050 f   LIBCMTD:gshandler.obj
 0001:000760a0       __GSHandlerCheckCommon     00000001800770a0 f   LIBCMTD:gshandler.obj
 0001:000761f0       __security_check_cookie    00000001800771f0 f   LIBCMTD:amdsecgs.obj
 0001:00076220       __raise_securityfailure    0000000180077220 f   LIBCMTD:gs_report.obj
 0001:00076270       __report_gsfailure         0000000180077270 f   LIBCMTD:gs_report.obj
 0001:00076380       __report_rangecheckfailure 0000000180077380 f   LIBCMTD:gs_report.obj
 0001:000763a0       __report_securityfailure   00000001800773a0 f   LIBCMTD:gs_report.obj
 0001:00076470       __report_securityfailureEx 0000000180077470 f   LIBCMTD:gs_report.obj
 0001:00076770       strstr                     0000000180077770 f   libvcruntimed:strstr.obj
 0001:00076f50       memcpy_repmovs             0000000180077f50 f   libvcruntimed:memcpy.obj
 0001:00076f70       memcpy                     0000000180077f70 f   libvcruntimed:memcpy.obj
 0001:00076f70       memmove                    0000000180077f70 f   libvcruntimed:memcpy.obj
 0001:00077790       ??$__crt_interlocked_exchange_pointer@$$A6AXXZP6AXXZ@@YAP6AXXZPEDS6AXXZQ6AXXZ@Z 0000000180078790 f i libvcruntimed:purevirt.obj
 0001:000777b0       ??$__crt_interlocked_read_pointer@$$A6AXXZ@@YAP6AXXZPEDS6AXXZ@Z 00000001800787b0 f i libvcruntimed:purevirt.obj
 0001:000777d0       ?__crt_interlocked_read_64@@YA_JPED_J@Z 00000001800787d0 f i libvcruntimed:purevirt.obj
 0001:00077800       _get_purecall_handler      0000000180078800 f   libvcruntimed:purevirt.obj
 0001:00077820       _purecall                  0000000180078820 f   libvcruntimed:purevirt.obj
 0001:00077870       _set_purecall_handler      0000000180078870 f   libvcruntimed:purevirt.obj
 0001:000778e0       ??$?RD@__crt_internal_free_policy@@QEBAXQEBD@Z 00000001800788e0 f i libvcruntimed:std_type_info.obj
 0001:00077910       ??$?RX@__crt_internal_free_policy@@QEBAXQEBX@Z 0000000180078910 f i libvcruntimed:std_type_info.obj
 0001:00077940       ??$__crt_interlocked_compare_exchange_pointer@$$CBDPEAD$$T@@YAPEBDPEDSEBDQEAD$$T@Z 0000000180078940 f i libvcruntimed:std_type_info.obj
 0001:00077990       ??$__crt_interlocked_read_pointer@$$CBD@@YAPEBDPEDSEBD@Z 0000000180078990 f i libvcruntimed:std_type_info.obj
 0001:000779b0       ??0?$__crt_unique_heap_ptr@DU__crt_internal_free_policy@@@@QEAA@QEAD@Z 00000001800789b0 f i libvcruntimed:std_type_info.obj
 0001:000779e0       ??0?$__crt_unique_heap_ptr@XU__crt_internal_free_policy@@@@QEAA@QEAX@Z 00000001800789e0 f i libvcruntimed:std_type_info.obj
 0001:00077a10       ??1?$__crt_unique_heap_ptr@DU__crt_internal_free_policy@@@@QEAA@XZ 0000000180078a10 f i libvcruntimed:std_type_info.obj
 0001:00077a30       ??1?$__crt_unique_heap_ptr@XU__crt_internal_free_policy@@@@QEAA@XZ 0000000180078a30 f i libvcruntimed:std_type_info.obj
 0001:00077a50       ??B?$__crt_unique_heap_ptr@DU__crt_internal_free_policy@@@@QEBA_NXZ 0000000180078a50 f i libvcruntimed:std_type_info.obj
 0001:00077a70       ??B?$__crt_unique_heap_ptr@XU__crt_internal_free_policy@@@@QEBA_NXZ 0000000180078a70 f i libvcruntimed:std_type_info.obj
 0001:00077b20       ?detach@?$__crt_unique_heap_ptr@XU__crt_internal_free_policy@@@@QEAAPEAXXZ 0000000180078b20 f i libvcruntimed:std_type_info.obj
 0001:00077b60       ?get@?$__crt_unique_heap_ptr@DU__crt_internal_free_policy@@@@QEBAPEADXZ 0000000180078b60 f i libvcruntimed:std_type_info.obj
 0001:00077b80       ?get@?$__crt_unique_heap_ptr@XU__crt_internal_free_policy@@@@QEBAPEAXXZ 0000000180078b80 f i libvcruntimed:std_type_info.obj
 0001:00077ba0       ?is_valid@?$__crt_unique_heap_ptr@DU__crt_internal_free_policy@@@@QEBA_NXZ 0000000180078ba0 f i libvcruntimed:std_type_info.obj
 0001:00077be0       ?is_valid@?$__crt_unique_heap_ptr@XU__crt_internal_free_policy@@@@QEBA_NXZ 0000000180078be0 f i libvcruntimed:std_type_info.obj
 0001:00077c20       ?release@?$__crt_unique_heap_ptr@DU__crt_internal_free_policy@@@@QEAAXXZ 0000000180078c20 f i libvcruntimed:std_type_info.obj
 0001:00077c60       ?release@?$__crt_unique_heap_ptr@XU__crt_internal_free_policy@@@@QEAAXXZ 0000000180078c60 f i libvcruntimed:std_type_info.obj
 0001:00077ca0       __std_type_info_compare    0000000180078ca0 f   libvcruntimed:std_type_info.obj
 0001:00077cf0       __std_type_info_destroy_list 0000000180078cf0 f   libvcruntimed:std_type_info.obj
 0001:00077d60       __std_type_info_hash       0000000180078d60 f   libvcruntimed:std_type_info.obj
 0001:00077e40       __std_type_info_name       0000000180078e40 f   libvcruntimed:std_type_info.obj
 0001:000781b0       memset_repstos             00000001800791b0 f   libvcruntimed:memset.obj
 0001:000781d0       memset                     00000001800791d0 f   libvcruntimed:memset.obj
 0001:00078650       __C_specific_handler       0000000180079650 f   libvcruntimed:riscchandler.obj
 0001:00078be0       __vcrt_initialize          0000000180079be0 f   libvcruntimed:initialization.obj
 0001:00078c30       __vcrt_thread_attach       0000000180079c30 f   libvcruntimed:initialization.obj
 0001:00078c50       __vcrt_thread_detach       0000000180079c50 f   libvcruntimed:initialization.obj
 0001:00078c70       __vcrt_uninitialize        0000000180079c70 f   libvcruntimed:initialization.obj
 0001:00078c90       __vcrt_uninitialize_critical 0000000180079c90 f   libvcruntimed:initialization.obj
 0001:00078cc0       __DestructExceptionObject  0000000180079cc0 f   libvcruntimed:ehhelpers.obj
 0001:00078e00       ?_CallMemberFunction0@@YAXQEAX0@Z 0000000180079e00 f i libvcruntimed:ehhelpers.obj
 0001:00078f10       ?raw_name@type_info@@QEBAPEBDXZ 0000000180079f10 f i libvcruntimed:ehhelpers.obj
 0001:00078f30       _IsExceptionObjectToBeDestroyed 0000000180079f30 f   libvcruntimed:ehhelpers.obj
 0001:00078fa0       _SetWinRTOutOfMemoryExceptionCallback 0000000180079fa0 f   libvcruntimed:ehhelpers.obj
 0001:00078fc0       __AdjustPointer            0000000180079fc0 f   libvcruntimed:ehhelpers.obj
 0001:00079060       __FrameUnwindFilter        000000018007a060 f   libvcruntimed:ehhelpers.obj
 0001:00079130       __GetPlatformExceptionInfo 000000018007a130 f   libvcruntimed:ehhelpers.obj
 0001:00079210       __current_exception        000000018007a210 f   libvcruntimed:ehhelpers.obj
 0001:00079230       __current_exception_context 000000018007a230 f   libvcruntimed:ehhelpers.obj
 0001:00079250       __processing_throw         000000018007a250 f   libvcruntimed:ehhelpers.obj
 0001:00079270       __std_terminate            000000018007a270 f   libvcruntimed:ehhelpers.obj
 0001:00079290       _is_exception_typeof       000000018007a290 f   libvcruntimed:ehhelpers.obj
 0001:00079430       __C_specific_handler_noexcept 000000018007a430 f   libvcruntimed:chandler_noexcept.obj
 0001:000794e0       __vcrt_GetModuleFileNameW  000000018007a4e0 f   libvcruntimed:winapi_thunks.obj
 0001:00079520       __vcrt_GetModuleHandleW    000000018007a520 f   libvcruntimed:winapi_thunks.obj
 0001:00079540       __vcrt_LoadLibraryExW      000000018007a540 f   libvcruntimed:winapi_thunks.obj
 0001:00079580       ??$?0$00@DName@@QEAA@PEBDU?$StringLifeSelector@$00@@@Z 000000018007a580 f i libvcruntimed:undname.obj
 0001:00079600       ??$?0$00@pcharNode@@QEAA@PEBDHU?$StringLifeSelector@$00@@@Z 000000018007a600 f i libvcruntimed:undname.obj
 0001:00079670       ??$?0$01@DName@@QEAA@PEBDU?$StringLifeSelector@$01@@@Z 000000018007a670 f i libvcruntimed:undname.obj
 0001:000796f0       ??$?0$01@pcharNode@@QEAA@PEBDHU?$StringLifeSelector@$01@@@Z 000000018007a6f0 f i libvcruntimed:undname.obj
 0001:000797c0       ??$?0$0A@@DName@@QEAA@PEBDU?$StringLifeSelector@$0A@@@@Z 000000018007a7c0 f i libvcruntimed:undname.obj
 0001:00079840       ??$?0$0A@@pcharNode@@QEAA@PEBDHU?$StringLifeSelector@$0A@@@@Z 000000018007a840 f i libvcruntimed:undname.obj
 0001:00079910       ??$?0_K$0A@@?$optional@_K@std@@QEAA@$$QEA_K@Z 000000018007a910 f i libvcruntimed:undname.obj
 0001:00079970       ??$?0_K@?$_Optional_construct_base@_K@std@@QEAA@Uin_place_t@1@$$QEA_K@Z 000000018007a970 f i libvcruntimed:undname.obj
 0001:000799b0       ??$?0_K@?$_Optional_destruct_base@_K$00@std@@QEAA@Uin_place_t@1@$$QEA_K@Z 000000018007a9b0 f i libvcruntimed:undname.obj
 0001:00079a00       ??$append@VDNameNode@@@DName@@AEAAXPEBVDNameNode@@@Z 000000018007aa00 f i libvcruntimed:undname.obj
 0001:00079ae0       ??$append@VDNameStatusNode@@@DName@@AEAAXPEBVDNameStatusNode@@@Z 000000018007aae0 f i libvcruntimed:undname.obj
 0001:00079bc0       ??$append@VcharNode@@@DName@@AEAAXPEBVcharNode@@@Z 000000018007abc0 f i libvcruntimed:undname.obj
 0001:00079ca0       ??$append@VpDNameNode@@@DName@@AEAAXPEBVpDNameNode@@@Z 000000018007aca0 f i libvcruntimed:undname.obj
 0001:00079d80       ??$append@VpcharNode@@@DName@@AEAAXPEBVpcharNode@@@Z 000000018007ad80 f i libvcruntimed:undname.obj
 0001:00079e60       ??$doPchar@$00@DName@@AEAAXPEBDH@Z 000000018007ae60 f i libvcruntimed:undname.obj
 0001:0007a020       ??$doPchar@$01@DName@@AEAAXPEBDH@Z 000000018007b020 f i libvcruntimed:undname.obj
 0001:0007a1e0       ??$doPchar@$0A@@DName@@AEAAXPEBDH@Z 000000018007b1e0 f i libvcruntimed:undname.obj
 0001:0007a3a0       ??$forward@_K@std@@YA$$QEA_KAEA_K@Z 000000018007b3a0 f i libvcruntimed:undname.obj
 0001:0007a590       ??$size@D$04@std@@YA_KAEAY04$$CBD@Z 000000018007b590 f i libvcruntimed:undname.obj
 0001:0007a5a0       ??0?$_Optional_construct_base@_K@std@@QEAA@XZ 000000018007b5a0 f i libvcruntimed:undname.obj
 0001:0007a5d0       ??0?$_Optional_destruct_base@_K$00@std@@QEAA@XZ 000000018007b5d0 f i libvcruntimed:undname.obj
 0001:0007a610       ??0?$optional@_K@std@@QEAA@XZ 000000018007b610 f i libvcruntimed:undname.obj
 0001:0007a640       ??0Block@_HeapManager@@QEAA@XZ 000000018007b640 f i libvcruntimed:undname.obj
 0001:0007a660       ??0DName@@QEAA@AEAPEBDD@Z  000000018007b660 f   libvcruntimed:undname.obj
 0001:0007a8a0       ??0DName@@QEAA@AEBUStringLiteral@@@Z 000000018007b8a0 f   libvcruntimed:undname.obj
 0001:0007a910       ??0DName@@QEAA@AEBV0@@Z    000000018007b910 f i libvcruntimed:undname.obj
 0001:0007a950       ??0DName@@QEAA@D@Z         000000018007b950 f   libvcruntimed:undname.obj
 0001:0007a9a0       ??0DName@@QEAA@PEAV0@@Z    000000018007b9a0 f   libvcruntimed:undname.obj
 0001:0007aac0       ??0DName@@QEAA@W4DNameStatus@@@Z 000000018007bac0 f   libvcruntimed:undname.obj
 0001:0007aba0       ??0DName@@QEAA@XZ          000000018007bba0 f i libvcruntimed:undname.obj
 0001:0007abd0       ??0DName@@QEAA@_J@Z        000000018007bbd0 f   libvcruntimed:undname.obj
 0001:0007ad20       ??0DName@@QEAA@_K@Z        000000018007bd20 f   libvcruntimed:undname.obj
 0001:0007ae30       ??0DNameNode@@IEAA@XZ      000000018007be30 f i libvcruntimed:undname.obj
 0001:0007ae50       ??0Replicator@@QEAA@XZ     000000018007be50 f i libvcruntimed:undname.obj
 0001:0007ae90       ??0UnDecorator@@QEAA@PEBDP6APEADJ@ZK@Z 000000018007be90 f i libvcruntimed:undname.obj
 0001:0007af60       ??0_Nontrivial_dummy_type@std@@QEAA@XZ 000000018007bf60 f i libvcruntimed:undname.obj
 0001:0007af70       ??0charNode@@QEAA@D@Z      000000018007bf70 f i libvcruntimed:undname.obj
 0001:0007afc0       ??0pDNameNode@@QEAA@PEAVDName@@@Z 000000018007bfc0 f   libvcruntimed:undname.obj
 0001:0007b060       ??0pairNode@@QEAA@PEBVDNameNode@@0@Z 000000018007c060 f i libvcruntimed:undname.obj
 0001:0007b100       ??2@YAPEAX_KAEAV_HeapManager@@H@Z 000000018007c100 f   libvcruntimed:undname.obj
 0001:0007b180       ??4DName@@QEAAAEAV0@AEBUStringLiteral@@@Z 000000018007c180 f   libvcruntimed:undname.obj
 0001:0007b1e0       ??4DName@@QEAAAEAV0@AEBV0@@Z 000000018007c1e0 f   libvcruntimed:undname.obj
 0001:0007b220       ??4DName@@QEAAAEAV0@D@Z    000000018007c220 f i libvcruntimed:undname.obj
 0001:0007b270       ??4DName@@QEAAAEAV0@PEAV0@@Z 000000018007c270 f   libvcruntimed:undname.obj
 0001:0007b370       ??4DName@@QEAAAEAV0@W4DNameStatus@@@Z 000000018007c370 f   libvcruntimed:undname.obj
 0001:0007b430       ??AReplicator@@QEBA?AVDName@@H@Z 000000018007c430 f   libvcruntimed:undname.obj
 0001:0007b4e0       ??B?$optional@_K@std@@QEBA_NXZ 000000018007c4e0 f i libvcruntimed:undname.obj
 0001:0007b500       ??D?$_Optional_construct_base@_K@std@@QEGAAAEA_KXZ 000000018007c500 f i libvcruntimed:undname.obj
 0001:0007b5c0       ??H@YA?AVDName@@AEBUStringLiteral@@AEBV0@@Z 000000018007c5c0 f i libvcruntimed:undname.obj
 0001:0007b620       ??H@YA?AVDName@@DAEBV0@@Z  000000018007c620 f i libvcruntimed:undname.obj
 0001:0007b680       ??H@YA?AVDName@@W4DNameStatus@@AEBV0@@Z 000000018007c680 f i libvcruntimed:undname.obj
 0001:0007b6e0       ??HDName@@QEBA?AV0@AEBUStringLiteral@@@Z 000000018007c6e0 f   libvcruntimed:undname.obj
 0001:0007b740       ??HDName@@QEBA?AV0@AEBV0@@Z 000000018007c740 f   libvcruntimed:undname.obj
 0001:0007b7a0       ??HDName@@QEBA?AV0@D@Z     000000018007c7a0 f   libvcruntimed:undname.obj
 0001:0007b800       ??HDName@@QEBA?AV0@PEAV0@@Z 000000018007c800 f   libvcruntimed:undname.obj
 0001:0007b860       ??HDName@@QEBA?AV0@W4DNameStatus@@@Z 000000018007c860 f   libvcruntimed:undname.obj
 0001:0007b8c0       ??HStringLiteral@@QEBA?AU0@H@Z 000000018007c8c0 f i libvcruntimed:undname.obj
 0001:0007b910       ??YDName@@QEAAAEAV0@AEBUStringLiteral@@@Z 000000018007c910 f   libvcruntimed:undname.obj
 0001:0007ba10       ??YDName@@QEAAAEAV0@AEBV0@@Z 000000018007ca10 f   libvcruntimed:undname.obj
 0001:0007bb00       ??YDName@@QEAAAEAV0@D@Z    000000018007cb00 f   libvcruntimed:undname.obj
 0001:0007bbd0       ??YDName@@QEAAAEAV0@PEAV0@@Z 000000018007cbd0 f   libvcruntimed:undname.obj
 0001:0007bcf0       ??YDName@@QEAAAEAV0@W4DNameStatus@@@Z 000000018007ccf0 f   libvcruntimed:undname.obj
 0001:0007bd80       ??YReplicator@@QEAAAEAV0@AEBVDName@@@Z 000000018007cd80 f   libvcruntimed:undname.obj
 0001:0007be70       ??_5DName@@QEAAAEAV0@AEBV0@@Z 000000018007ce70 f   libvcruntimed:undname.obj
 0001:0007bef0       ??__K_l@@YA?AUStringLiteral@@PEBD_K@Z 000000018007cef0 f i libvcruntimed:undname.obj
 0001:0007bf50       ?Constructor@_HeapManager@@QEAAXP6APEAX_K@ZP6AXPEAX@Z@Z 000000018007cf50 f i libvcruntimed:undname.obj
 0001:0007bfc0       ?Destructor@_HeapManager@@QEAAXXZ 000000018007cfc0 f i libvcruntimed:undname.obj
 0001:0007c080       ?UScore@UnDecorator@@SA?AUStringLiteral@@W4Tokens@@@Z 000000018007d080 f   libvcruntimed:undname.obj
 0001:0007c130       ?composeDeclaration@UnDecorator@@CA?AVDName@@AEBV2@@Z 000000018007d130 f i libvcruntimed:undname.obj
 0001:0007ef70       ?dbGetString@DName@@QEBAPEADXZ 000000018007ff70 f   libvcruntimed:undname.obj
 0001:0007efb0       ?doAccessSpecifiers@UnDecorator@@SAHXZ 000000018007ffb0 f i libvcruntimed:undname.obj
 0001:0007eff0       ?doAllocationLanguage@UnDecorator@@SAHXZ 000000018007fff0 f i libvcruntimed:undname.obj
 0001:0007f030       ?doAllocationModel@UnDecorator@@SAHXZ 0000000180080030 f i libvcruntimed:undname.obj
 0001:0007f070       ?doEcsu@UnDecorator@@SAHXZ 0000000180080070 f i libvcruntimed:undname.obj
 0001:0007f0b0       ?doEllipsis@UnDecorator@@SAHXZ 00000001800800b0 f i libvcruntimed:undname.obj
 0001:0007f0f0       ?doFunctionReturns@UnDecorator@@SAHXZ 00000001800800f0 f i libvcruntimed:undname.obj
 0001:0007f130       ?doMSKeywords@UnDecorator@@SAHXZ 0000000180080130 f i libvcruntimed:undname.obj
 0001:0007f170       ?doMemberTypes@UnDecorator@@SAHXZ 0000000180080170 f i libvcruntimed:undname.obj
 0001:0007f1b0       ?doNameOnly@UnDecorator@@SAHXZ 00000001800801b0 f i libvcruntimed:undname.obj
 0001:0007f1c0       ?doNoIdentCharCheck@UnDecorator@@SAHXZ 00000001800801c0 f i libvcruntimed:undname.obj
 0001:0007f1d0       ?doPchar@DName@@AEAAXD@Z   00000001800801d0 f   libvcruntimed:undname.obj
 0001:0007f280       ?doPtr64@UnDecorator@@SAHXZ 0000000180080280 f i libvcruntimed:undname.obj
 0001:0007f2c0       ?doRestrictionSpec@UnDecorator@@SAHXZ 00000001800802c0 f i libvcruntimed:undname.obj
 0001:0007f300       ?doThisTypes@UnDecorator@@SAHXZ 0000000180080300 f i libvcruntimed:undname.obj
 0001:0007f340       ?doThrowTypes@UnDecorator@@SAHXZ 0000000180080340 f i libvcruntimed:undname.obj
 0001:0007f380       ?doTypeOnly@UnDecorator@@SAHXZ 0000000180080380 f i libvcruntimed:undname.obj
 0001:0007f390       ?doUnderScore@UnDecorator@@SAHXZ 0000000180080390 f i libvcruntimed:undname.obj
 0001:0007f3d0       ?getAddressOf@UnDecorator@@CA?AVDName@@XZ 00000001800803d0 f   libvcruntimed:undname.obj
 0001:0007f4a0       ?getArgumentList@UnDecorator@@CA?AVDName@@XZ 00000001800804a0 f   libvcruntimed:undname.obj
 0001:0007f6a0       ?getArgumentTypes@UnDecorator@@CA?AVDName@@XZ 00000001800806a0 f   libvcruntimed:undname.obj
 0001:0007fa30       ?getArrayAccess@UnDecorator@@CA?AVDName@@XZ 0000000180080a30 f   libvcruntimed:undname.obj
 0001:0007fb20       ?getArrayObject@UnDecorator@@CA?AVDName@@XZ 0000000180080b20 f   libvcruntimed:undname.obj
 0001:0007fc80       ?getArrayType@UnDecorator@@CA?AVDName@@AEBV2@@Z 0000000180080c80 f i libvcruntimed:undname.obj
 0001:00080130       ?getBasedType@UnDecorator@@CA?AVDName@@XZ 0000000180081130 f   libvcruntimed:undname.obj
 0001:00080300       ?getBasicDataType@UnDecorator@@CA?AVDName@@AEBV2@@Z 0000000180081300 f   libvcruntimed:undname.obj
 0001:00081490       ?getCHPEName@UnDecorator@@QEAAPEADPEADH@Z 0000000180082490 f i libvcruntimed:undname.obj
 0001:000816d0       ?getCallIndex@UnDecorator@@CA?AVDName@@XZ 00000001800826d0 f i libvcruntimed:undname.obj
 0001:00081700       ?getCallingConvention@UnDecorator@@CA?AVDName@@XZ 0000000180082700 f   libvcruntimed:undname.obj
 0001:00081be0       ?getDataIndirectType@UnDecorator@@CA?AVDName@@AEBV2@W4IndirectionKind@@0H@Z 0000000180082be0 f   libvcruntimed:undname.obj
 0001:00082ba0       ?getDataIndirectType@UnDecorator@@CA?AVDName@@XZ 0000000180083ba0 f i libvcruntimed:undname.obj
 0001:00082c10       ?getDataType@UnDecorator@@CA?AVDName@@PEAV2@@Z 0000000180083c10 f   libvcruntimed:undname.obj
 0001:00082e60       ?getDecoratedName@UnDecorator@@CA?AVDName@@XZ 0000000180083e60 f   libvcruntimed:undname.obj
 0001:00083490       ?getDimension@UnDecorator@@CA?AVDName@@_N@Z 0000000180084490 f   libvcruntimed:undname.obj
 0001:00083860       ?getDispatchTarget@UnDecorator@@CA?AVDName@@XZ 0000000180084860 f   libvcruntimed:undname.obj
 0001:00083960       ?getDisplacement@UnDecorator@@CA?AVDName@@XZ 0000000180084960 f i libvcruntimed:undname.obj
 0001:00083990       ?getECSUDataType@UnDecorator@@CA?AVDName@@XZ 0000000180084990 f   libvcruntimed:undname.obj
 0001:00083e10       ?getECSUName@UnDecorator@@CA?AVDName@@XZ 0000000180084e10 f i libvcruntimed:undname.obj
 0001:00083e40       ?getEnumType@UnDecorator@@CA?AVDName@@XZ 0000000180084e40 f i libvcruntimed:undname.obj
 0001:00084170       ?getExtendedDataIndirectType@UnDecorator@@CA?AVDName@@AEAW4IndirectionKind@@AEA_NH@Z 0000000180085170 f   libvcruntimed:undname.obj
 0001:00084550       ?getExternalDataType@UnDecorator@@CA?AVDName@@AEBV2@@Z 0000000180085550 f i libvcruntimed:undname.obj
 0001:00084660       ?getFloatingPoint@UnDecorator@@CA?AVDName@@H@Z 0000000180085660 f   libvcruntimed:undname.obj
 0001:00084850       ?getFunctionIndirectType@UnDecorator@@CA?AVDName@@AEBV2@@Z 0000000180085850 f   libvcruntimed:undname.obj
 0001:00085010       ?getGuardNumber@UnDecorator@@CA?AVDName@@XZ 0000000180086010 f i libvcruntimed:undname.obj
 0001:00085040       ?getLastChar@DName@@QEBADXZ 0000000180086040 f i libvcruntimed:undname.obj
 0001:000850a0       ?getLastChar@DNameStatusNode@@UEBADXZ 00000001800860a0 f i libvcruntimed:undname.obj
 0001:000850f0       ?getLastChar@charNode@@UEBADXZ 00000001800860f0 f i libvcruntimed:undname.obj
 0001:00085110       ?getLastChar@pDNameNode@@UEBADXZ 0000000180086110 f i libvcruntimed:undname.obj
 0001:00085160       ?getLastChar@pairNode@@UEBADXZ 0000000180086160 f i libvcruntimed:undname.obj
 0001:00085200       ?getLastChar@pcharNode@@UEBADXZ 0000000180086200 f i libvcruntimed:undname.obj
 0001:00085250       ?getLexicalFrame@UnDecorator@@CA?AVDName@@XZ 0000000180086250 f i libvcruntimed:undname.obj
 0001:000852b0       ?getMemberAccess@UnDecorator@@CA?AVDName@@XZ 00000001800862b0 f   libvcruntimed:undname.obj
 0001:00085390       ?getMemoryWithBuffer@_HeapManager@@QEAAPEAX_K@Z 0000000180086390 f   libvcruntimed:undname.obj
 0001:00085530       ?getMemoryWithoutBuffer@_HeapManager@@QEAAPEAX_K@Z 0000000180086530 f   libvcruntimed:undname.obj
 0001:00085590       ?getNoexcept@UnDecorator@@CA?AVDName@@XZ 0000000180086590 f   libvcruntimed:undname.obj
 0001:00085670       ?getNumberOfDimensions@UnDecorator@@CAHXZ 0000000180086670 f   libvcruntimed:undname.obj
 0001:000857e0       ?getOperatorName@UnDecorator@@CA?AVDName@@_NPEA_N@Z 00000001800867e0 f i libvcruntimed:undname.obj
 0001:00086bc0       ?getPointerToMember@UnDecorator@@CA?AVDName@@XZ 0000000180087bc0 f   libvcruntimed:undname.obj
 0001:00086d60       ?getPointerType@UnDecorator@@CA?AVDName@@AEBV2@0@Z 0000000180087d60 f i libvcruntimed:undname.obj
 0001:00086db0       ?getPointerTypeArray@UnDecorator@@CA?AVDName@@AEBV2@0@Z 0000000180087db0 f i libvcruntimed:undname.obj
 0001:00086e00       ?getPrimaryDataType@UnDecorator@@CA?AVDName@@AEBV2@@Z 0000000180087e00 f   libvcruntimed:undname.obj
 0001:000875b0       ?getPtrRefDataType@UnDecorator@@CA?AVDName@@AEBV2@H@Z 00000001800885b0 f   libvcruntimed:undname.obj
 0001:00087aa0       ?getPtrRefType@UnDecorator@@CA?AVDName@@AEBV2@0W4IndirectionKind@@@Z 0000000180088aa0 f   libvcruntimed:undname.obj
 0001:00087d60       ?getReferenceType@UnDecorator@@CA?AVDName@@AEBV2@0W4IndirectionKind@@@Z 0000000180088d60 f i libvcruntimed:undname.obj
 0001:00087db0       ?getRestrictionSpec@UnDecorator@@CA?AVDName@@XZ 0000000180088db0 f   libvcruntimed:undname.obj
 0001:000880e0       ?getReturnType@UnDecorator@@CA?AVDName@@PEAV2@@Z 00000001800890e0 f   libvcruntimed:undname.obj
 0001:00088160       ?getScope@UnDecorator@@CA?AVDName@@XZ 0000000180089160 f   libvcruntimed:undname.obj
 0001:00088a90       ?getScopedName@UnDecorator@@CA?AVDName@@XZ 0000000180089a90 f   libvcruntimed:undname.obj
 0001:00088d10       ?getSignedDimension@UnDecorator@@CA?AVDName@@XZ 0000000180089d10 f   libvcruntimed:undname.obj
 0001:00088dc0       ?getStorageConvention@UnDecorator@@CA?AVDName@@XZ 0000000180089dc0 f i libvcruntimed:undname.obj
 0001:00088df0       ?getString@DName@@QEBAPEADPEAD0@Z 0000000180089df0 f i libvcruntimed:undname.obj
 0001:00088e80       ?getString@DName@@QEBAPEADPEADH@Z 0000000180089e80 f i libvcruntimed:undname.obj
 0001:00088f60       ?getString@DNameStatusNode@@UEBAPEADPEAD0@Z 0000000180089f60 f i libvcruntimed:undname.obj
 0001:00088fc0       ?getString@charNode@@UEBAPEADPEAD0@Z 0000000180089fc0 f i libvcruntimed:undname.obj
 0001:00089010       ?getString@pDNameNode@@UEBAPEADPEAD0@Z 000000018008a010 f i libvcruntimed:undname.obj
 0001:00089090       ?getString@pairNode@@UEBAPEADPEAD0@Z 000000018008a090 f i libvcruntimed:undname.obj
 0001:00089190       ?getString@pcharNode@@UEBAPEADPEAD0@Z 000000018008a190 f i libvcruntimed:undname.obj
 0001:000891e0       ?getStringEncoding@UnDecorator@@CA?AVDName@@W4PrefixKind@@H@Z 000000018008a1e0 f   libvcruntimed:undname.obj
 0001:00089390       ?getStringHelper@@YAPEADPEADPEBD1H@Z 000000018008a390 f i libvcruntimed:undname.obj
 0001:00089410       ?getStringObject@UnDecorator@@CA?AVDName@@XZ 000000018008a410 f   libvcruntimed:undname.obj
 0001:00089520       ?getSymbolName@UnDecorator@@CA?AVDName@@XZ 000000018008a520 f i libvcruntimed:undname.obj
 0001:000895e0       ?getTemplateArgumentList@UnDecorator@@CA?AVDName@@XZ 000000018008a5e0 f   libvcruntimed:undname.obj
 0001:000899f0       ?getTemplateName@UnDecorator@@CA?AVDName@@_N@Z 000000018008a9f0 f   libvcruntimed:undname.obj
 0001:00089cb0       ?getTemplateNonTypeArgument@UnDecorator@@CA?AVDName@@XZ 000000018008acb0 f   libvcruntimed:undname.obj
 0001:0008a780       ?getTemplateTypeArgument@UnDecorator@@CA?AVDName@@XZ 000000018008b780 f   libvcruntimed:undname.obj
 0001:0008aab0       ?getThisType@UnDecorator@@CA?AVDName@@XZ 000000018008bab0 f i libvcruntimed:undname.obj
 0001:0008ab20       ?getThrowTypes@UnDecorator@@CA?AVDName@@XZ 000000018008bb20 f   libvcruntimed:undname.obj
 0001:0008ab90       ?getTypeEncoding@UnDecorator@@CAHXZ 000000018008bb90 f i libvcruntimed:undname.obj
 0001:0008bb00       ?getUndecoratedName@UnDecorator@@QEAAPEADPEADH@Z 000000018008cb00 f i libvcruntimed:undname.obj
 0001:0008bd70       ?getUnionObject@UnDecorator@@CA?AVDName@@XZ 000000018008cd70 f   libvcruntimed:undname.obj
 0001:0008bec0       ?getVCallThunkType@UnDecorator@@CA?AVDName@@XZ 000000018008cec0 f i libvcruntimed:undname.obj
 0001:0008bfa0       ?getValue@UnDecorator@@CA?AV?$optional@_K@std@@XZ 000000018008cfa0 f   libvcruntimed:undname.obj
 0001:0008c0a0       ?getValueObject@UnDecorator@@CA?AVDName@@XZ 000000018008d0a0 f   libvcruntimed:undname.obj
 0001:0008c340       ?getVbTableType@UnDecorator@@CA?AVDName@@AEBV2@@Z 000000018008d340 f i libvcruntimed:undname.obj
 0001:0008c370       ?getVdispMapType@UnDecorator@@CA?AVDName@@AEBV2@@Z 000000018008d370 f i libvcruntimed:undname.obj
 0001:0008c460       ?getVfTableType@UnDecorator@@CA?AVDName@@AEBV2@@Z 000000018008d460 f i libvcruntimed:undname.obj
 0001:0008c7b0       ?getZName@UnDecorator@@CA?AVDName@@_N0@Z 000000018008d7b0 f   libvcruntimed:undname.obj
 0001:0008cd50       ?haveTemplateParameters@UnDecorator@@SAHXZ 000000018008dd50 f i libvcruntimed:undname.obj
 0001:0008cd60       ?isArray@DName@@QEBAHXZ    000000018008dd60 f i libvcruntimed:undname.obj
 0001:0008cd80       ?isComArray@DName@@QEBAHXZ 000000018008dd80 f i libvcruntimed:undname.obj
 0001:0008cda0       ?isEmpty@DName@@QEBAHXZ    000000018008dda0 f i libvcruntimed:undname.obj
 0001:0008cde0       ?isFull@Replicator@@QEBAHXZ 000000018008dde0 f i libvcruntimed:undname.obj
 0001:0008ce20       ?isNoTE@DName@@QEBAHXZ     000000018008de20 f i libvcruntimed:undname.obj
 0001:0008ce40       ?isPinPtr@DName@@QEBAHXZ   000000018008de40 f i libvcruntimed:undname.obj
 0001:0008ce60       ?isPtrRef@DName@@QEBAHXZ   000000018008de60 f i libvcruntimed:undname.obj
 0001:0008ce80       ?isUDC@DName@@QEBAHXZ      000000018008de80 f i libvcruntimed:undname.obj
 0001:0008cee0       ?isUDTThunk@DName@@QEBAHXZ 000000018008dee0 f i libvcruntimed:undname.obj
 0001:0008cf40       ?isVCallThunk@DName@@QEBAHXZ 000000018008df40 f i libvcruntimed:undname.obj
 0001:0008cf60       ?isValid@DName@@QEBAHXZ    000000018008df60 f i libvcruntimed:undname.obj
 0001:0008cfb0       ?length@DName@@QEBAHXZ     000000018008dfb0 f i libvcruntimed:undname.obj
 0001:0008d010       ?length@DNameStatusNode@@UEBAHXZ 000000018008e010 f i libvcruntimed:undname.obj
 0001:0008d030       ?length@charNode@@UEBAHXZ  000000018008e030 f i libvcruntimed:undname.obj
 0001:0008d040       ?length@pDNameNode@@UEBAHXZ 000000018008e040 f i libvcruntimed:undname.obj
 0001:0008d090       ?length@pairNode@@UEBAHXZ  000000018008e090 f i libvcruntimed:undname.obj
 0001:0008d140       ?length@pcharNode@@UEBAHXZ 000000018008e140 f i libvcruntimed:undname.obj
 0001:0008d160       ?make@DNameStatusNode@@SAPEBV1@W4DNameStatus@@@Z 000000018008e160 f i libvcruntimed:undname.obj
 0001:0008d1c0       ?parseDecoratedName@UnDecorator@@CA?AVDName@@XZ 000000018008e1c0 f   libvcruntimed:undname.obj
 0001:0008d430       ?raw_length@DNameStatusNode@@UEBAHXZ 000000018008e430 f i libvcruntimed:undname.obj
 0001:0008d450       ?raw_length@charNode@@UEBAHXZ 000000018008e450 f i libvcruntimed:undname.obj
 0001:0008d470       ?raw_length@pDNameNode@@UEBAHXZ 000000018008e470 f i libvcruntimed:undname.obj
 0001:0008d480       ?raw_length@pairNode@@UEBAHXZ 000000018008e480 f i libvcruntimed:undname.obj
 0001:0008d4a0       ?raw_length@pcharNode@@UEBAHXZ 000000018008e4a0 f i libvcruntimed:undname.obj
 0001:0008d4c0       ?setIsArray@DName@@QEAAXXZ 000000018008e4c0 f i libvcruntimed:undname.obj
 0001:0008d4e0       ?setIsComArray@DName@@QEAAXXZ 000000018008e4e0 f i libvcruntimed:undname.obj
 0001:0008d500       ?setIsNoTE@DName@@QEAAXXZ  000000018008e500 f i libvcruntimed:undname.obj
 0001:0008d520       ?setIsPinPtr@DName@@QEAAXXZ 000000018008e520 f i libvcruntimed:undname.obj
 0001:0008d540       ?setIsUDC@DName@@QEAAXXZ   000000018008e540 f i libvcruntimed:undname.obj
 0001:0008d580       ?setIsVCallThunk@DName@@QEAAXXZ 000000018008e580 f i libvcruntimed:undname.obj
 0001:0008d5a0       ?setPtrRef@DName@@QEAAAEAV1@XZ 000000018008e5a0 f i libvcruntimed:undname.obj
 0001:0008d5d0       ?status@DName@@QEBA?AW4DNameStatus@@XZ 000000018008e5d0 f i libvcruntimed:undname.obj
 0001:0008d740       __unDName                  000000018008e740 f   libvcruntimed:undname.obj
 0001:0008d7b0       __unDNameEx                000000018008e7b0 f   libvcruntimed:undname.obj
 0001:0008d8a0       snprintf                   000000018008e8a0 f i libvcruntimed:undname.obj
 0001:0008d910       unDNameGenerateCHPE        000000018008e910 f   libvcruntimed:undname.obj
 0001:0008d9e0       vsnprintf                  000000018008e9e0 f i libvcruntimed:undname.obj
 0001:0008da90       _NLG_Notify                000000018008ea90 f   libvcruntimed:notify.obj
 0001:0008dab0       __NLG_Dispatch2            000000018008eab0 f   libvcruntimed:notify.obj
 0001:0008dac0       __NLG_Return2              000000018008eac0 f   libvcruntimed:notify.obj
 0001:0008db00       __except_validate_context_record 000000018008eb00 f   libvcruntimed:jbcxrval.obj
 0001:0008db70       __except_validate_jump_buffer 000000018008eb70 f   libvcruntimed:jbcxrval.obj
 0001:0008dba0       __except_validate_jump_buffer_common 000000018008eba0 f i libvcruntimed:jbcxrval.obj
 0001:0008dc40       ??$?RU__vcrt_ptd@@@__crt_internal_free_policy@@QEBAXQEBU__vcrt_ptd@@@Z 000000018008ec40 f i libvcruntimed:per_thread_data.obj
 0001:0008dc70       ??0?$__crt_unique_heap_ptr@U__vcrt_ptd@@U__crt_internal_free_policy@@@@QEAA@QEAU__vcrt_ptd@@@Z 000000018008ec70 f i libvcruntimed:per_thread_data.obj
 0001:0008dcd0       ??1?$__crt_unique_heap_ptr@U__vcrt_ptd@@U__crt_internal_free_policy@@@@QEAA@XZ 000000018008ecd0 f i libvcruntimed:per_thread_data.obj
 0001:0008dd20       ??B?$__crt_unique_heap_ptr@U__vcrt_ptd@@U__crt_internal_free_policy@@@@QEBA_NXZ 000000018008ed20 f i libvcruntimed:per_thread_data.obj
 0001:0008dd40       ?detach@?$__crt_unique_heap_ptr@U__vcrt_ptd@@U__crt_internal_free_policy@@@@QEAAPEAU__vcrt_ptd@@XZ 000000018008ed40 f i libvcruntimed:per_thread_data.obj
 0001:0008dd80       ?get@?$__crt_unique_heap_ptr@U__vcrt_ptd@@U__crt_internal_free_policy@@@@QEBAPEAU__vcrt_ptd@@XZ 000000018008ed80 f i libvcruntimed:per_thread_data.obj
 0001:0008dda0       ?is_valid@?$__crt_unique_heap_ptr@U__vcrt_ptd@@U__crt_internal_free_policy@@@@QEBA_NXZ 000000018008eda0 f i libvcruntimed:per_thread_data.obj
 0001:0008dde0       ?release@?$__crt_unique_heap_ptr@U__vcrt_ptd@@U__crt_internal_free_policy@@@@QEAAXXZ 000000018008ede0 f i libvcruntimed:per_thread_data.obj
 0001:0008de70       __vcrt_freefls             000000018008ee70 f   libvcruntimed:per_thread_data.obj
 0001:0008dec0       __vcrt_freeptd             000000018008eec0 f   libvcruntimed:per_thread_data.obj
 0001:0008df40       __vcrt_getptd              000000018008ef40 f   libvcruntimed:per_thread_data.obj
 0001:0008df70       __vcrt_getptd_noexit       000000018008ef70 f   libvcruntimed:per_thread_data.obj
 0001:0008e180       __vcrt_getptd_noinit       000000018008f180 f   libvcruntimed:per_thread_data.obj
 0001:0008e200       __vcrt_initialize_ptd      000000018008f200 f   libvcruntimed:per_thread_data.obj
 0001:0008e260       __vcrt_uninitialize_ptd    000000018008f260 f   libvcruntimed:per_thread_data.obj
 0001:0008e2a0       __vcrt_initialize_locks    000000018008f2a0 f   libvcruntimed:locks.obj
 0001:0008e330       __vcrt_lock                000000018008f330 f   libvcruntimed:locks.obj
 0001:0008e370       __vcrt_uninitialize_locks  000000018008f370 f   libvcruntimed:locks.obj
 0001:0008e3e0       __vcrt_unlock              000000018008f3e0 f   libvcruntimed:locks.obj
 0001:0008e420       ??$?0AEAViterator@TryBlockMap4@FH4@@AEAV012@$0A@@?$pair@Viterator@TryBlockMap4@FH4@@V123@@std@@QEAA@AEAViterator@TryBlockMap4@FH4@@0@Z 000000018008f420 f i libvcruntimed:risctrnsctrl.obj
 0001:0008e490       ??$?0AEAViterator@TryBlockMap@__FrameHandler3@@AEAV012@$0A@@?$pair@Viterator@TryBlockMap@__FrameHandler3@@V123@@std@@QEAA@AEAViterator@TryBlockMap@__FrameHandler3@@0@Z 000000018008f490 f i libvcruntimed:risctrnsctrl.obj
 0001:0008e6d0       ??$_CallSETranslator@V__FrameHandler3@@@@YAHPEAUEHExceptionRecord@@PEA_KPEAU_CONTEXT@@PEAU_xDISPATCHER_CONTEXT@@PEBU_s_FuncInfo@@K1H@Z 000000018008f6d0 f i libvcruntimed:risctrnsctrl.obj
 0001:0008e790       ??$_CallSETranslator@V__FrameHandler4@@@@YAHPEAUEHExceptionRecord@@PEA_KPEAU_CONTEXT@@PEAU_xDISPATCHER_CONTEXT@@PEAUFuncInfo4@FH4@@K1H@Z 000000018008f790 f i libvcruntimed:risctrnsctrl.obj
 0001:0008e850       ??$forward@AEAViterator@TryBlockMap4@FH4@@@std@@YAAEAViterator@TryBlockMap4@FH4@@AEAV123@@Z 000000018008f850 f i libvcruntimed:risctrnsctrl.obj
 0001:0008e860       ??$forward@AEAViterator@TryBlockMap@__FrameHandler3@@@std@@YAAEAViterator@TryBlockMap@__FrameHandler3@@AEAV123@@Z 000000018008f860 f i libvcruntimed:risctrnsctrl.obj
 0001:0008e870       ??0FuncInfo4@FH4@@QEAA@XZ  000000018008f870 f i libvcruntimed:risctrnsctrl.obj
 0001:0008e8f0       ??0FuncInfoHeader@FH4@@QEAA@XZ 000000018008f8f0 f i libvcruntimed:risctrnsctrl.obj
 0001:0008e910       ??0iterator@TryBlockMap4@FH4@@QEAA@AEAV12@I@Z 000000018008f910 f i libvcruntimed:risctrnsctrl.obj
 0001:0008e950       ??0iterator@TryBlockMap@__FrameHandler3@@QEAA@AEAV12@I@Z 000000018008f950 f i libvcruntimed:risctrnsctrl.obj
 0001:0008e990       ??4iterator@TryBlockMap4@FH4@@QEAAAEAV012@AEBV012@@Z 000000018008f990 f i libvcruntimed:risctrnsctrl.obj
 0001:0008e9c0       ??9iterator@TryBlockMap4@FH4@@QEBA_NAEBV012@@Z 000000018008f9c0 f i libvcruntimed:risctrnsctrl.obj
 0001:0008ea10       ??Diterator@TryBlockMap4@FH4@@QEAA?AUTryBlockMapEntry4@2@XZ 000000018008fa10 f i libvcruntimed:risctrnsctrl.obj
 0001:0008ea50       ??Eiterator@TryBlockMap4@FH4@@QEAAAEAV012@XZ 000000018008fa50 f i libvcruntimed:risctrnsctrl.obj
 0001:0008ea90       ?CatchTryBlock@__FrameHandler3@@SAPEBU_s_TryBlockMapEntry@@PEBU_s_FuncInfo@@H@Z 000000018008fa90 f   libvcruntimed:risctrnsctrl.obj
 0001:0008eb40       ?DecompFuncInfo@FH4@@YA_JPEAEAEAUFuncInfo4@1@_KH@Z 000000018008fb40 f i libvcruntimed:risctrnsctrl.obj
 0001:0008eb90       ?DecompFuncInfo@FH4@@YA_JPEAEAEAUFuncInfo4@1@_KH_N@Z 000000018008fb90 f i libvcruntimed:risctrnsctrl.obj
 0001:0008ede0       ?DecompTryBlock@TryBlockMap4@FH4@@AEAAXXZ 000000018008fde0 f i libvcruntimed:risctrnsctrl.obj
 0001:0008ee70       ?ExecutionInCatch@__FrameHandler3@@SA_NPEAU_xDISPATCHER_CONTEXT@@PEBU_s_FuncInfo@@@Z 000000018008fe70 f   libvcruntimed:risctrnsctrl.obj
 0001:0008eee0       ?ExecutionInCatch@__FrameHandler4@@SA_NPEAU_xDISPATCHER_CONTEXT@@PEAUFuncInfo4@FH4@@@Z 000000018008fee0 f   libvcruntimed:risctrnsctrl.obj
 0001:0008ef00       ?FrameUnwindToEmptyState@__FrameHandler3@@SAXPEA_KPEAU_xDISPATCHER_CONTEXT@@PEBU_s_FuncInfo@@@Z 000000018008ff00 f   libvcruntimed:risctrnsctrl.obj
 0001:0008efc0       ?FrameUnwindToEmptyState@__FrameHandler4@@SAXPEA_KPEAU_xDISPATCHER_CONTEXT@@PEAUFuncInfo4@FH4@@@Z 000000018008ffc0 f   libvcruntimed:risctrnsctrl.obj
 0001:0008f030       ?GetEstablisherFrame@__FrameHandler3@@SAPEA_KPEA_KPEAU_xDISPATCHER_CONTEXT@@PEBU_s_FuncInfo@@0@Z 0000000180090030 f   libvcruntimed:risctrnsctrl.obj
 0001:0008f200       ?GetEstablisherFrame@__FrameHandler4@@SAPEA_KPEA_KPEAU_xDISPATCHER_CONTEXT@@PEAUFuncInfo4@FH4@@0@Z 0000000180090200 f   libvcruntimed:risctrnsctrl.obj
 0001:0008f280       ?GetRangeOfTrysToCheck@__FrameHandler3@@SA?AU?$pair@Viterator@TryBlockMap@__FrameHandler3@@V123@@std@@AEAVTryBlockMap@1@HPEAU_xDISPATCHER_CONTEXT@@PEBU_s_FuncInfo@@H@Z 0000000180090280 f   libvcruntimed:risctrnsctrl.obj
 0001:0008f550       ?GetRangeOfTrysToCheck@__FrameHandler4@@SA?AU?$pair@Viterator@TryBlockMap4@FH4@@V123@@std@@AEAVTryBlockMap4@FH4@@HPEAU_xDISPATCHER_CONTEXT@@PEAUFuncInfo4@5@H@Z 0000000180090550 f   libvcruntimed:risctrnsctrl.obj
 0001:0008f770       ?ReadInt@FH4@@YAHPEAPEAE@Z 0000000180090770 f i libvcruntimed:risctrnsctrl.obj
 0001:0008f7b0       ?ReadUnsigned@FH4@@YAIPEAPEAE@Z 00000001800907b0 f i libvcruntimed:risctrnsctrl.obj
 0001:0008f860       ?UnwindNestedFrames@__FrameHandler3@@SAXPEA_KPEAUEHExceptionRecord@@PEAU_CONTEXT@@0PEAXPEBU_s_FuncInfo@@HHPEBU_s_HandlerType@@PEAU_xDISPATCHER_CONTEXT@@E@Z 0000000180090860 f   libvcruntimed:risctrnsctrl.obj
 0001:0008fa30       ?UnwindNestedFrames@__FrameHandler4@@SAXPEA_KPEAUEHExceptionRecord@@PEAU_CONTEXT@@0PEAXPEAUFuncInfo4@FH4@@HHPEAUHandlerType4@5@PEAU_xDISPATCHER_CONTEXT@@E@Z 0000000180090a30 f   libvcruntimed:risctrnsctrl.obj
 0001:0008fc70       ?begin@TryBlockMap4@FH4@@QEAA?AViterator@12@XZ 0000000180090c70 f i libvcruntimed:risctrnsctrl.obj
 0001:0008fcb0       ?end@TryBlockMap4@FH4@@QEAA?AViterator@12@XZ 0000000180090cb0 f i libvcruntimed:risctrnsctrl.obj
 0001:0008fcf0       ?imageRelToByteBuffer@FH4@@YAPEAE_KH@Z 0000000180090cf0 f i libvcruntimed:risctrnsctrl.obj
 0001:0008fd10       ?incrementToSentinel@iterator@TryBlockMap4@FH4@@QEAAXXZ 0000000180090d10 f i libvcruntimed:risctrnsctrl.obj
 0001:0008fd30       ?setBuffer@TryBlockMap4@FH4@@QEAAXViterator@12@@Z 0000000180090d30 f i libvcruntimed:risctrnsctrl.obj
 0001:0008fdc0       _CreateFrameInfo           0000000180090dc0 f   libvcruntimed:risctrnsctrl.obj
 0001:0008fe50       _FindAndUnlinkFrame        0000000180090e50 f   libvcruntimed:risctrnsctrl.obj
 0001:0008fef0       _GetImageBase              0000000180090ef0 f   libvcruntimed:risctrnsctrl.obj
 0001:0008ff10       _GetThrowImageBase         0000000180090f10 f   libvcruntimed:risctrnsctrl.obj
 0001:0008ff30       _SetImageBase              0000000180090f30 f   libvcruntimed:risctrnsctrl.obj
 0001:0008ff60       _SetThrowImageBase         0000000180090f60 f   libvcruntimed:risctrnsctrl.obj
 0001:0008ff90       __CxxFrameHandler          0000000180090f90 f   libvcruntimed:risctrnsctrl.obj
 0001:0008ffe0       __CxxFrameHandler2         0000000180090fe0 f   libvcruntimed:risctrnsctrl.obj
 0001:00090030       __CxxFrameHandler3         0000000180091030 f   libvcruntimed:risctrnsctrl.obj
 0001:00090140       __CxxFrameHandler4         0000000180091140 f   libvcruntimed:risctrnsctrl.obj
 0001:00090290       ??$__crt_interlocked_exchange_pointer@UHINSTANCE__@@PEAU1@@@YAPEAUHINSTANCE__@@PEDSEAU0@QEAU0@@Z 0000000180091290 f i libvcruntimed:winapi_downlevel.obj
 0001:000902b0       ??$__crt_interlocked_exchange_pointer@UHINSTANCE__@@PEAX@@YAPEAUHINSTANCE__@@PEDSEAU0@QEAX@Z 00000001800912b0 f i libvcruntimed:winapi_downlevel.obj
 0001:000902d0       ??$__crt_interlocked_exchange_pointer@XPEAX@@YAPEAXPEDSEAXQEAX@Z 00000001800912d0 f i libvcruntimed:winapi_downlevel.obj
 0001:000902f0       ??$__crt_interlocked_read_pointer@UHINSTANCE__@@@@YAPEAUHINSTANCE__@@PEDSEAU0@@Z 00000001800912f0 f i libvcruntimed:winapi_downlevel.obj
 0001:00090310       ??$__crt_interlocked_read_pointer@X@@YAPEAXPEDSEAX@Z 0000000180091310 f i libvcruntimed:winapi_downlevel.obj
 0001:00090970       __vcrt_FlsAlloc            0000000180091970 f   libvcruntimed:winapi_downlevel.obj
 0001:000909d0       __vcrt_FlsFree             00000001800919d0 f   libvcruntimed:winapi_downlevel.obj
 0001:00090a40       __vcrt_FlsGetValue         0000000180091a40 f   libvcruntimed:winapi_downlevel.obj
 0001:00090ab0       __vcrt_FlsSetValue         0000000180091ab0 f   libvcruntimed:winapi_downlevel.obj
 0001:00090b30       __vcrt_InitializeCriticalSectionEx 0000000180091b30 f   libvcruntimed:winapi_downlevel.obj
 0001:00090bb0       ?GetCurrentState@__FrameHandler3@@SAHPEA_KPEAU_xDISPATCHER_CONTEXT@@PEBU_s_FuncInfo@@@Z 0000000180091bb0 f   libvcruntimed:ehstate.obj
 0001:00090c20       ?GetUnwindTryBlock@__FrameHandler3@@SAHPEA_KPEAU_xDISPATCHER_CONTEXT@@PEBU_s_FuncInfo@@@Z 0000000180091c20 f   libvcruntimed:ehstate.obj
 0001:00090c80       ?SetState@__FrameHandler3@@SAXPEA_KPEBU_s_FuncInfo@@H@Z 0000000180091c80 f   libvcruntimed:ehstate.obj
 0001:00090cc0       ?SetUnwindTryBlock@__FrameHandler3@@SAXPEA_KPEAU_xDISPATCHER_CONTEXT@@PEBU_s_FuncInfo@@H@Z 0000000180091cc0 f   libvcruntimed:ehstate.obj
 0001:00090d50       ?StateFromControlPc@__FrameHandler3@@SAHPEBU_s_FuncInfo@@PEAU_xDISPATCHER_CONTEXT@@@Z 0000000180091d50 f   libvcruntimed:ehstate.obj
 0001:00090da0       ?StateFromControlPc@__FrameHandler4@@SAHPEAUFuncInfo4@FH4@@PEAU_xDISPATCHER_CONTEXT@@@Z 0000000180091da0 f   libvcruntimed:ehstate.obj
 0001:00090df0       ?StateFromIp@__FrameHandler3@@SAHPEBU_s_FuncInfo@@PEAU_xDISPATCHER_CONTEXT@@_K@Z 0000000180091df0 f   libvcruntimed:ehstate.obj
 0001:00090f20       ?StateFromIp@__FrameHandler4@@SAHPEAUFuncInfo4@FH4@@PEAU_xDISPATCHER_CONTEXT@@_K@Z 0000000180091f20 f   libvcruntimed:ehstate.obj
 0001:00091040       ?__FuncRelToRealOffset@@YA_KPEAU_xDISPATCHER_CONTEXT@@I@Z 0000000180092040 f i libvcruntimed:ehstate.obj
 0001:00091080       ?__RVAtoRealOffset@@YA_KPEAU_xDISPATCHER_CONTEXT@@H@Z 0000000180092080 f i libvcruntimed:ehstate.obj
 0001:00093b80       ??$TypeMatchHelper@V__FrameHandler3@@@@YAHPEBU_s_HandlerType@@PEBU_s_CatchableType@@PEBU_s_ThrowInfo@@@Z 0000000180094b80 f i libvcruntimed:frame.obj
 0001:00093e00       ??$TypeMatchHelper@V__FrameHandler4@@@@YAHPEAUHandlerType4@FH4@@PEBU_s_CatchableType@@PEBU_s_ThrowInfo@@@Z 0000000180094e00 f i libvcruntimed:frame.obj
 0001:00094090       ??$__InternalCxxFrameHandler@V__FrameHandler3@@@@YA?AW4_EXCEPTION_DISPOSITION@@PEAUEHExceptionRecord@@PEA_KPEAU_CONTEXT@@PEAU_xDISPATCHER_CONTEXT@@PEBU_s_FuncInfo@@H1E@Z 0000000180095090 f i libvcruntimed:frame.obj
 0001:00094620       ??$__InternalCxxFrameHandler@V__FrameHandler4@@@@YA?AW4_EXCEPTION_DISPOSITION@@PEAUEHExceptionRecord@@PEA_KPEAU_CONTEXT@@PEAU_xDISPATCHER_CONTEXT@@PEAUFuncInfo4@FH4@@H1E@Z 0000000180095620 f i libvcruntimed:frame.obj
 0001:00094be0       ??0HandlerMap4@FH4@@QEAA@PEBUTryBlockMapEntry4@1@_KH@Z 0000000180095be0 f i libvcruntimed:frame.obj
 0001:00094cd0       ??0HandlerMap@__FrameHandler3@@QEAA@PEBU_s_TryBlockMapEntry@@_KI@Z 0000000180095cd0 f i libvcruntimed:frame.obj
 0001:00094d30       ??0HandlerType4@FH4@@QEAA@XZ 0000000180095d30 f i libvcruntimed:frame.obj
 0001:00094d60       ??0TryBlockMap4@FH4@@QEAA@PEBUFuncInfo4@1@_K@Z 0000000180095d60 f i libvcruntimed:frame.obj
 0001:00094e10       ??0TryBlockMap@__FrameHandler3@@QEAA@PEBU_s_FuncInfo@@_K@Z 0000000180095e10 f i libvcruntimed:frame.obj
 0001:00094e50       ??0UWMap4@FH4@@QEAA@PEBUFuncInfo4@1@_K@Z 0000000180095e50 f i libvcruntimed:frame.obj
 0001:00094ee0       ??0bad_exception@std@@QEAA@AEBV01@@Z 0000000180095ee0 f i libvcruntimed:frame.obj
 0001:00094f30       ??0bad_exception@std@@QEAA@XZ 0000000180095f30 f i libvcruntimed:frame.obj
 0001:00094f80       ??0exception@std@@QEAA@AEBV01@@Z 0000000180095f80 f i libvcruntimed:frame.obj
 0001:00094ff0       ??0exception@std@@QEAA@QEBDH@Z 0000000180095ff0 f i libvcruntimed:frame.obj
 0001:00095050       ??0iterator@HandlerMap4@FH4@@QEAA@AEAV12@I@Z 0000000180096050 f i libvcruntimed:frame.obj
 0001:00095090       ??0iterator@HandlerMap@__FrameHandler3@@QEAA@AEAV12@I@Z 0000000180096090 f i libvcruntimed:frame.obj
 0001:000950d0       ??0iterator@UWMap4@FH4@@QEAA@AEAV12@PEAE@Z 00000001800960d0 f i libvcruntimed:frame.obj
 0001:00095110       ??1bad_exception@std@@UEAA@XZ 0000000180096110 f i libvcruntimed:frame.obj
 0001:00095130       ??1exception@std@@UEAA@XZ  0000000180096130 f i libvcruntimed:frame.obj
 0001:00095170       ??4iterator@UWMap4@FH4@@QEAAAEAV012@AEBV012@@Z 0000000180096170 f i libvcruntimed:frame.obj
 0001:000951d0       ??8iterator@HandlerMap4@FH4@@QEBA_NAEBV012@@Z 00000001800961d0 f i libvcruntimed:frame.obj
 0001:00095220       ??8iterator@HandlerMap@__FrameHandler3@@QEBA_NAEBV012@@Z 0000000180096220 f i libvcruntimed:frame.obj
 0001:00095270       ??8type_info@@QEBA_NAEBV0@@Z 0000000180096270 f i libvcruntimed:frame.obj
 0001:000952d0       ??9iterator@HandlerMap4@FH4@@QEBA_NAEBV012@@Z 00000001800962d0 f i libvcruntimed:frame.obj
 0001:00095320       ??9iterator@HandlerMap@__FrameHandler3@@QEBA_NAEBV012@@Z 0000000180096320 f i libvcruntimed:frame.obj
 0001:00095370       ??Diterator@HandlerMap4@FH4@@QEAA?AUHandlerType4@2@XZ 0000000180096370 f i libvcruntimed:frame.obj
 0001:000953b0       ??Diterator@HandlerMap@__FrameHandler3@@QEAA?BU_s_HandlerType@@XZ 00000001800963b0 f i libvcruntimed:frame.obj
 0001:00095400       ??Diterator@TryBlockMap@__FrameHandler3@@QEAA?BU_s_TryBlockMapEntry@@XZ 0000000180096400 f i libvcruntimed:frame.obj
 0001:00095470       ??Diterator@UWMap4@FH4@@QEAA?AUUnwindMapEntry4@2@XZ 0000000180096470 f i libvcruntimed:frame.obj
 0001:00095500       ??Eiterator@HandlerMap4@FH4@@QEAAAEAV012@XZ 0000000180096500 f i libvcruntimed:frame.obj
 0001:00095540       ??Eiterator@HandlerMap@__FrameHandler3@@QEAAAEAV012@XZ 0000000180096540 f i libvcruntimed:frame.obj
 0001:00095570       ??Eiterator@TryBlockMap@__FrameHandler3@@QEAAAEAV012@XZ 0000000180096570 f i libvcruntimed:frame.obj
 0001:000955a0       ??Eiterator@UWMap4@FH4@@QEAAAEAV012@XZ 00000001800965a0 f i libvcruntimed:frame.obj
 0001:000955f0       ??Giterator@UWMap4@FH4@@QEBA_JAEBV012@@Z 00000001800965f0 f i libvcruntimed:frame.obj
 0001:00095620       ??Miterator@TryBlockMap4@FH4@@QEBA_NAEBV012@@Z 0000000180096620 f i libvcruntimed:frame.obj
 0001:00095670       ??Miterator@TryBlockMap@__FrameHandler3@@QEBA_NAEBV012@@Z 0000000180096670 f i libvcruntimed:frame.obj
 0001:000956c0       ??Oiterator@UWMap4@FH4@@QEBA_NAEBV012@@Z 00000001800966c0 f i libvcruntimed:frame.obj
 0001:00095710       ??Piterator@UWMap4@FH4@@QEBA_NAEBV012@@Z 0000000180096710 f i libvcruntimed:frame.obj
 0001:00095760       ??_Ebad_exception@std@@UEAAPEAXI@Z 0000000180096760 f i libvcruntimed:frame.obj
 0001:00095760       ??_Gbad_exception@std@@UEAAPEAXI@Z 0000000180096760 f i libvcruntimed:frame.obj
 0001:000957b0       ??_Eexception@std@@UEAAPEAXI@Z 00000001800967b0 f i libvcruntimed:frame.obj
 0001:000957b0       ??_Gexception@std@@UEAAPEAXI@Z 00000001800967b0 f i libvcruntimed:frame.obj
 0001:00095800       ?BuildCatchObject@__FrameHandler3@@SAXPEAUEHExceptionRecord@@PEAXPEBU_s_HandlerType@@PEBU_s_CatchableType@@@Z 0000000180096800 f   libvcruntimed:frame.obj
 0001:00095850       ?BuildCatchObject@__FrameHandler4@@SAXPEAUEHExceptionRecord@@PEAXPEAUHandlerType4@FH4@@PEBU_s_CatchableType@@@Z 0000000180096850 f   libvcruntimed:frame.obj
 0001:000958a0       ?BuildCatchObjectHelper@__FrameHandler3@@SAHPEAUEHExceptionRecord@@PEAXPEBU_s_HandlerType@@PEBU_s_CatchableType@@@Z 00000001800968a0 f   libvcruntimed:frame.obj
 0001:000958f0       ?BuildCatchObjectHelper@__FrameHandler4@@SAHPEAUEHExceptionRecord@@PEAXPEAUHandlerType4@FH4@@PEBU_s_CatchableType@@@Z 00000001800968f0 f   libvcruntimed:frame.obj
 0001:00095940       ?CxxCallCatchBlock@__FrameHandler3@@SAPEAXPEAU_EXCEPTION_RECORD@@@Z 0000000180096940 f   libvcruntimed:frame.obj
 0001:00095c30       ?CxxCallCatchBlock@__FrameHandler4@@SAPEAXPEAU_EXCEPTION_RECORD@@@Z 0000000180096c30 f   libvcruntimed:frame.obj
 0001:00096020       ?DecompHandler@HandlerMap4@FH4@@AEAAXXZ 0000000180097020 f i libvcruntimed:frame.obj
 0001:000964d0       ?FrameUnwindToState@__FrameHandler3@@SAXPEA_KPEAU_xDISPATCHER_CONTEXT@@PEBU_s_FuncInfo@@H@Z 00000001800974d0 f   libvcruntimed:frame.obj
 0001:000967b0       ?FrameUnwindToState@__FrameHandler4@@SAXPEA_KPEAU_xDISPATCHER_CONTEXT@@PEAUFuncInfo4@FH4@@H@Z 00000001800977b0 f   libvcruntimed:frame.obj
 0001:00096b80       ?GetHandlerSearchState@__FrameHandler3@@SAHPEA_KPEAU_xDISPATCHER_CONTEXT@@PEBU_s_FuncInfo@@@Z 0000000180097b80 f i libvcruntimed:frame.obj
 0001:00096c60       ?GetHandlerSearchState@__FrameHandler4@@SAHPEA_KPEAU_xDISPATCHER_CONTEXT@@PEAUFuncInfo4@FH4@@@Z 0000000180097c60 f i libvcruntimed:frame.obj
 0001:00096d00       ?GetMaxState@__FrameHandler3@@SAHPEAU_xDISPATCHER_CONTEXT@@PEBU_s_FuncInfo@@@Z 0000000180097d00 f i libvcruntimed:frame.obj
 0001:00096d20       ?GetMaxState@__FrameHandler4@@SAHPEAU_xDISPATCHER_CONTEXT@@PEAUFuncInfo4@FH4@@@Z 0000000180097d20 f i libvcruntimed:frame.obj
 0001:00096fd0       ?ReadEntry@UWMap4@FH4@@AEAAXPEAPEAE@Z 0000000180097fd0 f i libvcruntimed:frame.obj
 0001:000970a0       ?TypeMatch@__FrameHandler3@@SAHPEBU_s_HandlerType@@PEBU_s_CatchableType@@PEBU_s_ThrowInfo@@@Z 00000001800980a0 f   libvcruntimed:frame.obj
 0001:000970e0       ?TypeMatch@__FrameHandler4@@SAHPEAUHandlerType4@FH4@@PEBU_s_CatchableType@@PEBU_s_ThrowInfo@@@Z 00000001800980e0 f   libvcruntimed:frame.obj
 0001:00097120       ?WalkBack@UWMap4@FH4@@AEAAXPEAPEAE@Z 0000000180098120 f i libvcruntimed:frame.obj
 0001:00097180       ?WalkBack@iterator@UWMap4@FH4@@QEAAXXZ 0000000180098180 f i libvcruntimed:frame.obj
 0001:000971c0       ?WalkForward@UWMap4@FH4@@AEAAXPEAPEAE@Z 00000001800981c0 f i libvcruntimed:frame.obj
 0001:000971f0       ?_CallMemberFunction1@@YAXQEAX00@Z 00000001800981f0 f i libvcruntimed:frame.obj
 0001:00097240       ?_CallMemberFunction2@@YAXQEAX00H@Z 0000000180098240 f i libvcruntimed:frame.obj
 0001:000972f0       ?begin@HandlerMap4@FH4@@QEAA?AViterator@12@XZ 00000001800982f0 f i libvcruntimed:frame.obj
 0001:00097330       ?begin@HandlerMap@__FrameHandler3@@QEAA?AViterator@12@XZ 0000000180098330 f i libvcruntimed:frame.obj
 0001:00097370       ?begin@UWMap4@FH4@@QEAA?AViterator@12@XZ 0000000180098370 f i libvcruntimed:frame.obj
 0001:000973b0       ?end@HandlerMap4@FH4@@QEAA?AViterator@12@XZ 00000001800983b0 f i libvcruntimed:frame.obj
 0001:000973f0       ?end@HandlerMap@__FrameHandler3@@QEAA?AViterator@12@XZ 00000001800983f0 f i libvcruntimed:frame.obj
 0001:00097430       ?getESTypes@__FrameHandler3@@SAPEBU_s_ESTypeList@@PEBU_s_FuncInfo@@@Z 0000000180098430 f i libvcruntimed:frame.obj
 0001:00097480       ?getESTypes@__FrameHandler4@@SAPEBU_s_ESTypeList@@PEAUFuncInfo4@FH4@@@Z 0000000180098480 f i libvcruntimed:frame.obj
 0001:00097490       ?getLastEntry@HandlerMap4@FH4@@QEAAPEAUHandlerType4@2@XZ 0000000180098490 f i libvcruntimed:frame.obj
 0001:000974e0       ?getLastEntry@HandlerMap@__FrameHandler3@@QEAAPEBU_s_HandlerType@@XZ 00000001800984e0 f i libvcruntimed:frame.obj
 0001:00097510       ?getMagicNum@__FrameHandler3@@SAIPEBU_s_FuncInfo@@@Z 0000000180098510 f i libvcruntimed:frame.obj
 0001:00097530       ?getMagicNum@__FrameHandler4@@SAIPEAUFuncInfo4@FH4@@@Z 0000000180098530 f i libvcruntimed:frame.obj
 0001:00097540       ?getNumTryBlocks@TryBlockMap4@FH4@@QEAAIXZ 0000000180098540 f i libvcruntimed:frame.obj
 0001:00097550       ?getNumTryBlocks@TryBlockMap@__FrameHandler3@@QEAAIXZ 0000000180098550 f i libvcruntimed:frame.obj
 0001:00097570       ?getStartStop@UWMap4@FH4@@QEAAXHHAEAViterator@12@0@Z 0000000180098570 f i libvcruntimed:frame.obj
 0001:000976d0       ?getStateFromIterators@UWMap4@FH4@@SAHAEBViterator@12@H0H0@Z 00000001800986d0 f i libvcruntimed:frame.obj
 0001:00097860       ?isEHs@__FrameHandler3@@SA_NPEBU_s_FuncInfo@@@Z 0000000180098860 f i libvcruntimed:frame.obj
 0001:000978a0       ?isEHs@__FrameHandler4@@SA_NPEAUFuncInfo4@FH4@@@Z 00000001800988a0 f i libvcruntimed:frame.obj
 0001:000978c0       ?isNoExcept@__FrameHandler3@@SA_NPEBU_s_FuncInfo@@@Z 00000001800988c0 f i libvcruntimed:frame.obj
 0001:00097900       ?isNoExcept@__FrameHandler4@@SA_NPEAUFuncInfo4@FH4@@@Z 0000000180098900 f i libvcruntimed:frame.obj
 0001:00097920       ?reset@HandlerType4@FH4@@QEAAXXZ 0000000180098920 f i libvcruntimed:frame.obj
 0001:000979a0       ?resetBuffer@HandlerMap4@FH4@@QEAAXXZ 00000001800989a0 f i libvcruntimed:frame.obj
 0001:000979c0       ?setBuffer@HandlerMap4@FH4@@QEAAXI@Z 00000001800989c0 f i libvcruntimed:frame.obj
 0001:00097a30       ?what@exception@std@@UEBAPEBDXZ 0000000180098a30 f i libvcruntimed:frame.obj
 0001:00097a80       __BuildCatchObject         0000000180098a80 f   libvcruntimed:frame.obj
 0001:00097ad0       __BuildCatchObjectHelper   0000000180098ad0 f   libvcruntimed:frame.obj
 0001:00097b20       __TypeMatch                0000000180098b20 f   libvcruntimed:frame.obj
 0001:00097b60       __vcrt_EncodePointer       0000000180098b60 f i libvcruntimed:frame.obj
 0001:00097b90       _CallSettingFrame          0000000180098b90 f   libvcruntimed:handlers.obj
 0001:00097be0       _CallSettingFrame_LookupContinuationIndex 0000000180098be0 f   libvcruntimed:handlers.obj
 0001:00097c10       _CallSettingFrame_NotifyContinuationAddr 0000000180098c10 f   libvcruntimed:handlers.obj
 0001:00097c40       _CallSettingFrameEncoded   0000000180098c40 f   libvcruntimed:handlers.obj
 0001:00097cd0       ??$?RD@__crt_public_free_policy@@QEBAXQEBD@Z 0000000180098cd0 f i libvcruntimed:std_exception.obj
 0001:00097d00       ??0?$__crt_unique_heap_ptr@DU__crt_public_free_policy@@@@QEAA@QEAD@Z 0000000180098d00 f i libvcruntimed:std_exception.obj
 0001:00097d30       ??1?$__crt_unique_heap_ptr@DU__crt_public_free_policy@@@@QEAA@XZ 0000000180098d30 f i libvcruntimed:std_exception.obj
 0001:00097d50       ??B?$__crt_unique_heap_ptr@DU__crt_public_free_policy@@@@QEBA_NXZ 0000000180098d50 f i libvcruntimed:std_exception.obj
 0001:00097d70       ?detach@?$__crt_unique_heap_ptr@DU__crt_public_free_policy@@@@QEAAPEADXZ 0000000180098d70 f i libvcruntimed:std_exception.obj
 0001:00097db0       ?get@?$__crt_unique_heap_ptr@DU__crt_public_free_policy@@@@QEBAPEADXZ 0000000180098db0 f i libvcruntimed:std_exception.obj
 0001:00097dd0       ?is_valid@?$__crt_unique_heap_ptr@DU__crt_public_free_policy@@@@QEBA_NXZ 0000000180098dd0 f i libvcruntimed:std_exception.obj
 0001:00097e10       ?release@?$__crt_unique_heap_ptr@DU__crt_public_free_policy@@@@QEAAXXZ 0000000180098e10 f i libvcruntimed:std_exception.obj
 0001:00097e50       __std_exception_copy       0000000180098e50 f   libvcruntimed:std_exception.obj
 0001:00097fe0       __std_exception_destroy    0000000180098fe0 f   libvcruntimed:std_exception.obj
 0001:00098030       _CxxThrowException         0000000180099030 f   libvcruntimed:throw.obj
 0001:000981b0       _abs64                     00000001800991b0 f   libucrtd:abs.obj
 0001:000981f0       abs                        00000001800991f0 f   libucrtd:abs.obj
 0001:00098250       fabs                       0000000180099250 f   libucrtd:fabs.obj
 0001:00098270       _fpclass                   0000000180099270 f   libucrtd:ieeemisc.obj
 0001:000984a0       _fpclassf                  00000001800994a0 f   libucrtd:ieeemisc.obj
 0001:00098620       _isnan                     0000000180099620 f   libucrtd:ieeemisc.obj
 0001:000986a0       _isnanf                    00000001800996a0 f   libucrtd:ieeemisc.obj
 0001:00098700       _nextafter                 0000000180099700 f   libucrtd:ieeemisc.obj
 0001:00098730       _nextafterf                0000000180099730 f   libucrtd:ieeemisc.obj
 0001:00098760       _scalb                     0000000180099760 f   libucrtd:ieeemisc.obj
 0001:00098c70       _scalbf                    0000000180099c70 f   libucrtd:ieeemisc.obj
 0001:000990c0       powf                       000000018009a0c0 f   libucrtd:powf.obj
 0001:0009a340       sqrtf                      000000018009b340 f   libucrtd:sqrtf.obj
 0001:0009a4c0       cosf                       000000018009b4c0 f   libucrtd:cosf.obj
 0001:0009ab00       sinf                       000000018009bb00 f   libucrtd:sinf.obj
 0001:0009b3c0       atan2f                     000000018009c3c0 f   libucrtd:atan2f.obj
 0001:0009c180       floorf                     000000018009d180 f   libucrtd:floorf.obj
 0001:0009c320       ??$?RU?$__crt_report_hook_node@D@@@__crt_internal_free_policy@@QEBAXQEBU?$__crt_report_hook_node@D@@@Z 000000018009d320 f i libucrtd:dbgrpt.obj
 0001:0009c350       ??$?RU?$__crt_report_hook_node@_W@@@__crt_internal_free_policy@@QEBAXQEBU?$__crt_report_hook_node@_W@@@Z 000000018009d350 f i libucrtd:dbgrpt.obj
 0001:0009da30       ??$get_module_file_name@AEAPEAUHINSTANCE__@@AEAY0BAF@DK@?$__crt_char_traits@D@@SAKAEAPEAUHINSTANCE__@@AEAY0BAF@D$$QEAK@Z 000000018009ea30 f i libucrtd:dbgrpt.obj
 0001:0009da70       ??$get_module_file_name@AEAPEAUHINSTANCE__@@AEAY0BAF@_WK@?$__crt_char_traits@_W@@SAKAEAPEAUHINSTANCE__@@AEAY0BAF@_W$$QEAK@Z 000000018009ea70 f i libucrtd:dbgrpt.obj
 0001:0009dab0       ??$tcscpy_s@AEAY0BAF@D_KPEBD@?$__crt_char_traits@D@@SAHAEAY0BAF@D$$QEA_K$$QEAPEBD@Z 000000018009eab0 f i libucrtd:dbgrpt.obj
 0001:0009daf0       ??$tcscpy_s@AEAY0BAF@_W_KPEB_W@?$__crt_char_traits@_W@@SAHAEAY0BAF@_W$$QEA_K$$QEAPEB_W@Z 000000018009eaf0 f i libucrtd:dbgrpt.obj
 0001:0009db30       ??$tcslen@AEAY0BAF@D@?$__crt_char_traits@D@@SA_KAEAY0BAF@D@Z 000000018009eb30 f i libucrtd:dbgrpt.obj
 0001:0009db50       ??$tcslen@AEAY0BAF@_W@?$__crt_char_traits@_W@@SA_KAEAY0BAF@_W@Z 000000018009eb50 f i libucrtd:dbgrpt.obj
 0001:0009db70       ??$tcslen@AEBQEBD@?$__crt_char_traits@D@@SA_KAEBQEBD@Z 000000018009eb70 f i libucrtd:dbgrpt.obj
 0001:0009dba0       ??$tcslen@AEBQEB_W@?$__crt_char_traits@_W@@SA_KAEBQEB_W@Z 000000018009eba0 f i libucrtd:dbgrpt.obj
 0001:0009dd10       ??0?$__crt_unique_heap_ptr@U?$__crt_report_hook_node@D@@U__crt_internal_free_policy@@@@QEAA@QEAU?$__crt_report_hook_node@D@@@Z 000000018009ed10 f i libucrtd:dbgrpt.obj
 0001:0009dd40       ??0?$__crt_unique_heap_ptr@U?$__crt_report_hook_node@_W@@U__crt_internal_free_policy@@@@QEAA@QEAU?$__crt_report_hook_node@_W@@@Z 000000018009ed40 f i libucrtd:dbgrpt.obj
 0001:0009dd70       ??1?$__crt_unique_heap_ptr@U?$__crt_report_hook_node@D@@U__crt_internal_free_policy@@@@QEAA@XZ 000000018009ed70 f i libucrtd:dbgrpt.obj
 0001:0009dd90       ??1?$__crt_unique_heap_ptr@U?$__crt_report_hook_node@_W@@U__crt_internal_free_policy@@@@QEAA@XZ 000000018009ed90 f i libucrtd:dbgrpt.obj
 0001:0009ddb0       ??B?$__crt_unique_heap_ptr@U?$__crt_report_hook_node@D@@U__crt_internal_free_policy@@@@QEBA_NXZ 000000018009edb0 f i libucrtd:dbgrpt.obj
 0001:0009ddd0       ??B?$__crt_unique_heap_ptr@U?$__crt_report_hook_node@_W@@U__crt_internal_free_policy@@@@QEBA_NXZ 000000018009edd0 f i libucrtd:dbgrpt.obj
 0001:0009e630       ?detach@?$__crt_unique_heap_ptr@U?$__crt_report_hook_node@D@@U__crt_internal_free_policy@@@@QEAAPEAU?$__crt_report_hook_node@D@@XZ 000000018009f630 f i libucrtd:dbgrpt.obj
 0001:0009e670       ?detach@?$__crt_unique_heap_ptr@U?$__crt_report_hook_node@_W@@U__crt_internal_free_policy@@@@QEAAPEAU?$__crt_report_hook_node@_W@@XZ 000000018009f670 f i libucrtd:dbgrpt.obj
 0001:0009e6b0       ?get@?$__crt_unique_heap_ptr@U?$__crt_report_hook_node@D@@U__crt_internal_free_policy@@@@QEBAPEAU?$__crt_report_hook_node@D@@XZ 000000018009f6b0 f i libucrtd:dbgrpt.obj
 0001:0009e6d0       ?get@?$__crt_unique_heap_ptr@U?$__crt_report_hook_node@_W@@U__crt_internal_free_policy@@@@QEBAPEAU?$__crt_report_hook_node@_W@@XZ 000000018009f6d0 f i libucrtd:dbgrpt.obj
 0001:0009e750       ?is_valid@?$__crt_unique_heap_ptr@U?$__crt_report_hook_node@D@@U__crt_internal_free_policy@@@@QEBA_NXZ 000000018009f750 f i libucrtd:dbgrpt.obj
 0001:0009e790       ?is_valid@?$__crt_unique_heap_ptr@U?$__crt_report_hook_node@_W@@U__crt_internal_free_policy@@@@QEBA_NXZ 000000018009f790 f i libucrtd:dbgrpt.obj
 0001:0009e7d0       ?release@?$__crt_unique_heap_ptr@U?$__crt_report_hook_node@D@@U__crt_internal_free_policy@@@@QEAAXXZ 000000018009f7d0 f i libucrtd:dbgrpt.obj
 0001:0009e810       ?release@?$__crt_unique_heap_ptr@U?$__crt_report_hook_node@_W@@U__crt_internal_free_policy@@@@QEAAXXZ 000000018009f810 f i libucrtd:dbgrpt.obj
 0001:0009e850       _CrtDbgReport              000000018009f850 f   libucrtd:dbgrpt.obj
 0001:0009e8f0       _CrtDbgReportW             000000018009f8f0 f   libucrtd:dbgrpt.obj
 0001:0009e990       _CrtSetReportHook2         000000018009f990 f   libucrtd:dbgrpt.obj
 0001:0009e9c0       _CrtSetReportHookW2        000000018009f9c0 f   libucrtd:dbgrpt.obj
 0001:0009e9f0       __acrt_MessageWindowA      000000018009f9f0 f   libucrtd:dbgrpt.obj
 0001:0009ea50       __acrt_MessageWindowW      000000018009fa50 f   libucrtd:dbgrpt.obj
 0001:0009eab0       _invoke_watson_if_error    000000018009fab0 f i libucrtd:dbgrpt.obj
 0001:0009eb10       _invoke_watson_if_oneof    000000018009fb10 f i libucrtd:dbgrpt.obj
 0001:0009eb90       _snwprintf_s               000000018009fb90 f i libucrtd:dbgrpt.obj
 0001:0009ec10       _vsnwprintf_s_l            000000018009fc10 f i libucrtd:dbgrpt.obj
 0001:0009ecb0       _initterm                  000000018009fcb0 f   libucrtd:initterm.obj
 0001:0009ed30       _initterm_e                000000018009fd30 f   libucrtd:initterm.obj
 0001:0009edc0       ??0_LocaleUpdate@@QEAA@QEAU__crt_locale_pointers@@@Z 000000018009fdc0 f i libucrtd:debug_heap.obj
 0001:0009ef20       ??1_LocaleUpdate@@QEAA@XZ  000000018009ff20 f i libucrtd:debug_heap.obj
 0001:0009ef60       ?GetLocaleT@_LocaleUpdate@@QEAAPEAU__crt_locale_pointers@@XZ 000000018009ff60 f i libucrtd:debug_heap.obj
 0001:000a1740       _CrtCheckMemory            00000001800a2740 f   libucrtd:debug_heap.obj
 0001:000a1940       _CrtDoForAllClientObjects  00000001800a2940 f   libucrtd:debug_heap.obj
 0001:000a1ac0       _CrtDumpMemoryLeaks        00000001800a2ac0 f   libucrtd:debug_heap.obj
 0001:000a1bb0       _CrtGetAllocHook           00000001800a2bb0 f   libucrtd:debug_heap.obj
 0001:000a1bc0       _CrtGetDumpClient          00000001800a2bc0 f   libucrtd:debug_heap.obj
 0001:000a1bd0       _CrtIsMemoryBlock          00000001800a2bd0 f   libucrtd:debug_heap.obj
 0001:000a1d60       _CrtIsValidHeapPointer     00000001800a2d60 f   libucrtd:debug_heap.obj
 0001:000a1db0       _CrtIsValidPointer         00000001800a2db0 f   libucrtd:debug_heap.obj
 0001:000a1df0       _CrtMemCheckpoint          00000001800a2df0 f   libucrtd:debug_heap.obj
 0001:000a2110       _CrtMemDifference          00000001800a3110 f   libucrtd:debug_heap.obj
 0001:000a2540       _CrtMemDumpAllObjectsSince 00000001800a3540 f   libucrtd:debug_heap.obj
 0001:000a25b0       _CrtMemDumpStatistics      00000001800a35b0 f   libucrtd:debug_heap.obj
 0001:000a27b0       _CrtReportBlockType        00000001800a37b0 f   libucrtd:debug_heap.obj
 0001:000a27f0       _CrtSetAllocHook           00000001800a37f0 f   libucrtd:debug_heap.obj
 0001:000a2830       _CrtSetBreakAlloc          00000001800a3830 f   libucrtd:debug_heap.obj
 0001:000a2860       _CrtSetDbgBlockType        00000001800a3860 f   libucrtd:debug_heap.obj
 0001:000a2920       _CrtSetDbgFlag             00000001800a3920 f   libucrtd:debug_heap.obj
 0001:000a2ad0       _CrtSetDumpClient          00000001800a3ad0 f   libucrtd:debug_heap.obj
 0001:000a2b10       __acrt_disable_global_locale_sync 00000001800a3b10 f i libucrtd:debug_heap.obj
 0001:000a2b40       __acrt_enable_global_locale_sync 00000001800a3b40 f i libucrtd:debug_heap.obj
 0001:000a2b80       __acrt_get_locale_data_prefix 00000001800a3b80 f i libucrtd:debug_heap.obj
 0001:000a2bb0       __acrt_locale_changed      00000001800a3bb0 f i libucrtd:debug_heap.obj
 0001:000a2be0       __p__crtBreakAlloc         00000001800a3be0 f   libucrtd:debug_heap.obj
 0001:000a2bf0       __p__crtDbgFlag            00000001800a3bf0 f   libucrtd:debug_heap.obj
 0001:000a2c00       _aligned_free_dbg          00000001800a3c00 f   libucrtd:debug_heap.obj
 0001:000a2d20       _aligned_malloc_dbg        00000001800a3d20 f   libucrtd:debug_heap.obj
 0001:000a2d70       _aligned_msize_dbg         00000001800a3d70 f   libucrtd:debug_heap.obj
 0001:000a2fb0       _aligned_offset_malloc_dbg 00000001800a3fb0 f   libucrtd:debug_heap.obj
 0001:000a3350       _aligned_offset_realloc_dbg 00000001800a4350 f   libucrtd:debug_heap.obj
 0001:000a3930       _aligned_offset_recalloc_dbg 00000001800a4930 f   libucrtd:debug_heap.obj
 0001:000a3a90       _aligned_realloc_dbg       00000001800a4a90 f   libucrtd:debug_heap.obj
 0001:000a3af0       _aligned_recalloc_dbg      00000001800a4af0 f   libucrtd:debug_heap.obj
 0001:000a3b60       _calloc_dbg                00000001800a4b60 f   libucrtd:debug_heap.obj
 0001:000a3c20       _chvalidchk_l              00000001800a4c20 f i libucrtd:debug_heap.obj
 0001:000a3c60       _expand_dbg                00000001800a4c60 f   libucrtd:debug_heap.obj
 0001:000a3de0       _free_dbg                  00000001800a4de0 f   libucrtd:debug_heap.obj
 0001:000a3e60       _ischartype_l              00000001800a4e60 f i libucrtd:debug_heap.obj
 0001:000a3f10       _malloc_dbg                00000001800a4f10 f   libucrtd:debug_heap.obj
 0001:000a3f60       _msize_dbg                 00000001800a4f60 f   libucrtd:debug_heap.obj
 0001:000a4160       _realloc_dbg               00000001800a5160 f   libucrtd:debug_heap.obj
 0001:000a41f0       _recalloc_dbg              00000001800a51f0 f   libucrtd:debug_heap.obj
 0001:000a43b0       _seh_filter_dll            00000001800a53b0 f   libucrtd:exception_filter.obj
 0001:000a43f0       _seh_filter_exe            00000001800a53f0 f   libucrtd:exception_filter.obj
 0001:000a4740       ??$?B$$A6AXPEAXK0@Z@__crt_fast_encoded_nullptr_t@@QEBAP6AXPEAXK0@ZXZ 00000001800a5740 f i libucrtd:exit.obj
 0001:000a4820       ??$__crt_fast_decode_pointer@P6AXPEAXK0@Z@@YAP6AXPEAXK0@ZQ6AX0K0@Z@Z 00000001800a5820 f i libucrtd:exit.obj
 0001:000a4870       ??$__crt_fast_encode_pointer@P6AXPEAXK0@Z@@YAP6AXPEAXK0@ZQ6AX0K0@Z@Z 00000001800a5870 f i libucrtd:exit.obj
 0001:000a48c0       ??$__crt_get_proc_address@P6AXI@Z@@YAP6AXI@ZQEAUHINSTANCE__@@QEBD@Z 00000001800a58c0 f i libucrtd:exit.obj
 0001:000a48f0       ??$__crt_interlocked_read@J@@YAJPEDJ@Z 00000001800a58f0 f i libucrtd:exit.obj
 0001:000a49d0       ??0?$__crt_unique_handle_t@U__crt_hmodule_traits@@@@QEAA@QEAUHINSTANCE__@@@Z 00000001800a59d0 f i libucrtd:exit.obj
 0001:000a4a00       ??1?$__crt_unique_handle_t@U__crt_hmodule_traits@@@@QEAA@XZ 00000001800a5a00 f i libucrtd:exit.obj
 0001:000a4ba0       ?__acrt_select_exit_lock@@YA?AW4__acrt_lock_id@@XZ 00000001800a5ba0 f i libucrtd:exit.obj
 0001:000a4bb0       ?__crt_fast_encode_pointer@@YA?AU__crt_fast_encoded_nullptr_t@@$$T@Z 00000001800a5bb0 f i libucrtd:exit.obj
 0001:000a4bd0       ?__crt_interlocked_read_32@@YAHPEDH@Z 00000001800a5bd0 f i libucrtd:exit.obj
 0001:000a4c00       ?__crt_rotate_pointer_value@@YA_K_KH@Z 00000001800a5c00 f i libucrtd:exit.obj
 0001:000a4c40       ?close@?$__crt_unique_handle_t@U__crt_hmodule_traits@@@@QEAAXXZ 00000001800a5c40 f i libucrtd:exit.obj
 0001:000a4c90       ?close@__crt_hmodule_traits@@SA_NPEAUHINSTANCE__@@@Z 00000001800a5c90 f i libucrtd:exit.obj
 0001:000a4de0       ?get@?$__crt_unique_handle_t@U__crt_hmodule_traits@@@@QEBAPEAUHINSTANCE__@@XZ 00000001800a5de0 f i libucrtd:exit.obj
 0001:000a4e00       ?get_address_of@?$__crt_unique_handle_t@U__crt_hmodule_traits@@@@QEAAPEAPEAUHINSTANCE__@@XZ 00000001800a5e00 f i libucrtd:exit.obj
 0001:000a4e10       ?get_invalid_value@__crt_hmodule_traits@@SAPEAUHINSTANCE__@@XZ 00000001800a5e10 f i libucrtd:exit.obj
 0001:000a5030       _Exit                      00000001800a6030 f   libucrtd:exit.obj
 0001:000a5060       __acrt_initialize_thread_local_exit_callback 00000001800a6060 f   libucrtd:exit.obj
 0001:000a5080       _c_exit                    00000001800a6080 f   libucrtd:exit.obj
 0001:000a50b0       _cexit                     00000001800a60b0 f   libucrtd:exit.obj
 0001:000a50d0       _exit                      00000001800a60d0 f   libucrtd:exit.obj
 0001:000a5100       _is_c_termination_complete 00000001800a6100 f   libucrtd:exit.obj
 0001:000a5120       _register_thread_local_exe_atexit_callback 00000001800a6120 f   libucrtd:exit.obj
 0001:000a5180       exit                       00000001800a6180 f   libucrtd:exit.obj
 0001:000a51b0       quick_exit                 00000001800a61b0 f   libucrtd:exit.obj
 0001:000a51e0       ??$?RE@__crt_internal_free_policy@@QEBAXQEBE@Z 00000001800a61e0 f i libucrtd:argv_parsing.obj
 0001:000a5210       ??$?RPEAD@__crt_internal_free_policy@@QEBAXQEBQEAD@Z 00000001800a6210 f i libucrtd:argv_parsing.obj
 0001:000a5240       ??$?RPEA_W@__crt_internal_free_policy@@QEBAXQEBQEA_W@Z 00000001800a6240 f i libucrtd:argv_parsing.obj
 0001:000a5b50       ??$get_module_file_name@$$TAEAY0BAF@DH@?$__crt_char_traits@D@@SAK$$QEA$$TAEAY0BAF@D$$QEAH@Z 00000001800a6b50 f i libucrtd:argv_parsing.obj
 0001:000a5b90       ??$get_module_file_name@$$TAEAY0BAF@_WH@?$__crt_char_traits@_W@@SAK$$QEA$$TAEAY0BAF@_W$$QEAH@Z 00000001800a6b90 f i libucrtd:argv_parsing.obj
 0001:000a6790       ??$set_program_name@PEAD@?$__crt_char_traits@D@@SAX$$QEAPEAD@Z 00000001800a7790 f i libucrtd:argv_parsing.obj
 0001:000a67c0       ??$set_program_name@PEA_W@?$__crt_char_traits@_W@@SAX$$QEAPEA_W@Z 00000001800a77c0 f i libucrtd:argv_parsing.obj
 0001:000a6850       ??0?$__crt_unique_heap_ptr@EU__crt_internal_free_policy@@@@QEAA@QEAE@Z 00000001800a7850 f i libucrtd:argv_parsing.obj
 0001:000a6880       ??0?$__crt_unique_heap_ptr@PEADU__crt_internal_free_policy@@@@QEAA@QEAPEAD@Z 00000001800a7880 f i libucrtd:argv_parsing.obj
 0001:000a68b0       ??0?$__crt_unique_heap_ptr@PEA_WU__crt_internal_free_policy@@@@QEAA@QEAPEA_W@Z 00000001800a78b0 f i libucrtd:argv_parsing.obj
 0001:000a68e0       ??1?$__crt_unique_heap_ptr@EU__crt_internal_free_policy@@@@QEAA@XZ 00000001800a78e0 f i libucrtd:argv_parsing.obj
 0001:000a6900       ??1?$__crt_unique_heap_ptr@PEADU__crt_internal_free_policy@@@@QEAA@XZ 00000001800a7900 f i libucrtd:argv_parsing.obj
 0001:000a6920       ??1?$__crt_unique_heap_ptr@PEA_WU__crt_internal_free_policy@@@@QEAA@XZ 00000001800a7920 f i libucrtd:argv_parsing.obj
 0001:000a6940       ??B?$__crt_unique_heap_ptr@EU__crt_internal_free_policy@@@@QEBA_NXZ 00000001800a7940 f i libucrtd:argv_parsing.obj
 0001:000a6a40       ?detach@?$__crt_unique_heap_ptr@EU__crt_internal_free_policy@@@@QEAAPEAEXZ 00000001800a7a40 f i libucrtd:argv_parsing.obj
 0001:000a6a80       ?detach@?$__crt_unique_heap_ptr@PEADU__crt_internal_free_policy@@@@QEAAPEAPEADXZ 00000001800a7a80 f i libucrtd:argv_parsing.obj
 0001:000a6ac0       ?detach@?$__crt_unique_heap_ptr@PEA_WU__crt_internal_free_policy@@@@QEAAPEAPEA_WXZ 00000001800a7ac0 f i libucrtd:argv_parsing.obj
 0001:000a6b90       ?get@?$__crt_unique_heap_ptr@EU__crt_internal_free_policy@@@@QEBAPEAEXZ 00000001800a7b90 f i libucrtd:argv_parsing.obj
 0001:000a6bb0       ?get@?$__crt_unique_heap_ptr@PEADU__crt_internal_free_policy@@@@QEBAPEAPEADXZ 00000001800a7bb0 f i libucrtd:argv_parsing.obj
 0001:000a6bd0       ?get@?$__crt_unique_heap_ptr@PEA_WU__crt_internal_free_policy@@@@QEBAPEAPEA_WXZ 00000001800a7bd0 f i libucrtd:argv_parsing.obj
 0001:000a6bf0       ?get_address_of@?$__crt_unique_heap_ptr@PEADU__crt_internal_free_policy@@@@QEAAPEAPEAPEADXZ 00000001800a7bf0 f i libucrtd:argv_parsing.obj
 0001:000a6c00       ?get_address_of@?$__crt_unique_heap_ptr@PEA_WU__crt_internal_free_policy@@@@QEAAPEAPEAPEA_WXZ 00000001800a7c00 f i libucrtd:argv_parsing.obj
 0001:000a6c50       ?is_valid@?$__crt_unique_heap_ptr@EU__crt_internal_free_policy@@@@QEBA_NXZ 00000001800a7c50 f i libucrtd:argv_parsing.obj
 0001:000a6c90       ?release@?$__crt_unique_heap_ptr@EU__crt_internal_free_policy@@@@QEAAXXZ 00000001800a7c90 f i libucrtd:argv_parsing.obj
 0001:000a6cd0       ?release@?$__crt_unique_heap_ptr@PEADU__crt_internal_free_policy@@@@QEAAXXZ 00000001800a7cd0 f i libucrtd:argv_parsing.obj
 0001:000a6d10       ?release@?$__crt_unique_heap_ptr@PEA_WU__crt_internal_free_policy@@@@QEAAXXZ 00000001800a7d10 f i libucrtd:argv_parsing.obj
 0001:000a6db0       __acrt_allocate_buffer_for_argv 00000001800a7db0 f   libucrtd:argv_parsing.obj
 0001:000a6f10       _configure_narrow_argv     00000001800a7f10 f   libucrtd:argv_parsing.obj
 0001:000a6f30       _configure_wide_argv       00000001800a7f30 f   libucrtd:argv_parsing.obj
 0001:000a6f50       _set_pgmptr                00000001800a7f50 f i libucrtd:argv_parsing.obj
 0001:000a6f70       _set_wpgmptr               00000001800a7f70 f i libucrtd:argv_parsing.obj
 0001:000a6f88       ??$?R_W@__crt_internal_free_policy@@QEBAXQEB_W@Z 00000001800a7f88 f i libucrtd:environment_initialization.obj
 0001:000a76cc       ??$get_environment_from_os@$$V@?$__crt_char_traits@D@@SAPEADXZ 00000001800a86cc f i libucrtd:environment_initialization.obj
 0001:000a76d4       ??$get_environment_from_os@$$V@?$__crt_char_traits@_W@@SAPEA_WXZ 00000001800a86d4 f i libucrtd:environment_initialization.obj
 0001:000a7914       ??$set_variable_in_environment_nolock@PEADH@?$__crt_char_traits@D@@SAH$$QEAPEAD$$QEAH@Z 00000001800a8914 f i libucrtd:environment_initialization.obj
 0001:000a7920       ??$set_variable_in_environment_nolock@PEA_WH@?$__crt_char_traits@_W@@SAH$$QEAPEA_W$$QEAH@Z 00000001800a8920 f i libucrtd:environment_initialization.obj
 0001:000a792c       ??$tcscpy_s@PEADAEB_KAEAPEAD@?$__crt_char_traits@D@@SAH$$QEAPEADAEB_KAEAPEAD@Z 00000001800a892c f i libucrtd:environment_initialization.obj
 0001:000a7940       ??$tcscpy_s@PEA_WAEB_KAEAPEA_W@?$__crt_char_traits@_W@@SAH$$QEAPEA_WAEB_KAEAPEA_W@Z 00000001800a8940 f i libucrtd:environment_initialization.obj
 0001:000a7954       ??$tcslen@AEAPEAD@?$__crt_char_traits@D@@SA_KAEAPEAD@Z 00000001800a8954 f i libucrtd:environment_initialization.obj
 0001:000a796c       ??$tcslen@AEAPEA_W@?$__crt_char_traits@_W@@SA_KAEAPEA_W@Z 00000001800a896c f i libucrtd:environment_initialization.obj
 0001:000a7984       ??$uninitialize@A6AXAEAPEAPEAD@Z@?$dual_state_global@PEAPEAD@__crt_state_management@@QEAAXA6AXAEAPEAPEAD@Z@Z 00000001800a8984 f i libucrtd:environment_initialization.obj
 0001:000a79d8       ??$uninitialize@A6AXAEAPEAPEA_W@Z@?$dual_state_global@PEAPEA_W@__crt_state_management@@QEAAXA6AXAEAPEAPEA_W@Z@Z 00000001800a89d8 f i libucrtd:environment_initialization.obj
 0001:000a7a6c       ??0?$__crt_unique_heap_ptr@_WU__crt_internal_free_policy@@@@QEAA@QEA_W@Z 00000001800a8a6c f i libucrtd:environment_initialization.obj
 0001:000a7a74       ??1?$__crt_unique_heap_ptr@_WU__crt_internal_free_policy@@@@QEAA@XZ 00000001800a8a74 f i libucrtd:environment_initialization.obj
 0001:000a7a9c       ??B?$__crt_unique_heap_ptr@PEADU__crt_internal_free_policy@@@@QEBA_NXZ 00000001800a8a9c f i libucrtd:environment_initialization.obj
 0001:000a7aa8       ??B?$__crt_unique_heap_ptr@PEA_WU__crt_internal_free_policy@@@@QEBA_NXZ 00000001800a8aa8 f i libucrtd:environment_initialization.obj
 0001:000a7ab4       ??B?$__crt_unique_heap_ptr@_WU__crt_internal_free_policy@@@@QEBA_NXZ 00000001800a8ab4 f i libucrtd:environment_initialization.obj
 0001:000a7ac0       ?__crt_compute_required_transform_buffer_count@@YA_KIQEBD@Z 00000001800a8ac0 f i libucrtd:environment_initialization.obj
 0001:000a7af0       ?__crt_compute_required_transform_buffer_count@@YA_KIQEB_W@Z 00000001800a8af0 f i libucrtd:environment_initialization.obj
 0001:000a7b2c       ?__crt_transform_string@@YA_KIQEBDQEA_W_K@Z 00000001800a8b2c f i libucrtd:environment_initialization.obj
 0001:000a7b58       ?__crt_transform_string@@YA_KIQEB_WQEAD_K@Z 00000001800a8b58 f i libucrtd:environment_initialization.obj
 0001:000a7b94       ?detach@?$__crt_unique_heap_ptr@DU__crt_internal_free_policy@@@@QEAAPEADXZ 00000001800a8b94 f i libucrtd:environment_initialization.obj
 0001:000a7ba0       ?detach@?$__crt_unique_heap_ptr@_WU__crt_internal_free_policy@@@@QEAAPEA_WXZ 00000001800a8ba0 f i libucrtd:environment_initialization.obj
 0001:000a7bac       ?get@?$__crt_unique_heap_ptr@_WU__crt_internal_free_policy@@@@QEBAPEA_WXZ 00000001800a8bac f i libucrtd:environment_initialization.obj
 0001:000a7bb0       ?get_current_state_index@__crt_state_management@@YA_KXZ 00000001800a8bb0 f i libucrtd:environment_initialization.obj
 0001:000a7bfc       ?initialize@?$dual_state_global@PEAPEAD@__crt_state_management@@QEAAXQEAPEAD@Z 00000001800a8bfc f i libucrtd:environment_initialization.obj
 0001:000a7c2c       ?initialize@?$dual_state_global@PEAPEA_W@__crt_state_management@@QEAAXQEAPEA_W@Z 00000001800a8c2c f i libucrtd:environment_initialization.obj
 0001:000a7c5c       ?is_valid@?$__crt_unique_heap_ptr@PEADU__crt_internal_free_policy@@@@QEBA_NXZ 00000001800a8c5c f i libucrtd:environment_initialization.obj
 0001:000a7c68       ?is_valid@?$__crt_unique_heap_ptr@PEA_WU__crt_internal_free_policy@@@@QEBA_NXZ 00000001800a8c68 f i libucrtd:environment_initialization.obj
 0001:000a7c74       ?is_valid@?$__crt_unique_heap_ptr@_WU__crt_internal_free_policy@@@@QEBA_NXZ 00000001800a8c74 f i libucrtd:environment_initialization.obj
 0001:000a7c8c       ?release@?$__crt_unique_heap_ptr@_WU__crt_internal_free_policy@@@@QEAAXXZ 00000001800a8c8c f i libucrtd:environment_initialization.obj
 0001:000a7cb4       ?value@?$dual_state_global@PEAPEAD@__crt_state_management@@QEAAAEAPEAPEADXZ 00000001800a8cb4 f i libucrtd:environment_initialization.obj
 0001:000a7cb8       ?value@?$dual_state_global@PEAPEA_W@__crt_state_management@@QEAAAEAPEAPEA_WXZ 00000001800a8cb8 f i libucrtd:environment_initialization.obj
 0001:000a7cbc       __dcrt_get_or_create_narrow_environment_nolock 00000001800a8cbc f   libucrtd:environment_initialization.obj
 0001:000a7d08       __dcrt_get_or_create_wide_environment_nolock 00000001800a8d08 f   libucrtd:environment_initialization.obj
 0001:000a7d54       __dcrt_uninitialize_environments_nolock 00000001800a8d54 f   libucrtd:environment_initialization.obj
 0001:000a7d9c       __p__environ               00000001800a8d9c f   libucrtd:environment_initialization.obj
 0001:000a7da8       __p__wenviron              00000001800a8da8 f   libucrtd:environment_initialization.obj
 0001:000a7db4       _get_initial_narrow_environment 00000001800a8db4 f   libucrtd:environment_initialization.obj
 0001:000a7e18       _get_initial_wide_environment 00000001800a8e18 f   libucrtd:environment_initialization.obj
 0001:000a7e7c       _initialize_narrow_environment 00000001800a8e7c f   libucrtd:environment_initialization.obj
 0001:000a7e84       _initialize_wide_environment 00000001800a8e84 f   libucrtd:environment_initialization.obj
 0001:000a7e90       ??$?B$$A6AXXZ@__crt_fast_encoded_nullptr_t@@QEBAP6AXXZXZ 00000001800a8e90 f i libucrtd:onexit.obj
 0001:000a7eb0       ??$?BP6AXXZ@__crt_fast_encoded_nullptr_t@@QEBAPEAP6AXXZXZ 00000001800a8eb0 f i libucrtd:onexit.obj
 0001:000a7ed0       ??$?RP6AXXZ@__crt_internal_free_policy@@QEBAXQEBQ6AXXZ@Z 00000001800a8ed0 f i libucrtd:onexit.obj
 0001:000a80a0       ??$__crt_fast_decode_pointer@P6AXXZ@@YAP6AXXZQ6AXXZ@Z 00000001800a90a0 f i libucrtd:onexit.obj
 0001:000a80f0       ??$__crt_fast_decode_pointer@PEAP6AXXZ@@YAPEAP6AXXZQEAP6AXXZ@Z 00000001800a90f0 f i libucrtd:onexit.obj
 0001:000a8140       ??$__crt_fast_encode_pointer@P6AHXZ@@YAP6AHXZQ6AHXZ@Z 00000001800a9140 f i libucrtd:onexit.obj
 0001:000a8190       ??$__crt_fast_encode_pointer@P6AXXZ@@YAP6AXXZQ6AXXZ@Z 00000001800a9190 f i libucrtd:onexit.obj
 0001:000a81e0       ??$__crt_fast_encode_pointer@PEAP6AXXZ@@YAPEAP6AXXZQEAP6AXXZ@Z 00000001800a91e0 f i libucrtd:onexit.obj
 0001:000a8360       ??0?$__crt_unique_heap_ptr@P6AXXZU__crt_internal_free_policy@@@@QEAA@QEAP6AXXZ@Z 00000001800a9360 f i libucrtd:onexit.obj
 0001:000a8390       ??1?$__crt_unique_heap_ptr@P6AXXZU__crt_internal_free_policy@@@@QEAA@XZ 00000001800a9390 f i libucrtd:onexit.obj
 0001:000a83b0       ??1scoped_global_state_reset@__crt_state_management@@QEAA@XZ 00000001800a93b0 f i libucrtd:onexit.obj
 0001:000a8ac0       ?detach@?$__crt_unique_heap_ptr@P6AXXZU__crt_internal_free_policy@@@@QEAAPEAP6AXXZXZ 00000001800a9ac0 f i libucrtd:onexit.obj
 0001:000a8b00       ?release@?$__crt_unique_heap_ptr@P6AXXZU__crt_internal_free_policy@@@@QEAAXXZ 00000001800a9b00 f i libucrtd:onexit.obj
 0001:000a8b40       _crt_at_quick_exit         00000001800a9b40 f   libucrtd:onexit.obj
 0001:000a8b70       _crt_atexit                00000001800a9b70 f   libucrtd:onexit.obj
 0001:000a8ba0       _execute_onexit_table      00000001800a9ba0 f   libucrtd:onexit.obj
 0001:000a8bf0       _initialize_onexit_table   00000001800a9bf0 f   libucrtd:onexit.obj
 0001:000a8c90       _register_onexit_function  00000001800a9c90 f   libucrtd:onexit.obj
 0001:000a8f60       ??$?BX@__crt_fast_encoded_nullptr_t@@QEBAPEAXXZ 00000001800a9f60 f i libucrtd:initialization.obj
 0001:000a8f80       ??$__crt_fast_encode_pointer@PEAX@@YAPEAXQEAX@Z 00000001800a9f80 f i libucrtd:initialization.obj
 0001:000a90c0       ?initialize@?$dual_state_global@PEAU__crt_locale_data@@@__crt_state_management@@QEAAXQEAU__crt_locale_data@@@Z 00000001800aa0c0 f i libucrtd:initialization.obj
 0001:000a9120       __acrt_initialize          00000001800aa120 f   libucrtd:initialization.obj
 0001:000a9150       __acrt_thread_attach       00000001800aa150 f   libucrtd:initialization.obj
 0001:000a9170       __acrt_thread_detach       00000001800aa170 f   libucrtd:initialization.obj
 0001:000a9190       __acrt_uninitialize        00000001800aa190 f   libucrtd:initialization.obj
 0001:000a91d0       __acrt_uninitialize_critical 00000001800aa1d0 f   libucrtd:initialization.obj
 0001:000a9240       _get_terminate             00000001800aa240 f   libucrtd:terminate.obj
 0001:000a9260       set_terminate              00000001800aa260 f   libucrtd:terminate.obj
 0001:000a92b0       terminate                  00000001800aa2b0 f   libucrtd:terminate.obj
 0001:000a9900       strcpy_s                   00000001800aa900 f   libucrtd:strcpy_s.obj
 0001:000aa140       strcat_s                   00000001800ab140 f   libucrtd:strcat_s.obj
 0001:000aa180       ??$?0AEBV?$stream_output_adapter@D@__crt_stdio_output@@AEB_KAEBQEBDAEBQEAU__crt_locale_pointers@@AEBQEAD@?$format_validation_base@DV?$stream_output_adapter@D@__crt_stdio_output@@@__crt_stdio_output@@IEAA@AEBV?$stream_output_adapter@D@1@AEB_KAEBQEBDAEBQEAU__crt_locale_pointers@@AEBQEAD@Z 00000001800ab180 f i libucrtd:output.obj
 0001:000aa1f0       ??$?0AEBV?$stream_output_adapter@D@__crt_stdio_output@@AEB_KAEBQEBDAEBQEAU__crt_locale_pointers@@AEBQEAD@?$positional_parameter_base@DV?$stream_output_adapter@D@__crt_stdio_output@@@__crt_stdio_output@@IEAA@AEBV?$stream_output_adapter@D@1@AEB_KAEBQEBDAEBQEAU__crt_locale_pointers@@AEBQEAD@Z 00000001800ab1f0 f i libucrtd:output.obj
 0001:000aa2c0       ??$?0AEBV?$stream_output_adapter@D@__crt_stdio_output@@AEB_KAEBQEBDAEBQEAU__crt_locale_pointers@@AEBQEAD@?$standard_base@DV?$stream_output_adapter@D@__crt_stdio_output@@@__crt_stdio_output@@IEAA@AEBV?$stream_output_adapter@D@1@AEB_KAEBQEBDAEBQEAU__crt_locale_pointers@@AEBQEAD@Z 00000001800ab2c0 f i libucrtd:output.obj
 0001:000aa350       ??$?0AEBV?$stream_output_adapter@_W@__crt_stdio_output@@AEB_KAEBQEB_WAEBQEAU__crt_locale_pointers@@AEBQEAD@?$format_validation_base@_WV?$stream_output_adapter@_W@__crt_stdio_output@@@__crt_stdio_output@@IEAA@AEBV?$stream_output_adapter@_W@1@AEB_KAEBQEB_WAEBQEAU__crt_locale_pointers@@AEBQEAD@Z 00000001800ab350 f i libucrtd:output.obj
 0001:000aa3c0       ??$?0AEBV?$stream_output_adapter@_W@__crt_stdio_output@@AEB_KAEBQEB_WAEBQEAU__crt_locale_pointers@@AEBQEAD@?$positional_parameter_base@_WV?$stream_output_adapter@_W@__crt_stdio_output@@@__crt_stdio_output@@IEAA@AEBV?$stream_output_adapter@_W@1@AEB_KAEBQEB_WAEBQEAU__crt_locale_pointers@@AEBQEAD@Z 00000001800ab3c0 f i libucrtd:output.obj
 0001:000aa490       ??$?0AEBV?$stream_output_adapter@_W@__crt_stdio_output@@AEB_KAEBQEB_WAEBQEAU__crt_locale_pointers@@AEBQEAD@?$standard_base@_WV?$stream_output_adapter@_W@__crt_stdio_output@@@__crt_stdio_output@@IEAA@AEBV?$stream_output_adapter@_W@1@AEB_KAEBQEB_WAEBQEAU__crt_locale_pointers@@AEBQEAD@Z 00000001800ab490 f i libucrtd:output.obj
 0001:000aa520       ??$?0AEBV?$string_output_adapter@D@__crt_stdio_output@@AEB_KAEBQEBDAEBQEAU__crt_locale_pointers@@AEBQEAD@?$format_validation_base@DV?$string_output_adapter@D@__crt_stdio_output@@@__crt_stdio_output@@IEAA@AEBV?$string_output_adapter@D@1@AEB_KAEBQEBDAEBQEAU__crt_locale_pointers@@AEBQEAD@Z 00000001800ab520 f i libucrtd:output.obj
 0001:000aa590       ??$?0AEBV?$string_output_adapter@D@__crt_stdio_output@@AEB_KAEBQEBDAEBQEAU__crt_locale_pointers@@AEBQEAD@?$positional_parameter_base@DV?$string_output_adapter@D@__crt_stdio_output@@@__crt_stdio_output@@IEAA@AEBV?$string_output_adapter@D@1@AEB_KAEBQEBDAEBQEAU__crt_locale_pointers@@AEBQEAD@Z 00000001800ab590 f i libucrtd:output.obj
 0001:000aa660       ??$?0AEBV?$string_output_adapter@D@__crt_stdio_output@@AEB_KAEBQEBDAEBQEAU__crt_locale_pointers@@AEBQEAD@?$standard_base@DV?$string_output_adapter@D@__crt_stdio_output@@@__crt_stdio_output@@IEAA@AEBV?$string_output_adapter@D@1@AEB_KAEBQEBDAEBQEAU__crt_locale_pointers@@AEBQEAD@Z 00000001800ab660 f i libucrtd:output.obj
 0001:000aa6f0       ??$?0AEBV?$string_output_adapter@_W@__crt_stdio_output@@AEB_KAEBQEB_WAEBQEAU__crt_locale_pointers@@AEBQEAD@?$format_validation_base@_WV?$string_output_adapter@_W@__crt_stdio_output@@@__crt_stdio_output@@IEAA@AEBV?$string_output_adapter@_W@1@AEB_KAEBQEB_WAEBQEAU__crt_locale_pointers@@AEBQEAD@Z 00000001800ab6f0 f i libucrtd:output.obj
 0001:000aa760       ??$?0AEBV?$string_output_adapter@_W@__crt_stdio_output@@AEB_KAEBQEB_WAEBQEAU__crt_locale_pointers@@AEBQEAD@?$positional_parameter_base@_WV?$string_output_adapter@_W@__crt_stdio_output@@@__crt_stdio_output@@IEAA@AEBV?$string_output_adapter@_W@1@AEB_KAEBQEB_WAEBQEAU__crt_locale_pointers@@AEBQEAD@Z 00000001800ab760 f i libucrtd:output.obj
 0001:000aa830       ??$?0AEBV?$string_output_adapter@_W@__crt_stdio_output@@AEB_KAEBQEB_WAEBQEAU__crt_locale_pointers@@AEBQEAD@?$standard_base@_WV?$string_output_adapter@_W@__crt_stdio_output@@@__crt_stdio_output@@IEAA@AEBV?$string_output_adapter@_W@1@AEB_KAEBQEB_WAEBQEAU__crt_locale_pointers@@AEBQEAD@Z 00000001800ab830 f i libucrtd:output.obj
 0001:000af6f0       ??$count@D@formatting_buffer@__crt_stdio_output@@QEBA_KXZ 00000001800b06f0 f i libucrtd:output.obj
 0001:000af750       ??$count@_W@formatting_buffer@__crt_stdio_output@@QEBA_KXZ 00000001800b0750 f i libucrtd:output.obj
 0001:000af7c0       ??$data@D@formatting_buffer@__crt_stdio_output@@QEAAPEADXZ 00000001800b07c0 f i libucrtd:output.obj
 0001:000af820       ??$data@_W@formatting_buffer@__crt_stdio_output@@QEAAPEA_WXZ 00000001800b0820 f i libucrtd:output.obj
 0001:000af880       ??$ensure_buffer_is_big_enough@D@formatting_buffer@__crt_stdio_output@@QEAA_N_K@Z 00000001800b0880 f i libucrtd:output.obj
 0001:000af9f0       ??$ensure_buffer_is_big_enough@_W@formatting_buffer@__crt_stdio_output@@QEAA_N_K@Z 00000001800b09f0 f i libucrtd:output.obj
 0001:000afb70       ??$extract_argument_from_va_list@C_J@?$positional_parameter_base@DV?$stream_output_adapter@D@__crt_stdio_output@@@__crt_stdio_output@@IEAA_NAEA_J@Z 00000001800b0b70 f i libucrtd:output.obj
 0001:000afd50       ??$extract_argument_from_va_list@C_J@?$positional_parameter_base@DV?$string_output_adapter@D@__crt_stdio_output@@@__crt_stdio_output@@IEAA_NAEA_J@Z 00000001800b0d50 f i libucrtd:output.obj
 0001:000aff30       ??$extract_argument_from_va_list@C_J@?$positional_parameter_base@_WV?$stream_output_adapter@_W@__crt_stdio_output@@@__crt_stdio_output@@IEAA_NAEA_J@Z 00000001800b0f30 f i libucrtd:output.obj
 0001:000b0110       ??$extract_argument_from_va_list@C_J@?$positional_parameter_base@_WV?$string_output_adapter@_W@__crt_stdio_output@@@__crt_stdio_output@@IEAA_NAEA_J@Z 00000001800b1110 f i libucrtd:output.obj
 0001:000b02f0       ??$extract_argument_from_va_list@C_J@?$standard_base@DV?$stream_output_adapter@D@__crt_stdio_output@@@__crt_stdio_output@@IEAA_NAEA_J@Z 00000001800b12f0 f i libucrtd:output.obj
 0001:000b0330       ??$extract_argument_from_va_list@C_J@?$standard_base@DV?$string_output_adapter@D@__crt_stdio_output@@@__crt_stdio_output@@IEAA_NAEA_J@Z 00000001800b1330 f i libucrtd:output.obj
 0001:000b0370       ??$extract_argument_from_va_list@C_J@?$standard_base@_WV?$stream_output_adapter@_W@__crt_stdio_output@@@__crt_stdio_output@@IEAA_NAEA_J@Z 00000001800b1370 f i libucrtd:output.obj
 0001:000b03b0       ??$extract_argument_from_va_list@C_J@?$standard_base@_WV?$string_output_adapter@_W@__crt_stdio_output@@@__crt_stdio_output@@IEAA_NAEA_J@Z 00000001800b13b0 f i libucrtd:output.obj
 0001:000b03f0       ??$extract_argument_from_va_list@E_J@?$positional_parameter_base@DV?$stream_output_adapter@D@__crt_stdio_output@@@__crt_stdio_output@@IEAA_NAEA_J@Z 00000001800b13f0 f i libucrtd:output.obj
 0001:000b05d0       ??$extract_argument_from_va_list@E_J@?$positional_parameter_base@DV?$string_output_adapter@D@__crt_stdio_output@@@__crt_stdio_output@@IEAA_NAEA_J@Z 00000001800b15d0 f i libucrtd:output.obj
 0001:000b07b0       ??$extract_argument_from_va_list@E_J@?$positional_parameter_base@_WV?$stream_output_adapter@_W@__crt_stdio_output@@@__crt_stdio_output@@IEAA_NAEA_J@Z 00000001800b17b0 f i libucrtd:output.obj
 0001:000b0990       ??$extract_argument_from_va_list@E_J@?$positional_parameter_base@_WV?$string_output_adapter@_W@__crt_stdio_output@@@__crt_stdio_output@@IEAA_NAEA_J@Z 00000001800b1990 f i libucrtd:output.obj
 0001:000b0b70       ??$extract_argument_from_va_list@E_J@?$standard_base@DV?$stream_output_adapter@D@__crt_stdio_output@@@__crt_stdio_output@@IEAA_NAEA_J@Z 00000001800b1b70 f i libucrtd:output.obj
 0001:000b0bb0       ??$extract_argument_from_va_list@E_J@?$standard_base@DV?$string_output_adapter@D@__crt_stdio_output@@@__crt_stdio_output@@IEAA_NAEA_J@Z 00000001800b1bb0 f i libucrtd:output.obj
 0001:000b0bf0       ??$extract_argument_from_va_list@E_J@?$standard_base@_WV?$stream_output_adapter@_W@__crt_stdio_output@@@__crt_stdio_output@@IEAA_NAEA_J@Z 00000001800b1bf0 f i libucrtd:output.obj
 0001:000b0c30       ??$extract_argument_from_va_list@E_J@?$standard_base@_WV?$string_output_adapter@_W@__crt_stdio_output@@@__crt_stdio_output@@IEAA_NAEA_J@Z 00000001800b1c30 f i libucrtd:output.obj
 0001:000b0c70       ??$extract_argument_from_va_list@F_J@?$positional_parameter_base@DV?$stream_output_adapter@D@__crt_stdio_output@@@__crt_stdio_output@@IEAA_NAEA_J@Z 00000001800b1c70 f i libucrtd:output.obj
 0001:000b0e50       ??$extract_argument_from_va_list@F_J@?$positional_parameter_base@DV?$string_output_adapter@D@__crt_stdio_output@@@__crt_stdio_output@@IEAA_NAEA_J@Z 00000001800b1e50 f i libucrtd:output.obj
 0001:000b1030       ??$extract_argument_from_va_list@F_J@?$positional_parameter_base@_WV?$stream_output_adapter@_W@__crt_stdio_output@@@__crt_stdio_output@@IEAA_NAEA_J@Z 00000001800b2030 f i libucrtd:output.obj
 0001:000b1210       ??$extract_argument_from_va_list@F_J@?$positional_parameter_base@_WV?$string_output_adapter@_W@__crt_stdio_output@@@__crt_stdio_output@@IEAA_NAEA_J@Z 00000001800b2210 f i libucrtd:output.obj
 0001:000b13f0       ??$extract_argument_from_va_list@F_J@?$standard_base@DV?$stream_output_adapter@D@__crt_stdio_output@@@__crt_stdio_output@@IEAA_NAEA_J@Z 00000001800b23f0 f i libucrtd:output.obj
 0001:000b1430       ??$extract_argument_from_va_list@F_J@?$standard_base@DV?$string_output_adapter@D@__crt_stdio_output@@@__crt_stdio_output@@IEAA_NAEA_J@Z 00000001800b2430 f i libucrtd:output.obj
 0001:000b1470       ??$extract_argument_from_va_list@F_J@?$standard_base@_WV?$stream_output_adapter@_W@__crt_stdio_output@@@__crt_stdio_output@@IEAA_NAEA_J@Z 00000001800b2470 f i libucrtd:output.obj
 0001:000b14b0       ??$extract_argument_from_va_list@F_J@?$standard_base@_WV?$string_output_adapter@_W@__crt_stdio_output@@@__crt_stdio_output@@IEAA_NAEA_J@Z 00000001800b24b0 f i libucrtd:output.obj
 0001:000b14f0       ??$extract_argument_from_va_list@GD@?$positional_parameter_base@DV?$stream_output_adapter@D@__crt_stdio_output@@@__crt_stdio_output@@IEAA_NAEAD@Z 00000001800b24f0 f i libucrtd:output.obj
 0001:000b16d0       ??$extract_argument_from_va_list@GD@?$positional_parameter_base@DV?$string_output_adapter@D@__crt_stdio_output@@@__crt_stdio_output@@IEAA_NAEAD@Z 00000001800b26d0 f i libucrtd:output.obj
 0001:000b18b0       ??$extract_argument_from_va_list@GD@?$standard_base@DV?$stream_output_adapter@D@__crt_stdio_output@@@__crt_stdio_output@@IEAA_NAEAD@Z 00000001800b28b0 f i libucrtd:output.obj
 0001:000b18f0       ??$extract_argument_from_va_list@GD@?$standard_base@DV?$string_output_adapter@D@__crt_stdio_output@@@__crt_stdio_output@@IEAA_NAEAD@Z 00000001800b28f0 f i libucrtd:output.obj
 0001:000b1930       ??$extract_argument_from_va_list@G_J@?$positional_parameter_base@DV?$stream_output_adapter@D@__crt_stdio_output@@@__crt_stdio_output@@IEAA_NAEA_J@Z 00000001800b2930 f i libucrtd:output.obj
 0001:000b1b10       ??$extract_argument_from_va_list@G_J@?$positional_parameter_base@DV?$string_output_adapter@D@__crt_stdio_output@@@__crt_stdio_output@@IEAA_NAEA_J@Z 00000001800b2b10 f i libucrtd:output.obj
 0001:000b1cf0       ??$extract_argument_from_va_list@G_J@?$positional_parameter_base@_WV?$stream_output_adapter@_W@__crt_stdio_output@@@__crt_stdio_output@@IEAA_NAEA_J@Z 00000001800b2cf0 f i libucrtd:output.obj
 0001:000b1ed0       ??$extract_argument_from_va_list@G_J@?$positional_parameter_base@_WV?$string_output_adapter@_W@__crt_stdio_output@@@__crt_stdio_output@@IEAA_NAEA_J@Z 00000001800b2ed0 f i libucrtd:output.obj
 0001:000b20b0       ??$extract_argument_from_va_list@G_J@?$standard_base@DV?$stream_output_adapter@D@__crt_stdio_output@@@__crt_stdio_output@@IEAA_NAEA_J@Z 00000001800b30b0 f i libucrtd:output.obj
 0001:000b20f0       ??$extract_argument_from_va_list@G_J@?$standard_base@DV?$string_output_adapter@D@__crt_stdio_output@@@__crt_stdio_output@@IEAA_NAEA_J@Z 00000001800b30f0 f i libucrtd:output.obj
 0001:000b2130       ??$extract_argument_from_va_list@G_J@?$standard_base@_WV?$stream_output_adapter@_W@__crt_stdio_output@@@__crt_stdio_output@@IEAA_NAEA_J@Z 00000001800b3130 f i libucrtd:output.obj
 0001:000b2170       ??$extract_argument_from_va_list@G_J@?$standard_base@_WV?$string_output_adapter@_W@__crt_stdio_output@@@__crt_stdio_output@@IEAA_NAEA_J@Z 00000001800b3170 f i libucrtd:output.obj
 0001:000b21b0       ??$extract_argument_from_va_list@H_J@?$positional_parameter_base@DV?$stream_output_adapter@D@__crt_stdio_output@@@__crt_stdio_output@@IEAA_NAEA_J@Z 00000001800b31b0 f i libucrtd:output.obj
 0001:000b2390       ??$extract_argument_from_va_list@H_J@?$positional_parameter_base@DV?$string_output_adapter@D@__crt_stdio_output@@@__crt_stdio_output@@IEAA_NAEA_J@Z 00000001800b3390 f i libucrtd:output.obj
 0001:000b2570       ??$extract_argument_from_va_list@H_J@?$positional_parameter_base@_WV?$stream_output_adapter@_W@__crt_stdio_output@@@__crt_stdio_output@@IEAA_NAEA_J@Z 00000001800b3570 f i libucrtd:output.obj
 0001:000b2750       ??$extract_argument_from_va_list@H_J@?$positional_parameter_base@_WV?$string_output_adapter@_W@__crt_stdio_output@@@__crt_stdio_output@@IEAA_NAEA_J@Z 00000001800b3750 f i libucrtd:output.obj
 0001:000b2930       ??$extract_argument_from_va_list@H_J@?$standard_base@DV?$stream_output_adapter@D@__crt_stdio_output@@@__crt_stdio_output@@IEAA_NAEA_J@Z 00000001800b3930 f i libucrtd:output.obj
 0001:000b2970       ??$extract_argument_from_va_list@H_J@?$standard_base@DV?$string_output_adapter@D@__crt_stdio_output@@@__crt_stdio_output@@IEAA_NAEA_J@Z 00000001800b3970 f i libucrtd:output.obj
 0001:000b29b0       ??$extract_argument_from_va_list@H_J@?$standard_base@_WV?$stream_output_adapter@_W@__crt_stdio_output@@@__crt_stdio_output@@IEAA_NAEA_J@Z 00000001800b39b0 f i libucrtd:output.obj
 0001:000b29f0       ??$extract_argument_from_va_list@H_J@?$standard_base@_WV?$string_output_adapter@_W@__crt_stdio_output@@@__crt_stdio_output@@IEAA_NAEA_J@Z 00000001800b39f0 f i libucrtd:output.obj
 0001:000b2a30       ??$extract_argument_from_va_list@I_J@?$positional_parameter_base@DV?$stream_output_adapter@D@__crt_stdio_output@@@__crt_stdio_output@@IEAA_NAEA_J@Z 00000001800b3a30 f i libucrtd:output.obj
 0001:000b2c10       ??$extract_argument_from_va_list@I_J@?$positional_parameter_base@DV?$string_output_adapter@D@__crt_stdio_output@@@__crt_stdio_output@@IEAA_NAEA_J@Z 00000001800b3c10 f i libucrtd:output.obj
 0001:000b2df0       ??$extract_argument_from_va_list@I_J@?$positional_parameter_base@_WV?$stream_output_adapter@_W@__crt_stdio_output@@@__crt_stdio_output@@IEAA_NAEA_J@Z 00000001800b3df0 f i libucrtd:output.obj
 0001:000b2fd0       ??$extract_argument_from_va_list@I_J@?$positional_parameter_base@_WV?$string_output_adapter@_W@__crt_stdio_output@@@__crt_stdio_output@@IEAA_NAEA_J@Z 00000001800b3fd0 f i libucrtd:output.obj
 0001:000b31b0       ??$extract_argument_from_va_list@I_J@?$standard_base@DV?$stream_output_adapter@D@__crt_stdio_output@@@__crt_stdio_output@@IEAA_NAEA_J@Z 00000001800b41b0 f i libucrtd:output.obj
 0001:000b31f0       ??$extract_argument_from_va_list@I_J@?$standard_base@DV?$string_output_adapter@D@__crt_stdio_output@@@__crt_stdio_output@@IEAA_NAEA_J@Z 00000001800b41f0 f i libucrtd:output.obj
 0001:000b3230       ??$extract_argument_from_va_list@I_J@?$standard_base@_WV?$stream_output_adapter@_W@__crt_stdio_output@@@__crt_stdio_output@@IEAA_NAEA_J@Z 00000001800b4230 f i libucrtd:output.obj
 0001:000b3270       ??$extract_argument_from_va_list@I_J@?$standard_base@_WV?$string_output_adapter@_W@__crt_stdio_output@@@__crt_stdio_output@@IEAA_NAEA_J@Z 00000001800b4270 f i libucrtd:output.obj
 0001:000b32b0       ??$extract_argument_from_va_list@PEADPEAD@?$positional_parameter_base@DV?$stream_output_adapter@D@__crt_stdio_output@@@__crt_stdio_output@@IEAA_NAEAPEAD@Z 00000001800b42b0 f i libucrtd:output.obj
 0001:000b3490       ??$extract_argument_from_va_list@PEADPEAD@?$positional_parameter_base@DV?$string_output_adapter@D@__crt_stdio_output@@@__crt_stdio_output@@IEAA_NAEAPEAD@Z 00000001800b4490 f i libucrtd:output.obj
 0001:000b3670       ??$extract_argument_from_va_list@PEADPEAD@?$positional_parameter_base@_WV?$stream_output_adapter@_W@__crt_stdio_output@@@__crt_stdio_output@@IEAA_NAEAPEAD@Z 00000001800b4670 f i libucrtd:output.obj
 0001:000b3850       ??$extract_argument_from_va_list@PEADPEAD@?$positional_parameter_base@_WV?$string_output_adapter@_W@__crt_stdio_output@@@__crt_stdio_output@@IEAA_NAEAPEAD@Z 00000001800b4850 f i libucrtd:output.obj
 0001:000b3a30       ??$extract_argument_from_va_list@PEADPEAD@?$standard_base@DV?$stream_output_adapter@D@__crt_stdio_output@@@__crt_stdio_output@@IEAA_NAEAPEAD@Z 00000001800b4a30 f i libucrtd:output.obj
 0001:000b3a70       ??$extract_argument_from_va_list@PEADPEAD@?$standard_base@DV?$string_output_adapter@D@__crt_stdio_output@@@__crt_stdio_output@@IEAA_NAEAPEAD@Z 00000001800b4a70 f i libucrtd:output.obj
 0001:000b3ab0       ??$extract_argument_from_va_list@PEADPEAD@?$standard_base@_WV?$stream_output_adapter@_W@__crt_stdio_output@@@__crt_stdio_output@@IEAA_NAEAPEAD@Z 00000001800b4ab0 f i libucrtd:output.obj
 0001:000b3af0       ??$extract_argument_from_va_list@PEADPEAD@?$standard_base@_WV?$string_output_adapter@_W@__crt_stdio_output@@@__crt_stdio_output@@IEAA_NAEAPEAD@Z 00000001800b4af0 f i libucrtd:output.obj
 0001:000b3b30       ??$extract_argument_from_va_list@PEAUansi_string@?1??type_case_Z@?$output_processor@DV?$stream_output_adapter@D@__crt_stdio_output@@V?$format_validation_base@DV?$stream_output_adapter@D@__crt_stdio_output@@@2@@__crt_stdio_output@@AEAA_NXZ@PEAU1?1??234@AEAA_NXZ@@?$standard_base@DV?$stream_output_adapter@D@__crt_stdio_output@@@__crt_stdio_output@@IEAA_NAEAPEAUansi_string@?1??type_case_Z@?$output_processor@DV?$stream_output_adapter@D@__crt_stdio_output@@V?$format_validation_base@DV?$stream_output_adapter@D@__crt_stdio_output@@@2@@1@AEAA_NXZ@@Z 00000001800b4b30 f i libucrtd:output.obj
 0001:000b3b70       ??$extract_argument_from_va_list@PEAUansi_string@?1??type_case_Z@?$output_processor@DV?$stream_output_adapter@D@__crt_stdio_output@@V?$positional_parameter_base@DV?$stream_output_adapter@D@__crt_stdio_output@@@2@@__crt_stdio_output@@AEAA_NXZ@PEAU1?1??234@AEAA_NXZ@@?$positional_parameter_base@DV?$stream_output_adapter@D@__crt_stdio_output@@@__crt_stdio_output@@IEAA_NAEAPEAUansi_string@?1??type_case_Z@?$output_processor@DV?$stream_output_adapter@D@__crt_stdio_output@@V?$positional_parameter_base@DV?$stream_output_adapter@D@__crt_stdio_output@@@2@@1@AEAA_NXZ@@Z 00000001800b4b70 f i libucrtd:output.obj
 0001:000b3d50       ??$extract_argument_from_va_list@PEAUansi_string@?1??type_case_Z@?$output_processor@DV?$stream_output_adapter@D@__crt_stdio_output@@V?$positional_parameter_base@DV?$stream_output_adapter@D@__crt_stdio_output@@@2@@__crt_stdio_output@@AEAA_NXZ@PEAU1?1??234@AEAA_NXZ@@?$standard_base@DV?$stream_output_adapter@D@__crt_stdio_output@@@__crt_stdio_output@@IEAA_NAEAPEAUansi_string@?1??type_case_Z@?$output_processor@DV?$stream_output_adapter@D@__crt_stdio_output@@V?$positional_parameter_base@DV?$stream_output_adapter@D@__crt_stdio_output@@@2@@1@AEAA_NXZ@@Z 00000001800b4d50 f i libucrtd:output.obj
 0001:000b3d90       ??$extract_argument_from_va_list@PEAUansi_string@?1??type_case_Z@?$output_processor@DV?$stream_output_adapter@D@__crt_stdio_output@@V?$standard_base@DV?$stream_output_adapter@D@__crt_stdio_output@@@2@@__crt_stdio_output@@AEAA_NXZ@PEAU1?1??234@AEAA_NXZ@@?$standard_base@DV?$stream_output_adapter@D@__crt_stdio_output@@@__crt_stdio_output@@IEAA_NAEAPEAUansi_string@?1??type_case_Z@?$output_processor@DV?$stream_output_adapter@D@__crt_stdio_output@@V?$standard_base@DV?$stream_output_adapter@D@__crt_stdio_output@@@2@@1@AEAA_NXZ@@Z 00000001800b4d90 f i libucrtd:output.obj
 0001:000b3dd0       ??$extract_argument_from_va_list@PEAUansi_string@?1??type_case_Z@?$output_processor@DV?$string_output_adapter@D@__crt_stdio_output@@V?$format_validation_base@DV?$string_output_adapter@D@__crt_stdio_output@@@2@@__crt_stdio_output@@AEAA_NXZ@PEAU1?1??234@AEAA_NXZ@@?$standard_base@DV?$string_output_adapter@D@__crt_stdio_output@@@__crt_stdio_output@@IEAA_NAEAPEAUansi_string@?1??type_case_Z@?$output_processor@DV?$string_output_adapter@D@__crt_stdio_output@@V?$format_validation_base@DV?$string_output_adapter@D@__crt_stdio_output@@@2@@1@AEAA_NXZ@@Z 00000001800b4dd0 f i libucrtd:output.obj
 0001:000b3e10       ??$extract_argument_from_va_list@PEAUansi_string@?1??type_case_Z@?$output_processor@DV?$string_output_adapter@D@__crt_stdio_output@@V?$positional_parameter_base@DV?$string_output_adapter@D@__crt_stdio_output@@@2@@__crt_stdio_output@@AEAA_NXZ@PEAU1?1??234@AEAA_NXZ@@?$positional_parameter_base@DV?$string_output_adapter@D@__crt_stdio_output@@@__crt_stdio_output@@IEAA_NAEAPEAUansi_string@?1??type_case_Z@?$output_processor@DV?$string_output_adapter@D@__crt_stdio_output@@V?$positional_parameter_base@DV?$string_output_adapter@D@__crt_stdio_output@@@2@@1@AEAA_NXZ@@Z 00000001800b4e10 f i libucrtd:output.obj
 0001:000b3ff0       ??$extract_argument_from_va_list@PEAUansi_string@?1??type_case_Z@?$output_processor@DV?$string_output_adapter@D@__crt_stdio_output@@V?$positional_parameter_base@DV?$string_output_adapter@D@__crt_stdio_output@@@2@@__crt_stdio_output@@AEAA_NXZ@PEAU1?1??234@AEAA_NXZ@@?$standard_base@DV?$string_output_adapter@D@__crt_stdio_output@@@__crt_stdio_output@@IEAA_NAEAPEAUansi_string@?1??type_case_Z@?$output_processor@DV?$string_output_adapter@D@__crt_stdio_output@@V?$positional_parameter_base@DV?$string_output_adapter@D@__crt_stdio_output@@@2@@1@AEAA_NXZ@@Z 00000001800b4ff0 f i libucrtd:output.obj
 0001:000b4030       ??$extract_argument_from_va_list@PEAUansi_string@?1??type_case_Z@?$output_processor@DV?$string_output_adapter@D@__crt_stdio_output@@V?$standard_base@DV?$string_output_adapter@D@__crt_stdio_output@@@2@@__crt_stdio_output@@AEAA_NXZ@PEAU1?1??234@AEAA_NXZ@@?$standard_base@DV?$string_output_adapter@D@__crt_stdio_output@@@__crt_stdio_output@@IEAA_NAEAPEAUansi_string@?1??type_case_Z@?$output_processor@DV?$string_output_adapter@D@__crt_stdio_output@@V?$standard_base@DV?$string_output_adapter@D@__crt_stdio_output@@@2@@1@AEAA_NXZ@@Z 00000001800b5030 f i libucrtd:output.obj
 0001:000b4070       ??$extract_argument_from_va_list@PEAUansi_string@?1??type_case_Z@?$output_processor@_WV?$stream_output_adapter@_W@__crt_stdio_output@@V?$format_validation_base@_WV?$stream_output_adapter@_W@__crt_stdio_output@@@2@@__crt_stdio_output@@AEAA_NXZ@PEAU1?1??234@AEAA_NXZ@@?$standard_base@_WV?$stream_output_adapter@_W@__crt_stdio_output@@@__crt_stdio_output@@IEAA_NAEAPEAUansi_string@?1??type_case_Z@?$output_processor@_WV?$stream_output_adapter@_W@__crt_stdio_output@@V?$format_validation_base@_WV?$stream_output_adapter@_W@__crt_stdio_output@@@2@@1@AEAA_NXZ@@Z 00000001800b5070 f i libucrtd:output.obj
 0001:000b40b0       ??$extract_argument_from_va_list@PEAUansi_string@?1??type_case_Z@?$output_processor@_WV?$stream_output_adapter@_W@__crt_stdio_output@@V?$positional_parameter_base@_WV?$stream_output_adapter@_W@__crt_stdio_output@@@2@@__crt_stdio_output@@AEAA_NXZ@PEAU1?1??234@AEAA_NXZ@@?$positional_parameter_base@_WV?$stream_output_adapter@_W@__crt_stdio_output@@@__crt_stdio_output@@IEAA_NAEAPEAUansi_string@?1??type_case_Z@?$output_processor@_WV?$stream_output_adapter@_W@__crt_stdio_output@@V?$positional_parameter_base@_WV?$stream_output_adapter@_W@__crt_stdio_output@@@2@@1@AEAA_NXZ@@Z 00000001800b50b0 f i libucrtd:output.obj
 0001:000b4290       ??$extract_argument_from_va_list@PEAUansi_string@?1??type_case_Z@?$output_processor@_WV?$stream_output_adapter@_W@__crt_stdio_output@@V?$positional_parameter_base@_WV?$stream_output_adapter@_W@__crt_stdio_output@@@2@@__crt_stdio_output@@AEAA_NXZ@PEAU1?1??234@AEAA_NXZ@@?$standard_base@_WV?$stream_output_adapter@_W@__crt_stdio_output@@@__crt_stdio_output@@IEAA_NAEAPEAUansi_string@?1??type_case_Z@?$output_processor@_WV?$stream_output_adapter@_W@__crt_stdio_output@@V?$positional_parameter_base@_WV?$stream_output_adapter@_W@__crt_stdio_output@@@2@@1@AEAA_NXZ@@Z 00000001800b5290 f i libucrtd:output.obj
 0001:000b42d0       ??$extract_argument_from_va_list@PEAUansi_string@?1??type_case_Z@?$output_processor@_WV?$stream_output_adapter@_W@__crt_stdio_output@@V?$standard_base@_WV?$stream_output_adapter@_W@__crt_stdio_output@@@2@@__crt_stdio_output@@AEAA_NXZ@PEAU1?1??234@AEAA_NXZ@@?$standard_base@_WV?$stream_output_adapter@_W@__crt_stdio_output@@@__crt_stdio_output@@IEAA_NAEAPEAUansi_string@?1??type_case_Z@?$output_processor@_WV?$stream_output_adapter@_W@__crt_stdio_output@@V?$standard_base@_WV?$stream_output_adapter@_W@__crt_stdio_output@@@2@@1@AEAA_NXZ@@Z 00000001800b52d0 f i libucrtd:output.obj
 0001:000b4310       ??$extract_argument_from_va_list@PEAUansi_string@?1??type_case_Z@?$output_processor@_WV?$string_output_adapter@_W@__crt_stdio_output@@V?$format_validation_base@_WV?$string_output_adapter@_W@__crt_stdio_output@@@2@@__crt_stdio_output@@AEAA_NXZ@PEAU1?1??234@AEAA_NXZ@@?$standard_base@_WV?$string_output_adapter@_W@__crt_stdio_output@@@__crt_stdio_output@@IEAA_NAEAPEAUansi_string@?1??type_case_Z@?$output_processor@_WV?$string_output_adapter@_W@__crt_stdio_output@@V?$format_validation_base@_WV?$string_output_adapter@_W@__crt_stdio_output@@@2@@1@AEAA_NXZ@@Z 00000001800b5310 f i libucrtd:output.obj
 0001:000b4350       ??$extract_argument_from_va_list@PEAUansi_string@?1??type_case_Z@?$output_processor@_WV?$string_output_adapter@_W@__crt_stdio_output@@V?$positional_parameter_base@_WV?$string_output_adapter@_W@__crt_stdio_output@@@2@@__crt_stdio_output@@AEAA_NXZ@PEAU1?1??234@AEAA_NXZ@@?$positional_parameter_base@_WV?$string_output_adapter@_W@__crt_stdio_output@@@__crt_stdio_output@@IEAA_NAEAPEAUansi_string@?1??type_case_Z@?$output_processor@_WV?$string_output_adapter@_W@__crt_stdio_output@@V?$positional_parameter_base@_WV?$string_output_adapter@_W@__crt_stdio_output@@@2@@1@AEAA_NXZ@@Z 00000001800b5350 f i libucrtd:output.obj
 0001:000b4530       ??$extract_argument_from_va_list@PEAUansi_string@?1??type_case_Z@?$output_processor@_WV?$string_output_adapter@_W@__crt_stdio_output@@V?$positional_parameter_base@_WV?$string_output_adapter@_W@__crt_stdio_output@@@2@@__crt_stdio_output@@AEAA_NXZ@PEAU1?1??234@AEAA_NXZ@@?$standard_base@_WV?$string_output_adapter@_W@__crt_stdio_output@@@__crt_stdio_output@@IEAA_NAEAPEAUansi_string@?1??type_case_Z@?$output_processor@_WV?$string_output_adapter@_W@__crt_stdio_output@@V?$positional_parameter_base@_WV?$string_output_adapter@_W@__crt_stdio_output@@@2@@1@AEAA_NXZ@@Z 00000001800b5530 f i libucrtd:output.obj
 0001:000b4570       ??$extract_argument_from_va_list@PEAUansi_string@?1??type_case_Z@?$output_processor@_WV?$string_output_adapter@_W@__crt_stdio_output@@V?$standard_base@_WV?$string_output_adapter@_W@__crt_stdio_output@@@2@@__crt_stdio_output@@AEAA_NXZ@PEAU1?1??234@AEAA_NXZ@@?$standard_base@_WV?$string_output_adapter@_W@__crt_stdio_output@@@__crt_stdio_output@@IEAA_NAEAPEAUansi_string@?1??type_case_Z@?$output_processor@_WV?$string_output_adapter@_W@__crt_stdio_output@@V?$standard_base@_WV?$string_output_adapter@_W@__crt_stdio_output@@@2@@1@AEAA_NXZ@@Z 00000001800b5570 f i libucrtd:output.obj
 0001:000b45b0       ??$extract_argument_from_va_list@PEAXPEAX@?$positional_parameter_base@DV?$stream_output_adapter@D@__crt_stdio_output@@@__crt_stdio_output@@IEAA_NAEAPEAX@Z 00000001800b55b0 f i libucrtd:output.obj
 0001:000b4790       ??$extract_argument_from_va_list@PEAXPEAX@?$positional_parameter_base@DV?$string_output_adapter@D@__crt_stdio_output@@@__crt_stdio_output@@IEAA_NAEAPEAX@Z 00000001800b5790 f i libucrtd:output.obj
 0001:000b4970       ??$extract_argument_from_va_list@PEAXPEAX@?$positional_parameter_base@_WV?$stream_output_adapter@_W@__crt_stdio_output@@@__crt_stdio_output@@IEAA_NAEAPEAX@Z 00000001800b5970 f i libucrtd:output.obj
 0001:000b4b50       ??$extract_argument_from_va_list@PEAXPEAX@?$positional_parameter_base@_WV?$string_output_adapter@_W@__crt_stdio_output@@@__crt_stdio_output@@IEAA_NAEAPEAX@Z 00000001800b5b50 f i libucrtd:output.obj
 0001:000b4d30       ??$extract_argument_from_va_list@PEAXPEAX@?$standard_base@DV?$stream_output_adapter@D@__crt_stdio_output@@@__crt_stdio_output@@IEAA_NAEAPEAX@Z 00000001800b5d30 f i libucrtd:output.obj
 0001:000b4d70       ??$extract_argument_from_va_list@PEAXPEAX@?$standard_base@DV?$string_output_adapter@D@__crt_stdio_output@@@__crt_stdio_output@@IEAA_NAEAPEAX@Z 00000001800b5d70 f i libucrtd:output.obj
 0001:000b4db0       ??$extract_argument_from_va_list@PEAXPEAX@?$standard_base@_WV?$stream_output_adapter@_W@__crt_stdio_output@@@__crt_stdio_output@@IEAA_NAEAPEAX@Z 00000001800b5db0 f i libucrtd:output.obj
 0001:000b4df0       ??$extract_argument_from_va_list@PEAXPEAX@?$standard_base@_WV?$string_output_adapter@_W@__crt_stdio_output@@@__crt_stdio_output@@IEAA_NAEAPEAX@Z 00000001800b5df0 f i libucrtd:output.obj
 0001:000b4e30       ??$extract_argument_from_va_list@U_CRT_DOUBLE@@U1@@?$positional_parameter_base@DV?$stream_output_adapter@D@__crt_stdio_output@@@__crt_stdio_output@@IEAA_NAEAU_CRT_DOUBLE@@@Z 00000001800b5e30 f i libucrtd:output.obj
 0001:000b5040       ??$extract_argument_from_va_list@U_CRT_DOUBLE@@U1@@?$positional_parameter_base@DV?$string_output_adapter@D@__crt_stdio_output@@@__crt_stdio_output@@IEAA_NAEAU_CRT_DOUBLE@@@Z 00000001800b6040 f i libucrtd:output.obj
 0001:000b5250       ??$extract_argument_from_va_list@U_CRT_DOUBLE@@U1@@?$positional_parameter_base@_WV?$stream_output_adapter@_W@__crt_stdio_output@@@__crt_stdio_output@@IEAA_NAEAU_CRT_DOUBLE@@@Z 00000001800b6250 f i libucrtd:output.obj
 0001:000b5460       ??$extract_argument_from_va_list@U_CRT_DOUBLE@@U1@@?$positional_parameter_base@_WV?$string_output_adapter@_W@__crt_stdio_output@@@__crt_stdio_output@@IEAA_NAEAU_CRT_DOUBLE@@@Z 00000001800b6460 f i libucrtd:output.obj
 0001:000b5670       ??$extract_argument_from_va_list@U_CRT_DOUBLE@@U1@@?$standard_base@DV?$stream_output_adapter@D@__crt_stdio_output@@@__crt_stdio_output@@IEAA_NAEAU_CRT_DOUBLE@@@Z 00000001800b6670 f i libucrtd:output.obj
 0001:000b56d0       ??$extract_argument_from_va_list@U_CRT_DOUBLE@@U1@@?$standard_base@DV?$string_output_adapter@D@__crt_stdio_output@@@__crt_stdio_output@@IEAA_NAEAU_CRT_DOUBLE@@@Z 00000001800b66d0 f i libucrtd:output.obj
 0001:000b5730       ??$extract_argument_from_va_list@U_CRT_DOUBLE@@U1@@?$standard_base@_WV?$stream_output_adapter@_W@__crt_stdio_output@@@__crt_stdio_output@@IEAA_NAEAU_CRT_DOUBLE@@@Z 00000001800b6730 f i libucrtd:output.obj
 0001:000b5790       ??$extract_argument_from_va_list@U_CRT_DOUBLE@@U1@@?$standard_base@_WV?$string_output_adapter@_W@__crt_stdio_output@@@__crt_stdio_output@@IEAA_NAEAU_CRT_DOUBLE@@@Z 00000001800b6790 f i libucrtd:output.obj
 0001:000b57f0       ??$extract_argument_from_va_list@_J_J@?$positional_parameter_base@DV?$stream_output_adapter@D@__crt_stdio_output@@@__crt_stdio_output@@IEAA_NAEA_J@Z 00000001800b67f0 f i libucrtd:output.obj
 0001:000b59d0       ??$extract_argument_from_va_list@_J_J@?$positional_parameter_base@DV?$string_output_adapter@D@__crt_stdio_output@@@__crt_stdio_output@@IEAA_NAEA_J@Z 00000001800b69d0 f i libucrtd:output.obj
 0001:000b5bb0       ??$extract_argument_from_va_list@_J_J@?$positional_parameter_base@_WV?$stream_output_adapter@_W@__crt_stdio_output@@@__crt_stdio_output@@IEAA_NAEA_J@Z 00000001800b6bb0 f i libucrtd:output.obj
 0001:000b5d90       ??$extract_argument_from_va_list@_J_J@?$positional_parameter_base@_WV?$string_output_adapter@_W@__crt_stdio_output@@@__crt_stdio_output@@IEAA_NAEA_J@Z 00000001800b6d90 f i libucrtd:output.obj
 0001:000b5f70       ??$extract_argument_from_va_list@_J_J@?$standard_base@DV?$stream_output_adapter@D@__crt_stdio_output@@@__crt_stdio_output@@IEAA_NAEA_J@Z 00000001800b6f70 f i libucrtd:output.obj
 0001:000b5fb0       ??$extract_argument_from_va_list@_J_J@?$standard_base@DV?$string_output_adapter@D@__crt_stdio_output@@@__crt_stdio_output@@IEAA_NAEA_J@Z 00000001800b6fb0 f i libucrtd:output.obj
 0001:000b5ff0       ??$extract_argument_from_va_list@_J_J@?$standard_base@_WV?$stream_output_adapter@_W@__crt_stdio_output@@@__crt_stdio_output@@IEAA_NAEA_J@Z 00000001800b6ff0 f i libucrtd:output.obj
 0001:000b6030       ??$extract_argument_from_va_list@_J_J@?$standard_base@_WV?$string_output_adapter@_W@__crt_stdio_output@@@__crt_stdio_output@@IEAA_NAEA_J@Z 00000001800b7030 f i libucrtd:output.obj
 0001:000b6070       ??$extract_argument_from_va_list@_K_J@?$positional_parameter_base@DV?$stream_output_adapter@D@__crt_stdio_output@@@__crt_stdio_output@@IEAA_NAEA_J@Z 00000001800b7070 f i libucrtd:output.obj
 0001:000b6250       ??$extract_argument_from_va_list@_K_J@?$positional_parameter_base@DV?$string_output_adapter@D@__crt_stdio_output@@@__crt_stdio_output@@IEAA_NAEA_J@Z 00000001800b7250 f i libucrtd:output.obj
 0001:000b6430       ??$extract_argument_from_va_list@_K_J@?$positional_parameter_base@_WV?$stream_output_adapter@_W@__crt_stdio_output@@@__crt_stdio_output@@IEAA_NAEA_J@Z 00000001800b7430 f i libucrtd:output.obj
 0001:000b6610       ??$extract_argument_from_va_list@_K_J@?$positional_parameter_base@_WV?$string_output_adapter@_W@__crt_stdio_output@@@__crt_stdio_output@@IEAA_NAEA_J@Z 00000001800b7610 f i libucrtd:output.obj
 0001:000b67f0       ??$extract_argument_from_va_list@_K_J@?$standard_base@DV?$stream_output_adapter@D@__crt_stdio_output@@@__crt_stdio_output@@IEAA_NAEA_J@Z 00000001800b77f0 f i libucrtd:output.obj
 0001:000b6830       ??$extract_argument_from_va_list@_K_J@?$standard_base@DV?$string_output_adapter@D@__crt_stdio_output@@@__crt_stdio_output@@IEAA_NAEA_J@Z 00000001800b7830 f i libucrtd:output.obj
 0001:000b6870       ??$extract_argument_from_va_list@_K_J@?$standard_base@_WV?$stream_output_adapter@_W@__crt_stdio_output@@@__crt_stdio_output@@IEAA_NAEA_J@Z 00000001800b7870 f i libucrtd:output.obj
 0001:000b68b0       ??$extract_argument_from_va_list@_K_J@?$standard_base@_WV?$string_output_adapter@_W@__crt_stdio_output@@@__crt_stdio_output@@IEAA_NAEA_J@Z 00000001800b78b0 f i libucrtd:output.obj
 0001:000b68f0       ??$extract_argument_from_va_list@_W_W@?$positional_parameter_base@DV?$stream_output_adapter@D@__crt_stdio_output@@@__crt_stdio_output@@IEAA_NAEA_W@Z 00000001800b78f0 f i libucrtd:output.obj
 0001:000b6ad0       ??$extract_argument_from_va_list@_W_W@?$positional_parameter_base@DV?$string_output_adapter@D@__crt_stdio_output@@@__crt_stdio_output@@IEAA_NAEA_W@Z 00000001800b7ad0 f i libucrtd:output.obj
 0001:000b6cb0       ??$extract_argument_from_va_list@_W_W@?$positional_parameter_base@_WV?$stream_output_adapter@_W@__crt_stdio_output@@@__crt_stdio_output@@IEAA_NAEA_W@Z 00000001800b7cb0 f i libucrtd:output.obj
 0001:000b6e90       ??$extract_argument_from_va_list@_W_W@?$positional_parameter_base@_WV?$string_output_adapter@_W@__crt_stdio_output@@@__crt_stdio_output@@IEAA_NAEA_W@Z 00000001800b7e90 f i libucrtd:output.obj
 0001:000b7070       ??$extract_argument_from_va_list@_W_W@?$standard_base@DV?$stream_output_adapter@D@__crt_stdio_output@@@__crt_stdio_output@@IEAA_NAEA_W@Z 00000001800b8070 f i libucrtd:output.obj
 0001:000b70b0       ??$extract_argument_from_va_list@_W_W@?$standard_base@DV?$string_output_adapter@D@__crt_stdio_output@@@__crt_stdio_output@@IEAA_NAEA_W@Z 00000001800b80b0 f i libucrtd:output.obj
 0001:000b70f0       ??$extract_argument_from_va_list@_W_W@?$standard_base@_WV?$stream_output_adapter@_W@__crt_stdio_output@@@__crt_stdio_output@@IEAA_NAEA_W@Z 00000001800b80f0 f i libucrtd:output.obj
 0001:000b7130       ??$extract_argument_from_va_list@_W_W@?$standard_base@_WV?$string_output_adapter@_W@__crt_stdio_output@@@__crt_stdio_output@@IEAA_NAEA_W@Z 00000001800b8130 f i libucrtd:output.obj
 0001:000b7170       ??$get_parameter_type@D@?$positional_parameter_base@DV?$stream_output_adapter@D@__crt_stdio_output@@@__crt_stdio_output@@CA?AW4parameter_type@01@PEAD@Z 00000001800b8170 f i libucrtd:output.obj
 0001:000b7180       ??$get_parameter_type@D@?$positional_parameter_base@DV?$string_output_adapter@D@__crt_stdio_output@@@__crt_stdio_output@@CA?AW4parameter_type@01@PEAD@Z 00000001800b8180 f i libucrtd:output.obj
 0001:000b7190       ??$get_parameter_type@D@?$positional_parameter_base@_WV?$stream_output_adapter@_W@__crt_stdio_output@@@__crt_stdio_output@@CA?AW4parameter_type@01@PEAD@Z 00000001800b8190 f i libucrtd:output.obj
 0001:000b71a0       ??$get_parameter_type@D@?$positional_parameter_base@_WV?$string_output_adapter@_W@__crt_stdio_output@@@__crt_stdio_output@@CA?AW4parameter_type@01@PEAD@Z 00000001800b81a0 f i libucrtd:output.obj
 0001:000b71b0       ??$get_parameter_type@Uansi_string@?1??type_case_Z@?$output_processor@DV?$stream_output_adapter@D@__crt_stdio_output@@V?$positional_parameter_base@DV?$stream_output_adapter@D@__crt_stdio_output@@@2@@__crt_stdio_output@@AEAA_NXZ@@?$positional_parameter_base@DV?$stream_output_adapter@D@__crt_stdio_output@@@__crt_stdio_output@@CA?AW4parameter_type@01@PEAUansi_string@?1??type_case_Z@?$output_processor@DV?$stream_output_adapter@D@__crt_stdio_output@@V?$positional_parameter_base@DV?$stream_output_adapter@D@__crt_stdio_output@@@2@@1@AEAA_NXZ@@Z 00000001800b81b0 f i libucrtd:output.obj
 0001:000b71c0       ??$get_parameter_type@Uansi_string@?1??type_case_Z@?$output_processor@DV?$string_output_adapter@D@__crt_stdio_output@@V?$positional_parameter_base@DV?$string_output_adapter@D@__crt_stdio_output@@@2@@__crt_stdio_output@@AEAA_NXZ@@?$positional_parameter_base@DV?$string_output_adapter@D@__crt_stdio_output@@@__crt_stdio_output@@CA?AW4parameter_type@01@PEAUansi_string@?1??type_case_Z@?$output_processor@DV?$string_output_adapter@D@__crt_stdio_output@@V?$positional_parameter_base@DV?$string_output_adapter@D@__crt_stdio_output@@@2@@1@AEAA_NXZ@@Z 00000001800b81c0 f i libucrtd:output.obj
 0001:000b71d0       ??$get_parameter_type@Uansi_string@?1??type_case_Z@?$output_processor@_WV?$stream_output_adapter@_W@__crt_stdio_output@@V?$positional_parameter_base@_WV?$stream_output_adapter@_W@__crt_stdio_output@@@2@@__crt_stdio_output@@AEAA_NXZ@@?$positional_parameter_base@_WV?$stream_output_adapter@_W@__crt_stdio_output@@@__crt_stdio_output@@CA?AW4parameter_type@01@PEAUansi_string@?1??type_case_Z@?$output_processor@_WV?$stream_output_adapter@_W@__crt_stdio_output@@V?$positional_parameter_base@_WV?$stream_output_adapter@_W@__crt_stdio_output@@@2@@1@AEAA_NXZ@@Z 00000001800b81d0 f i libucrtd:output.obj
 0001:000b71e0       ??$get_parameter_type@Uansi_string@?1??type_case_Z@?$output_processor@_WV?$string_output_adapter@_W@__crt_stdio_output@@V?$positional_parameter_base@_WV?$string_output_adapter@_W@__crt_stdio_output@@@2@@__crt_stdio_output@@AEAA_NXZ@@?$positional_parameter_base@_WV?$string_output_adapter@_W@__crt_stdio_output@@@__crt_stdio_output@@CA?AW4parameter_type@01@PEAUansi_string@?1??type_case_Z@?$output_processor@_WV?$string_output_adapter@_W@__crt_stdio_output@@V?$positional_parameter_base@_WV?$string_output_adapter@_W@__crt_stdio_output@@@2@@1@AEAA_NXZ@@Z 00000001800b81e0 f i libucrtd:output.obj
 0001:000b71f0       ??$get_parameter_type@X@?$positional_parameter_base@DV?$stream_output_adapter@D@__crt_stdio_output@@@__crt_stdio_output@@CA?AW4parameter_type@01@PEAX@Z 00000001800b81f0 f i libucrtd:output.obj
 0001:000b7200       ??$get_parameter_type@X@?$positional_parameter_base@DV?$string_output_adapter@D@__crt_stdio_output@@@__crt_stdio_output@@CA?AW4parameter_type@01@PEAX@Z 00000001800b8200 f i libucrtd:output.obj
 0001:000b7210       ??$get_parameter_type@X@?$positional_parameter_base@_WV?$stream_output_adapter@_W@__crt_stdio_output@@@__crt_stdio_output@@CA?AW4parameter_type@01@PEAX@Z 00000001800b8210 f i libucrtd:output.obj
 0001:000b7220       ??$get_parameter_type@X@?$positional_parameter_base@_WV?$string_output_adapter@_W@__crt_stdio_output@@@__crt_stdio_output@@CA?AW4parameter_type@01@PEAX@Z 00000001800b8220 f i libucrtd:output.obj
 0001:000b7230       ??$is_character_specifier@D@?$positional_parameter_base@DV?$stream_output_adapter@D@__crt_stdio_output@@@__crt_stdio_output@@CA_ND@Z 00000001800b8230 f i libucrtd:output.obj
 0001:000b7280       ??$is_character_specifier@D@?$positional_parameter_base@DV?$string_output_adapter@D@__crt_stdio_output@@@__crt_stdio_output@@CA_ND@Z 00000001800b8280 f i libucrtd:output.obj
 0001:000b72d0       ??$is_character_specifier@_W@?$positional_parameter_base@_WV?$stream_output_adapter@_W@__crt_stdio_output@@@__crt_stdio_output@@CA_N_W@Z 00000001800b82d0 f i libucrtd:output.obj
 0001:000b7320       ??$is_character_specifier@_W@?$positional_parameter_base@_WV?$string_output_adapter@_W@__crt_stdio_output@@@__crt_stdio_output@@CA_N_W@Z 00000001800b8320 f i libucrtd:output.obj
 0001:000b7370       ??$is_integral_specifier@D@?$positional_parameter_base@DV?$stream_output_adapter@D@__crt_stdio_output@@@__crt_stdio_output@@CA_ND@Z 00000001800b8370 f i libucrtd:output.obj
 0001:000b73f0       ??$is_integral_specifier@D@?$positional_parameter_base@DV?$string_output_adapter@D@__crt_stdio_output@@@__crt_stdio_output@@CA_ND@Z 00000001800b83f0 f i libucrtd:output.obj
 0001:000b7470       ??$is_integral_specifier@_W@?$positional_parameter_base@_WV?$stream_output_adapter@_W@__crt_stdio_output@@@__crt_stdio_output@@CA_N_W@Z 00000001800b8470 f i libucrtd:output.obj
 0001:000b7500       ??$is_integral_specifier@_W@?$positional_parameter_base@_WV?$string_output_adapter@_W@__crt_stdio_output@@@__crt_stdio_output@@CA_N_W@Z 00000001800b8500 f i libucrtd:output.obj
 0001:000b7590       ??$is_pointer_specifier@D@?$positional_parameter_base@DV?$stream_output_adapter@D@__crt_stdio_output@@@__crt_stdio_output@@CA_ND@Z 00000001800b8590 f i libucrtd:output.obj
 0001:000b75d0       ??$is_pointer_specifier@D@?$positional_parameter_base@DV?$string_output_adapter@D@__crt_stdio_output@@@__crt_stdio_output@@CA_ND@Z 00000001800b85d0 f i libucrtd:output.obj
 0001:000b7610       ??$is_pointer_specifier@_W@?$positional_parameter_base@_WV?$stream_output_adapter@_W@__crt_stdio_output@@@__crt_stdio_output@@CA_N_W@Z 00000001800b8610 f i libucrtd:output.obj
 0001:000b7650       ??$is_pointer_specifier@_W@?$positional_parameter_base@_WV?$string_output_adapter@_W@__crt_stdio_output@@@__crt_stdio_output@@CA_N_W@Z 00000001800b8650 f i libucrtd:output.obj
 0001:000b7690       ??$is_string_specifier@D@?$positional_parameter_base@DV?$stream_output_adapter@D@__crt_stdio_output@@@__crt_stdio_output@@CA_ND@Z 00000001800b8690 f i libucrtd:output.obj
 0001:000b76e0       ??$is_string_specifier@D@?$positional_parameter_base@DV?$string_output_adapter@D@__crt_stdio_output@@@__crt_stdio_output@@CA_ND@Z 00000001800b86e0 f i libucrtd:output.obj
 0001:000b7730       ??$is_string_specifier@_W@?$positional_parameter_base@_WV?$stream_output_adapter@_W@__crt_stdio_output@@@__crt_stdio_output@@CA_N_W@Z 00000001800b8730 f i libucrtd:output.obj
 0001:000b7780       ??$is_string_specifier@_W@?$positional_parameter_base@_WV?$string_output_adapter@_W@__crt_stdio_output@@@__crt_stdio_output@@CA_N_W@Z 00000001800b8780 f i libucrtd:output.obj
 0001:000b77d0       ??$is_wide_character_specifier@D@__crt_stdio_output@@YA_N_KDW4length_modifier@0@@Z 00000001800b87d0 f i libucrtd:output.obj
 0001:000b7890       ??$is_wide_character_specifier@_W@__crt_stdio_output@@YA_N_K_WW4length_modifier@0@@Z 00000001800b8890 f i libucrtd:output.obj
 0001:000b7990       ??$peek_va_arg@C@__crt_stdio_output@@YACPEAD@Z 00000001800b8990 f i libucrtd:output.obj
 0001:000b7a00       ??$peek_va_arg@E@__crt_stdio_output@@YAEPEAD@Z 00000001800b8a00 f i libucrtd:output.obj
 0001:000b7a70       ??$peek_va_arg@F@__crt_stdio_output@@YAFPEAD@Z 00000001800b8a70 f i libucrtd:output.obj
 0001:000b7ae0       ??$peek_va_arg@G@__crt_stdio_output@@YAGPEAD@Z 00000001800b8ae0 f i libucrtd:output.obj
 0001:000b7b50       ??$peek_va_arg@H@__crt_stdio_output@@YAHPEAD@Z 00000001800b8b50 f i libucrtd:output.obj
 0001:000b7bc0       ??$peek_va_arg@I@__crt_stdio_output@@YAIPEAD@Z 00000001800b8bc0 f i libucrtd:output.obj
 0001:000b7c30       ??$peek_va_arg@PEAD@__crt_stdio_output@@YAPEADPEAD@Z 00000001800b8c30 f i libucrtd:output.obj
 0001:000b7ca0       ??$peek_va_arg@PEAUansi_string@?1??type_case_Z@?$output_processor@DV?$stream_output_adapter@D@__crt_stdio_output@@V?$positional_parameter_base@DV?$stream_output_adapter@D@__crt_stdio_output@@@2@@__crt_stdio_output@@AEAA_NXZ@@__crt_stdio_output@@YAPEAUansi_string@?1??type_case_Z@?$output_processor@DV?$stream_output_adapter@D@__crt_stdio_output@@V?$positional_parameter_base@DV?$stream_output_adapter@D@__crt_stdio_output@@@2@@0@AEAA_NXZ@PEAD@Z 00000001800b8ca0 f i libucrtd:output.obj
 0001:000b7d10       ??$peek_va_arg@PEAUansi_string@?1??type_case_Z@?$output_processor@DV?$string_output_adapter@D@__crt_stdio_output@@V?$positional_parameter_base@DV?$string_output_adapter@D@__crt_stdio_output@@@2@@__crt_stdio_output@@AEAA_NXZ@@__crt_stdio_output@@YAPEAUansi_string@?1??type_case_Z@?$output_processor@DV?$string_output_adapter@D@__crt_stdio_output@@V?$positional_parameter_base@DV?$string_output_adapter@D@__crt_stdio_output@@@2@@0@AEAA_NXZ@PEAD@Z 00000001800b8d10 f i libucrtd:output.obj
 0001:000b7d80       ??$peek_va_arg@PEAUansi_string@?1??type_case_Z@?$output_processor@_WV?$stream_output_adapter@_W@__crt_stdio_output@@V?$positional_parameter_base@_WV?$stream_output_adapter@_W@__crt_stdio_output@@@2@@__crt_stdio_output@@AEAA_NXZ@@__crt_stdio_output@@YAPEAUansi_string@?1??type_case_Z@?$output_processor@_WV?$stream_output_adapter@_W@__crt_stdio_output@@V?$positional_parameter_base@_WV?$stream_output_adapter@_W@__crt_stdio_output@@@2@@0@AEAA_NXZ@PEAD@Z 00000001800b8d80 f i libucrtd:output.obj
 0001:000b7df0       ??$peek_va_arg@PEAUansi_string@?1??type_case_Z@?$output_processor@_WV?$string_output_adapter@_W@__crt_stdio_output@@V?$positional_parameter_base@_WV?$string_output_adapter@_W@__crt_stdio_output@@@2@@__crt_stdio_output@@AEAA_NXZ@@__crt_stdio_output@@YAPEAUansi_string@?1??type_case_Z@?$output_processor@_WV?$string_output_adapter@_W@__crt_stdio_output@@V?$positional_parameter_base@_WV?$string_output_adapter@_W@__crt_stdio_output@@@2@@0@AEAA_NXZ@PEAD@Z 00000001800b8df0 f i libucrtd:output.obj
 0001:000b7e60       ??$peek_va_arg@PEAX@__crt_stdio_output@@YAPEAXPEAD@Z 00000001800b8e60 f i libucrtd:output.obj
 0001:000b7ed0       ??$peek_va_arg@U_CRT_DOUBLE@@@__crt_stdio_output@@YA?AU_CRT_DOUBLE@@PEAD@Z 00000001800b8ed0 f i libucrtd:output.obj
 0001:000b7f40       ??$peek_va_arg@_J@__crt_stdio_output@@YA_JPEAD@Z 00000001800b8f40 f i libucrtd:output.obj
 0001:000b7fb0       ??$peek_va_arg@_K@__crt_stdio_output@@YA_KPEAD@Z 00000001800b8fb0 f i libucrtd:output.obj
 0001:000b8020       ??$peek_va_arg@_W@__crt_stdio_output@@YA_WPEAD@Z 00000001800b9020 f i libucrtd:output.obj
 0001:000b8090       ??$puttc_nolock@AEBDPEAU_iobuf@@@?$__crt_char_traits@D@@SAHAEBD$$QEAPEAU_iobuf@@@Z 00000001800b9090 f i libucrtd:output.obj
 0001:000b80d0       ??$puttc_nolock@AEB_WPEAU_iobuf@@@?$__crt_char_traits@_W@@SAGAEB_W$$QEAPEAU_iobuf@@@Z 00000001800b90d0 f i libucrtd:output.obj
 0001:000b8110       ??$read_va_arg@C@__crt_stdio_output@@YACAEAPEAD@Z 00000001800b9110 f i libucrtd:output.obj
 0001:000b8190       ??$read_va_arg@E@__crt_stdio_output@@YAEAEAPEAD@Z 00000001800b9190 f i libucrtd:output.obj
 0001:000b8210       ??$read_va_arg@F@__crt_stdio_output@@YAFAEAPEAD@Z 00000001800b9210 f i libucrtd:output.obj
 0001:000b8290       ??$read_va_arg@G@__crt_stdio_output@@YAGAEAPEAD@Z 00000001800b9290 f i libucrtd:output.obj
 0001:000b8310       ??$read_va_arg@H@__crt_stdio_output@@YAHAEAPEAD@Z 00000001800b9310 f i libucrtd:output.obj
 0001:000b8390       ??$read_va_arg@I@__crt_stdio_output@@YAIAEAPEAD@Z 00000001800b9390 f i libucrtd:output.obj
 0001:000b8410       ??$read_va_arg@PEAD@__crt_stdio_output@@YAPEADAEAPEAD@Z 00000001800b9410 f i libucrtd:output.obj
 0001:000b8490       ??$read_va_arg@PEAUansi_string@?1??type_case_Z@?$output_processor@DV?$stream_output_adapter@D@__crt_stdio_output@@V?$format_validation_base@DV?$stream_output_adapter@D@__crt_stdio_output@@@2@@__crt_stdio_output@@AEAA_NXZ@@__crt_stdio_output@@YAPEAUansi_string@?1??type_case_Z@?$output_processor@DV?$stream_output_adapter@D@__crt_stdio_output@@V?$format_validation_base@DV?$stream_output_adapter@D@__crt_stdio_output@@@2@@0@AEAA_NXZ@AEAPEAD@Z 00000001800b9490 f i libucrtd:output.obj
 0001:000b8510       ??$read_va_arg@PEAUansi_string@?1??type_case_Z@?$output_processor@DV?$stream_output_adapter@D@__crt_stdio_output@@V?$positional_parameter_base@DV?$stream_output_adapter@D@__crt_stdio_output@@@2@@__crt_stdio_output@@AEAA_NXZ@@__crt_stdio_output@@YAPEAUansi_string@?1??type_case_Z@?$output_processor@DV?$stream_output_adapter@D@__crt_stdio_output@@V?$positional_parameter_base@DV?$stream_output_adapter@D@__crt_stdio_output@@@2@@0@AEAA_NXZ@AEAPEAD@Z 00000001800b9510 f i libucrtd:output.obj
 0001:000b8590       ??$read_va_arg@PEAUansi_string@?1??type_case_Z@?$output_processor@DV?$stream_output_adapter@D@__crt_stdio_output@@V?$standard_base@DV?$stream_output_adapter@D@__crt_stdio_output@@@2@@__crt_stdio_output@@AEAA_NXZ@@__crt_stdio_output@@YAPEAUansi_string@?1??type_case_Z@?$output_processor@DV?$stream_output_adapter@D@__crt_stdio_output@@V?$standard_base@DV?$stream_output_adapter@D@__crt_stdio_output@@@2@@0@AEAA_NXZ@AEAPEAD@Z 00000001800b9590 f i libucrtd:output.obj
 0001:000b8610       ??$read_va_arg@PEAUansi_string@?1??type_case_Z@?$output_processor@DV?$string_output_adapter@D@__crt_stdio_output@@V?$format_validation_base@DV?$string_output_adapter@D@__crt_stdio_output@@@2@@__crt_stdio_output@@AEAA_NXZ@@__crt_stdio_output@@YAPEAUansi_string@?1??type_case_Z@?$output_processor@DV?$string_output_adapter@D@__crt_stdio_output@@V?$format_validation_base@DV?$string_output_adapter@D@__crt_stdio_output@@@2@@0@AEAA_NXZ@AEAPEAD@Z 00000001800b9610 f i libucrtd:output.obj
 0001:000b8690       ??$read_va_arg@PEAUansi_string@?1??type_case_Z@?$output_processor@DV?$string_output_adapter@D@__crt_stdio_output@@V?$positional_parameter_base@DV?$string_output_adapter@D@__crt_stdio_output@@@2@@__crt_stdio_output@@AEAA_NXZ@@__crt_stdio_output@@YAPEAUansi_string@?1??type_case_Z@?$output_processor@DV?$string_output_adapter@D@__crt_stdio_output@@V?$positional_parameter_base@DV?$string_output_adapter@D@__crt_stdio_output@@@2@@0@AEAA_NXZ@AEAPEAD@Z 00000001800b9690 f i libucrtd:output.obj
 0001:000b8710       ??$read_va_arg@PEAUansi_string@?1??type_case_Z@?$output_processor@DV?$string_output_adapter@D@__crt_stdio_output@@V?$standard_base@DV?$string_output_adapter@D@__crt_stdio_output@@@2@@__crt_stdio_output@@AEAA_NXZ@@__crt_stdio_output@@YAPEAUansi_string@?1??type_case_Z@?$output_processor@DV?$string_output_adapter@D@__crt_stdio_output@@V?$standard_base@DV?$string_output_adapter@D@__crt_stdio_output@@@2@@0@AEAA_NXZ@AEAPEAD@Z 00000001800b9710 f i libucrtd:output.obj
 0001:000b8790       ??$read_va_arg@PEAUansi_string@?1??type_case_Z@?$output_processor@_WV?$stream_output_adapter@_W@__crt_stdio_output@@V?$format_validation_base@_WV?$stream_output_adapter@_W@__crt_stdio_output@@@2@@__crt_stdio_output@@AEAA_NXZ@@__crt_stdio_output@@YAPEAUansi_string@?1??type_case_Z@?$output_processor@_WV?$stream_output_adapter@_W@__crt_stdio_output@@V?$format_validation_base@_WV?$stream_output_adapter@_W@__crt_stdio_output@@@2@@0@AEAA_NXZ@AEAPEAD@Z 00000001800b9790 f i libucrtd:output.obj
 0001:000b8810       ??$read_va_arg@PEAUansi_string@?1??type_case_Z@?$output_processor@_WV?$stream_output_adapter@_W@__crt_stdio_output@@V?$positional_parameter_base@_WV?$stream_output_adapter@_W@__crt_stdio_output@@@2@@__crt_stdio_output@@AEAA_NXZ@@__crt_stdio_output@@YAPEAUansi_string@?1??type_case_Z@?$output_processor@_WV?$stream_output_adapter@_W@__crt_stdio_output@@V?$positional_parameter_base@_WV?$stream_output_adapter@_W@__crt_stdio_output@@@2@@0@AEAA_NXZ@AEAPEAD@Z 00000001800b9810 f i libucrtd:output.obj
 0001:000b8890       ??$read_va_arg@PEAUansi_string@?1??type_case_Z@?$output_processor@_WV?$stream_output_adapter@_W@__crt_stdio_output@@V?$standard_base@_WV?$stream_output_adapter@_W@__crt_stdio_output@@@2@@__crt_stdio_output@@AEAA_NXZ@@__crt_stdio_output@@YAPEAUansi_string@?1??type_case_Z@?$output_processor@_WV?$stream_output_adapter@_W@__crt_stdio_output@@V?$standard_base@_WV?$stream_output_adapter@_W@__crt_stdio_output@@@2@@0@AEAA_NXZ@AEAPEAD@Z 00000001800b9890 f i libucrtd:output.obj
 0001:000b8910       ??$read_va_arg@PEAUansi_string@?1??type_case_Z@?$output_processor@_WV?$string_output_adapter@_W@__crt_stdio_output@@V?$format_validation_base@_WV?$string_output_adapter@_W@__crt_stdio_output@@@2@@__crt_stdio_output@@AEAA_NXZ@@__crt_stdio_output@@YAPEAUansi_string@?1??type_case_Z@?$output_processor@_WV?$string_output_adapter@_W@__crt_stdio_output@@V?$format_validation_base@_WV?$string_output_adapter@_W@__crt_stdio_output@@@2@@0@AEAA_NXZ@AEAPEAD@Z 00000001800b9910 f i libucrtd:output.obj
 0001:000b8990       ??$read_va_arg@PEAUansi_string@?1??type_case_Z@?$output_processor@_WV?$string_output_adapter@_W@__crt_stdio_output@@V?$positional_parameter_base@_WV?$string_output_adapter@_W@__crt_stdio_output@@@2@@__crt_stdio_output@@AEAA_NXZ@@__crt_stdio_output@@YAPEAUansi_string@?1??type_case_Z@?$output_processor@_WV?$string_output_adapter@_W@__crt_stdio_output@@V?$positional_parameter_base@_WV?$string_output_adapter@_W@__crt_stdio_output@@@2@@0@AEAA_NXZ@AEAPEAD@Z 00000001800b9990 f i libucrtd:output.obj
 0001:000b8a10       ??$read_va_arg@PEAUansi_string@?1??type_case_Z@?$output_processor@_WV?$string_output_adapter@_W@__crt_stdio_output@@V?$standard_base@_WV?$string_output_adapter@_W@__crt_stdio_output@@@2@@__crt_stdio_output@@AEAA_NXZ@@__crt_stdio_output@@YAPEAUansi_string@?1??type_case_Z@?$output_processor@_WV?$string_output_adapter@_W@__crt_stdio_output@@V?$standard_base@_WV?$string_output_adapter@_W@__crt_stdio_output@@@2@@0@AEAA_NXZ@AEAPEAD@Z 00000001800b9a10 f i libucrtd:output.obj
 0001:000b8a90       ??$read_va_arg@PEAX@__crt_stdio_output@@YAPEAXAEAPEAD@Z 00000001800b9a90 f i libucrtd:output.obj
 0001:000b8b10       ??$read_va_arg@U_CRT_DOUBLE@@@__crt_stdio_output@@YA?AU_CRT_DOUBLE@@AEAPEAD@Z 00000001800b9b10 f i libucrtd:output.obj
 0001:000b8b90       ??$read_va_arg@_J@__crt_stdio_output@@YA_JAEAPEAD@Z 00000001800b9b90 f i libucrtd:output.obj
 0001:000b8c10       ??$read_va_arg@_K@__crt_stdio_output@@YA_KAEAPEAD@Z 00000001800b9c10 f i libucrtd:output.obj
 0001:000b8c90       ??$read_va_arg@_W@__crt_stdio_output@@YA_WAEAPEAD@Z 00000001800b9c90 f i libucrtd:output.obj
 0001:000b8d10       ??$scratch_count@D@formatting_buffer@__crt_stdio_output@@QEBA_KXZ 00000001800b9d10 f i libucrtd:output.obj
 0001:000b8d30       ??$scratch_data@D@formatting_buffer@__crt_stdio_output@@QEAAPEADXZ 00000001800b9d30 f i libucrtd:output.obj
 0001:000b8dc0       ??$tcstol@AEAPEBDPEAPEADH@?$__crt_char_traits@D@@SAJAEAPEBD$$QEAPEAPEAD$$QEAH@Z 00000001800b9dc0 f i libucrtd:output.obj
 0001:000b8e10       ??$tcstol@AEAPEB_WPEAPEA_WH@?$__crt_char_traits@_W@@SAJAEAPEB_W$$QEAPEAPEA_W$$QEAH@Z 00000001800b9e10 f i libucrtd:output.obj
 0001:000b8e60       ??$tcstol@PEBDPEAPEADH@?$__crt_char_traits@D@@SAJ$$QEAPEBD$$QEAPEAPEAD$$QEAH@Z 00000001800b9e60 f i libucrtd:output.obj
 0001:000b8eb0       ??$tcstol@PEB_WPEAPEA_WH@?$__crt_char_traits@_W@@SAJ$$QEAPEB_W$$QEAPEAPEA_W$$QEAH@Z 00000001800b9eb0 f i libucrtd:output.obj
 0001:000b8f00       ??$type_case_integer_parse_into_buffer@I@?$output_processor@DV?$stream_output_adapter@D@__crt_stdio_output@@V?$format_validation_base@DV?$stream_output_adapter@D@__crt_stdio_output@@@2@@__crt_stdio_output@@AEAAXII_N@Z 00000001800b9f00 f i libucrtd:output.obj
 0001:000b9070       ??$type_case_integer_parse_into_buffer@I@?$output_processor@DV?$stream_output_adapter@D@__crt_stdio_output@@V?$positional_parameter_base@DV?$stream_output_adapter@D@__crt_stdio_output@@@2@@__crt_stdio_output@@AEAAXII_N@Z 00000001800ba070 f i libucrtd:output.obj
 0001:000b91e0       ??$type_case_integer_parse_into_buffer@I@?$output_processor@DV?$stream_output_adapter@D@__crt_stdio_output@@V?$standard_base@DV?$stream_output_adapter@D@__crt_stdio_output@@@2@@__crt_stdio_output@@AEAAXII_N@Z 00000001800ba1e0 f i libucrtd:output.obj
 0001:000b9350       ??$type_case_integer_parse_into_buffer@I@?$output_processor@DV?$string_output_adapter@D@__crt_stdio_output@@V?$format_validation_base@DV?$string_output_adapter@D@__crt_stdio_output@@@2@@__crt_stdio_output@@AEAAXII_N@Z 00000001800ba350 f i libucrtd:output.obj
 0001:000b94c0       ??$type_case_integer_parse_into_buffer@I@?$output_processor@DV?$string_output_adapter@D@__crt_stdio_output@@V?$positional_parameter_base@DV?$string_output_adapter@D@__crt_stdio_output@@@2@@__crt_stdio_output@@AEAAXII_N@Z 00000001800ba4c0 f i libucrtd:output.obj
 0001:000b9630       ??$type_case_integer_parse_into_buffer@I@?$output_processor@DV?$string_output_adapter@D@__crt_stdio_output@@V?$standard_base@DV?$string_output_adapter@D@__crt_stdio_output@@@2@@__crt_stdio_output@@AEAAXII_N@Z 00000001800ba630 f i libucrtd:output.obj
 0001:000b97a0       ??$type_case_integer_parse_into_buffer@I@?$output_processor@_WV?$stream_output_adapter@_W@__crt_stdio_output@@V?$format_validation_base@_WV?$stream_output_adapter@_W@__crt_stdio_output@@@2@@__crt_stdio_output@@AEAAXII_N@Z 00000001800ba7a0 f i libucrtd:output.obj
 0001:000b9930       ??$type_case_integer_parse_into_buffer@I@?$output_processor@_WV?$stream_output_adapter@_W@__crt_stdio_output@@V?$positional_parameter_base@_WV?$stream_output_adapter@_W@__crt_stdio_output@@@2@@__crt_stdio_output@@AEAAXII_N@Z 00000001800ba930 f i libucrtd:output.obj
 0001:000b9ac0       ??$type_case_integer_parse_into_buffer@I@?$output_processor@_WV?$stream_output_adapter@_W@__crt_stdio_output@@V?$standard_base@_WV?$stream_output_adapter@_W@__crt_stdio_output@@@2@@__crt_stdio_output@@AEAAXII_N@Z 00000001800baac0 f i libucrtd:output.obj
 0001:000b9c50       ??$type_case_integer_parse_into_buffer@I@?$output_processor@_WV?$string_output_adapter@_W@__crt_stdio_output@@V?$format_validation_base@_WV?$string_output_adapter@_W@__crt_stdio_output@@@2@@__crt_stdio_output@@AEAAXII_N@Z 00000001800bac50 f i libucrtd:output.obj
 0001:000b9de0       ??$type_case_integer_parse_into_buffer@I@?$output_processor@_WV?$string_output_adapter@_W@__crt_stdio_output@@V?$positional_parameter_base@_WV?$string_output_adapter@_W@__crt_stdio_output@@@2@@__crt_stdio_output@@AEAAXII_N@Z 00000001800bade0 f i libucrtd:output.obj
 0001:000b9f70       ??$type_case_integer_parse_into_buffer@I@?$output_processor@_WV?$string_output_adapter@_W@__crt_stdio_output@@V?$standard_base@_WV?$string_output_adapter@_W@__crt_stdio_output@@@2@@__crt_stdio_output@@AEAAXII_N@Z 00000001800baf70 f i libucrtd:output.obj
 0001:000ba100       ??$type_case_integer_parse_into_buffer@_K@?$output_processor@DV?$stream_output_adapter@D@__crt_stdio_output@@V?$format_validation_base@DV?$stream_output_adapter@D@__crt_stdio_output@@@2@@__crt_stdio_output@@AEAAX_KI_N@Z 00000001800bb100 f i libucrtd:output.obj
 0001:000ba2a0       ??$type_case_integer_parse_into_buffer@_K@?$output_processor@DV?$stream_output_adapter@D@__crt_stdio_output@@V?$positional_parameter_base@DV?$stream_output_adapter@D@__crt_stdio_output@@@2@@__crt_stdio_output@@AEAAX_KI_N@Z 00000001800bb2a0 f i libucrtd:output.obj
 0001:000ba440       ??$type_case_integer_parse_into_buffer@_K@?$output_processor@DV?$stream_output_adapter@D@__crt_stdio_output@@V?$standard_base@DV?$stream_output_adapter@D@__crt_stdio_output@@@2@@__crt_stdio_output@@AEAAX_KI_N@Z 00000001800bb440 f i libucrtd:output.obj
 0001:000ba5e0       ??$type_case_integer_parse_into_buffer@_K@?$output_processor@DV?$string_output_adapter@D@__crt_stdio_output@@V?$format_validation_base@DV?$string_output_adapter@D@__crt_stdio_output@@@2@@__crt_stdio_output@@AEAAX_KI_N@Z 00000001800bb5e0 f i libucrtd:output.obj
 0001:000ba780       ??$type_case_integer_parse_into_buffer@_K@?$output_processor@DV?$string_output_adapter@D@__crt_stdio_output@@V?$positional_parameter_base@DV?$string_output_adapter@D@__crt_stdio_output@@@2@@__crt_stdio_output@@AEAAX_KI_N@Z 00000001800bb780 f i libucrtd:output.obj
 0001:000ba920       ??$type_case_integer_parse_into_buffer@_K@?$output_processor@DV?$string_output_adapter@D@__crt_stdio_output@@V?$standard_base@DV?$string_output_adapter@D@__crt_stdio_output@@@2@@__crt_stdio_output@@AEAAX_KI_N@Z 00000001800bb920 f i libucrtd:output.obj
 0001:000baac0       ??$type_case_integer_parse_into_buffer@_K@?$output_processor@_WV?$stream_output_adapter@_W@__crt_stdio_output@@V?$format_validation_base@_WV?$stream_output_adapter@_W@__crt_stdio_output@@@2@@__crt_stdio_output@@AEAAX_KI_N@Z 00000001800bbac0 f i libucrtd:output.obj
 0001:000bac70       ??$type_case_integer_parse_into_buffer@_K@?$output_processor@_WV?$stream_output_adapter@_W@__crt_stdio_output@@V?$positional_parameter_base@_WV?$stream_output_adapter@_W@__crt_stdio_output@@@2@@__crt_stdio_output@@AEAAX_KI_N@Z 00000001800bbc70 f i libucrtd:output.obj
 0001:000bae20       ??$type_case_integer_parse_into_buffer@_K@?$output_processor@_WV?$stream_output_adapter@_W@__crt_stdio_output@@V?$standard_base@_WV?$stream_output_adapter@_W@__crt_stdio_output@@@2@@__crt_stdio_output@@AEAAX_KI_N@Z 00000001800bbe20 f i libucrtd:output.obj
 0001:000bafd0       ??$type_case_integer_parse_into_buffer@_K@?$output_processor@_WV?$string_output_adapter@_W@__crt_stdio_output@@V?$format_validation_base@_WV?$string_output_adapter@_W@__crt_stdio_output@@@2@@__crt_stdio_output@@AEAAX_KI_N@Z 00000001800bbfd0 f i libucrtd:output.obj
 0001:000bb180       ??$type_case_integer_parse_into_buffer@_K@?$output_processor@_WV?$string_output_adapter@_W@__crt_stdio_output@@V?$positional_parameter_base@_WV?$string_output_adapter@_W@__crt_stdio_output@@@2@@__crt_stdio_output@@AEAAX_KI_N@Z 00000001800bc180 f i libucrtd:output.obj
 0001:000bb330       ??$type_case_integer_parse_into_buffer@_K@?$output_processor@_WV?$string_output_adapter@_W@__crt_stdio_output@@V?$standard_base@_WV?$string_output_adapter@_W@__crt_stdio_output@@@2@@__crt_stdio_output@@AEAAX_KI_N@Z 00000001800bc330 f i libucrtd:output.obj
 0001:000bb4e0       ??$write_multiple_characters@V?$stream_output_adapter@D@__crt_stdio_output@@D@__crt_stdio_output@@YAXAEBV?$stream_output_adapter@D@0@DHQEAH@Z 00000001800bc4e0 f i libucrtd:output.obj
 0001:000bb560       ??$write_multiple_characters@V?$stream_output_adapter@_W@__crt_stdio_output@@D@__crt_stdio_output@@YAXAEBV?$stream_output_adapter@_W@0@DHQEAH@Z 00000001800bc560 f i libucrtd:output.obj
 0001:000bb5e0       ??$write_multiple_characters@V?$string_output_adapter@D@__crt_stdio_output@@D@__crt_stdio_output@@YAXAEBV?$string_output_adapter@D@0@DHQEAH@Z 00000001800bc5e0 f i libucrtd:output.obj
 0001:000bb660       ??$write_multiple_characters@V?$string_output_adapter@_W@__crt_stdio_output@@D@__crt_stdio_output@@YAXAEBV?$string_output_adapter@_W@0@DHQEAH@Z 00000001800bc660 f i libucrtd:output.obj
 0001:000bbc20       ??0?$common_data@D@__crt_stdio_output@@IEAA@XZ 00000001800bcc20 f i libucrtd:output.obj
 0001:000bbd20       ??0?$common_data@_W@__crt_stdio_output@@IEAA@XZ 00000001800bcd20 f i libucrtd:output.obj
 0001:000bbe20       ??0?$output_adapter_data@DV?$stream_output_adapter@D@__crt_stdio_output@@@__crt_stdio_output@@IEAA@AEBV?$stream_output_adapter@D@1@_KQEBDQEAU__crt_locale_pointers@@QEAD@Z 00000001800bce20 f i libucrtd:output.obj
 0001:000bbec0       ??0?$output_adapter_data@DV?$string_output_adapter@D@__crt_stdio_output@@@__crt_stdio_output@@IEAA@AEBV?$string_output_adapter@D@1@_KQEBDQEAU__crt_locale_pointers@@QEAD@Z 00000001800bcec0 f i libucrtd:output.obj
 0001:000bbf60       ??0?$output_adapter_data@_WV?$stream_output_adapter@_W@__crt_stdio_output@@@__crt_stdio_output@@IEAA@AEBV?$stream_output_adapter@_W@1@_KQEB_WQEAU__crt_locale_pointers@@QEAD@Z 00000001800bcf60 f i libucrtd:output.obj
 0001:000bc000       ??0?$output_adapter_data@_WV?$string_output_adapter@_W@__crt_stdio_output@@@__crt_stdio_output@@IEAA@AEBV?$string_output_adapter@_W@1@_KQEB_WQEAU__crt_locale_pointers@@QEAD@Z 00000001800bd000 f i libucrtd:output.obj
 0001:000bc0a0       ??0?$output_processor@DV?$stream_output_adapter@D@__crt_stdio_output@@V?$format_validation_base@DV?$stream_output_adapter@D@__crt_stdio_output@@@2@@__crt_stdio_output@@QEAA@AEBV?$stream_output_adapter@D@1@_KQEBDQEAU__crt_locale_pointers@@QEAD@Z 00000001800bd0a0 f i libucrtd:output.obj
 0001:000bc110       ??0?$output_processor@DV?$stream_output_adapter@D@__crt_stdio_output@@V?$positional_parameter_base@DV?$stream_output_adapter@D@__crt_stdio_output@@@2@@__crt_stdio_output@@QEAA@AEBV?$stream_output_adapter@D@1@_KQEBDQEAU__crt_locale_pointers@@QEAD@Z 00000001800bd110 f i libucrtd:output.obj
 0001:000bc180       ??0?$output_processor@DV?$stream_output_adapter@D@__crt_stdio_output@@V?$standard_base@DV?$stream_output_adapter@D@__crt_stdio_output@@@2@@__crt_stdio_output@@QEAA@AEBV?$stream_output_adapter@D@1@_KQEBDQEAU__crt_locale_pointers@@QEAD@Z 00000001800bd180 f i libucrtd:output.obj
 0001:000bc1f0       ??0?$output_processor@DV?$string_output_adapter@D@__crt_stdio_output@@V?$format_validation_base@DV?$string_output_adapter@D@__crt_stdio_output@@@2@@__crt_stdio_output@@QEAA@AEBV?$string_output_adapter@D@1@_KQEBDQEAU__crt_locale_pointers@@QEAD@Z 00000001800bd1f0 f i libucrtd:output.obj
 0001:000bc260       ??0?$output_processor@DV?$string_output_adapter@D@__crt_stdio_output@@V?$positional_parameter_base@DV?$string_output_adapter@D@__crt_stdio_output@@@2@@__crt_stdio_output@@QEAA@AEBV?$string_output_adapter@D@1@_KQEBDQEAU__crt_locale_pointers@@QEAD@Z 00000001800bd260 f i libucrtd:output.obj
 0001:000bc2d0       ??0?$output_processor@DV?$string_output_adapter@D@__crt_stdio_output@@V?$standard_base@DV?$string_output_adapter@D@__crt_stdio_output@@@2@@__crt_stdio_output@@QEAA@AEBV?$string_output_adapter@D@1@_KQEBDQEAU__crt_locale_pointers@@QEAD@Z 00000001800bd2d0 f i libucrtd:output.obj
 0001:000bc340       ??0?$output_processor@_WV?$stream_output_adapter@_W@__crt_stdio_output@@V?$format_validation_base@_WV?$stream_output_adapter@_W@__crt_stdio_output@@@2@@__crt_stdio_output@@QEAA@AEBV?$stream_output_adapter@_W@1@_KQEB_WQEAU__crt_locale_pointers@@QEAD@Z 00000001800bd340 f i libucrtd:output.obj
 0001:000bc3b0       ??0?$output_processor@_WV?$stream_output_adapter@_W@__crt_stdio_output@@V?$positional_parameter_base@_WV?$stream_output_adapter@_W@__crt_stdio_output@@@2@@__crt_stdio_output@@QEAA@AEBV?$stream_output_adapter@_W@1@_KQEB_WQEAU__crt_locale_pointers@@QEAD@Z 00000001800bd3b0 f i libucrtd:output.obj
 0001:000bc420       ??0?$output_processor@_WV?$stream_output_adapter@_W@__crt_stdio_output@@V?$standard_base@_WV?$stream_output_adapter@_W@__crt_stdio_output@@@2@@__crt_stdio_output@@QEAA@AEBV?$stream_output_adapter@_W@1@_KQEB_WQEAU__crt_locale_pointers@@QEAD@Z 00000001800bd420 f i libucrtd:output.obj
 0001:000bc490       ??0?$output_processor@_WV?$string_output_adapter@_W@__crt_stdio_output@@V?$format_validation_base@_WV?$string_output_adapter@_W@__crt_stdio_output@@@2@@__crt_stdio_output@@QEAA@AEBV?$string_output_adapter@_W@1@_KQEB_WQEAU__crt_locale_pointers@@QEAD@Z 00000001800bd490 f i libucrtd:output.obj
 0001:000bc500       ??0?$output_processor@_WV?$string_output_adapter@_W@__crt_stdio_output@@V?$positional_parameter_base@_WV?$string_output_adapter@_W@__crt_stdio_output@@@2@@__crt_stdio_output@@QEAA@AEBV?$string_output_adapter@_W@1@_KQEB_WQEAU__crt_locale_pointers@@QEAD@Z 00000001800bd500 f i libucrtd:output.obj
 0001:000bc570       ??0?$output_processor@_WV?$string_output_adapter@_W@__crt_stdio_output@@V?$standard_base@_WV?$string_output_adapter@_W@__crt_stdio_output@@@2@@__crt_stdio_output@@QEAA@AEBV?$string_output_adapter@_W@1@_KQEB_WQEAU__crt_locale_pointers@@QEAD@Z 00000001800bd570 f i libucrtd:output.obj
 0001:000bc5e0       ??0?$stream_output_adapter@D@__crt_stdio_output@@QEAA@QEAU_iobuf@@@Z 00000001800bd5e0 f i libucrtd:output.obj
 0001:000bc620       ??0?$stream_output_adapter@_W@__crt_stdio_output@@QEAA@QEAU_iobuf@@@Z 00000001800bd620 f i libucrtd:output.obj
 0001:000bc660       ??0?$string_output_adapter@D@__crt_stdio_output@@QEAA@QEAU?$string_output_adapter_context@D@1@@Z 00000001800bd660 f i libucrtd:output.obj
 0001:000bc690       ??0?$string_output_adapter@_W@__crt_stdio_output@@QEAA@QEAU?$string_output_adapter_context@_W@1@@Z 00000001800bd690 f i libucrtd:output.obj
 0001:000bc6c0       ??0__acrt_stdio_temporary_buffering_guard@@QEAA@QEAU_iobuf@@@Z 00000001800bd6c0 f i libucrtd:output.obj
 0001:000bc710       ??0__crt_deferred_errno_cache@@QEAA@XZ 00000001800bd710 f i libucrtd:output.obj
 0001:000bc730       ??0__crt_errno_guard@@QEAA@QEAH@Z 00000001800bd730 f i libucrtd:output.obj
 0001:000bc780       ??0__crt_stdio_stream@@QEAA@QEAU_iobuf@@@Z 00000001800bd780 f i libucrtd:output.obj
 0001:000bc7b0       ??0formatting_buffer@__crt_stdio_output@@QEAA@XZ 00000001800bd7b0 f i libucrtd:output.obj
 0001:000bc800       ??1?$common_data@D@__crt_stdio_output@@QEAA@XZ 00000001800bd800 f i libucrtd:output.obj
 0001:000bc830       ??1?$common_data@_W@__crt_stdio_output@@QEAA@XZ 00000001800bd830 f i libucrtd:output.obj
 0001:000bc860       ??1?$format_validation_base@DV?$stream_output_adapter@D@__crt_stdio_output@@@__crt_stdio_output@@QEAA@XZ 00000001800bd860 f i libucrtd:output.obj
 0001:000bc880       ??1?$format_validation_base@DV?$string_output_adapter@D@__crt_stdio_output@@@__crt_stdio_output@@QEAA@XZ 00000001800bd880 f i libucrtd:output.obj
 0001:000bc8a0       ??1?$format_validation_base@_WV?$stream_output_adapter@_W@__crt_stdio_output@@@__crt_stdio_output@@QEAA@XZ 00000001800bd8a0 f i libucrtd:output.obj
 0001:000bc8c0       ??1?$format_validation_base@_WV?$string_output_adapter@_W@__crt_stdio_output@@@__crt_stdio_output@@QEAA@XZ 00000001800bd8c0 f i libucrtd:output.obj
 0001:000bc8e0       ??1?$output_adapter_data@DV?$stream_output_adapter@D@__crt_stdio_output@@@__crt_stdio_output@@QEAA@XZ 00000001800bd8e0 f i libucrtd:output.obj
 0001:000bc900       ??1?$output_adapter_data@DV?$string_output_adapter@D@__crt_stdio_output@@@__crt_stdio_output@@QEAA@XZ 00000001800bd900 f i libucrtd:output.obj
 0001:000bc920       ??1?$output_adapter_data@_WV?$stream_output_adapter@_W@__crt_stdio_output@@@__crt_stdio_output@@QEAA@XZ 00000001800bd920 f i libucrtd:output.obj
 0001:000bc940       ??1?$output_adapter_data@_WV?$string_output_adapter@_W@__crt_stdio_output@@@__crt_stdio_output@@QEAA@XZ 00000001800bd940 f i libucrtd:output.obj
 0001:000bc960       ??1?$output_processor@DV?$stream_output_adapter@D@__crt_stdio_output@@V?$format_validation_base@DV?$stream_output_adapter@D@__crt_stdio_output@@@2@@__crt_stdio_output@@QEAA@XZ 00000001800bd960 f i libucrtd:output.obj
 0001:000bc980       ??1?$output_processor@DV?$stream_output_adapter@D@__crt_stdio_output@@V?$positional_parameter_base@DV?$stream_output_adapter@D@__crt_stdio_output@@@2@@__crt_stdio_output@@QEAA@XZ 00000001800bd980 f i libucrtd:output.obj
 0001:000bc9a0       ??1?$output_processor@DV?$stream_output_adapter@D@__crt_stdio_output@@V?$standard_base@DV?$stream_output_adapter@D@__crt_stdio_output@@@2@@__crt_stdio_output@@QEAA@XZ 00000001800bd9a0 f i libucrtd:output.obj
 0001:000bc9c0       ??1?$output_processor@DV?$string_output_adapter@D@__crt_stdio_output@@V?$format_validation_base@DV?$string_output_adapter@D@__crt_stdio_output@@@2@@__crt_stdio_output@@QEAA@XZ 00000001800bd9c0 f i libucrtd:output.obj
 0001:000bc9e0       ??1?$output_processor@DV?$string_output_adapter@D@__crt_stdio_output@@V?$positional_parameter_base@DV?$string_output_adapter@D@__crt_stdio_output@@@2@@__crt_stdio_output@@QEAA@XZ 00000001800bd9e0 f i libucrtd:output.obj
 0001:000bca00       ??1?$output_processor@DV?$string_output_adapter@D@__crt_stdio_output@@V?$standard_base@DV?$string_output_adapter@D@__crt_stdio_output@@@2@@__crt_stdio_output@@QEAA@XZ 00000001800bda00 f i libucrtd:output.obj
 0001:000bca20       ??1?$output_processor@_WV?$stream_output_adapter@_W@__crt_stdio_output@@V?$format_validation_base@_WV?$stream_output_adapter@_W@__crt_stdio_output@@@2@@__crt_stdio_output@@QEAA@XZ 00000001800bda20 f i libucrtd:output.obj
 0001:000bca40       ??1?$output_processor@_WV?$stream_output_adapter@_W@__crt_stdio_output@@V?$positional_parameter_base@_WV?$stream_output_adapter@_W@__crt_stdio_output@@@2@@__crt_stdio_output@@QEAA@XZ 00000001800bda40 f i libucrtd:output.obj
 0001:000bca60       ??1?$output_processor@_WV?$stream_output_adapter@_W@__crt_stdio_output@@V?$standard_base@_WV?$stream_output_adapter@_W@__crt_stdio_output@@@2@@__crt_stdio_output@@QEAA@XZ 00000001800bda60 f i libucrtd:output.obj
 0001:000bca80       ??1?$output_processor@_WV?$string_output_adapter@_W@__crt_stdio_output@@V?$format_validation_base@_WV?$string_output_adapter@_W@__crt_stdio_output@@@2@@__crt_stdio_output@@QEAA@XZ 00000001800bda80 f i libucrtd:output.obj
 0001:000bcaa0       ??1?$output_processor@_WV?$string_output_adapter@_W@__crt_stdio_output@@V?$positional_parameter_base@_WV?$string_output_adapter@_W@__crt_stdio_output@@@2@@__crt_stdio_output@@QEAA@XZ 00000001800bdaa0 f i libucrtd:output.obj
 0001:000bcac0       ??1?$output_processor@_WV?$string_output_adapter@_W@__crt_stdio_output@@V?$standard_base@_WV?$string_output_adapter@_W@__crt_stdio_output@@@2@@__crt_stdio_output@@QEAA@XZ 00000001800bdac0 f i libucrtd:output.obj
 0001:000bcae0       ??1?$positional_parameter_base@DV?$stream_output_adapter@D@__crt_stdio_output@@@__crt_stdio_output@@QEAA@XZ 00000001800bdae0 f i libucrtd:output.obj
 0001:000bcb00       ??1?$positional_parameter_base@DV?$string_output_adapter@D@__crt_stdio_output@@@__crt_stdio_output@@QEAA@XZ 00000001800bdb00 f i libucrtd:output.obj
 0001:000bcb20       ??1?$positional_parameter_base@_WV?$stream_output_adapter@_W@__crt_stdio_output@@@__crt_stdio_output@@QEAA@XZ 00000001800bdb20 f i libucrtd:output.obj
 0001:000bcb40       ??1?$positional_parameter_base@_WV?$string_output_adapter@_W@__crt_stdio_output@@@__crt_stdio_output@@QEAA@XZ 00000001800bdb40 f i libucrtd:output.obj
 0001:000bcb60       ??1?$standard_base@DV?$stream_output_adapter@D@__crt_stdio_output@@@__crt_stdio_output@@QEAA@XZ 00000001800bdb60 f i libucrtd:output.obj
 0001:000bcb80       ??1?$standard_base@DV?$string_output_adapter@D@__crt_stdio_output@@@__crt_stdio_output@@QEAA@XZ 00000001800bdb80 f i libucrtd:output.obj
 0001:000bcba0       ??1?$standard_base@_WV?$stream_output_adapter@_W@__crt_stdio_output@@@__crt_stdio_output@@QEAA@XZ 00000001800bdba0 f i libucrtd:output.obj
 0001:000bcbc0       ??1?$standard_base@_WV?$string_output_adapter@_W@__crt_stdio_output@@@__crt_stdio_output@@QEAA@XZ 00000001800bdbc0 f i libucrtd:output.obj
 0001:000bcbe0       ??1__acrt_stdio_temporary_buffering_guard@@QEAA@XZ 00000001800bdbe0 f i libucrtd:output.obj
 0001:000bcc10       ??1__crt_errno_guard@@QEAA@XZ 00000001800bdc10 f i libucrtd:output.obj
 0001:000bcc50       ??1formatting_buffer@__crt_stdio_output@@QEAA@XZ 00000001800bdc50 f i libucrtd:output.obj
 0001:000bcc80       ??4?$__crt_unique_heap_ptr@DU__crt_internal_free_policy@@@@QEAAAEAV0@$$QEAV0@@Z 00000001800bdc80 f i libucrtd:output.obj
 0001:000bccd0       ??A?$spectre_mitigated_lookup_table@Ustate_transition_pair@__crt_stdio_output@@$0IA@@__crt_stdio_output@@QEBAAEBUstate_transition_pair@1@_K@Z 00000001800bdcd0 f i libucrtd:output.obj
 0001:000bcd00       ??C__crt_stdio_stream@@QEBAPEAU__crt_stdio_stream_data@@XZ 00000001800bdd00 f i libucrtd:output.obj
 0001:000bd860       ?adjust_hexit@?$output_processor@DV?$stream_output_adapter@D@__crt_stdio_output@@V?$format_validation_base@DV?$stream_output_adapter@D@__crt_stdio_output@@@2@@__crt_stdio_output@@CADH_N@Z 00000001800be860 f i libucrtd:output.obj
 0001:000bd8c0       ?adjust_hexit@?$output_processor@DV?$stream_output_adapter@D@__crt_stdio_output@@V?$positional_parameter_base@DV?$stream_output_adapter@D@__crt_stdio_output@@@2@@__crt_stdio_output@@CADH_N@Z 00000001800be8c0 f i libucrtd:output.obj
 0001:000bd920       ?adjust_hexit@?$output_processor@DV?$stream_output_adapter@D@__crt_stdio_output@@V?$standard_base@DV?$stream_output_adapter@D@__crt_stdio_output@@@2@@__crt_stdio_output@@CADH_N@Z 00000001800be920 f i libucrtd:output.obj
 0001:000bd980       ?adjust_hexit@?$output_processor@DV?$string_output_adapter@D@__crt_stdio_output@@V?$format_validation_base@DV?$string_output_adapter@D@__crt_stdio_output@@@2@@__crt_stdio_output@@CADH_N@Z 00000001800be980 f i libucrtd:output.obj
 0001:000bd9e0       ?adjust_hexit@?$output_processor@DV?$string_output_adapter@D@__crt_stdio_output@@V?$positional_parameter_base@DV?$string_output_adapter@D@__crt_stdio_output@@@2@@__crt_stdio_output@@CADH_N@Z 00000001800be9e0 f i libucrtd:output.obj
 0001:000bda40       ?adjust_hexit@?$output_processor@DV?$string_output_adapter@D@__crt_stdio_output@@V?$standard_base@DV?$string_output_adapter@D@__crt_stdio_output@@@2@@__crt_stdio_output@@CADH_N@Z 00000001800bea40 f i libucrtd:output.obj
 0001:000bdaa0       ?adjust_hexit@?$output_processor@_WV?$stream_output_adapter@_W@__crt_stdio_output@@V?$format_validation_base@_WV?$stream_output_adapter@_W@__crt_stdio_output@@@2@@__crt_stdio_output@@CADH_N@Z 00000001800beaa0 f i libucrtd:output.obj
 0001:000bdb00       ?adjust_hexit@?$output_processor@_WV?$stream_output_adapter@_W@__crt_stdio_output@@V?$positional_parameter_base@_WV?$stream_output_adapter@_W@__crt_stdio_output@@@2@@__crt_stdio_output@@CADH_N@Z 00000001800beb00 f i libucrtd:output.obj
 0001:000bdb60       ?adjust_hexit@?$output_processor@_WV?$stream_output_adapter@_W@__crt_stdio_output@@V?$standard_base@_WV?$stream_output_adapter@_W@__crt_stdio_output@@@2@@__crt_stdio_output@@CADH_N@Z 00000001800beb60 f i libucrtd:output.obj
 0001:000bdbc0       ?adjust_hexit@?$output_processor@_WV?$string_output_adapter@_W@__crt_stdio_output@@V?$format_validation_base@_WV?$string_output_adapter@_W@__crt_stdio_output@@@2@@__crt_stdio_output@@CADH_N@Z 00000001800bebc0 f i libucrtd:output.obj
 0001:000bdc20       ?adjust_hexit@?$output_processor@_WV?$string_output_adapter@_W@__crt_stdio_output@@V?$positional_parameter_base@_WV?$string_output_adapter@_W@__crt_stdio_output@@@2@@__crt_stdio_output@@CADH_N@Z 00000001800bec20 f i libucrtd:output.obj
 0001:000bdc80       ?adjust_hexit@?$output_processor@_WV?$string_output_adapter@_W@__crt_stdio_output@@V?$standard_base@_WV?$string_output_adapter@_W@__crt_stdio_output@@@2@@__crt_stdio_output@@CADH_N@Z 00000001800bec80 f i libucrtd:output.obj
 0001:000bdce0       ?advance_to_next_pass@?$positional_parameter_base@DV?$stream_output_adapter@D@__crt_stdio_output@@@__crt_stdio_output@@IEAA_NXZ 00000001800bece0 f i libucrtd:output.obj
 0001:000bddc0       ?advance_to_next_pass@?$positional_parameter_base@DV?$string_output_adapter@D@__crt_stdio_output@@@__crt_stdio_output@@IEAA_NXZ 00000001800bedc0 f i libucrtd:output.obj
 0001:000bdea0       ?advance_to_next_pass@?$positional_parameter_base@_WV?$stream_output_adapter@_W@__crt_stdio_output@@@__crt_stdio_output@@IEAA_NXZ 00000001800beea0 f i libucrtd:output.obj
 0001:000bdf80       ?advance_to_next_pass@?$positional_parameter_base@_WV?$string_output_adapter@_W@__crt_stdio_output@@@__crt_stdio_output@@IEAA_NXZ 00000001800bef80 f i libucrtd:output.obj
 0001:000be060       ?advance_to_next_pass@?$standard_base@DV?$stream_output_adapter@D@__crt_stdio_output@@@__crt_stdio_output@@IEAA_NXZ 00000001800bf060 f i libucrtd:output.obj
 0001:000be0c0       ?advance_to_next_pass@?$standard_base@DV?$string_output_adapter@D@__crt_stdio_output@@@__crt_stdio_output@@IEAA_NXZ 00000001800bf0c0 f i libucrtd:output.obj
 0001:000be120       ?advance_to_next_pass@?$standard_base@_WV?$stream_output_adapter@_W@__crt_stdio_output@@@__crt_stdio_output@@IEAA_NXZ 00000001800bf120 f i libucrtd:output.obj
 0001:000be180       ?advance_to_next_pass@?$standard_base@_WV?$string_output_adapter@_W@__crt_stdio_output@@@__crt_stdio_output@@IEAA_NXZ 00000001800bf180 f i libucrtd:output.obj
 0001:000be1e0       ?crop_zeroes@__crt_stdio_output@@YAXPEADQEAU__crt_locale_pointers@@@Z 00000001800bf1e0 f i libucrtd:output.obj
 0001:000be370       ?find_next_state@?$output_processor@DV?$stream_output_adapter@D@__crt_stdio_output@@V?$format_validation_base@DV?$stream_output_adapter@D@__crt_stdio_output@@@2@@__crt_stdio_output@@AEBA?AW4state@2@DW432@@Z 00000001800bf370 f i libucrtd:output.obj
 0001:000be420       ?find_next_state@?$output_processor@DV?$stream_output_adapter@D@__crt_stdio_output@@V?$positional_parameter_base@DV?$stream_output_adapter@D@__crt_stdio_output@@@2@@__crt_stdio_output@@AEBA?AW4state@2@DW432@@Z 00000001800bf420 f i libucrtd:output.obj
 0001:000be4d0       ?find_next_state@?$output_processor@DV?$stream_output_adapter@D@__crt_stdio_output@@V?$standard_base@DV?$stream_output_adapter@D@__crt_stdio_output@@@2@@__crt_stdio_output@@AEBA?AW4state@2@DW432@@Z 00000001800bf4d0 f i libucrtd:output.obj
 0001:000be580       ?find_next_state@?$output_processor@DV?$string_output_adapter@D@__crt_stdio_output@@V?$format_validation_base@DV?$string_output_adapter@D@__crt_stdio_output@@@2@@__crt_stdio_output@@AEBA?AW4state@2@DW432@@Z 00000001800bf580 f i libucrtd:output.obj
 0001:000be630       ?find_next_state@?$output_processor@DV?$string_output_adapter@D@__crt_stdio_output@@V?$positional_parameter_base@DV?$string_output_adapter@D@__crt_stdio_output@@@2@@__crt_stdio_output@@AEBA?AW4state@2@DW432@@Z 00000001800bf630 f i libucrtd:output.obj
 0001:000be6e0       ?find_next_state@?$output_processor@DV?$string_output_adapter@D@__crt_stdio_output@@V?$standard_base@DV?$string_output_adapter@D@__crt_stdio_output@@@2@@__crt_stdio_output@@AEBA?AW4state@2@DW432@@Z 00000001800bf6e0 f i libucrtd:output.obj
 0001:000be790       ?find_next_state@?$output_processor@_WV?$stream_output_adapter@_W@__crt_stdio_output@@V?$format_validation_base@_WV?$stream_output_adapter@_W@__crt_stdio_output@@@2@@__crt_stdio_output@@AEBA?AW4state@2@_WW432@@Z 00000001800bf790 f i libucrtd:output.obj
 0001:000be850       ?find_next_state@?$output_processor@_WV?$stream_output_adapter@_W@__crt_stdio_output@@V?$positional_parameter_base@_WV?$stream_output_adapter@_W@__crt_stdio_output@@@2@@__crt_stdio_output@@AEBA?AW4state@2@_WW432@@Z 00000001800bf850 f i libucrtd:output.obj
 0001:000be910       ?find_next_state@?$output_processor@_WV?$stream_output_adapter@_W@__crt_stdio_output@@V?$standard_base@_WV?$stream_output_adapter@_W@__crt_stdio_output@@@2@@__crt_stdio_output@@AEBA?AW4state@2@_WW432@@Z 00000001800bf910 f i libucrtd:output.obj
 0001:000be9d0       ?find_next_state@?$output_processor@_WV?$string_output_adapter@_W@__crt_stdio_output@@V?$format_validation_base@_WV?$string_output_adapter@_W@__crt_stdio_output@@@2@@__crt_stdio_output@@AEBA?AW4state@2@_WW432@@Z 00000001800bf9d0 f i libucrtd:output.obj
 0001:000bea90       ?find_next_state@?$output_processor@_WV?$string_output_adapter@_W@__crt_stdio_output@@V?$positional_parameter_base@_WV?$string_output_adapter@_W@__crt_stdio_output@@@2@@__crt_stdio_output@@AEBA?AW4state@2@_WW432@@Z 00000001800bfa90 f i libucrtd:output.obj
 0001:000beb50       ?find_next_state@?$output_processor@_WV?$string_output_adapter@_W@__crt_stdio_output@@V?$standard_base@_WV?$string_output_adapter@_W@__crt_stdio_output@@@2@@__crt_stdio_output@@AEBA?AW4state@2@_WW432@@Z 00000001800bfb50 f i libucrtd:output.obj
 0001:000bec10       ?force_decimal_point@__crt_stdio_output@@YAXPEADQEAU__crt_locale_pointers@@@Z 00000001800bfc10 f i libucrtd:output.obj
 0001:000bed40       ?get@__crt_deferred_errno_cache@@QEAAAEAHXZ 00000001800bfd40 f i libucrtd:output.obj
 0001:000bed80       ?get_flags@__crt_stdio_stream@@QEBAJXZ 00000001800bfd80 f i libucrtd:output.obj
 0001:000bedb0       ?get_parameter_type@?$positional_parameter_base@DV?$stream_output_adapter@D@__crt_stdio_output@@@__crt_stdio_output@@CA?AW4parameter_type@12@F@Z 00000001800bfdb0 f i libucrtd:output.obj
 0001:000bedc0       ?get_parameter_type@?$positional_parameter_base@DV?$stream_output_adapter@D@__crt_stdio_output@@@__crt_stdio_output@@CA?AW4parameter_type@12@G@Z 00000001800bfdc0 f i libucrtd:output.obj
 0001:000bedd0       ?get_parameter_type@?$positional_parameter_base@DV?$stream_output_adapter@D@__crt_stdio_output@@@__crt_stdio_output@@CA?AW4parameter_type@12@H@Z 00000001800bfdd0 f i libucrtd:output.obj
 0001:000bede0       ?get_parameter_type@?$positional_parameter_base@DV?$stream_output_adapter@D@__crt_stdio_output@@@__crt_stdio_output@@CA?AW4parameter_type@12@I@Z 00000001800bfde0 f i libucrtd:output.obj
 0001:000bedf0       ?get_parameter_type@?$positional_parameter_base@DV?$stream_output_adapter@D@__crt_stdio_output@@@__crt_stdio_output@@CA?AW4parameter_type@12@U_CRT_DOUBLE@@@Z 00000001800bfdf0 f i libucrtd:output.obj
 0001:000bee00       ?get_parameter_type@?$positional_parameter_base@DV?$stream_output_adapter@D@__crt_stdio_output@@@__crt_stdio_output@@CA?AW4parameter_type@12@_J@Z 00000001800bfe00 f i libucrtd:output.obj
 0001:000bee10       ?get_parameter_type@?$positional_parameter_base@DV?$stream_output_adapter@D@__crt_stdio_output@@@__crt_stdio_output@@CA?AW4parameter_type@12@_K@Z 00000001800bfe10 f i libucrtd:output.obj
 0001:000bee20       ?get_parameter_type@?$positional_parameter_base@DV?$stream_output_adapter@D@__crt_stdio_output@@@__crt_stdio_output@@CA?AW4parameter_type@12@_W@Z 00000001800bfe20 f i libucrtd:output.obj
 0001:000bee30       ?get_parameter_type@?$positional_parameter_base@DV?$string_output_adapter@D@__crt_stdio_output@@@__crt_stdio_output@@CA?AW4parameter_type@12@F@Z 00000001800bfe30 f i libucrtd:output.obj
 0001:000bee40       ?get_parameter_type@?$positional_parameter_base@DV?$string_output_adapter@D@__crt_stdio_output@@@__crt_stdio_output@@CA?AW4parameter_type@12@G@Z 00000001800bfe40 f i libucrtd:output.obj
 0001:000bee50       ?get_parameter_type@?$positional_parameter_base@DV?$string_output_adapter@D@__crt_stdio_output@@@__crt_stdio_output@@CA?AW4parameter_type@12@H@Z 00000001800bfe50 f i libucrtd:output.obj
 0001:000bee60       ?get_parameter_type@?$positional_parameter_base@DV?$string_output_adapter@D@__crt_stdio_output@@@__crt_stdio_output@@CA?AW4parameter_type@12@I@Z 00000001800bfe60 f i libucrtd:output.obj
 0001:000bee70       ?get_parameter_type@?$positional_parameter_base@DV?$string_output_adapter@D@__crt_stdio_output@@@__crt_stdio_output@@CA?AW4parameter_type@12@U_CRT_DOUBLE@@@Z 00000001800bfe70 f i libucrtd:output.obj
 0001:000bee80       ?get_parameter_type@?$positional_parameter_base@DV?$string_output_adapter@D@__crt_stdio_output@@@__crt_stdio_output@@CA?AW4parameter_type@12@_J@Z 00000001800bfe80 f i libucrtd:output.obj
 0001:000bee90       ?get_parameter_type@?$positional_parameter_base@DV?$string_output_adapter@D@__crt_stdio_output@@@__crt_stdio_output@@CA?AW4parameter_type@12@_K@Z 00000001800bfe90 f i libucrtd:output.obj
 0001:000beea0       ?get_parameter_type@?$positional_parameter_base@DV?$string_output_adapter@D@__crt_stdio_output@@@__crt_stdio_output@@CA?AW4parameter_type@12@_W@Z 00000001800bfea0 f i libucrtd:output.obj
 0001:000beeb0       ?get_parameter_type@?$positional_parameter_base@_WV?$stream_output_adapter@_W@__crt_stdio_output@@@__crt_stdio_output@@CA?AW4parameter_type@12@F@Z 00000001800bfeb0 f i libucrtd:output.obj
 0001:000beec0       ?get_parameter_type@?$positional_parameter_base@_WV?$stream_output_adapter@_W@__crt_stdio_output@@@__crt_stdio_output@@CA?AW4parameter_type@12@G@Z 00000001800bfec0 f i libucrtd:output.obj
 0001:000beed0       ?get_parameter_type@?$positional_parameter_base@_WV?$stream_output_adapter@_W@__crt_stdio_output@@@__crt_stdio_output@@CA?AW4parameter_type@12@H@Z 00000001800bfed0 f i libucrtd:output.obj
 0001:000beee0       ?get_parameter_type@?$positional_parameter_base@_WV?$stream_output_adapter@_W@__crt_stdio_output@@@__crt_stdio_output@@CA?AW4parameter_type@12@I@Z 00000001800bfee0 f i libucrtd:output.obj
 0001:000beef0       ?get_parameter_type@?$positional_parameter_base@_WV?$stream_output_adapter@_W@__crt_stdio_output@@@__crt_stdio_output@@CA?AW4parameter_type@12@U_CRT_DOUBLE@@@Z 00000001800bfef0 f i libucrtd:output.obj
 0001:000bef00       ?get_parameter_type@?$positional_parameter_base@_WV?$stream_output_adapter@_W@__crt_stdio_output@@@__crt_stdio_output@@CA?AW4parameter_type@12@_J@Z 00000001800bff00 f i libucrtd:output.obj
 0001:000bef10       ?get_parameter_type@?$positional_parameter_base@_WV?$stream_output_adapter@_W@__crt_stdio_output@@@__crt_stdio_output@@CA?AW4parameter_type@12@_K@Z 00000001800bff10 f i libucrtd:output.obj
 0001:000bef20       ?get_parameter_type@?$positional_parameter_base@_WV?$stream_output_adapter@_W@__crt_stdio_output@@@__crt_stdio_output@@CA?AW4parameter_type@12@_W@Z 00000001800bff20 f i libucrtd:output.obj
 0001:000bef30       ?get_parameter_type@?$positional_parameter_base@_WV?$string_output_adapter@_W@__crt_stdio_output@@@__crt_stdio_output@@CA?AW4parameter_type@12@F@Z 00000001800bff30 f i libucrtd:output.obj
 0001:000bef40       ?get_parameter_type@?$positional_parameter_base@_WV?$string_output_adapter@_W@__crt_stdio_output@@@__crt_stdio_output@@CA?AW4parameter_type@12@G@Z 00000001800bff40 f i libucrtd:output.obj
 0001:000bef50       ?get_parameter_type@?$positional_parameter_base@_WV?$string_output_adapter@_W@__crt_stdio_output@@@__crt_stdio_output@@CA?AW4parameter_type@12@H@Z 00000001800bff50 f i libucrtd:output.obj
 0001:000bef60       ?get_parameter_type@?$positional_parameter_base@_WV?$string_output_adapter@_W@__crt_stdio_output@@@__crt_stdio_output@@CA?AW4parameter_type@12@I@Z 00000001800bff60 f i libucrtd:output.obj
 0001:000bef70       ?get_parameter_type@?$positional_parameter_base@_WV?$string_output_adapter@_W@__crt_stdio_output@@@__crt_stdio_output@@CA?AW4parameter_type@12@U_CRT_DOUBLE@@@Z 00000001800bff70 f i libucrtd:output.obj
 0001:000bef80       ?get_parameter_type@?$positional_parameter_base@_WV?$string_output_adapter@_W@__crt_stdio_output@@@__crt_stdio_output@@CA?AW4parameter_type@12@_J@Z 00000001800bff80 f i libucrtd:output.obj
 0001:000bef90       ?get_parameter_type@?$positional_parameter_base@_WV?$string_output_adapter@_W@__crt_stdio_output@@@__crt_stdio_output@@CA?AW4parameter_type@12@_K@Z 00000001800bff90 f i libucrtd:output.obj
 0001:000befa0       ?get_parameter_type@?$positional_parameter_base@_WV?$string_output_adapter@_W@__crt_stdio_output@@@__crt_stdio_output@@CA?AW4parameter_type@12@_W@Z 00000001800bffa0 f i libucrtd:output.obj
 0001:000befb0       ?has_flag@?$output_processor@DV?$stream_output_adapter@D@__crt_stdio_output@@V?$format_validation_base@DV?$stream_output_adapter@D@__crt_stdio_output@@@2@@__crt_stdio_output@@AEBA_NI@Z 00000001800bffb0 f i libucrtd:output.obj
 0001:000bf000       ?has_flag@?$output_processor@DV?$stream_output_adapter@D@__crt_stdio_output@@V?$positional_parameter_base@DV?$stream_output_adapter@D@__crt_stdio_output@@@2@@__crt_stdio_output@@AEBA_NI@Z 00000001800c0000 f i libucrtd:output.obj
 0001:000bf050       ?has_flag@?$output_processor@DV?$stream_output_adapter@D@__crt_stdio_output@@V?$standard_base@DV?$stream_output_adapter@D@__crt_stdio_output@@@2@@__crt_stdio_output@@AEBA_NI@Z 00000001800c0050 f i libucrtd:output.obj
 0001:000bf0a0       ?has_flag@?$output_processor@DV?$string_output_adapter@D@__crt_stdio_output@@V?$format_validation_base@DV?$string_output_adapter@D@__crt_stdio_output@@@2@@__crt_stdio_output@@AEBA_NI@Z 00000001800c00a0 f i libucrtd:output.obj
 0001:000bf0f0       ?has_flag@?$output_processor@DV?$string_output_adapter@D@__crt_stdio_output@@V?$positional_parameter_base@DV?$string_output_adapter@D@__crt_stdio_output@@@2@@__crt_stdio_output@@AEBA_NI@Z 00000001800c00f0 f i libucrtd:output.obj
 0001:000bf140       ?has_flag@?$output_processor@DV?$string_output_adapter@D@__crt_stdio_output@@V?$standard_base@DV?$string_output_adapter@D@__crt_stdio_output@@@2@@__crt_stdio_output@@AEBA_NI@Z 00000001800c0140 f i libucrtd:output.obj
 0001:000bf190       ?has_flag@?$output_processor@_WV?$stream_output_adapter@_W@__crt_stdio_output@@V?$format_validation_base@_WV?$stream_output_adapter@_W@__crt_stdio_output@@@2@@__crt_stdio_output@@AEBA_NI@Z 00000001800c0190 f i libucrtd:output.obj
 0001:000bf1e0       ?has_flag@?$output_processor@_WV?$stream_output_adapter@_W@__crt_stdio_output@@V?$positional_parameter_base@_WV?$stream_output_adapter@_W@__crt_stdio_output@@@2@@__crt_stdio_output@@AEBA_NI@Z 00000001800c01e0 f i libucrtd:output.obj
 0001:000bf230       ?has_flag@?$output_processor@_WV?$stream_output_adapter@_W@__crt_stdio_output@@V?$standard_base@_WV?$stream_output_adapter@_W@__crt_stdio_output@@@2@@__crt_stdio_output@@AEBA_NI@Z 00000001800c0230 f i libucrtd:output.obj
 0001:000bf280       ?has_flag@?$output_processor@_WV?$string_output_adapter@_W@__crt_stdio_output@@V?$format_validation_base@_WV?$string_output_adapter@_W@__crt_stdio_output@@@2@@__crt_stdio_output@@AEBA_NI@Z 00000001800c0280 f i libucrtd:output.obj
 0001:000bf2d0       ?has_flag@?$output_processor@_WV?$string_output_adapter@_W@__crt_stdio_output@@V?$positional_parameter_base@_WV?$string_output_adapter@_W@__crt_stdio_output@@@2@@__crt_stdio_output@@AEBA_NI@Z 00000001800c02d0 f i libucrtd:output.obj
 0001:000bf320       ?has_flag@?$output_processor@_WV?$string_output_adapter@_W@__crt_stdio_output@@V?$standard_base@_WV?$string_output_adapter@_W@__crt_stdio_output@@@2@@__crt_stdio_output@@AEBA_NI@Z 00000001800c0320 f i libucrtd:output.obj
 0001:000bf370       ?is_positional_parameter_reappearance_consistent@?$positional_parameter_base@DV?$stream_output_adapter@D@__crt_stdio_output@@@__crt_stdio_output@@AEAA_NAEBUparameter_data@12@W4parameter_type@12@DW4length_modifier@2@@Z 00000001800c0370 f i libucrtd:output.obj
 0001:000bf660       ?is_positional_parameter_reappearance_consistent@?$positional_parameter_base@DV?$string_output_adapter@D@__crt_stdio_output@@@__crt_stdio_output@@AEAA_NAEBUparameter_data@12@W4parameter_type@12@DW4length_modifier@2@@Z 00000001800c0660 f i libucrtd:output.obj
 0001:000bf950       ?is_positional_parameter_reappearance_consistent@?$positional_parameter_base@_WV?$stream_output_adapter@_W@__crt_stdio_output@@@__crt_stdio_output@@AEAA_NAEBUparameter_data@12@W4parameter_type@12@_WW4length_modifier@2@@Z 00000001800c0950 f i libucrtd:output.obj
 0001:000bfc40       ?is_positional_parameter_reappearance_consistent@?$positional_parameter_base@_WV?$string_output_adapter@_W@__crt_stdio_output@@@__crt_stdio_output@@AEAA_NAEBUparameter_data@12@W4parameter_type@12@_WW4length_modifier@2@@Z 00000001800c0c40 f i libucrtd:output.obj
 0001:000bff30       ?is_string_backed@__crt_stdio_stream@@QEBA_NXZ 00000001800c0f30 f i libucrtd:output.obj
 0001:000bff80       ?narrow_null_string@?$output_processor@DV?$stream_output_adapter@D@__crt_stdio_output@@V?$format_validation_base@DV?$stream_output_adapter@D@__crt_stdio_output@@@2@@__crt_stdio_output@@CAPEADXZ 00000001800c0f80 f i libucrtd:output.obj
 0001:000bff90       ?narrow_null_string@?$output_processor@DV?$stream_output_adapter@D@__crt_stdio_output@@V?$positional_parameter_base@DV?$stream_output_adapter@D@__crt_stdio_output@@@2@@__crt_stdio_output@@CAPEADXZ 00000001800c0f90 f i libucrtd:output.obj
 0001:000bffa0       ?narrow_null_string@?$output_processor@DV?$stream_output_adapter@D@__crt_stdio_output@@V?$standard_base@DV?$stream_output_adapter@D@__crt_stdio_output@@@2@@__crt_stdio_output@@CAPEADXZ 00000001800c0fa0 f i libucrtd:output.obj
 0001:000bffb0       ?narrow_null_string@?$output_processor@DV?$string_output_adapter@D@__crt_stdio_output@@V?$format_validation_base@DV?$string_output_adapter@D@__crt_stdio_output@@@2@@__crt_stdio_output@@CAPEADXZ 00000001800c0fb0 f i libucrtd:output.obj
 0001:000bffc0       ?narrow_null_string@?$output_processor@DV?$string_output_adapter@D@__crt_stdio_output@@V?$positional_parameter_base@DV?$string_output_adapter@D@__crt_stdio_output@@@2@@__crt_stdio_output@@CAPEADXZ 00000001800c0fc0 f i libucrtd:output.obj
 0001:000bffd0       ?narrow_null_string@?$output_processor@DV?$string_output_adapter@D@__crt_stdio_output@@V?$standard_base@DV?$string_output_adapter@D@__crt_stdio_output@@@2@@__crt_stdio_output@@CAPEADXZ 00000001800c0fd0 f i libucrtd:output.obj
 0001:000bffe0       ?narrow_null_string@?$output_processor@_WV?$stream_output_adapter@_W@__crt_stdio_output@@V?$format_validation_base@_WV?$stream_output_adapter@_W@__crt_stdio_output@@@2@@__crt_stdio_output@@CAPEADXZ 00000001800c0fe0 f i libucrtd:output.obj
 0001:000bfff0       ?narrow_null_string@?$output_processor@_WV?$stream_output_adapter@_W@__crt_stdio_output@@V?$positional_parameter_base@_WV?$stream_output_adapter@_W@__crt_stdio_output@@@2@@__crt_stdio_output@@CAPEADXZ 00000001800c0ff0 f i libucrtd:output.obj
 0001:000c0000       ?narrow_null_string@?$output_processor@_WV?$stream_output_adapter@_W@__crt_stdio_output@@V?$standard_base@_WV?$stream_output_adapter@_W@__crt_stdio_output@@@2@@__crt_stdio_output@@CAPEADXZ 00000001800c1000 f i libucrtd:output.obj
 0001:000c0010       ?narrow_null_string@?$output_processor@_WV?$string_output_adapter@_W@__crt_stdio_output@@V?$format_validation_base@_WV?$string_output_adapter@_W@__crt_stdio_output@@@2@@__crt_stdio_output@@CAPEADXZ 00000001800c1010 f i libucrtd:output.obj
 0001:000c0020       ?narrow_null_string@?$output_processor@_WV?$string_output_adapter@_W@__crt_stdio_output@@V?$positional_parameter_base@_WV?$string_output_adapter@_W@__crt_stdio_output@@@2@@__crt_stdio_output@@CAPEADXZ 00000001800c1020 f i libucrtd:output.obj
 0001:000c0030       ?narrow_null_string@?$output_processor@_WV?$string_output_adapter@_W@__crt_stdio_output@@V?$standard_base@_WV?$string_output_adapter@_W@__crt_stdio_output@@@2@@__crt_stdio_output@@CAPEADXZ 00000001800c1030 f i libucrtd:output.obj
 0001:000c0040       ?parse_int_from_format_string@?$output_processor@DV?$stream_output_adapter@D@__crt_stdio_output@@V?$format_validation_base@DV?$stream_output_adapter@D@__crt_stdio_output@@@2@@__crt_stdio_output@@AEAA_NQEAH@Z 00000001800c1040 f i libucrtd:output.obj
 0001:000c0170       ?parse_int_from_format_string@?$output_processor@DV?$stream_output_adapter@D@__crt_stdio_output@@V?$positional_parameter_base@DV?$stream_output_adapter@D@__crt_stdio_output@@@2@@__crt_stdio_output@@AEAA_NQEAH@Z 00000001800c1170 f i libucrtd:output.obj
 0001:000c02a0       ?parse_int_from_format_string@?$output_processor@DV?$stream_output_adapter@D@__crt_stdio_output@@V?$standard_base@DV?$stream_output_adapter@D@__crt_stdio_output@@@2@@__crt_stdio_output@@AEAA_NQEAH@Z 00000001800c12a0 f i libucrtd:output.obj
 0001:000c03d0       ?parse_int_from_format_string@?$output_processor@DV?$string_output_adapter@D@__crt_stdio_output@@V?$format_validation_base@DV?$string_output_adapter@D@__crt_stdio_output@@@2@@__crt_stdio_output@@AEAA_NQEAH@Z 00000001800c13d0 f i libucrtd:output.obj
 0001:000c0500       ?parse_int_from_format_string@?$output_processor@DV?$string_output_adapter@D@__crt_stdio_output@@V?$positional_parameter_base@DV?$string_output_adapter@D@__crt_stdio_output@@@2@@__crt_stdio_output@@AEAA_NQEAH@Z 00000001800c1500 f i libucrtd:output.obj
 0001:000c0630       ?parse_int_from_format_string@?$output_processor@DV?$string_output_adapter@D@__crt_stdio_output@@V?$standard_base@DV?$string_output_adapter@D@__crt_stdio_output@@@2@@__crt_stdio_output@@AEAA_NQEAH@Z 00000001800c1630 f i libucrtd:output.obj
 0001:000c0760       ?parse_int_from_format_string@?$output_processor@_WV?$stream_output_adapter@_W@__crt_stdio_output@@V?$format_validation_base@_WV?$stream_output_adapter@_W@__crt_stdio_output@@@2@@__crt_stdio_output@@AEAA_NQEAH@Z 00000001800c1760 f i libucrtd:output.obj
 0001:000c0890       ?parse_int_from_format_string@?$output_processor@_WV?$stream_output_adapter@_W@__crt_stdio_output@@V?$positional_parameter_base@_WV?$stream_output_adapter@_W@__crt_stdio_output@@@2@@__crt_stdio_output@@AEAA_NQEAH@Z 00000001800c1890 f i libucrtd:output.obj
 0001:000c09c0       ?parse_int_from_format_string@?$output_processor@_WV?$stream_output_adapter@_W@__crt_stdio_output@@V?$standard_base@_WV?$stream_output_adapter@_W@__crt_stdio_output@@@2@@__crt_stdio_output@@AEAA_NQEAH@Z 00000001800c19c0 f i libucrtd:output.obj
 0001:000c0af0       ?parse_int_from_format_string@?$output_processor@_WV?$string_output_adapter@_W@__crt_stdio_output@@V?$format_validation_base@_WV?$string_output_adapter@_W@__crt_stdio_output@@@2@@__crt_stdio_output@@AEAA_NQEAH@Z 00000001800c1af0 f i libucrtd:output.obj
 0001:000c0c20       ?parse_int_from_format_string@?$output_processor@_WV?$string_output_adapter@_W@__crt_stdio_output@@V?$positional_parameter_base@_WV?$string_output_adapter@_W@__crt_stdio_output@@@2@@__crt_stdio_output@@AEAA_NQEAH@Z 00000001800c1c20 f i libucrtd:output.obj
 0001:000c0d50       ?parse_int_from_format_string@?$output_processor@_WV?$string_output_adapter@_W@__crt_stdio_output@@V?$standard_base@_WV?$string_output_adapter@_W@__crt_stdio_output@@@2@@__crt_stdio_output@@AEAA_NQEAH@Z 00000001800c1d50 f i libucrtd:output.obj
 0001:000c0e80       ?process@?$output_processor@DV?$stream_output_adapter@D@__crt_stdio_output@@V?$format_validation_base@DV?$stream_output_adapter@D@__crt_stdio_output@@@2@@__crt_stdio_output@@QEAAHXZ 00000001800c1e80 f i libucrtd:output.obj
 0001:000c12c0       ?process@?$output_processor@DV?$stream_output_adapter@D@__crt_stdio_output@@V?$positional_parameter_base@DV?$stream_output_adapter@D@__crt_stdio_output@@@2@@__crt_stdio_output@@QEAAHXZ 00000001800c22c0 f i libucrtd:output.obj
 0001:000c1700       ?process@?$output_processor@DV?$stream_output_adapter@D@__crt_stdio_output@@V?$standard_base@DV?$stream_output_adapter@D@__crt_stdio_output@@@2@@__crt_stdio_output@@QEAAHXZ 00000001800c2700 f i libucrtd:output.obj
 0001:000c1b40       ?process@?$output_processor@DV?$string_output_adapter@D@__crt_stdio_output@@V?$format_validation_base@DV?$string_output_adapter@D@__crt_stdio_output@@@2@@__crt_stdio_output@@QEAAHXZ 00000001800c2b40 f i libucrtd:output.obj
 0001:000c1f80       ?process@?$output_processor@DV?$string_output_adapter@D@__crt_stdio_output@@V?$positional_parameter_base@DV?$string_output_adapter@D@__crt_stdio_output@@@2@@__crt_stdio_output@@QEAAHXZ 00000001800c2f80 f i libucrtd:output.obj
 0001:000c23c0       ?process@?$output_processor@DV?$string_output_adapter@D@__crt_stdio_output@@V?$standard_base@DV?$string_output_adapter@D@__crt_stdio_output@@@2@@__crt_stdio_output@@QEAAHXZ 00000001800c33c0 f i libucrtd:output.obj
 0001:000c2800       ?process@?$output_processor@_WV?$stream_output_adapter@_W@__crt_stdio_output@@V?$format_validation_base@_WV?$stream_output_adapter@_W@__crt_stdio_output@@@2@@__crt_stdio_output@@QEAAHXZ 00000001800c3800 f i libucrtd:output.obj
 0001:000c2c40       ?process@?$output_processor@_WV?$stream_output_adapter@_W@__crt_stdio_output@@V?$positional_parameter_base@_WV?$stream_output_adapter@_W@__crt_stdio_output@@@2@@__crt_stdio_output@@QEAAHXZ 00000001800c3c40 f i libucrtd:output.obj
 0001:000c3080       ?process@?$output_processor@_WV?$stream_output_adapter@_W@__crt_stdio_output@@V?$standard_base@_WV?$stream_output_adapter@_W@__crt_stdio_output@@@2@@__crt_stdio_output@@QEAAHXZ 00000001800c4080 f i libucrtd:output.obj
 0001:000c34c0       ?process@?$output_processor@_WV?$string_output_adapter@_W@__crt_stdio_output@@V?$format_validation_base@_WV?$string_output_adapter@_W@__crt_stdio_output@@@2@@__crt_stdio_output@@QEAAHXZ 00000001800c44c0 f i libucrtd:output.obj
 0001:000c3900       ?process@?$output_processor@_WV?$string_output_adapter@_W@__crt_stdio_output@@V?$positional_parameter_base@_WV?$string_output_adapter@_W@__crt_stdio_output@@@2@@__crt_stdio_output@@QEAAHXZ 00000001800c4900 f i libucrtd:output.obj
 0001:000c3d40       ?process@?$output_processor@_WV?$string_output_adapter@_W@__crt_stdio_output@@V?$standard_base@_WV?$string_output_adapter@_W@__crt_stdio_output@@@2@@__crt_stdio_output@@QEAAHXZ 00000001800c4d40 f i libucrtd:output.obj
 0001:000c4180       ?public_stream@__crt_stdio_stream@@QEBAPEAU_iobuf@@XZ 00000001800c5180 f i libucrtd:output.obj
 0001:000c41a0       ?set_flag@?$output_processor@DV?$stream_output_adapter@D@__crt_stdio_output@@V?$format_validation_base@DV?$stream_output_adapter@D@__crt_stdio_output@@@2@@__crt_stdio_output@@AEAAXI@Z 00000001800c51a0 f i libucrtd:output.obj
 0001:000c41d0       ?set_flag@?$output_processor@DV?$stream_output_adapter@D@__crt_stdio_output@@V?$positional_parameter_base@DV?$stream_output_adapter@D@__crt_stdio_output@@@2@@__crt_stdio_output@@AEAAXI@Z 00000001800c51d0 f i libucrtd:output.obj
 0001:000c4200       ?set_flag@?$output_processor@DV?$stream_output_adapter@D@__crt_stdio_output@@V?$standard_base@DV?$stream_output_adapter@D@__crt_stdio_output@@@2@@__crt_stdio_output@@AEAAXI@Z 00000001800c5200 f i libucrtd:output.obj
 0001:000c4230       ?set_flag@?$output_processor@DV?$string_output_adapter@D@__crt_stdio_output@@V?$format_validation_base@DV?$string_output_adapter@D@__crt_stdio_output@@@2@@__crt_stdio_output@@AEAAXI@Z 00000001800c5230 f i libucrtd:output.obj
 0001:000c4260       ?set_flag@?$output_processor@DV?$string_output_adapter@D@__crt_stdio_output@@V?$positional_parameter_base@DV?$string_output_adapter@D@__crt_stdio_output@@@2@@__crt_stdio_output@@AEAAXI@Z 00000001800c5260 f i libucrtd:output.obj
 0001:000c4290       ?set_flag@?$output_processor@DV?$string_output_adapter@D@__crt_stdio_output@@V?$standard_base@DV?$string_output_adapter@D@__crt_stdio_output@@@2@@__crt_stdio_output@@AEAAXI@Z 00000001800c5290 f i libucrtd:output.obj
 0001:000c42c0       ?set_flag@?$output_processor@_WV?$stream_output_adapter@_W@__crt_stdio_output@@V?$format_validation_base@_WV?$stream_output_adapter@_W@__crt_stdio_output@@@2@@__crt_stdio_output@@AEAAXI@Z 00000001800c52c0 f i libucrtd:output.obj
 0001:000c42f0       ?set_flag@?$output_processor@_WV?$stream_output_adapter@_W@__crt_stdio_output@@V?$positional_parameter_base@_WV?$stream_output_adapter@_W@__crt_stdio_output@@@2@@__crt_stdio_output@@AEAAXI@Z 00000001800c52f0 f i libucrtd:output.obj
 0001:000c4320       ?set_flag@?$output_processor@_WV?$stream_output_adapter@_W@__crt_stdio_output@@V?$standard_base@_WV?$stream_output_adapter@_W@__crt_stdio_output@@@2@@__crt_stdio_output@@AEAAXI@Z 00000001800c5320 f i libucrtd:output.obj
 0001:000c4350       ?set_flag@?$output_processor@_WV?$string_output_adapter@_W@__crt_stdio_output@@V?$format_validation_base@_WV?$string_output_adapter@_W@__crt_stdio_output@@@2@@__crt_stdio_output@@AEAAXI@Z 00000001800c5350 f i libucrtd:output.obj
 0001:000c4380       ?set_flag@?$output_processor@_WV?$string_output_adapter@_W@__crt_stdio_output@@V?$positional_parameter_base@_WV?$string_output_adapter@_W@__crt_stdio_output@@@2@@__crt_stdio_output@@AEAAXI@Z 00000001800c5380 f i libucrtd:output.obj
 0001:000c43b0       ?set_flag@?$output_processor@_WV?$string_output_adapter@_W@__crt_stdio_output@@V?$standard_base@_WV?$string_output_adapter@_W@__crt_stdio_output@@@2@@__crt_stdio_output@@AEAAXI@Z 00000001800c53b0 f i libucrtd:output.obj
 0001:000c43e0       ?should_format@?$positional_parameter_base@DV?$stream_output_adapter@D@__crt_stdio_output@@@__crt_stdio_output@@IEAA_NXZ 00000001800c53e0 f i libucrtd:output.obj
 0001:000c4430       ?should_format@?$positional_parameter_base@DV?$string_output_adapter@D@__crt_stdio_output@@@__crt_stdio_output@@IEAA_NXZ 00000001800c5430 f i libucrtd:output.obj
 0001:000c4480       ?should_format@?$positional_parameter_base@_WV?$stream_output_adapter@_W@__crt_stdio_output@@@__crt_stdio_output@@IEAA_NXZ 00000001800c5480 f i libucrtd:output.obj
 0001:000c44d0       ?should_format@?$positional_parameter_base@_WV?$string_output_adapter@_W@__crt_stdio_output@@@__crt_stdio_output@@IEAA_NXZ 00000001800c54d0 f i libucrtd:output.obj
 0001:000c4520       ?should_format@?$standard_base@DV?$stream_output_adapter@D@__crt_stdio_output@@@__crt_stdio_output@@IEAA_NXZ 00000001800c5520 f i libucrtd:output.obj
 0001:000c4530       ?should_format@?$standard_base@DV?$string_output_adapter@D@__crt_stdio_output@@@__crt_stdio_output@@IEAA_NXZ 00000001800c5530 f i libucrtd:output.obj
 0001:000c4540       ?should_format@?$standard_base@_WV?$stream_output_adapter@_W@__crt_stdio_output@@@__crt_stdio_output@@IEAA_NXZ 00000001800c5540 f i libucrtd:output.obj
 0001:000c4550       ?should_format@?$standard_base@_WV?$string_output_adapter@_W@__crt_stdio_output@@@__crt_stdio_output@@IEAA_NXZ 00000001800c5550 f i libucrtd:output.obj
 0001:000c4560       ?should_skip_normal_state_processing@?$positional_parameter_base@DV?$stream_output_adapter@D@__crt_stdio_output@@@__crt_stdio_output@@IEAA_NXZ 00000001800c5560 f i libucrtd:output.obj
 0001:000c45c0       ?should_skip_normal_state_processing@?$positional_parameter_base@DV?$string_output_adapter@D@__crt_stdio_output@@@__crt_stdio_output@@IEAA_NXZ 00000001800c55c0 f i libucrtd:output.obj
 0001:000c4620       ?should_skip_normal_state_processing@?$positional_parameter_base@_WV?$stream_output_adapter@_W@__crt_stdio_output@@@__crt_stdio_output@@IEAA_NXZ 00000001800c5620 f i libucrtd:output.obj
 0001:000c4680       ?should_skip_normal_state_processing@?$positional_parameter_base@_WV?$string_output_adapter@_W@__crt_stdio_output@@@__crt_stdio_output@@IEAA_NXZ 00000001800c5680 f i libucrtd:output.obj
 0001:000c46e0       ?should_skip_normal_state_processing@?$standard_base@DV?$stream_output_adapter@D@__crt_stdio_output@@@__crt_stdio_output@@IEAA_NXZ 00000001800c56e0 f i libucrtd:output.obj
 0001:000c46f0       ?should_skip_normal_state_processing@?$standard_base@DV?$string_output_adapter@D@__crt_stdio_output@@@__crt_stdio_output@@IEAA_NXZ 00000001800c56f0 f i libucrtd:output.obj
 0001:000c4700       ?should_skip_normal_state_processing@?$standard_base@_WV?$stream_output_adapter@_W@__crt_stdio_output@@@__crt_stdio_output@@IEAA_NXZ 00000001800c5700 f i libucrtd:output.obj
 0001:000c4710       ?should_skip_normal_state_processing@?$standard_base@_WV?$string_output_adapter@_W@__crt_stdio_output@@@__crt_stdio_output@@IEAA_NXZ 00000001800c5710 f i libucrtd:output.obj
 0001:000c4720       ?should_skip_type_state_output@?$positional_parameter_base@DV?$stream_output_adapter@D@__crt_stdio_output@@@__crt_stdio_output@@IEBA_NXZ 00000001800c5720 f i libucrtd:output.obj
 0001:000c4770       ?should_skip_type_state_output@?$positional_parameter_base@DV?$string_output_adapter@D@__crt_stdio_output@@@__crt_stdio_output@@IEBA_NXZ 00000001800c5770 f i libucrtd:output.obj
 0001:000c47c0       ?should_skip_type_state_output@?$positional_parameter_base@_WV?$stream_output_adapter@_W@__crt_stdio_output@@@__crt_stdio_output@@IEBA_NXZ 00000001800c57c0 f i libucrtd:output.obj
 0001:000c4810       ?should_skip_type_state_output@?$positional_parameter_base@_WV?$string_output_adapter@_W@__crt_stdio_output@@@__crt_stdio_output@@IEBA_NXZ 00000001800c5810 f i libucrtd:output.obj
 0001:000c4860       ?should_skip_type_state_output@?$standard_base@DV?$stream_output_adapter@D@__crt_stdio_output@@@__crt_stdio_output@@IEBA_NXZ 00000001800c5860 f i libucrtd:output.obj
 0001:000c4870       ?should_skip_type_state_output@?$standard_base@DV?$string_output_adapter@D@__crt_stdio_output@@@__crt_stdio_output@@IEBA_NXZ 00000001800c5870 f i libucrtd:output.obj
 0001:000c4880       ?should_skip_type_state_output@?$standard_base@_WV?$stream_output_adapter@_W@__crt_stdio_output@@@__crt_stdio_output@@IEBA_NXZ 00000001800c5880 f i libucrtd:output.obj
 0001:000c4890       ?should_skip_type_state_output@?$standard_base@_WV?$string_output_adapter@_W@__crt_stdio_output@@@__crt_stdio_output@@IEBA_NXZ 00000001800c5890 f i libucrtd:output.obj
 0001:000c48a0       ?state_case_dot@?$output_processor@DV?$stream_output_adapter@D@__crt_stdio_output@@V?$format_validation_base@DV?$stream_output_adapter@D@__crt_stdio_output@@@2@@__crt_stdio_output@@AEAA_NXZ 00000001800c58a0 f i libucrtd:output.obj
 0001:000c48c0       ?state_case_dot@?$output_processor@DV?$stream_output_adapter@D@__crt_stdio_output@@V?$positional_parameter_base@DV?$stream_output_adapter@D@__crt_stdio_output@@@2@@__crt_stdio_output@@AEAA_NXZ 00000001800c58c0 f i libucrtd:output.obj
 0001:000c48e0       ?state_case_dot@?$output_processor@DV?$stream_output_adapter@D@__crt_stdio_output@@V?$standard_base@DV?$stream_output_adapter@D@__crt_stdio_output@@@2@@__crt_stdio_output@@AEAA_NXZ 00000001800c58e0 f i libucrtd:output.obj
 0001:000c4900       ?state_case_dot@?$output_processor@DV?$string_output_adapter@D@__crt_stdio_output@@V?$format_validation_base@DV?$string_output_adapter@D@__crt_stdio_output@@@2@@__crt_stdio_output@@AEAA_NXZ 00000001800c5900 f i libucrtd:output.obj
 0001:000c4920       ?state_case_dot@?$output_processor@DV?$string_output_adapter@D@__crt_stdio_output@@V?$positional_parameter_base@DV?$string_output_adapter@D@__crt_stdio_output@@@2@@__crt_stdio_output@@AEAA_NXZ 00000001800c5920 f i libucrtd:output.obj
 0001:000c4940       ?state_case_dot@?$output_processor@DV?$string_output_adapter@D@__crt_stdio_output@@V?$standard_base@DV?$string_output_adapter@D@__crt_stdio_output@@@2@@__crt_stdio_output@@AEAA_NXZ 00000001800c5940 f i libucrtd:output.obj
 0001:000c4960       ?state_case_dot@?$output_processor@_WV?$stream_output_adapter@_W@__crt_stdio_output@@V?$format_validation_base@_WV?$stream_output_adapter@_W@__crt_stdio_output@@@2@@__crt_stdio_output@@AEAA_NXZ 00000001800c5960 f i libucrtd:output.obj
 0001:000c4980       ?state_case_dot@?$output_processor@_WV?$stream_output_adapter@_W@__crt_stdio_output@@V?$positional_parameter_base@_WV?$stream_output_adapter@_W@__crt_stdio_output@@@2@@__crt_stdio_output@@AEAA_NXZ 00000001800c5980 f i libucrtd:output.obj
 0001:000c49a0       ?state_case_dot@?$output_processor@_WV?$stream_output_adapter@_W@__crt_stdio_output@@V?$standard_base@_WV?$stream_output_adapter@_W@__crt_stdio_output@@@2@@__crt_stdio_output@@AEAA_NXZ 00000001800c59a0 f i libucrtd:output.obj
 0001:000c49c0       ?state_case_dot@?$output_processor@_WV?$string_output_adapter@_W@__crt_stdio_output@@V?$format_validation_base@_WV?$string_output_adapter@_W@__crt_stdio_output@@@2@@__crt_stdio_output@@AEAA_NXZ 00000001800c59c0 f i libucrtd:output.obj
 0001:000c49e0       ?state_case_dot@?$output_processor@_WV?$string_output_adapter@_W@__crt_stdio_output@@V?$positional_parameter_base@_WV?$string_output_adapter@_W@__crt_stdio_output@@@2@@__crt_stdio_output@@AEAA_NXZ 00000001800c59e0 f i libucrtd:output.obj
 0001:000c4a00       ?state_case_dot@?$output_processor@_WV?$string_output_adapter@_W@__crt_stdio_output@@V?$standard_base@_WV?$string_output_adapter@_W@__crt_stdio_output@@@2@@__crt_stdio_output@@AEAA_NXZ 00000001800c5a00 f i libucrtd:output.obj
 0001:000c4a20       ?state_case_flag@?$output_processor@DV?$stream_output_adapter@D@__crt_stdio_output@@V?$format_validation_base@DV?$stream_output_adapter@D@__crt_stdio_output@@@2@@__crt_stdio_output@@AEAA_NXZ 00000001800c5a20 f i libucrtd:output.obj
 0001:000c4ae0       ?state_case_flag@?$output_processor@DV?$stream_output_adapter@D@__crt_stdio_output@@V?$positional_parameter_base@DV?$stream_output_adapter@D@__crt_stdio_output@@@2@@__crt_stdio_output@@AEAA_NXZ 00000001800c5ae0 f i libucrtd:output.obj
 0001:000c4ba0       ?state_case_flag@?$output_processor@DV?$stream_output_adapter@D@__crt_stdio_output@@V?$standard_base@DV?$stream_output_adapter@D@__crt_stdio_output@@@2@@__crt_stdio_output@@AEAA_NXZ 00000001800c5ba0 f i libucrtd:output.obj
 0001:000c4c60       ?state_case_flag@?$output_processor@DV?$string_output_adapter@D@__crt_stdio_output@@V?$format_validation_base@DV?$string_output_adapter@D@__crt_stdio_output@@@2@@__crt_stdio_output@@AEAA_NXZ 00000001800c5c60 f i libucrtd:output.obj
 0001:000c4d20       ?state_case_flag@?$output_processor@DV?$string_output_adapter@D@__crt_stdio_output@@V?$positional_parameter_base@DV?$string_output_adapter@D@__crt_stdio_output@@@2@@__crt_stdio_output@@AEAA_NXZ 00000001800c5d20 f i libucrtd:output.obj
 0001:000c4de0       ?state_case_flag@?$output_processor@DV?$string_output_adapter@D@__crt_stdio_output@@V?$standard_base@DV?$string_output_adapter@D@__crt_stdio_output@@@2@@__crt_stdio_output@@AEAA_NXZ 00000001800c5de0 f i libucrtd:output.obj
 0001:000c4ea0       ?state_case_flag@?$output_processor@_WV?$stream_output_adapter@_W@__crt_stdio_output@@V?$format_validation_base@_WV?$stream_output_adapter@_W@__crt_stdio_output@@@2@@__crt_stdio_output@@AEAA_NXZ 00000001800c5ea0 f i libucrtd:output.obj
 0001:000c4f60       ?state_case_flag@?$output_processor@_WV?$stream_output_adapter@_W@__crt_stdio_output@@V?$positional_parameter_base@_WV?$stream_output_adapter@_W@__crt_stdio_output@@@2@@__crt_stdio_output@@AEAA_NXZ 00000001800c5f60 f i libucrtd:output.obj
 0001:000c5020       ?state_case_flag@?$output_processor@_WV?$stream_output_adapter@_W@__crt_stdio_output@@V?$standard_base@_WV?$stream_output_adapter@_W@__crt_stdio_output@@@2@@__crt_stdio_output@@AEAA_NXZ 00000001800c6020 f i libucrtd:output.obj
 0001:000c50e0       ?state_case_flag@?$output_processor@_WV?$string_output_adapter@_W@__crt_stdio_output@@V?$format_validation_base@_WV?$string_output_adapter@_W@__crt_stdio_output@@@2@@__crt_stdio_output@@AEAA_NXZ 00000001800c60e0 f i libucrtd:output.obj
 0001:000c51a0       ?state_case_flag@?$output_processor@_WV?$string_output_adapter@_W@__crt_stdio_output@@V?$positional_parameter_base@_WV?$string_output_adapter@_W@__crt_stdio_output@@@2@@__crt_stdio_output@@AEAA_NXZ 00000001800c61a0 f i libucrtd:output.obj
 0001:000c5260       ?state_case_flag@?$output_processor@_WV?$string_output_adapter@_W@__crt_stdio_output@@V?$standard_base@_WV?$string_output_adapter@_W@__crt_stdio_output@@@2@@__crt_stdio_output@@AEAA_NXZ 00000001800c6260 f i libucrtd:output.obj
 0001:000c5320       ?state_case_normal@?$output_processor@DV?$stream_output_adapter@D@__crt_stdio_output@@V?$format_validation_base@DV?$stream_output_adapter@D@__crt_stdio_output@@@2@@__crt_stdio_output@@AEAA_NXZ 00000001800c6320 f i libucrtd:output.obj
 0001:000c5430       ?state_case_normal@?$output_processor@DV?$stream_output_adapter@D@__crt_stdio_output@@V?$positional_parameter_base@DV?$stream_output_adapter@D@__crt_stdio_output@@@2@@__crt_stdio_output@@AEAA_NXZ 00000001800c6430 f i libucrtd:output.obj
 0001:000c5540       ?state_case_normal@?$output_processor@DV?$stream_output_adapter@D@__crt_stdio_output@@V?$standard_base@DV?$stream_output_adapter@D@__crt_stdio_output@@@2@@__crt_stdio_output@@AEAA_NXZ 00000001800c6540 f i libucrtd:output.obj
 0001:000c5650       ?state_case_normal@?$output_processor@DV?$string_output_adapter@D@__crt_stdio_output@@V?$format_validation_base@DV?$string_output_adapter@D@__crt_stdio_output@@@2@@__crt_stdio_output@@AEAA_NXZ 00000001800c6650 f i libucrtd:output.obj
 0001:000c5760       ?state_case_normal@?$output_processor@DV?$string_output_adapter@D@__crt_stdio_output@@V?$positional_parameter_base@DV?$string_output_adapter@D@__crt_stdio_output@@@2@@__crt_stdio_output@@AEAA_NXZ 00000001800c6760 f i libucrtd:output.obj
 0001:000c5870       ?state_case_normal@?$output_processor@DV?$string_output_adapter@D@__crt_stdio_output@@V?$standard_base@DV?$string_output_adapter@D@__crt_stdio_output@@@2@@__crt_stdio_output@@AEAA_NXZ 00000001800c6870 f i libucrtd:output.obj
 0001:000c5980       ?state_case_normal@?$output_processor@_WV?$stream_output_adapter@_W@__crt_stdio_output@@V?$format_validation_base@_WV?$stream_output_adapter@_W@__crt_stdio_output@@@2@@__crt_stdio_output@@AEAA_NXZ 00000001800c6980 f i libucrtd:output.obj
 0001:000c5a90       ?state_case_normal@?$output_processor@_WV?$stream_output_adapter@_W@__crt_stdio_output@@V?$positional_parameter_base@_WV?$stream_output_adapter@_W@__crt_stdio_output@@@2@@__crt_stdio_output@@AEAA_NXZ 00000001800c6a90 f i libucrtd:output.obj
 0001:000c5ba0       ?state_case_normal@?$output_processor@_WV?$stream_output_adapter@_W@__crt_stdio_output@@V?$standard_base@_WV?$stream_output_adapter@_W@__crt_stdio_output@@@2@@__crt_stdio_output@@AEAA_NXZ 00000001800c6ba0 f i libucrtd:output.obj
 0001:000c5cb0       ?state_case_normal@?$output_processor@_WV?$string_output_adapter@_W@__crt_stdio_output@@V?$format_validation_base@_WV?$string_output_adapter@_W@__crt_stdio_output@@@2@@__crt_stdio_output@@AEAA_NXZ 00000001800c6cb0 f i libucrtd:output.obj
 0001:000c5dc0       ?state_case_normal@?$output_processor@_WV?$string_output_adapter@_W@__crt_stdio_output@@V?$positional_parameter_base@_WV?$string_output_adapter@_W@__crt_stdio_output@@@2@@__crt_stdio_output@@AEAA_NXZ 00000001800c6dc0 f i libucrtd:output.obj
 0001:000c5ed0       ?state_case_normal@?$output_processor@_WV?$string_output_adapter@_W@__crt_stdio_output@@V?$standard_base@_WV?$string_output_adapter@_W@__crt_stdio_output@@@2@@__crt_stdio_output@@AEAA_NXZ 00000001800c6ed0 f i libucrtd:output.obj
 0001:000c5fe0       ?state_case_normal_common@?$output_processor@DV?$stream_output_adapter@D@__crt_stdio_output@@V?$format_validation_base@DV?$stream_output_adapter@D@__crt_stdio_output@@@2@@__crt_stdio_output@@AEAA_NXZ 00000001800c6fe0 f i libucrtd:output.obj
 0001:000c6040       ?state_case_normal_common@?$output_processor@DV?$stream_output_adapter@D@__crt_stdio_output@@V?$positional_parameter_base@DV?$stream_output_adapter@D@__crt_stdio_output@@@2@@__crt_stdio_output@@AEAA_NXZ 00000001800c7040 f i libucrtd:output.obj
 0001:000c60a0       ?state_case_normal_common@?$output_processor@DV?$stream_output_adapter@D@__crt_stdio_output@@V?$standard_base@DV?$stream_output_adapter@D@__crt_stdio_output@@@2@@__crt_stdio_output@@AEAA_NXZ 00000001800c70a0 f i libucrtd:output.obj
 0001:000c6100       ?state_case_normal_common@?$output_processor@DV?$string_output_adapter@D@__crt_stdio_output@@V?$format_validation_base@DV?$string_output_adapter@D@__crt_stdio_output@@@2@@__crt_stdio_output@@AEAA_NXZ 00000001800c7100 f i libucrtd:output.obj
 0001:000c6160       ?state_case_normal_common@?$output_processor@DV?$string_output_adapter@D@__crt_stdio_output@@V?$positional_parameter_base@DV?$string_output_adapter@D@__crt_stdio_output@@@2@@__crt_stdio_output@@AEAA_NXZ 00000001800c7160 f i libucrtd:output.obj
 0001:000c61c0       ?state_case_normal_common@?$output_processor@DV?$string_output_adapter@D@__crt_stdio_output@@V?$standard_base@DV?$string_output_adapter@D@__crt_stdio_output@@@2@@__crt_stdio_output@@AEAA_NXZ 00000001800c71c0 f i libucrtd:output.obj
 0001:000c6220       ?state_case_normal_common@?$output_processor@_WV?$stream_output_adapter@_W@__crt_stdio_output@@V?$format_validation_base@_WV?$stream_output_adapter@_W@__crt_stdio_output@@@2@@__crt_stdio_output@@AEAA_NXZ 00000001800c7220 f i libucrtd:output.obj
 0001:000c6280       ?state_case_normal_common@?$output_processor@_WV?$stream_output_adapter@_W@__crt_stdio_output@@V?$positional_parameter_base@_WV?$stream_output_adapter@_W@__crt_stdio_output@@@2@@__crt_stdio_output@@AEAA_NXZ 00000001800c7280 f i libucrtd:output.obj
 0001:000c62e0       ?state_case_normal_common@?$output_processor@_WV?$stream_output_adapter@_W@__crt_stdio_output@@V?$standard_base@_WV?$stream_output_adapter@_W@__crt_stdio_output@@@2@@__crt_stdio_output@@AEAA_NXZ 00000001800c72e0 f i libucrtd:output.obj
 0001:000c6340       ?state_case_normal_common@?$output_processor@_WV?$string_output_adapter@_W@__crt_stdio_output@@V?$format_validation_base@_WV?$string_output_adapter@_W@__crt_stdio_output@@@2@@__crt_stdio_output@@AEAA_NXZ 00000001800c7340 f i libucrtd:output.obj
 0001:000c63a0       ?state_case_normal_common@?$output_processor@_WV?$string_output_adapter@_W@__crt_stdio_output@@V?$positional_parameter_base@_WV?$string_output_adapter@_W@__crt_stdio_output@@@2@@__crt_stdio_output@@AEAA_NXZ 00000001800c73a0 f i libucrtd:output.obj
 0001:000c6400       ?state_case_normal_common@?$output_processor@_WV?$string_output_adapter@_W@__crt_stdio_output@@V?$standard_base@_WV?$string_output_adapter@_W@__crt_stdio_output@@@2@@__crt_stdio_output@@AEAA_NXZ 00000001800c7400 f i libucrtd:output.obj
 0001:000c6460       ?state_case_normal_tchar@?$output_processor@DV?$stream_output_adapter@D@__crt_stdio_output@@V?$format_validation_base@DV?$stream_output_adapter@D@__crt_stdio_output@@@2@@__crt_stdio_output@@AEAA_ND@Z 00000001800c7460 f i libucrtd:output.obj
 0001:000c65f0       ?state_case_normal_tchar@?$output_processor@DV?$stream_output_adapter@D@__crt_stdio_output@@V?$positional_parameter_base@DV?$stream_output_adapter@D@__crt_stdio_output@@@2@@__crt_stdio_output@@AEAA_ND@Z 00000001800c75f0 f i libucrtd:output.obj
 0001:000c6780       ?state_case_normal_tchar@?$output_processor@DV?$stream_output_adapter@D@__crt_stdio_output@@V?$standard_base@DV?$stream_output_adapter@D@__crt_stdio_output@@@2@@__crt_stdio_output@@AEAA_ND@Z 00000001800c7780 f i libucrtd:output.obj
 0001:000c6910       ?state_case_normal_tchar@?$output_processor@DV?$string_output_adapter@D@__crt_stdio_output@@V?$format_validation_base@DV?$string_output_adapter@D@__crt_stdio_output@@@2@@__crt_stdio_output@@AEAA_ND@Z 00000001800c7910 f i libucrtd:output.obj
 0001:000c6aa0       ?state_case_normal_tchar@?$output_processor@DV?$string_output_adapter@D@__crt_stdio_output@@V?$positional_parameter_base@DV?$string_output_adapter@D@__crt_stdio_output@@@2@@__crt_stdio_output@@AEAA_ND@Z 00000001800c7aa0 f i libucrtd:output.obj
 0001:000c6c30       ?state_case_normal_tchar@?$output_processor@DV?$string_output_adapter@D@__crt_stdio_output@@V?$standard_base@DV?$string_output_adapter@D@__crt_stdio_output@@@2@@__crt_stdio_output@@AEAA_ND@Z 00000001800c7c30 f i libucrtd:output.obj
 0001:000c6dc0       ?state_case_normal_tchar@?$output_processor@_WV?$stream_output_adapter@_W@__crt_stdio_output@@V?$format_validation_base@_WV?$stream_output_adapter@_W@__crt_stdio_output@@@2@@__crt_stdio_output@@AEAA_N_W@Z 00000001800c7dc0 f i libucrtd:output.obj
 0001:000c6de0       ?state_case_normal_tchar@?$output_processor@_WV?$stream_output_adapter@_W@__crt_stdio_output@@V?$positional_parameter_base@_WV?$stream_output_adapter@_W@__crt_stdio_output@@@2@@__crt_stdio_output@@AEAA_N_W@Z 00000001800c7de0 f i libucrtd:output.obj
 0001:000c6e00       ?state_case_normal_tchar@?$output_processor@_WV?$stream_output_adapter@_W@__crt_stdio_output@@V?$standard_base@_WV?$stream_output_adapter@_W@__crt_stdio_output@@@2@@__crt_stdio_output@@AEAA_N_W@Z 00000001800c7e00 f i libucrtd:output.obj
 0001:000c6e20       ?state_case_normal_tchar@?$output_processor@_WV?$string_output_adapter@_W@__crt_stdio_output@@V?$format_validation_base@_WV?$string_output_adapter@_W@__crt_stdio_output@@@2@@__crt_stdio_output@@AEAA_N_W@Z 00000001800c7e20 f i libucrtd:output.obj
 0001:000c6e40       ?state_case_normal_tchar@?$output_processor@_WV?$string_output_adapter@_W@__crt_stdio_output@@V?$positional_parameter_base@_WV?$string_output_adapter@_W@__crt_stdio_output@@@2@@__crt_stdio_output@@AEAA_N_W@Z 00000001800c7e40 f i libucrtd:output.obj
 0001:000c6e60       ?state_case_normal_tchar@?$output_processor@_WV?$string_output_adapter@_W@__crt_stdio_output@@V?$standard_base@_WV?$string_output_adapter@_W@__crt_stdio_output@@@2@@__crt_stdio_output@@AEAA_N_W@Z 00000001800c7e60 f i libucrtd:output.obj
 0001:000c6e80       ?state_case_percent@?$output_processor@DV?$stream_output_adapter@D@__crt_stdio_output@@V?$format_validation_base@DV?$stream_output_adapter@D@__crt_stdio_output@@@2@@__crt_stdio_output@@AEAA_NXZ 00000001800c7e80 f i libucrtd:output.obj
 0001:000c6ee0       ?state_case_percent@?$output_processor@DV?$stream_output_adapter@D@__crt_stdio_output@@V?$positional_parameter_base@DV?$stream_output_adapter@D@__crt_stdio_output@@@2@@__crt_stdio_output@@AEAA_NXZ 00000001800c7ee0 f i libucrtd:output.obj
 0001:000c6f40       ?state_case_percent@?$output_processor@DV?$stream_output_adapter@D@__crt_stdio_output@@V?$standard_base@DV?$stream_output_adapter@D@__crt_stdio_output@@@2@@__crt_stdio_output@@AEAA_NXZ 00000001800c7f40 f i libucrtd:output.obj
 0001:000c6fa0       ?state_case_percent@?$output_processor@DV?$string_output_adapter@D@__crt_stdio_output@@V?$format_validation_base@DV?$string_output_adapter@D@__crt_stdio_output@@@2@@__crt_stdio_output@@AEAA_NXZ 00000001800c7fa0 f i libucrtd:output.obj
 0001:000c7000       ?state_case_percent@?$output_processor@DV?$string_output_adapter@D@__crt_stdio_output@@V?$positional_parameter_base@DV?$string_output_adapter@D@__crt_stdio_output@@@2@@__crt_stdio_output@@AEAA_NXZ 00000001800c8000 f i libucrtd:output.obj
 0001:000c7060       ?state_case_percent@?$output_processor@DV?$string_output_adapter@D@__crt_stdio_output@@V?$standard_base@DV?$string_output_adapter@D@__crt_stdio_output@@@2@@__crt_stdio_output@@AEAA_NXZ 00000001800c8060 f i libucrtd:output.obj
 0001:000c70c0       ?state_case_percent@?$output_processor@_WV?$stream_output_adapter@_W@__crt_stdio_output@@V?$format_validation_base@_WV?$stream_output_adapter@_W@__crt_stdio_output@@@2@@__crt_stdio_output@@AEAA_NXZ 00000001800c80c0 f i libucrtd:output.obj
 0001:000c7120       ?state_case_percent@?$output_processor@_WV?$stream_output_adapter@_W@__crt_stdio_output@@V?$positional_parameter_base@_WV?$stream_output_adapter@_W@__crt_stdio_output@@@2@@__crt_stdio_output@@AEAA_NXZ 00000001800c8120 f i libucrtd:output.obj
 0001:000c7180       ?state_case_percent@?$output_processor@_WV?$stream_output_adapter@_W@__crt_stdio_output@@V?$standard_base@_WV?$stream_output_adapter@_W@__crt_stdio_output@@@2@@__crt_stdio_output@@AEAA_NXZ 00000001800c8180 f i libucrtd:output.obj
 0001:000c71e0       ?state_case_percent@?$output_processor@_WV?$string_output_adapter@_W@__crt_stdio_output@@V?$format_validation_base@_WV?$string_output_adapter@_W@__crt_stdio_output@@@2@@__crt_stdio_output@@AEAA_NXZ 00000001800c81e0 f i libucrtd:output.obj
 0001:000c7240       ?state_case_percent@?$output_processor@_WV?$string_output_adapter@_W@__crt_stdio_output@@V?$positional_parameter_base@_WV?$string_output_adapter@_W@__crt_stdio_output@@@2@@__crt_stdio_output@@AEAA_NXZ 00000001800c8240 f i libucrtd:output.obj
 0001:000c72a0       ?state_case_percent@?$output_processor@_WV?$string_output_adapter@_W@__crt_stdio_output@@V?$standard_base@_WV?$string_output_adapter@_W@__crt_stdio_output@@@2@@__crt_stdio_output@@AEAA_NXZ 00000001800c82a0 f i libucrtd:output.obj
 0001:000c7300       ?state_case_precision@?$output_processor@DV?$stream_output_adapter@D@__crt_stdio_output@@V?$format_validation_base@DV?$stream_output_adapter@D@__crt_stdio_output@@@2@@__crt_stdio_output@@AEAA_NXZ 00000001800c8300 f i libucrtd:output.obj
 0001:000c73a0       ?state_case_precision@?$output_processor@DV?$stream_output_adapter@D@__crt_stdio_output@@V?$positional_parameter_base@DV?$stream_output_adapter@D@__crt_stdio_output@@@2@@__crt_stdio_output@@AEAA_NXZ 00000001800c83a0 f i libucrtd:output.obj
 0001:000c7440       ?state_case_precision@?$output_processor@DV?$stream_output_adapter@D@__crt_stdio_output@@V?$standard_base@DV?$stream_output_adapter@D@__crt_stdio_output@@@2@@__crt_stdio_output@@AEAA_NXZ 00000001800c8440 f i libucrtd:output.obj
 0001:000c74e0       ?state_case_precision@?$output_processor@DV?$string_output_adapter@D@__crt_stdio_output@@V?$format_validation_base@DV?$string_output_adapter@D@__crt_stdio_output@@@2@@__crt_stdio_output@@AEAA_NXZ 00000001800c84e0 f i libucrtd:output.obj
 0001:000c7580       ?state_case_precision@?$output_processor@DV?$string_output_adapter@D@__crt_stdio_output@@V?$positional_parameter_base@DV?$string_output_adapter@D@__crt_stdio_output@@@2@@__crt_stdio_output@@AEAA_NXZ 00000001800c8580 f i libucrtd:output.obj
 0001:000c7620       ?state_case_precision@?$output_processor@DV?$string_output_adapter@D@__crt_stdio_output@@V?$standard_base@DV?$string_output_adapter@D@__crt_stdio_output@@@2@@__crt_stdio_output@@AEAA_NXZ 00000001800c8620 f i libucrtd:output.obj
 0001:000c76c0       ?state_case_precision@?$output_processor@_WV?$stream_output_adapter@_W@__crt_stdio_output@@V?$format_validation_base@_WV?$stream_output_adapter@_W@__crt_stdio_output@@@2@@__crt_stdio_output@@AEAA_NXZ 00000001800c86c0 f i libucrtd:output.obj
 0001:000c7760       ?state_case_precision@?$output_processor@_WV?$stream_output_adapter@_W@__crt_stdio_output@@V?$positional_parameter_base@_WV?$stream_output_adapter@_W@__crt_stdio_output@@@2@@__crt_stdio_output@@AEAA_NXZ 00000001800c8760 f i libucrtd:output.obj
 0001:000c7800       ?state_case_precision@?$output_processor@_WV?$stream_output_adapter@_W@__crt_stdio_output@@V?$standard_base@_WV?$stream_output_adapter@_W@__crt_stdio_output@@@2@@__crt_stdio_output@@AEAA_NXZ 00000001800c8800 f i libucrtd:output.obj
 0001:000c78a0       ?state_case_precision@?$output_processor@_WV?$string_output_adapter@_W@__crt_stdio_output@@V?$format_validation_base@_WV?$string_output_adapter@_W@__crt_stdio_output@@@2@@__crt_stdio_output@@AEAA_NXZ 00000001800c88a0 f i libucrtd:output.obj
 0001:000c7940       ?state_case_precision@?$output_processor@_WV?$string_output_adapter@_W@__crt_stdio_output@@V?$positional_parameter_base@_WV?$string_output_adapter@_W@__crt_stdio_output@@@2@@__crt_stdio_output@@AEAA_NXZ 00000001800c8940 f i libucrtd:output.obj
 0001:000c79e0       ?state_case_precision@?$output_processor@_WV?$string_output_adapter@_W@__crt_stdio_output@@V?$standard_base@_WV?$string_output_adapter@_W@__crt_stdio_output@@@2@@__crt_stdio_output@@AEAA_NXZ 00000001800c89e0 f i libucrtd:output.obj
 0001:000c7a80       ?state_case_size@?$output_processor@DV?$stream_output_adapter@D@__crt_stdio_output@@V?$format_validation_base@DV?$stream_output_adapter@D@__crt_stdio_output@@@2@@__crt_stdio_output@@AEAA_NXZ 00000001800c8a80 f i libucrtd:output.obj
 0001:000c8010       ?state_case_size@?$output_processor@DV?$stream_output_adapter@D@__crt_stdio_output@@V?$positional_parameter_base@DV?$stream_output_adapter@D@__crt_stdio_output@@@2@@__crt_stdio_output@@AEAA_NXZ 00000001800c9010 f i libucrtd:output.obj
 0001:000c85a0       ?state_case_size@?$output_processor@DV?$stream_output_adapter@D@__crt_stdio_output@@V?$standard_base@DV?$stream_output_adapter@D@__crt_stdio_output@@@2@@__crt_stdio_output@@AEAA_NXZ 00000001800c95a0 f i libucrtd:output.obj
 0001:000c8b30       ?state_case_size@?$output_processor@DV?$string_output_adapter@D@__crt_stdio_output@@V?$format_validation_base@DV?$string_output_adapter@D@__crt_stdio_output@@@2@@__crt_stdio_output@@AEAA_NXZ 00000001800c9b30 f i libucrtd:output.obj
 0001:000c90c0       ?state_case_size@?$output_processor@DV?$string_output_adapter@D@__crt_stdio_output@@V?$positional_parameter_base@DV?$string_output_adapter@D@__crt_stdio_output@@@2@@__crt_stdio_output@@AEAA_NXZ 00000001800ca0c0 f i libucrtd:output.obj
 0001:000c9650       ?state_case_size@?$output_processor@DV?$string_output_adapter@D@__crt_stdio_output@@V?$standard_base@DV?$string_output_adapter@D@__crt_stdio_output@@@2@@__crt_stdio_output@@AEAA_NXZ 00000001800ca650 f i libucrtd:output.obj
 0001:000c9be0       ?state_case_size@?$output_processor@_WV?$stream_output_adapter@_W@__crt_stdio_output@@V?$format_validation_base@_WV?$stream_output_adapter@_W@__crt_stdio_output@@@2@@__crt_stdio_output@@AEAA_NXZ 00000001800cabe0 f i libucrtd:output.obj
 0001:000ca170       ?state_case_size@?$output_processor@_WV?$stream_output_adapter@_W@__crt_stdio_output@@V?$positional_parameter_base@_WV?$stream_output_adapter@_W@__crt_stdio_output@@@2@@__crt_stdio_output@@AEAA_NXZ 00000001800cb170 f i libucrtd:output.obj
 0001:000ca700       ?state_case_size@?$output_processor@_WV?$stream_output_adapter@_W@__crt_stdio_output@@V?$standard_base@_WV?$stream_output_adapter@_W@__crt_stdio_output@@@2@@__crt_stdio_output@@AEAA_NXZ 00000001800cb700 f i libucrtd:output.obj
 0001:000cac90       ?state_case_size@?$output_processor@_WV?$string_output_adapter@_W@__crt_stdio_output@@V?$format_validation_base@_WV?$string_output_adapter@_W@__crt_stdio_output@@@2@@__crt_stdio_output@@AEAA_NXZ 00000001800cbc90 f i libucrtd:output.obj
 0001:000cb220       ?state_case_size@?$output_processor@_WV?$string_output_adapter@_W@__crt_stdio_output@@V?$positional_parameter_base@_WV?$string_output_adapter@_W@__crt_stdio_output@@@2@@__crt_stdio_output@@AEAA_NXZ 00000001800cc220 f i libucrtd:output.obj
 0001:000cb7b0       ?state_case_size@?$output_processor@_WV?$string_output_adapter@_W@__crt_stdio_output@@V?$standard_base@_WV?$string_output_adapter@_W@__crt_stdio_output@@@2@@__crt_stdio_output@@AEAA_NXZ 00000001800cc7b0 f i libucrtd:output.obj
 0001:000cbd40       ?state_case_type@?$output_processor@DV?$stream_output_adapter@D@__crt_stdio_output@@V?$format_validation_base@DV?$stream_output_adapter@D@__crt_stdio_output@@@2@@__crt_stdio_output@@AEAA_NXZ 00000001800ccd40 f i libucrtd:output.obj
 0001:000cc310       ?state_case_type@?$output_processor@DV?$stream_output_adapter@D@__crt_stdio_output@@V?$positional_parameter_base@DV?$stream_output_adapter@D@__crt_stdio_output@@@2@@__crt_stdio_output@@AEAA_NXZ 00000001800cd310 f i libucrtd:output.obj
 0001:000cc8e0       ?state_case_type@?$output_processor@DV?$stream_output_adapter@D@__crt_stdio_output@@V?$standard_base@DV?$stream_output_adapter@D@__crt_stdio_output@@@2@@__crt_stdio_output@@AEAA_NXZ 00000001800cd8e0 f i libucrtd:output.obj
 0001:000cceb0       ?state_case_type@?$output_processor@DV?$string_output_adapter@D@__crt_stdio_output@@V?$format_validation_base@DV?$string_output_adapter@D@__crt_stdio_output@@@2@@__crt_stdio_output@@AEAA_NXZ 00000001800cdeb0 f i libucrtd:output.obj
 0001:000cd480       ?state_case_type@?$output_processor@DV?$string_output_adapter@D@__crt_stdio_output@@V?$positional_parameter_base@DV?$string_output_adapter@D@__crt_stdio_output@@@2@@__crt_stdio_output@@AEAA_NXZ 00000001800ce480 f i libucrtd:output.obj
 0001:000cda50       ?state_case_type@?$output_processor@DV?$string_output_adapter@D@__crt_stdio_output@@V?$standard_base@DV?$string_output_adapter@D@__crt_stdio_output@@@2@@__crt_stdio_output@@AEAA_NXZ 00000001800cea50 f i libucrtd:output.obj
 0001:000ce020       ?state_case_type@?$output_processor@_WV?$stream_output_adapter@_W@__crt_stdio_output@@V?$format_validation_base@_WV?$stream_output_adapter@_W@__crt_stdio_output@@@2@@__crt_stdio_output@@AEAA_NXZ 00000001800cf020 f i libucrtd:output.obj
 0001:000ce6d0       ?state_case_type@?$output_processor@_WV?$stream_output_adapter@_W@__crt_stdio_output@@V?$positional_parameter_base@_WV?$stream_output_adapter@_W@__crt_stdio_output@@@2@@__crt_stdio_output@@AEAA_NXZ 00000001800cf6d0 f i libucrtd:output.obj
 0001:000ced80       ?state_case_type@?$output_processor@_WV?$stream_output_adapter@_W@__crt_stdio_output@@V?$standard_base@_WV?$stream_output_adapter@_W@__crt_stdio_output@@@2@@__crt_stdio_output@@AEAA_NXZ 00000001800cfd80 f i libucrtd:output.obj
 0001:000cf430       ?state_case_type@?$output_processor@_WV?$string_output_adapter@_W@__crt_stdio_output@@V?$format_validation_base@_WV?$string_output_adapter@_W@__crt_stdio_output@@@2@@__crt_stdio_output@@AEAA_NXZ 00000001800d0430 f i libucrtd:output.obj
 0001:000cfae0       ?state_case_type@?$output_processor@_WV?$string_output_adapter@_W@__crt_stdio_output@@V?$positional_parameter_base@_WV?$string_output_adapter@_W@__crt_stdio_output@@@2@@__crt_stdio_output@@AEAA_NXZ 00000001800d0ae0 f i libucrtd:output.obj
 0001:000d0190       ?state_case_type@?$output_processor@_WV?$string_output_adapter@_W@__crt_stdio_output@@V?$standard_base@_WV?$string_output_adapter@_W@__crt_stdio_output@@@2@@__crt_stdio_output@@AEAA_NXZ 00000001800d1190 f i libucrtd:output.obj
 0001:000d0840       ?state_case_width@?$output_processor@DV?$stream_output_adapter@D@__crt_stdio_output@@V?$format_validation_base@DV?$stream_output_adapter@D@__crt_stdio_output@@@2@@__crt_stdio_output@@AEAA_NXZ 00000001800d1840 f i libucrtd:output.obj
 0001:000d08f0       ?state_case_width@?$output_processor@DV?$stream_output_adapter@D@__crt_stdio_output@@V?$positional_parameter_base@DV?$stream_output_adapter@D@__crt_stdio_output@@@2@@__crt_stdio_output@@AEAA_NXZ 00000001800d18f0 f i libucrtd:output.obj
 0001:000d09a0       ?state_case_width@?$output_processor@DV?$stream_output_adapter@D@__crt_stdio_output@@V?$standard_base@DV?$stream_output_adapter@D@__crt_stdio_output@@@2@@__crt_stdio_output@@AEAA_NXZ 00000001800d19a0 f i libucrtd:output.obj
 0001:000d0a50       ?state_case_width@?$output_processor@DV?$string_output_adapter@D@__crt_stdio_output@@V?$format_validation_base@DV?$string_output_adapter@D@__crt_stdio_output@@@2@@__crt_stdio_output@@AEAA_NXZ 00000001800d1a50 f i libucrtd:output.obj
 0001:000d0b00       ?state_case_width@?$output_processor@DV?$string_output_adapter@D@__crt_stdio_output@@V?$positional_parameter_base@DV?$string_output_adapter@D@__crt_stdio_output@@@2@@__crt_stdio_output@@AEAA_NXZ 00000001800d1b00 f i libucrtd:output.obj
 0001:000d0bb0       ?state_case_width@?$output_processor@DV?$string_output_adapter@D@__crt_stdio_output@@V?$standard_base@DV?$string_output_adapter@D@__crt_stdio_output@@@2@@__crt_stdio_output@@AEAA_NXZ 00000001800d1bb0 f i libucrtd:output.obj
 0001:000d0c60       ?state_case_width@?$output_processor@_WV?$stream_output_adapter@_W@__crt_stdio_output@@V?$format_validation_base@_WV?$stream_output_adapter@_W@__crt_stdio_output@@@2@@__crt_stdio_output@@AEAA_NXZ 00000001800d1c60 f i libucrtd:output.obj
 0001:000d0d10       ?state_case_width@?$output_processor@_WV?$stream_output_adapter@_W@__crt_stdio_output@@V?$positional_parameter_base@_WV?$stream_output_adapter@_W@__crt_stdio_output@@@2@@__crt_stdio_output@@AEAA_NXZ 00000001800d1d10 f i libucrtd:output.obj
 0001:000d0dc0       ?state_case_width@?$output_processor@_WV?$stream_output_adapter@_W@__crt_stdio_output@@V?$standard_base@_WV?$stream_output_adapter@_W@__crt_stdio_output@@@2@@__crt_stdio_output@@AEAA_NXZ 00000001800d1dc0 f i libucrtd:output.obj
 0001:000d0e70       ?state_case_width@?$output_processor@_WV?$string_output_adapter@_W@__crt_stdio_output@@V?$format_validation_base@_WV?$string_output_adapter@_W@__crt_stdio_output@@@2@@__crt_stdio_output@@AEAA_NXZ 00000001800d1e70 f i libucrtd:output.obj
 0001:000d0f20       ?state_case_width@?$output_processor@_WV?$string_output_adapter@_W@__crt_stdio_output@@V?$positional_parameter_base@_WV?$string_output_adapter@_W@__crt_stdio_output@@@2@@__crt_stdio_output@@AEAA_NXZ 00000001800d1f20 f i libucrtd:output.obj
 0001:000d0fd0       ?state_case_width@?$output_processor@_WV?$string_output_adapter@_W@__crt_stdio_output@@V?$standard_base@_WV?$string_output_adapter@_W@__crt_stdio_output@@@2@@__crt_stdio_output@@AEAA_NXZ 00000001800d1fd0 f i libucrtd:output.obj
 0001:000d1080       ?state_count@?$format_validation_base@DV?$stream_output_adapter@D@__crt_stdio_output@@@__crt_stdio_output@@KAIXZ 00000001800d2080 f i libucrtd:output.obj
 0001:000d1090       ?state_count@?$format_validation_base@DV?$string_output_adapter@D@__crt_stdio_output@@@__crt_stdio_output@@KAIXZ 00000001800d2090 f i libucrtd:output.obj
 0001:000d10a0       ?state_count@?$format_validation_base@_WV?$stream_output_adapter@_W@__crt_stdio_output@@@__crt_stdio_output@@KAIXZ 00000001800d20a0 f i libucrtd:output.obj
 0001:000d10b0       ?state_count@?$format_validation_base@_WV?$string_output_adapter@_W@__crt_stdio_output@@@__crt_stdio_output@@KAIXZ 00000001800d20b0 f i libucrtd:output.obj
 0001:000d10c0       ?state_count@?$standard_base@DV?$stream_output_adapter@D@__crt_stdio_output@@@__crt_stdio_output@@KAIXZ 00000001800d20c0 f i libucrtd:output.obj
 0001:000d10d0       ?state_count@?$standard_base@DV?$string_output_adapter@D@__crt_stdio_output@@@__crt_stdio_output@@KAIXZ 00000001800d20d0 f i libucrtd:output.obj
 0001:000d10e0       ?state_count@?$standard_base@_WV?$stream_output_adapter@_W@__crt_stdio_output@@@__crt_stdio_output@@KAIXZ 00000001800d20e0 f i libucrtd:output.obj
 0001:000d10f0       ?state_count@?$standard_base@_WV?$string_output_adapter@_W@__crt_stdio_output@@@__crt_stdio_output@@KAIXZ 00000001800d20f0 f i libucrtd:output.obj
 0001:000d1100       ?state_transition_table@?$format_validation_base@DV?$stream_output_adapter@D@__crt_stdio_output@@@__crt_stdio_output@@KAAEBV?$spectre_mitigated_lookup_table@Ustate_transition_pair@__crt_stdio_output@@$0IA@@2@XZ 00000001800d2100 f i libucrtd:output.obj
 0001:000d1110       ?state_transition_table@?$format_validation_base@DV?$string_output_adapter@D@__crt_stdio_output@@@__crt_stdio_output@@KAAEBV?$spectre_mitigated_lookup_table@Ustate_transition_pair@__crt_stdio_output@@$0IA@@2@XZ 00000001800d2110 f i libucrtd:output.obj
 0001:000d1120       ?state_transition_table@?$format_validation_base@_WV?$stream_output_adapter@_W@__crt_stdio_output@@@__crt_stdio_output@@KAAEBV?$spectre_mitigated_lookup_table@Ustate_transition_pair@__crt_stdio_output@@$0IA@@2@XZ 00000001800d2120 f i libucrtd:output.obj
 0001:000d1130       ?state_transition_table@?$format_validation_base@_WV?$string_output_adapter@_W@__crt_stdio_output@@@__crt_stdio_output@@KAAEBV?$spectre_mitigated_lookup_table@Ustate_transition_pair@__crt_stdio_output@@$0IA@@2@XZ 00000001800d2130 f i libucrtd:output.obj
 0001:000d1140       ?state_transition_table@?$standard_base@DV?$stream_output_adapter@D@__crt_stdio_output@@@__crt_stdio_output@@KAAEBV?$spectre_mitigated_lookup_table@Ustate_transition_pair@__crt_stdio_output@@$0IA@@2@XZ 00000001800d2140 f i libucrtd:output.obj
 0001:000d1150       ?state_transition_table@?$standard_base@DV?$string_output_adapter@D@__crt_stdio_output@@@__crt_stdio_output@@KAAEBV?$spectre_mitigated_lookup_table@Ustate_transition_pair@__crt_stdio_output@@$0IA@@2@XZ 00000001800d2150 f i libucrtd:output.obj
 0001:000d1160       ?state_transition_table@?$standard_base@_WV?$stream_output_adapter@_W@__crt_stdio_output@@@__crt_stdio_output@@KAAEBV?$spectre_mitigated_lookup_table@Ustate_transition_pair@__crt_stdio_output@@$0IA@@2@XZ 00000001800d2160 f i libucrtd:output.obj
 0001:000d1170       ?state_transition_table@?$standard_base@_WV?$string_output_adapter@_W@__crt_stdio_output@@@__crt_stdio_output@@KAAEBV?$spectre_mitigated_lookup_table@Ustate_transition_pair@__crt_stdio_output@@$0IA@@2@XZ 00000001800d2170 f i libucrtd:output.obj
 0001:000d1180       ?tchar_string@?$common_data@D@__crt_stdio_output@@IEAAAEAPEADD@Z 00000001800d2180 f i libucrtd:output.obj
 0001:000d11a0       ?tchar_string@?$common_data@D@__crt_stdio_output@@IEAAAEAPEADXZ 00000001800d21a0 f i libucrtd:output.obj
 0001:000d11c0       ?tchar_string@?$common_data@_W@__crt_stdio_output@@IEAAAEAPEA_WXZ 00000001800d21c0 f i libucrtd:output.obj
 0001:000d11e0       ?tchar_string@?$common_data@_W@__crt_stdio_output@@IEAAAEAPEA_W_W@Z 00000001800d21e0 f i libucrtd:output.obj
 0001:000d1200       ?to_integer_size@__crt_stdio_output@@YA_KW4length_modifier@1@@Z 00000001800d2200 f i libucrtd:output.obj
 0001:000d12e0       ?type_case_X@?$output_processor@DV?$stream_output_adapter@D@__crt_stdio_output@@V?$format_validation_base@DV?$stream_output_adapter@D@__crt_stdio_output@@@2@@__crt_stdio_output@@AEAA_NXZ 00000001800d22e0 f i libucrtd:output.obj
 0001:000d1310       ?type_case_X@?$output_processor@DV?$stream_output_adapter@D@__crt_stdio_output@@V?$positional_parameter_base@DV?$stream_output_adapter@D@__crt_stdio_output@@@2@@__crt_stdio_output@@AEAA_NXZ 00000001800d2310 f i libucrtd:output.obj
 0001:000d1340       ?type_case_X@?$output_processor@DV?$stream_output_adapter@D@__crt_stdio_output@@V?$standard_base@DV?$stream_output_adapter@D@__crt_stdio_output@@@2@@__crt_stdio_output@@AEAA_NXZ 00000001800d2340 f i libucrtd:output.obj
 0001:000d1370       ?type_case_X@?$output_processor@DV?$string_output_adapter@D@__crt_stdio_output@@V?$format_validation_base@DV?$string_output_adapter@D@__crt_stdio_output@@@2@@__crt_stdio_output@@AEAA_NXZ 00000001800d2370 f i libucrtd:output.obj
 0001:000d13a0       ?type_case_X@?$output_processor@DV?$string_output_adapter@D@__crt_stdio_output@@V?$positional_parameter_base@DV?$string_output_adapter@D@__crt_stdio_output@@@2@@__crt_stdio_output@@AEAA_NXZ 00000001800d23a0 f i libucrtd:output.obj
 0001:000d13d0       ?type_case_X@?$output_processor@DV?$string_output_adapter@D@__crt_stdio_output@@V?$standard_base@DV?$string_output_adapter@D@__crt_stdio_output@@@2@@__crt_stdio_output@@AEAA_NXZ 00000001800d23d0 f i libucrtd:output.obj
 0001:000d1400       ?type_case_X@?$output_processor@_WV?$stream_output_adapter@_W@__crt_stdio_output@@V?$format_validation_base@_WV?$stream_output_adapter@_W@__crt_stdio_output@@@2@@__crt_stdio_output@@AEAA_NXZ 00000001800d2400 f i libucrtd:output.obj
 0001:000d1430       ?type_case_X@?$output_processor@_WV?$stream_output_adapter@_W@__crt_stdio_output@@V?$positional_parameter_base@_WV?$stream_output_adapter@_W@__crt_stdio_output@@@2@@__crt_stdio_output@@AEAA_NXZ 00000001800d2430 f i libucrtd:output.obj
 0001:000d1460       ?type_case_X@?$output_processor@_WV?$stream_output_adapter@_W@__crt_stdio_output@@V?$standard_base@_WV?$stream_output_adapter@_W@__crt_stdio_output@@@2@@__crt_stdio_output@@AEAA_NXZ 00000001800d2460 f i libucrtd:output.obj
 0001:000d1490       ?type_case_X@?$output_processor@_WV?$string_output_adapter@_W@__crt_stdio_output@@V?$format_validation_base@_WV?$string_output_adapter@_W@__crt_stdio_output@@@2@@__crt_stdio_output@@AEAA_NXZ 00000001800d2490 f i libucrtd:output.obj
 0001:000d14c0       ?type_case_X@?$output_processor@_WV?$string_output_adapter@_W@__crt_stdio_output@@V?$positional_parameter_base@_WV?$string_output_adapter@_W@__crt_stdio_output@@@2@@__crt_stdio_output@@AEAA_NXZ 00000001800d24c0 f i libucrtd:output.obj
 0001:000d14f0       ?type_case_X@?$output_processor@_WV?$string_output_adapter@_W@__crt_stdio_output@@V?$standard_base@_WV?$string_output_adapter@_W@__crt_stdio_output@@@2@@__crt_stdio_output@@AEAA_NXZ 00000001800d24f0 f i libucrtd:output.obj
 0001:000d1520       ?type_case_Z@?$output_processor@DV?$stream_output_adapter@D@__crt_stdio_output@@V?$format_validation_base@DV?$stream_output_adapter@D@__crt_stdio_output@@@2@@__crt_stdio_output@@AEAA_NXZ 00000001800d2520 f i libucrtd:output.obj
 0001:000d1680       ?type_case_Z@?$output_processor@DV?$stream_output_adapter@D@__crt_stdio_output@@V?$positional_parameter_base@DV?$stream_output_adapter@D@__crt_stdio_output@@@2@@__crt_stdio_output@@AEAA_NXZ 00000001800d2680 f i libucrtd:output.obj
 0001:000d17e0       ?type_case_Z@?$output_processor@DV?$stream_output_adapter@D@__crt_stdio_output@@V?$standard_base@DV?$stream_output_adapter@D@__crt_stdio_output@@@2@@__crt_stdio_output@@AEAA_NXZ 00000001800d27e0 f i libucrtd:output.obj
 0001:000d1940       ?type_case_Z@?$output_processor@DV?$string_output_adapter@D@__crt_stdio_output@@V?$format_validation_base@DV?$string_output_adapter@D@__crt_stdio_output@@@2@@__crt_stdio_output@@AEAA_NXZ 00000001800d2940 f i libucrtd:output.obj
 0001:000d1aa0       ?type_case_Z@?$output_processor@DV?$string_output_adapter@D@__crt_stdio_output@@V?$positional_parameter_base@DV?$string_output_adapter@D@__crt_stdio_output@@@2@@__crt_stdio_output@@AEAA_NXZ 00000001800d2aa0 f i libucrtd:output.obj
 0001:000d1c00       ?type_case_Z@?$output_processor@DV?$string_output_adapter@D@__crt_stdio_output@@V?$standard_base@DV?$string_output_adapter@D@__crt_stdio_output@@@2@@__crt_stdio_output@@AEAA_NXZ 00000001800d2c00 f i libucrtd:output.obj
 0001:000d1d60       ?type_case_Z@?$output_processor@_WV?$stream_output_adapter@_W@__crt_stdio_output@@V?$format_validation_base@_WV?$stream_output_adapter@_W@__crt_stdio_output@@@2@@__crt_stdio_output@@AEAA_NXZ 00000001800d2d60 f i libucrtd:output.obj
 0001:000d1ec0       ?type_case_Z@?$output_processor@_WV?$stream_output_adapter@_W@__crt_stdio_output@@V?$positional_parameter_base@_WV?$stream_output_adapter@_W@__crt_stdio_output@@@2@@__crt_stdio_output@@AEAA_NXZ 00000001800d2ec0 f i libucrtd:output.obj
 0001:000d2020       ?type_case_Z@?$output_processor@_WV?$stream_output_adapter@_W@__crt_stdio_output@@V?$standard_base@_WV?$stream_output_adapter@_W@__crt_stdio_output@@@2@@__crt_stdio_output@@AEAA_NXZ 00000001800d3020 f i libucrtd:output.obj
 0001:000d2180       ?type_case_Z@?$output_processor@_WV?$string_output_adapter@_W@__crt_stdio_output@@V?$format_validation_base@_WV?$string_output_adapter@_W@__crt_stdio_output@@@2@@__crt_stdio_output@@AEAA_NXZ 00000001800d3180 f i libucrtd:output.obj
 0001:000d22e0       ?type_case_Z@?$output_processor@_WV?$string_output_adapter@_W@__crt_stdio_output@@V?$positional_parameter_base@_WV?$string_output_adapter@_W@__crt_stdio_output@@@2@@__crt_stdio_output@@AEAA_NXZ 00000001800d32e0 f i libucrtd:output.obj
 0001:000d2440       ?type_case_Z@?$output_processor@_WV?$string_output_adapter@_W@__crt_stdio_output@@V?$standard_base@_WV?$string_output_adapter@_W@__crt_stdio_output@@@2@@__crt_stdio_output@@AEAA_NXZ 00000001800d3440 f i libucrtd:output.obj
 0001:000d25a0       ?type_case_a@?$output_processor@DV?$stream_output_adapter@D@__crt_stdio_output@@V?$format_validation_base@DV?$stream_output_adapter@D@__crt_stdio_output@@@2@@__crt_stdio_output@@AEAA_NXZ 00000001800d35a0 f i libucrtd:output.obj
 0001:000d2a60       ?type_case_a@?$output_processor@DV?$stream_output_adapter@D@__crt_stdio_output@@V?$positional_parameter_base@DV?$stream_output_adapter@D@__crt_stdio_output@@@2@@__crt_stdio_output@@AEAA_NXZ 00000001800d3a60 f i libucrtd:output.obj
 0001:000d2f20       ?type_case_a@?$output_processor@DV?$stream_output_adapter@D@__crt_stdio_output@@V?$standard_base@DV?$stream_output_adapter@D@__crt_stdio_output@@@2@@__crt_stdio_output@@AEAA_NXZ 00000001800d3f20 f i libucrtd:output.obj
 0001:000d33e0       ?type_case_a@?$output_processor@DV?$string_output_adapter@D@__crt_stdio_output@@V?$format_validation_base@DV?$string_output_adapter@D@__crt_stdio_output@@@2@@__crt_stdio_output@@AEAA_NXZ 00000001800d43e0 f i libucrtd:output.obj
 0001:000d38a0       ?type_case_a@?$output_processor@DV?$string_output_adapter@D@__crt_stdio_output@@V?$positional_parameter_base@DV?$string_output_adapter@D@__crt_stdio_output@@@2@@__crt_stdio_output@@AEAA_NXZ 00000001800d48a0 f i libucrtd:output.obj
 0001:000d3d60       ?type_case_a@?$output_processor@DV?$string_output_adapter@D@__crt_stdio_output@@V?$standard_base@DV?$string_output_adapter@D@__crt_stdio_output@@@2@@__crt_stdio_output@@AEAA_NXZ 00000001800d4d60 f i libucrtd:output.obj
 0001:000d4220       ?type_case_a@?$output_processor@_WV?$stream_output_adapter@_W@__crt_stdio_output@@V?$format_validation_base@_WV?$stream_output_adapter@_W@__crt_stdio_output@@@2@@__crt_stdio_output@@AEAA_NXZ 00000001800d5220 f i libucrtd:output.obj
 0001:000d46e0       ?type_case_a@?$output_processor@_WV?$stream_output_adapter@_W@__crt_stdio_output@@V?$positional_parameter_base@_WV?$stream_output_adapter@_W@__crt_stdio_output@@@2@@__crt_stdio_output@@AEAA_NXZ 00000001800d56e0 f i libucrtd:output.obj
 0001:000d4ba0       ?type_case_a@?$output_processor@_WV?$stream_output_adapter@_W@__crt_stdio_output@@V?$standard_base@_WV?$stream_output_adapter@_W@__crt_stdio_output@@@2@@__crt_stdio_output@@AEAA_NXZ 00000001800d5ba0 f i libucrtd:output.obj
 0001:000d5060       ?type_case_a@?$output_processor@_WV?$string_output_adapter@_W@__crt_stdio_output@@V?$format_validation_base@_WV?$string_output_adapter@_W@__crt_stdio_output@@@2@@__crt_stdio_output@@AEAA_NXZ 00000001800d6060 f i libucrtd:output.obj
 0001:000d5520       ?type_case_a@?$output_processor@_WV?$string_output_adapter@_W@__crt_stdio_output@@V?$positional_parameter_base@_WV?$string_output_adapter@_W@__crt_stdio_output@@@2@@__crt_stdio_output@@AEAA_NXZ 00000001800d6520 f i libucrtd:output.obj
 0001:000d59e0       ?type_case_a@?$output_processor@_WV?$string_output_adapter@_W@__crt_stdio_output@@V?$standard_base@_WV?$string_output_adapter@_W@__crt_stdio_output@@@2@@__crt_stdio_output@@AEAA_NXZ 00000001800d69e0 f i libucrtd:output.obj
 0001:000d5ea0       ?type_case_c@?$output_processor@DV?$stream_output_adapter@D@__crt_stdio_output@@V?$format_validation_base@DV?$stream_output_adapter@D@__crt_stdio_output@@@2@@__crt_stdio_output@@AEAA_NXZ 00000001800d6ea0 f i libucrtd:output.obj
 0001:000d5ec0       ?type_case_c@?$output_processor@DV?$stream_output_adapter@D@__crt_stdio_output@@V?$positional_parameter_base@DV?$stream_output_adapter@D@__crt_stdio_output@@@2@@__crt_stdio_output@@AEAA_NXZ 00000001800d6ec0 f i libucrtd:output.obj
 0001:000d5ee0       ?type_case_c@?$output_processor@DV?$stream_output_adapter@D@__crt_stdio_output@@V?$standard_base@DV?$stream_output_adapter@D@__crt_stdio_output@@@2@@__crt_stdio_output@@AEAA_NXZ 00000001800d6ee0 f i libucrtd:output.obj
 0001:000d5f00       ?type_case_c@?$output_processor@DV?$string_output_adapter@D@__crt_stdio_output@@V?$format_validation_base@DV?$string_output_adapter@D@__crt_stdio_output@@@2@@__crt_stdio_output@@AEAA_NXZ 00000001800d6f00 f i libucrtd:output.obj
 0001:000d5f20       ?type_case_c@?$output_processor@DV?$string_output_adapter@D@__crt_stdio_output@@V?$positional_parameter_base@DV?$string_output_adapter@D@__crt_stdio_output@@@2@@__crt_stdio_output@@AEAA_NXZ 00000001800d6f20 f i libucrtd:output.obj
 0001:000d5f40       ?type_case_c@?$output_processor@DV?$string_output_adapter@D@__crt_stdio_output@@V?$standard_base@DV?$string_output_adapter@D@__crt_stdio_output@@@2@@__crt_stdio_output@@AEAA_NXZ 00000001800d6f40 f i libucrtd:output.obj
 0001:000d5f60       ?type_case_c@?$output_processor@_WV?$stream_output_adapter@_W@__crt_stdio_output@@V?$format_validation_base@_WV?$stream_output_adapter@_W@__crt_stdio_output@@@2@@__crt_stdio_output@@AEAA_NXZ 00000001800d6f60 f i libucrtd:output.obj
 0001:000d5f80       ?type_case_c@?$output_processor@_WV?$stream_output_adapter@_W@__crt_stdio_output@@V?$positional_parameter_base@_WV?$stream_output_adapter@_W@__crt_stdio_output@@@2@@__crt_stdio_output@@AEAA_NXZ 00000001800d6f80 f i libucrtd:output.obj
 0001:000d5fa0       ?type_case_c@?$output_processor@_WV?$stream_output_adapter@_W@__crt_stdio_output@@V?$standard_base@_WV?$stream_output_adapter@_W@__crt_stdio_output@@@2@@__crt_stdio_output@@AEAA_NXZ 00000001800d6fa0 f i libucrtd:output.obj
 0001:000d5fc0       ?type_case_c@?$output_processor@_WV?$string_output_adapter@_W@__crt_stdio_output@@V?$format_validation_base@_WV?$string_output_adapter@_W@__crt_stdio_output@@@2@@__crt_stdio_output@@AEAA_NXZ 00000001800d6fc0 f i libucrtd:output.obj
 0001:000d5fe0       ?type_case_c@?$output_processor@_WV?$string_output_adapter@_W@__crt_stdio_output@@V?$positional_parameter_base@_WV?$string_output_adapter@_W@__crt_stdio_output@@@2@@__crt_stdio_output@@AEAA_NXZ 00000001800d6fe0 f i libucrtd:output.obj
 0001:000d6000       ?type_case_c@?$output_processor@_WV?$string_output_adapter@_W@__crt_stdio_output@@V?$standard_base@_WV?$string_output_adapter@_W@__crt_stdio_output@@@2@@__crt_stdio_output@@AEAA_NXZ 00000001800d7000 f i libucrtd:output.obj
 0001:000d6020       ?type_case_c_tchar@?$output_processor@DV?$stream_output_adapter@D@__crt_stdio_output@@V?$format_validation_base@DV?$stream_output_adapter@D@__crt_stdio_output@@@2@@__crt_stdio_output@@AEAA_ND@Z 00000001800d7020 f i libucrtd:output.obj
 0001:000d61d0       ?type_case_c_tchar@?$output_processor@DV?$stream_output_adapter@D@__crt_stdio_output@@V?$positional_parameter_base@DV?$stream_output_adapter@D@__crt_stdio_output@@@2@@__crt_stdio_output@@AEAA_ND@Z 00000001800d71d0 f i libucrtd:output.obj
 0001:000d6380       ?type_case_c_tchar@?$output_processor@DV?$stream_output_adapter@D@__crt_stdio_output@@V?$standard_base@DV?$stream_output_adapter@D@__crt_stdio_output@@@2@@__crt_stdio_output@@AEAA_ND@Z 00000001800d7380 f i libucrtd:output.obj
 0001:000d6530       ?type_case_c_tchar@?$output_processor@DV?$string_output_adapter@D@__crt_stdio_output@@V?$format_validation_base@DV?$string_output_adapter@D@__crt_stdio_output@@@2@@__crt_stdio_output@@AEAA_ND@Z 00000001800d7530 f i libucrtd:output.obj
 0001:000d66e0       ?type_case_c_tchar@?$output_processor@DV?$string_output_adapter@D@__crt_stdio_output@@V?$positional_parameter_base@DV?$string_output_adapter@D@__crt_stdio_output@@@2@@__crt_stdio_output@@AEAA_ND@Z 00000001800d76e0 f i libucrtd:output.obj
 0001:000d6890       ?type_case_c_tchar@?$output_processor@DV?$string_output_adapter@D@__crt_stdio_output@@V?$standard_base@DV?$string_output_adapter@D@__crt_stdio_output@@@2@@__crt_stdio_output@@AEAA_ND@Z 00000001800d7890 f i libucrtd:output.obj
 0001:000d6a40       ?type_case_c_tchar@?$output_processor@_WV?$stream_output_adapter@_W@__crt_stdio_output@@V?$format_validation_base@_WV?$stream_output_adapter@_W@__crt_stdio_output@@@2@@__crt_stdio_output@@AEAA_N_W@Z 00000001800d7a40 f i libucrtd:output.obj
 0001:000d6bc0       ?type_case_c_tchar@?$output_processor@_WV?$stream_output_adapter@_W@__crt_stdio_output@@V?$positional_parameter_base@_WV?$stream_output_adapter@_W@__crt_stdio_output@@@2@@__crt_stdio_output@@AEAA_N_W@Z 00000001800d7bc0 f i libucrtd:output.obj
 0001:000d6d40       ?type_case_c_tchar@?$output_processor@_WV?$stream_output_adapter@_W@__crt_stdio_output@@V?$standard_base@_WV?$stream_output_adapter@_W@__crt_stdio_output@@@2@@__crt_stdio_output@@AEAA_N_W@Z 00000001800d7d40 f i libucrtd:output.obj
 0001:000d6ec0       ?type_case_c_tchar@?$output_processor@_WV?$string_output_adapter@_W@__crt_stdio_output@@V?$format_validation_base@_WV?$string_output_adapter@_W@__crt_stdio_output@@@2@@__crt_stdio_output@@AEAA_N_W@Z 00000001800d7ec0 f i libucrtd:output.obj
 0001:000d7040       ?type_case_c_tchar@?$output_processor@_WV?$string_output_adapter@_W@__crt_stdio_output@@V?$positional_parameter_base@_WV?$string_output_adapter@_W@__crt_stdio_output@@@2@@__crt_stdio_output@@AEAA_N_W@Z 00000001800d8040 f i libucrtd:output.obj
 0001:000d71c0       ?type_case_c_tchar@?$output_processor@_WV?$string_output_adapter@_W@__crt_stdio_output@@V?$standard_base@_WV?$string_output_adapter@_W@__crt_stdio_output@@@2@@__crt_stdio_output@@AEAA_N_W@Z 00000001800d81c0 f i libucrtd:output.obj
 0001:000d7340       ?type_case_d@?$output_processor@DV?$stream_output_adapter@D@__crt_stdio_output@@V?$format_validation_base@DV?$stream_output_adapter@D@__crt_stdio_output@@@2@@__crt_stdio_output@@AEAA_NXZ 00000001800d8340 f i libucrtd:output.obj
 0001:000d7380       ?type_case_d@?$output_processor@DV?$stream_output_adapter@D@__crt_stdio_output@@V?$positional_parameter_base@DV?$stream_output_adapter@D@__crt_stdio_output@@@2@@__crt_stdio_output@@AEAA_NXZ 00000001800d8380 f i libucrtd:output.obj
 0001:000d73c0       ?type_case_d@?$output_processor@DV?$stream_output_adapter@D@__crt_stdio_output@@V?$standard_base@DV?$stream_output_adapter@D@__crt_stdio_output@@@2@@__crt_stdio_output@@AEAA_NXZ 00000001800d83c0 f i libucrtd:output.obj
 0001:000d7400       ?type_case_d@?$output_processor@DV?$string_output_adapter@D@__crt_stdio_output@@V?$format_validation_base@DV?$string_output_adapter@D@__crt_stdio_output@@@2@@__crt_stdio_output@@AEAA_NXZ 00000001800d8400 f i libucrtd:output.obj
 0001:000d7440       ?type_case_d@?$output_processor@DV?$string_output_adapter@D@__crt_stdio_output@@V?$positional_parameter_base@DV?$string_output_adapter@D@__crt_stdio_output@@@2@@__crt_stdio_output@@AEAA_NXZ 00000001800d8440 f i libucrtd:output.obj
 0001:000d7480       ?type_case_d@?$output_processor@DV?$string_output_adapter@D@__crt_stdio_output@@V?$standard_base@DV?$string_output_adapter@D@__crt_stdio_output@@@2@@__crt_stdio_output@@AEAA_NXZ 00000001800d8480 f i libucrtd:output.obj
 0001:000d74c0       ?type_case_d@?$output_processor@_WV?$stream_output_adapter@_W@__crt_stdio_output@@V?$format_validation_base@_WV?$stream_output_adapter@_W@__crt_stdio_output@@@2@@__crt_stdio_output@@AEAA_NXZ 00000001800d84c0 f i libucrtd:output.obj
 0001:000d7500       ?type_case_d@?$output_processor@_WV?$stream_output_adapter@_W@__crt_stdio_output@@V?$positional_parameter_base@_WV?$stream_output_adapter@_W@__crt_stdio_output@@@2@@__crt_stdio_output@@AEAA_NXZ 00000001800d8500 f i libucrtd:output.obj
 0001:000d7540       ?type_case_d@?$output_processor@_WV?$stream_output_adapter@_W@__crt_stdio_output@@V?$standard_base@_WV?$stream_output_adapter@_W@__crt_stdio_output@@@2@@__crt_stdio_output@@AEAA_NXZ 00000001800d8540 f i libucrtd:output.obj
 0001:000d7580       ?type_case_d@?$output_processor@_WV?$string_output_adapter@_W@__crt_stdio_output@@V?$format_validation_base@_WV?$string_output_adapter@_W@__crt_stdio_output@@@2@@__crt_stdio_output@@AEAA_NXZ 00000001800d8580 f i libucrtd:output.obj
 0001:000d75c0       ?type_case_d@?$output_processor@_WV?$string_output_adapter@_W@__crt_stdio_output@@V?$positional_parameter_base@_WV?$string_output_adapter@_W@__crt_stdio_output@@@2@@__crt_stdio_output@@AEAA_NXZ 00000001800d85c0 f i libucrtd:output.obj
 0001:000d7600       ?type_case_d@?$output_processor@_WV?$string_output_adapter@_W@__crt_stdio_output@@V?$standard_base@_WV?$string_output_adapter@_W@__crt_stdio_output@@@2@@__crt_stdio_output@@AEAA_NXZ 00000001800d8600 f i libucrtd:output.obj
 0001:000d7640       ?type_case_integer@?$output_processor@DV?$stream_output_adapter@D@__crt_stdio_output@@V?$format_validation_base@DV?$stream_output_adapter@D@__crt_stdio_output@@@2@@__crt_stdio_output@@AEAA_NI_N@Z 00000001800d8640 f i libucrtd:output.obj
 0001:000d7ba0       ?type_case_integer@?$output_processor@DV?$stream_output_adapter@D@__crt_stdio_output@@V?$positional_parameter_base@DV?$stream_output_adapter@D@__crt_stdio_output@@@2@@__crt_stdio_output@@AEAA_NI_N@Z 00000001800d8ba0 f i libucrtd:output.obj
 0001:000d8100       ?type_case_integer@?$output_processor@DV?$stream_output_adapter@D@__crt_stdio_output@@V?$standard_base@DV?$stream_output_adapter@D@__crt_stdio_output@@@2@@__crt_stdio_output@@AEAA_NI_N@Z 00000001800d9100 f i libucrtd:output.obj
 0001:000d8660       ?type_case_integer@?$output_processor@DV?$string_output_adapter@D@__crt_stdio_output@@V?$format_validation_base@DV?$string_output_adapter@D@__crt_stdio_output@@@2@@__crt_stdio_output@@AEAA_NI_N@Z 00000001800d9660 f i libucrtd:output.obj
 0001:000d8bc0       ?type_case_integer@?$output_processor@DV?$string_output_adapter@D@__crt_stdio_output@@V?$positional_parameter_base@DV?$string_output_adapter@D@__crt_stdio_output@@@2@@__crt_stdio_output@@AEAA_NI_N@Z 00000001800d9bc0 f i libucrtd:output.obj
 0001:000d9120       ?type_case_integer@?$output_processor@DV?$string_output_adapter@D@__crt_stdio_output@@V?$standard_base@DV?$string_output_adapter@D@__crt_stdio_output@@@2@@__crt_stdio_output@@AEAA_NI_N@Z 00000001800da120 f i libucrtd:output.obj
 0001:000d9680       ?type_case_integer@?$output_processor@_WV?$stream_output_adapter@_W@__crt_stdio_output@@V?$format_validation_base@_WV?$stream_output_adapter@_W@__crt_stdio_output@@@2@@__crt_stdio_output@@AEAA_NI_N@Z 00000001800da680 f i libucrtd:output.obj
 0001:000d9be0       ?type_case_integer@?$output_processor@_WV?$stream_output_adapter@_W@__crt_stdio_output@@V?$positional_parameter_base@_WV?$stream_output_adapter@_W@__crt_stdio_output@@@2@@__crt_stdio_output@@AEAA_NI_N@Z 00000001800dabe0 f i libucrtd:output.obj
 0001:000da140       ?type_case_integer@?$output_processor@_WV?$stream_output_adapter@_W@__crt_stdio_output@@V?$standard_base@_WV?$stream_output_adapter@_W@__crt_stdio_output@@@2@@__crt_stdio_output@@AEAA_NI_N@Z 00000001800db140 f i libucrtd:output.obj
 0001:000da6a0       ?type_case_integer@?$output_processor@_WV?$string_output_adapter@_W@__crt_stdio_output@@V?$format_validation_base@_WV?$string_output_adapter@_W@__crt_stdio_output@@@2@@__crt_stdio_output@@AEAA_NI_N@Z 00000001800db6a0 f i libucrtd:output.obj
 0001:000dac00       ?type_case_integer@?$output_processor@_WV?$string_output_adapter@_W@__crt_stdio_output@@V?$positional_parameter_base@_WV?$string_output_adapter@_W@__crt_stdio_output@@@2@@__crt_stdio_output@@AEAA_NI_N@Z 00000001800dbc00 f i libucrtd:output.obj
 0001:000db160       ?type_case_integer@?$output_processor@_WV?$string_output_adapter@_W@__crt_stdio_output@@V?$standard_base@_WV?$string_output_adapter@_W@__crt_stdio_output@@@2@@__crt_stdio_output@@AEAA_NI_N@Z 00000001800dc160 f i libucrtd:output.obj
 0001:000db6c0       ?type_case_n@?$output_processor@DV?$stream_output_adapter@D@__crt_stdio_output@@V?$format_validation_base@DV?$stream_output_adapter@D@__crt_stdio_output@@@2@@__crt_stdio_output@@AEAA_NXZ 00000001800dc6c0 f i libucrtd:output.obj
 0001:000db990       ?type_case_n@?$output_processor@DV?$stream_output_adapter@D@__crt_stdio_output@@V?$positional_parameter_base@DV?$stream_output_adapter@D@__crt_stdio_output@@@2@@__crt_stdio_output@@AEAA_NXZ 00000001800dc990 f i libucrtd:output.obj
 0001:000dbc60       ?type_case_n@?$output_processor@DV?$stream_output_adapter@D@__crt_stdio_output@@V?$standard_base@DV?$stream_output_adapter@D@__crt_stdio_output@@@2@@__crt_stdio_output@@AEAA_NXZ 00000001800dcc60 f i libucrtd:output.obj
 0001:000dbf30       ?type_case_n@?$output_processor@DV?$string_output_adapter@D@__crt_stdio_output@@V?$format_validation_base@DV?$string_output_adapter@D@__crt_stdio_output@@@2@@__crt_stdio_output@@AEAA_NXZ 00000001800dcf30 f i libucrtd:output.obj
 0001:000dc200       ?type_case_n@?$output_processor@DV?$string_output_adapter@D@__crt_stdio_output@@V?$positional_parameter_base@DV?$string_output_adapter@D@__crt_stdio_output@@@2@@__crt_stdio_output@@AEAA_NXZ 00000001800dd200 f i libucrtd:output.obj
 0001:000dc4d0       ?type_case_n@?$output_processor@DV?$string_output_adapter@D@__crt_stdio_output@@V?$standard_base@DV?$string_output_adapter@D@__crt_stdio_output@@@2@@__crt_stdio_output@@AEAA_NXZ 00000001800dd4d0 f i libucrtd:output.obj
 0001:000dc7a0       ?type_case_n@?$output_processor@_WV?$stream_output_adapter@_W@__crt_stdio_output@@V?$format_validation_base@_WV?$stream_output_adapter@_W@__crt_stdio_output@@@2@@__crt_stdio_output@@AEAA_NXZ 00000001800dd7a0 f i libucrtd:output.obj
 0001:000dca70       ?type_case_n@?$output_processor@_WV?$stream_output_adapter@_W@__crt_stdio_output@@V?$positional_parameter_base@_WV?$stream_output_adapter@_W@__crt_stdio_output@@@2@@__crt_stdio_output@@AEAA_NXZ 00000001800dda70 f i libucrtd:output.obj
 0001:000dcd40       ?type_case_n@?$output_processor@_WV?$stream_output_adapter@_W@__crt_stdio_output@@V?$standard_base@_WV?$stream_output_adapter@_W@__crt_stdio_output@@@2@@__crt_stdio_output@@AEAA_NXZ 00000001800ddd40 f i libucrtd:output.obj
 0001:000dd010       ?type_case_n@?$output_processor@_WV?$string_output_adapter@_W@__crt_stdio_output@@V?$format_validation_base@_WV?$string_output_adapter@_W@__crt_stdio_output@@@2@@__crt_stdio_output@@AEAA_NXZ 00000001800de010 f i libucrtd:output.obj
 0001:000dd2e0       ?type_case_n@?$output_processor@_WV?$string_output_adapter@_W@__crt_stdio_output@@V?$positional_parameter_base@_WV?$string_output_adapter@_W@__crt_stdio_output@@@2@@__crt_stdio_output@@AEAA_NXZ 00000001800de2e0 f i libucrtd:output.obj
 0001:000dd5b0       ?type_case_n@?$output_processor@_WV?$string_output_adapter@_W@__crt_stdio_output@@V?$standard_base@_WV?$string_output_adapter@_W@__crt_stdio_output@@@2@@__crt_stdio_output@@AEAA_NXZ 00000001800de5b0 f i libucrtd:output.obj
 0001:000dd880       ?type_case_o@?$output_processor@DV?$stream_output_adapter@D@__crt_stdio_output@@V?$format_validation_base@DV?$stream_output_adapter@D@__crt_stdio_output@@@2@@__crt_stdio_output@@AEAA_NXZ 00000001800de880 f i libucrtd:output.obj
 0001:000dd8e0       ?type_case_o@?$output_processor@DV?$stream_output_adapter@D@__crt_stdio_output@@V?$positional_parameter_base@DV?$stream_output_adapter@D@__crt_stdio_output@@@2@@__crt_stdio_output@@AEAA_NXZ 00000001800de8e0 f i libucrtd:output.obj
 0001:000dd940       ?type_case_o@?$output_processor@DV?$stream_output_adapter@D@__crt_stdio_output@@V?$standard_base@DV?$stream_output_adapter@D@__crt_stdio_output@@@2@@__crt_stdio_output@@AEAA_NXZ 00000001800de940 f i libucrtd:output.obj
 0001:000dd9a0       ?type_case_o@?$output_processor@DV?$string_output_adapter@D@__crt_stdio_output@@V?$format_validation_base@DV?$string_output_adapter@D@__crt_stdio_output@@@2@@__crt_stdio_output@@AEAA_NXZ 00000001800de9a0 f i libucrtd:output.obj
 0001:000dda00       ?type_case_o@?$output_processor@DV?$string_output_adapter@D@__crt_stdio_output@@V?$positional_parameter_base@DV?$string_output_adapter@D@__crt_stdio_output@@@2@@__crt_stdio_output@@AEAA_NXZ 00000001800dea00 f i libucrtd:output.obj
 0001:000dda60       ?type_case_o@?$output_processor@DV?$string_output_adapter@D@__crt_stdio_output@@V?$standard_base@DV?$string_output_adapter@D@__crt_stdio_output@@@2@@__crt_stdio_output@@AEAA_NXZ 00000001800dea60 f i libucrtd:output.obj
 0001:000ddac0       ?type_case_o@?$output_processor@_WV?$stream_output_adapter@_W@__crt_stdio_output@@V?$format_validation_base@_WV?$stream_output_adapter@_W@__crt_stdio_output@@@2@@__crt_stdio_output@@AEAA_NXZ 00000001800deac0 f i libucrtd:output.obj
 0001:000ddb20       ?type_case_o@?$output_processor@_WV?$stream_output_adapter@_W@__crt_stdio_output@@V?$positional_parameter_base@_WV?$stream_output_adapter@_W@__crt_stdio_output@@@2@@__crt_stdio_output@@AEAA_NXZ 00000001800deb20 f i libucrtd:output.obj
 0001:000ddb80       ?type_case_o@?$output_processor@_WV?$stream_output_adapter@_W@__crt_stdio_output@@V?$standard_base@_WV?$stream_output_adapter@_W@__crt_stdio_output@@@2@@__crt_stdio_output@@AEAA_NXZ 00000001800deb80 f i libucrtd:output.obj
 0001:000ddbe0       ?type_case_o@?$output_processor@_WV?$string_output_adapter@_W@__crt_stdio_output@@V?$format_validation_base@_WV?$string_output_adapter@_W@__crt_stdio_output@@@2@@__crt_stdio_output@@AEAA_NXZ 00000001800debe0 f i libucrtd:output.obj
 0001:000ddc40       ?type_case_o@?$output_processor@_WV?$string_output_adapter@_W@__crt_stdio_output@@V?$positional_parameter_base@_WV?$string_output_adapter@_W@__crt_stdio_output@@@2@@__crt_stdio_output@@AEAA_NXZ 00000001800dec40 f i libucrtd:output.obj
 0001:000ddca0       ?type_case_o@?$output_processor@_WV?$string_output_adapter@_W@__crt_stdio_output@@V?$standard_base@_WV?$string_output_adapter@_W@__crt_stdio_output@@@2@@__crt_stdio_output@@AEAA_NXZ 00000001800deca0 f i libucrtd:output.obj
 0001:000ddd00       ?type_case_p@?$output_processor@DV?$stream_output_adapter@D@__crt_stdio_output@@V?$format_validation_base@DV?$stream_output_adapter@D@__crt_stdio_output@@@2@@__crt_stdio_output@@AEAA_NXZ 00000001800ded00 f i libucrtd:output.obj
 0001:000ddd50       ?type_case_p@?$output_processor@DV?$stream_output_adapter@D@__crt_stdio_output@@V?$positional_parameter_base@DV?$stream_output_adapter@D@__crt_stdio_output@@@2@@__crt_stdio_output@@AEAA_NXZ 00000001800ded50 f i libucrtd:output.obj
 0001:000ddda0       ?type_case_p@?$output_processor@DV?$stream_output_adapter@D@__crt_stdio_output@@V?$standard_base@DV?$stream_output_adapter@D@__crt_stdio_output@@@2@@__crt_stdio_output@@AEAA_NXZ 00000001800deda0 f i libucrtd:output.obj
 0001:000dddf0       ?type_case_p@?$output_processor@DV?$string_output_adapter@D@__crt_stdio_output@@V?$format_validation_base@DV?$string_output_adapter@D@__crt_stdio_output@@@2@@__crt_stdio_output@@AEAA_NXZ 00000001800dedf0 f i libucrtd:output.obj
 0001:000dde40       ?type_case_p@?$output_processor@DV?$string_output_adapter@D@__crt_stdio_output@@V?$positional_parameter_base@DV?$string_output_adapter@D@__crt_stdio_output@@@2@@__crt_stdio_output@@AEAA_NXZ 00000001800dee40 f i libucrtd:output.obj
 0001:000dde90       ?type_case_p@?$output_processor@DV?$string_output_adapter@D@__crt_stdio_output@@V?$standard_base@DV?$string_output_adapter@D@__crt_stdio_output@@@2@@__crt_stdio_output@@AEAA_NXZ 00000001800dee90 f i libucrtd:output.obj
 0001:000ddee0       ?type_case_p@?$output_processor@_WV?$stream_output_adapter@_W@__crt_stdio_output@@V?$format_validation_base@_WV?$stream_output_adapter@_W@__crt_stdio_output@@@2@@__crt_stdio_output@@AEAA_NXZ 00000001800deee0 f i libucrtd:output.obj
 0001:000ddf30       ?type_case_p@?$output_processor@_WV?$stream_output_adapter@_W@__crt_stdio_output@@V?$positional_parameter_base@_WV?$stream_output_adapter@_W@__crt_stdio_output@@@2@@__crt_stdio_output@@AEAA_NXZ 00000001800def30 f i libucrtd:output.obj
 0001:000ddf80       ?type_case_p@?$output_processor@_WV?$stream_output_adapter@_W@__crt_stdio_output@@V?$standard_base@_WV?$stream_output_adapter@_W@__crt_stdio_output@@@2@@__crt_stdio_output@@AEAA_NXZ 00000001800def80 f i libucrtd:output.obj
 0001:000ddfd0       ?type_case_p@?$output_processor@_WV?$string_output_adapter@_W@__crt_stdio_output@@V?$format_validation_base@_WV?$string_output_adapter@_W@__crt_stdio_output@@@2@@__crt_stdio_output@@AEAA_NXZ 00000001800defd0 f i libucrtd:output.obj
 0001:000de020       ?type_case_p@?$output_processor@_WV?$string_output_adapter@_W@__crt_stdio_output@@V?$positional_parameter_base@_WV?$string_output_adapter@_W@__crt_stdio_output@@@2@@__crt_stdio_output@@AEAA_NXZ 00000001800df020 f i libucrtd:output.obj
 0001:000de070       ?type_case_p@?$output_processor@_WV?$string_output_adapter@_W@__crt_stdio_output@@V?$standard_base@_WV?$string_output_adapter@_W@__crt_stdio_output@@@2@@__crt_stdio_output@@AEAA_NXZ 00000001800df070 f i libucrtd:output.obj
 0001:000de0c0       ?type_case_s@?$output_processor@DV?$stream_output_adapter@D@__crt_stdio_output@@V?$format_validation_base@DV?$stream_output_adapter@D@__crt_stdio_output@@@2@@__crt_stdio_output@@AEAA_NXZ 00000001800df0c0 f i libucrtd:output.obj
 0001:000de220       ?type_case_s@?$output_processor@DV?$stream_output_adapter@D@__crt_stdio_output@@V?$positional_parameter_base@DV?$stream_output_adapter@D@__crt_stdio_output@@@2@@__crt_stdio_output@@AEAA_NXZ 00000001800df220 f i libucrtd:output.obj
 0001:000de380       ?type_case_s@?$output_processor@DV?$stream_output_adapter@D@__crt_stdio_output@@V?$standard_base@DV?$stream_output_adapter@D@__crt_stdio_output@@@2@@__crt_stdio_output@@AEAA_NXZ 00000001800df380 f i libucrtd:output.obj
 0001:000de4e0       ?type_case_s@?$output_processor@DV?$string_output_adapter@D@__crt_stdio_output@@V?$format_validation_base@DV?$string_output_adapter@D@__crt_stdio_output@@@2@@__crt_stdio_output@@AEAA_NXZ 00000001800df4e0 f i libucrtd:output.obj
 0001:000de640       ?type_case_s@?$output_processor@DV?$string_output_adapter@D@__crt_stdio_output@@V?$positional_parameter_base@DV?$string_output_adapter@D@__crt_stdio_output@@@2@@__crt_stdio_output@@AEAA_NXZ 00000001800df640 f i libucrtd:output.obj
 0001:000de7a0       ?type_case_s@?$output_processor@DV?$string_output_adapter@D@__crt_stdio_output@@V?$standard_base@DV?$string_output_adapter@D@__crt_stdio_output@@@2@@__crt_stdio_output@@AEAA_NXZ 00000001800df7a0 f i libucrtd:output.obj
 0001:000de900       ?type_case_s@?$output_processor@_WV?$stream_output_adapter@_W@__crt_stdio_output@@V?$format_validation_base@_WV?$stream_output_adapter@_W@__crt_stdio_output@@@2@@__crt_stdio_output@@AEAA_NXZ 00000001800df900 f i libucrtd:output.obj
 0001:000dea60       ?type_case_s@?$output_processor@_WV?$stream_output_adapter@_W@__crt_stdio_output@@V?$positional_parameter_base@_WV?$stream_output_adapter@_W@__crt_stdio_output@@@2@@__crt_stdio_output@@AEAA_NXZ 00000001800dfa60 f i libucrtd:output.obj
 0001:000debc0       ?type_case_s@?$output_processor@_WV?$stream_output_adapter@_W@__crt_stdio_output@@V?$standard_base@_WV?$stream_output_adapter@_W@__crt_stdio_output@@@2@@__crt_stdio_output@@AEAA_NXZ 00000001800dfbc0 f i libucrtd:output.obj
 0001:000ded20       ?type_case_s@?$output_processor@_WV?$string_output_adapter@_W@__crt_stdio_output@@V?$format_validation_base@_WV?$string_output_adapter@_W@__crt_stdio_output@@@2@@__crt_stdio_output@@AEAA_NXZ 00000001800dfd20 f i libucrtd:output.obj
 0001:000dee80       ?type_case_s@?$output_processor@_WV?$string_output_adapter@_W@__crt_stdio_output@@V?$positional_parameter_base@_WV?$string_output_adapter@_W@__crt_stdio_output@@@2@@__crt_stdio_output@@AEAA_NXZ 00000001800dfe80 f i libucrtd:output.obj
 0001:000defe0       ?type_case_s@?$output_processor@_WV?$string_output_adapter@_W@__crt_stdio_output@@V?$standard_base@_WV?$string_output_adapter@_W@__crt_stdio_output@@@2@@__crt_stdio_output@@AEAA_NXZ 00000001800dffe0 f i libucrtd:output.obj
 0001:000df140       ?type_case_s_compute_narrow_string_length@?$output_processor@DV?$stream_output_adapter@D@__crt_stdio_output@@V?$format_validation_base@DV?$stream_output_adapter@D@__crt_stdio_output@@@2@@__crt_stdio_output@@AEBAHHD@Z 00000001800e0140 f i libucrtd:output.obj
 0001:000df180       ?type_case_s_compute_narrow_string_length@?$output_processor@DV?$stream_output_adapter@D@__crt_stdio_output@@V?$positional_parameter_base@DV?$stream_output_adapter@D@__crt_stdio_output@@@2@@__crt_stdio_output@@AEBAHHD@Z 00000001800e0180 f i libucrtd:output.obj
 0001:000df1c0       ?type_case_s_compute_narrow_string_length@?$output_processor@DV?$stream_output_adapter@D@__crt_stdio_output@@V?$standard_base@DV?$stream_output_adapter@D@__crt_stdio_output@@@2@@__crt_stdio_output@@AEBAHHD@Z 00000001800e01c0 f i libucrtd:output.obj
 0001:000df200       ?type_case_s_compute_narrow_string_length@?$output_processor@DV?$string_output_adapter@D@__crt_stdio_output@@V?$format_validation_base@DV?$string_output_adapter@D@__crt_stdio_output@@@2@@__crt_stdio_output@@AEBAHHD@Z 00000001800e0200 f i libucrtd:output.obj
 0001:000df240       ?type_case_s_compute_narrow_string_length@?$output_processor@DV?$string_output_adapter@D@__crt_stdio_output@@V?$positional_parameter_base@DV?$string_output_adapter@D@__crt_stdio_output@@@2@@__crt_stdio_output@@AEBAHHD@Z 00000001800e0240 f i libucrtd:output.obj
 0001:000df280       ?type_case_s_compute_narrow_string_length@?$output_processor@DV?$string_output_adapter@D@__crt_stdio_output@@V?$standard_base@DV?$string_output_adapter@D@__crt_stdio_output@@@2@@__crt_stdio_output@@AEBAHHD@Z 00000001800e0280 f i libucrtd:output.obj
 0001:000df2c0       ?type_case_s_compute_narrow_string_length@?$output_processor@_WV?$stream_output_adapter@_W@__crt_stdio_output@@V?$format_validation_base@_WV?$stream_output_adapter@_W@__crt_stdio_output@@@2@@__crt_stdio_output@@AEBAHH_W@Z 00000001800e02c0 f i libucrtd:output.obj
 0001:000df370       ?type_case_s_compute_narrow_string_length@?$output_processor@_WV?$stream_output_adapter@_W@__crt_stdio_output@@V?$positional_parameter_base@_WV?$stream_output_adapter@_W@__crt_stdio_output@@@2@@__crt_stdio_output@@AEBAHH_W@Z 00000001800e0370 f i libucrtd:output.obj
 0001:000df420       ?type_case_s_compute_narrow_string_length@?$output_processor@_WV?$stream_output_adapter@_W@__crt_stdio_output@@V?$standard_base@_WV?$stream_output_adapter@_W@__crt_stdio_output@@@2@@__crt_stdio_output@@AEBAHH_W@Z 00000001800e0420 f i libucrtd:output.obj
 0001:000df4d0       ?type_case_s_compute_narrow_string_length@?$output_processor@_WV?$string_output_adapter@_W@__crt_stdio_output@@V?$format_validation_base@_WV?$string_output_adapter@_W@__crt_stdio_output@@@2@@__crt_stdio_output@@AEBAHH_W@Z 00000001800e04d0 f i libucrtd:output.obj
 0001:000df580       ?type_case_s_compute_narrow_string_length@?$output_processor@_WV?$string_output_adapter@_W@__crt_stdio_output@@V?$positional_parameter_base@_WV?$string_output_adapter@_W@__crt_stdio_output@@@2@@__crt_stdio_output@@AEBAHH_W@Z 00000001800e0580 f i libucrtd:output.obj
 0001:000df630       ?type_case_s_compute_narrow_string_length@?$output_processor@_WV?$string_output_adapter@_W@__crt_stdio_output@@V?$standard_base@_WV?$string_output_adapter@_W@__crt_stdio_output@@@2@@__crt_stdio_output@@AEBAHH_W@Z 00000001800e0630 f i libucrtd:output.obj
 0001:000df6e0       ?type_case_u@?$output_processor@DV?$stream_output_adapter@D@__crt_stdio_output@@V?$format_validation_base@DV?$stream_output_adapter@D@__crt_stdio_output@@@2@@__crt_stdio_output@@AEAA_NXZ 00000001800e06e0 f i libucrtd:output.obj
 0001:000df710       ?type_case_u@?$output_processor@DV?$stream_output_adapter@D@__crt_stdio_output@@V?$positional_parameter_base@DV?$stream_output_adapter@D@__crt_stdio_output@@@2@@__crt_stdio_output@@AEAA_NXZ 00000001800e0710 f i libucrtd:output.obj
 0001:000df740       ?type_case_u@?$output_processor@DV?$stream_output_adapter@D@__crt_stdio_output@@V?$standard_base@DV?$stream_output_adapter@D@__crt_stdio_output@@@2@@__crt_stdio_output@@AEAA_NXZ 00000001800e0740 f i libucrtd:output.obj
 0001:000df770       ?type_case_u@?$output_processor@DV?$string_output_adapter@D@__crt_stdio_output@@V?$format_validation_base@DV?$string_output_adapter@D@__crt_stdio_output@@@2@@__crt_stdio_output@@AEAA_NXZ 00000001800e0770 f i libucrtd:output.obj
 0001:000df7a0       ?type_case_u@?$output_processor@DV?$string_output_adapter@D@__crt_stdio_output@@V?$positional_parameter_base@DV?$string_output_adapter@D@__crt_stdio_output@@@2@@__crt_stdio_output@@AEAA_NXZ 00000001800e07a0 f i libucrtd:output.obj
 0001:000df7d0       ?type_case_u@?$output_processor@DV?$string_output_adapter@D@__crt_stdio_output@@V?$standard_base@DV?$string_output_adapter@D@__crt_stdio_output@@@2@@__crt_stdio_output@@AEAA_NXZ 00000001800e07d0 f i libucrtd:output.obj
 0001:000df800       ?type_case_u@?$output_processor@_WV?$stream_output_adapter@_W@__crt_stdio_output@@V?$format_validation_base@_WV?$stream_output_adapter@_W@__crt_stdio_output@@@2@@__crt_stdio_output@@AEAA_NXZ 00000001800e0800 f i libucrtd:output.obj
 0001:000df830       ?type_case_u@?$output_processor@_WV?$stream_output_adapter@_W@__crt_stdio_output@@V?$positional_parameter_base@_WV?$stream_output_adapter@_W@__crt_stdio_output@@@2@@__crt_stdio_output@@AEAA_NXZ 00000001800e0830 f i libucrtd:output.obj
 0001:000df860       ?type_case_u@?$output_processor@_WV?$stream_output_adapter@_W@__crt_stdio_output@@V?$standard_base@_WV?$stream_output_adapter@_W@__crt_stdio_output@@@2@@__crt_stdio_output@@AEAA_NXZ 00000001800e0860 f i libucrtd:output.obj
 0001:000df890       ?type_case_u@?$output_processor@_WV?$string_output_adapter@_W@__crt_stdio_output@@V?$format_validation_base@_WV?$string_output_adapter@_W@__crt_stdio_output@@@2@@__crt_stdio_output@@AEAA_NXZ 00000001800e0890 f i libucrtd:output.obj
 0001:000df8c0       ?type_case_u@?$output_processor@_WV?$string_output_adapter@_W@__crt_stdio_output@@V?$positional_parameter_base@_WV?$string_output_adapter@_W@__crt_stdio_output@@@2@@__crt_stdio_output@@AEAA_NXZ 00000001800e08c0 f i libucrtd:output.obj
 0001:000df8f0       ?type_case_u@?$output_processor@_WV?$string_output_adapter@_W@__crt_stdio_output@@V?$standard_base@_WV?$string_output_adapter@_W@__crt_stdio_output@@@2@@__crt_stdio_output@@AEAA_NXZ 00000001800e08f0 f i libucrtd:output.obj
 0001:000df920       ?type_case_x@?$output_processor@DV?$stream_output_adapter@D@__crt_stdio_output@@V?$format_validation_base@DV?$stream_output_adapter@D@__crt_stdio_output@@@2@@__crt_stdio_output@@AEAA_NXZ 00000001800e0920 f i libucrtd:output.obj
 0001:000df950       ?type_case_x@?$output_processor@DV?$stream_output_adapter@D@__crt_stdio_output@@V?$positional_parameter_base@DV?$stream_output_adapter@D@__crt_stdio_output@@@2@@__crt_stdio_output@@AEAA_NXZ 00000001800e0950 f i libucrtd:output.obj
 0001:000df980       ?type_case_x@?$output_processor@DV?$stream_output_adapter@D@__crt_stdio_output@@V?$standard_base@DV?$stream_output_adapter@D@__crt_stdio_output@@@2@@__crt_stdio_output@@AEAA_NXZ 00000001800e0980 f i libucrtd:output.obj
 0001:000df9b0       ?type_case_x@?$output_processor@DV?$string_output_adapter@D@__crt_stdio_output@@V?$format_validation_base@DV?$string_output_adapter@D@__crt_stdio_output@@@2@@__crt_stdio_output@@AEAA_NXZ 00000001800e09b0 f i libucrtd:output.obj
 0001:000df9e0       ?type_case_x@?$output_processor@DV?$string_output_adapter@D@__crt_stdio_output@@V?$positional_parameter_base@DV?$string_output_adapter@D@__crt_stdio_output@@@2@@__crt_stdio_output@@AEAA_NXZ 00000001800e09e0 f i libucrtd:output.obj
 0001:000dfa10       ?type_case_x@?$output_processor@DV?$string_output_adapter@D@__crt_stdio_output@@V?$standard_base@DV?$string_output_adapter@D@__crt_stdio_output@@@2@@__crt_stdio_output@@AEAA_NXZ 00000001800e0a10 f i libucrtd:output.obj
 0001:000dfa40       ?type_case_x@?$output_processor@_WV?$stream_output_adapter@_W@__crt_stdio_output@@V?$format_validation_base@_WV?$stream_output_adapter@_W@__crt_stdio_output@@@2@@__crt_stdio_output@@AEAA_NXZ 00000001800e0a40 f i libucrtd:output.obj
 0001:000dfa70       ?type_case_x@?$output_processor@_WV?$stream_output_adapter@_W@__crt_stdio_output@@V?$positional_parameter_base@_WV?$stream_output_adapter@_W@__crt_stdio_output@@@2@@__crt_stdio_output@@AEAA_NXZ 00000001800e0a70 f i libucrtd:output.obj
 0001:000dfaa0       ?type_case_x@?$output_processor@_WV?$stream_output_adapter@_W@__crt_stdio_output@@V?$standard_base@_WV?$stream_output_adapter@_W@__crt_stdio_output@@@2@@__crt_stdio_output@@AEAA_NXZ 00000001800e0aa0 f i libucrtd:output.obj
 0001:000dfad0       ?type_case_x@?$output_processor@_WV?$string_output_adapter@_W@__crt_stdio_output@@V?$format_validation_base@_WV?$string_output_adapter@_W@__crt_stdio_output@@@2@@__crt_stdio_output@@AEAA_NXZ 00000001800e0ad0 f i libucrtd:output.obj
 0001:000dfb00       ?type_case_x@?$output_processor@_WV?$string_output_adapter@_W@__crt_stdio_output@@V?$positional_parameter_base@_WV?$string_output_adapter@_W@__crt_stdio_output@@@2@@__crt_stdio_output@@AEAA_NXZ 00000001800e0b00 f i libucrtd:output.obj
 0001:000dfb30       ?type_case_x@?$output_processor@_WV?$string_output_adapter@_W@__crt_stdio_output@@V?$standard_base@_WV?$string_output_adapter@_W@__crt_stdio_output@@@2@@__crt_stdio_output@@AEAA_NXZ 00000001800e0b30 f i libucrtd:output.obj
 0001:000dfb60       ?unset_flag@?$output_processor@DV?$stream_output_adapter@D@__crt_stdio_output@@V?$format_validation_base@DV?$stream_output_adapter@D@__crt_stdio_output@@@2@@__crt_stdio_output@@AEAAXI@Z 00000001800e0b60 f i libucrtd:output.obj
 0001:000dfb90       ?unset_flag@?$output_processor@DV?$stream_output_adapter@D@__crt_stdio_output@@V?$positional_parameter_base@DV?$stream_output_adapter@D@__crt_stdio_output@@@2@@__crt_stdio_output@@AEAAXI@Z 00000001800e0b90 f i libucrtd:output.obj
 0001:000dfbc0       ?unset_flag@?$output_processor@DV?$stream_output_adapter@D@__crt_stdio_output@@V?$standard_base@DV?$stream_output_adapter@D@__crt_stdio_output@@@2@@__crt_stdio_output@@AEAAXI@Z 00000001800e0bc0 f i libucrtd:output.obj
 0001:000dfbf0       ?unset_flag@?$output_processor@DV?$string_output_adapter@D@__crt_stdio_output@@V?$format_validation_base@DV?$string_output_adapter@D@__crt_stdio_output@@@2@@__crt_stdio_output@@AEAAXI@Z 00000001800e0bf0 f i libucrtd:output.obj
 0001:000dfc20       ?unset_flag@?$output_processor@DV?$string_output_adapter@D@__crt_stdio_output@@V?$positional_parameter_base@DV?$string_output_adapter@D@__crt_stdio_output@@@2@@__crt_stdio_output@@AEAAXI@Z 00000001800e0c20 f i libucrtd:output.obj
 0001:000dfc50       ?unset_flag@?$output_processor@DV?$string_output_adapter@D@__crt_stdio_output@@V?$standard_base@DV?$string_output_adapter@D@__crt_stdio_output@@@2@@__crt_stdio_output@@AEAAXI@Z 00000001800e0c50 f i libucrtd:output.obj
 0001:000dfc80       ?unset_flag@?$output_processor@_WV?$stream_output_adapter@_W@__crt_stdio_output@@V?$format_validation_base@_WV?$stream_output_adapter@_W@__crt_stdio_output@@@2@@__crt_stdio_output@@AEAAXI@Z 00000001800e0c80 f i libucrtd:output.obj
 0001:000dfcb0       ?unset_flag@?$output_processor@_WV?$stream_output_adapter@_W@__crt_stdio_output@@V?$positional_parameter_base@_WV?$stream_output_adapter@_W@__crt_stdio_output@@@2@@__crt_stdio_output@@AEAAXI@Z 00000001800e0cb0 f i libucrtd:output.obj
 0001:000dfce0       ?unset_flag@?$output_processor@_WV?$stream_output_adapter@_W@__crt_stdio_output@@V?$standard_base@_WV?$stream_output_adapter@_W@__crt_stdio_output@@@2@@__crt_stdio_output@@AEAAXI@Z 00000001800e0ce0 f i libucrtd:output.obj
 0001:000dfd10       ?unset_flag@?$output_processor@_WV?$string_output_adapter@_W@__crt_stdio_output@@V?$format_validation_base@_WV?$string_output_adapter@_W@__crt_stdio_output@@@2@@__crt_stdio_output@@AEAAXI@Z 00000001800e0d10 f i libucrtd:output.obj
 0001:000dfd40       ?unset_flag@?$output_processor@_WV?$string_output_adapter@_W@__crt_stdio_output@@V?$positional_parameter_base@_WV?$string_output_adapter@_W@__crt_stdio_output@@@2@@__crt_stdio_output@@AEAAXI@Z 00000001800e0d40 f i libucrtd:output.obj
 0001:000dfd70       ?unset_flag@?$output_processor@_WV?$string_output_adapter@_W@__crt_stdio_output@@V?$standard_base@_WV?$string_output_adapter@_W@__crt_stdio_output@@@2@@__crt_stdio_output@@AEAAXI@Z 00000001800e0d70 f i libucrtd:output.obj
 0001:000dfda0       ?update_field_width@?$positional_parameter_base@DV?$stream_output_adapter@D@__crt_stdio_output@@@__crt_stdio_output@@IEAA_NXZ 00000001800e0da0 f i libucrtd:output.obj
 0001:000e0000       ?update_field_width@?$positional_parameter_base@DV?$string_output_adapter@D@__crt_stdio_output@@@__crt_stdio_output@@IEAA_NXZ 00000001800e1000 f i libucrtd:output.obj
 0001:000e0260       ?update_field_width@?$positional_parameter_base@_WV?$stream_output_adapter@_W@__crt_stdio_output@@@__crt_stdio_output@@IEAA_NXZ 00000001800e1260 f i libucrtd:output.obj
 0001:000e04c0       ?update_field_width@?$positional_parameter_base@_WV?$string_output_adapter@_W@__crt_stdio_output@@@__crt_stdio_output@@IEAA_NXZ 00000001800e14c0 f i libucrtd:output.obj
 0001:000e0720       ?update_field_width@?$standard_base@DV?$stream_output_adapter@D@__crt_stdio_output@@@__crt_stdio_output@@IEAA_NXZ 00000001800e1720 f i libucrtd:output.obj
 0001:000e0760       ?update_field_width@?$standard_base@DV?$string_output_adapter@D@__crt_stdio_output@@@__crt_stdio_output@@IEAA_NXZ 00000001800e1760 f i libucrtd:output.obj
 0001:000e07a0       ?update_field_width@?$standard_base@_WV?$stream_output_adapter@_W@__crt_stdio_output@@@__crt_stdio_output@@IEAA_NXZ 00000001800e17a0 f i libucrtd:output.obj
 0001:000e07e0       ?update_field_width@?$standard_base@_WV?$string_output_adapter@_W@__crt_stdio_output@@@__crt_stdio_output@@IEAA_NXZ 00000001800e17e0 f i libucrtd:output.obj
 0001:000e0820       ?update_precision@?$positional_parameter_base@DV?$stream_output_adapter@D@__crt_stdio_output@@@__crt_stdio_output@@IEAA_NXZ 00000001800e1820 f i libucrtd:output.obj
 0001:000e0a80       ?update_precision@?$positional_parameter_base@DV?$string_output_adapter@D@__crt_stdio_output@@@__crt_stdio_output@@IEAA_NXZ 00000001800e1a80 f i libucrtd:output.obj
 0001:000e0ce0       ?update_precision@?$positional_parameter_base@_WV?$stream_output_adapter@_W@__crt_stdio_output@@@__crt_stdio_output@@IEAA_NXZ 00000001800e1ce0 f i libucrtd:output.obj
 0001:000e0f40       ?update_precision@?$positional_parameter_base@_WV?$string_output_adapter@_W@__crt_stdio_output@@@__crt_stdio_output@@IEAA_NXZ 00000001800e1f40 f i libucrtd:output.obj
 0001:000e11a0       ?update_precision@?$standard_base@DV?$stream_output_adapter@D@__crt_stdio_output@@@__crt_stdio_output@@IEAA_NXZ 00000001800e21a0 f i libucrtd:output.obj
 0001:000e11e0       ?update_precision@?$standard_base@DV?$string_output_adapter@D@__crt_stdio_output@@@__crt_stdio_output@@IEAA_NXZ 00000001800e21e0 f i libucrtd:output.obj
 0001:000e1220       ?update_precision@?$standard_base@_WV?$stream_output_adapter@_W@__crt_stdio_output@@@__crt_stdio_output@@IEAA_NXZ 00000001800e2220 f i libucrtd:output.obj
 0001:000e1260       ?update_precision@?$standard_base@_WV?$string_output_adapter@_W@__crt_stdio_output@@@__crt_stdio_output@@IEAA_NXZ 00000001800e2260 f i libucrtd:output.obj
 0001:000e12a0       ?valid@__crt_stdio_stream@@QEBA_NXZ 00000001800e22a0 f i libucrtd:output.obj
 0001:000e12e0       ?validate@?$stream_output_adapter@D@__crt_stdio_output@@QEBA_NXZ 00000001800e22e0 f i libucrtd:output.obj
 0001:000e13f0       ?validate@?$stream_output_adapter@_W@__crt_stdio_output@@QEBA_NXZ 00000001800e23f0 f i libucrtd:output.obj
 0001:000e1500       ?validate@?$string_output_adapter@D@__crt_stdio_output@@QEBA_NXZ 00000001800e2500 f i libucrtd:output.obj
 0001:000e15f0       ?validate@?$string_output_adapter@_W@__crt_stdio_output@@QEBA_NXZ 00000001800e25f0 f i libucrtd:output.obj
 0001:000e16e0       ?validate_and_store_parameter_data@?$positional_parameter_base@DV?$stream_output_adapter@D@__crt_stdio_output@@@__crt_stdio_output@@AEAA_NAEAUparameter_data@12@W4parameter_type@12@DW4length_modifier@2@@Z 00000001800e26e0 f i libucrtd:output.obj
 0001:000e1840       ?validate_and_store_parameter_data@?$positional_parameter_base@DV?$string_output_adapter@D@__crt_stdio_output@@@__crt_stdio_output@@AEAA_NAEAUparameter_data@12@W4parameter_type@12@DW4length_modifier@2@@Z 00000001800e2840 f i libucrtd:output.obj
 0001:000e19a0       ?validate_and_store_parameter_data@?$positional_parameter_base@_WV?$stream_output_adapter@_W@__crt_stdio_output@@@__crt_stdio_output@@AEAA_NAEAUparameter_data@12@W4parameter_type@12@_WW4length_modifier@2@@Z 00000001800e29a0 f i libucrtd:output.obj
 0001:000e1b00       ?validate_and_store_parameter_data@?$positional_parameter_base@_WV?$string_output_adapter@_W@__crt_stdio_output@@@__crt_stdio_output@@AEAA_NAEAUparameter_data@12@W4parameter_type@12@_WW4length_modifier@2@@Z 00000001800e2b00 f i libucrtd:output.obj
 0001:000e1c60       ?validate_and_update_state_at_beginning_of_format_character@?$positional_parameter_base@DV?$stream_output_adapter@D@__crt_stdio_output@@@__crt_stdio_output@@IEAA_NXZ 00000001800e2c60 f i libucrtd:output.obj
 0001:000e1ff0       ?validate_and_update_state_at_beginning_of_format_character@?$positional_parameter_base@DV?$string_output_adapter@D@__crt_stdio_output@@@__crt_stdio_output@@IEAA_NXZ 00000001800e2ff0 f i libucrtd:output.obj
 0001:000e2380       ?validate_and_update_state_at_beginning_of_format_character@?$positional_parameter_base@_WV?$stream_output_adapter@_W@__crt_stdio_output@@@__crt_stdio_output@@IEAA_NXZ 00000001800e3380 f i libucrtd:output.obj
 0001:000e2710       ?validate_and_update_state_at_beginning_of_format_character@?$positional_parameter_base@_WV?$string_output_adapter@_W@__crt_stdio_output@@@__crt_stdio_output@@IEAA_NXZ 00000001800e3710 f i libucrtd:output.obj
 0001:000e2aa0       ?validate_and_update_state_at_beginning_of_format_character@?$standard_base@DV?$stream_output_adapter@D@__crt_stdio_output@@@__crt_stdio_output@@IEAA_NXZ 00000001800e3aa0 f i libucrtd:output.obj
 0001:000e2ab0       ?validate_and_update_state_at_beginning_of_format_character@?$standard_base@DV?$string_output_adapter@D@__crt_stdio_output@@@__crt_stdio_output@@IEAA_NXZ 00000001800e3ab0 f i libucrtd:output.obj
 0001:000e2ac0       ?validate_and_update_state_at_beginning_of_format_character@?$standard_base@_WV?$stream_output_adapter@_W@__crt_stdio_output@@@__crt_stdio_output@@IEAA_NXZ 00000001800e3ac0 f i libucrtd:output.obj
 0001:000e2ad0       ?validate_and_update_state_at_beginning_of_format_character@?$standard_base@_WV?$string_output_adapter@_W@__crt_stdio_output@@@__crt_stdio_output@@IEAA_NXZ 00000001800e3ad0 f i libucrtd:output.obj
 0001:000e2ae0       ?validate_and_update_state_at_end_of_format_string@?$format_validation_base@DV?$stream_output_adapter@D@__crt_stdio_output@@@__crt_stdio_output@@IEBA_NXZ 00000001800e3ae0 f i libucrtd:output.obj
 0001:000e2bd0       ?validate_and_update_state_at_end_of_format_string@?$format_validation_base@DV?$string_output_adapter@D@__crt_stdio_output@@@__crt_stdio_output@@IEBA_NXZ 00000001800e3bd0 f i libucrtd:output.obj
 0001:000e2cc0       ?validate_and_update_state_at_end_of_format_string@?$format_validation_base@_WV?$stream_output_adapter@_W@__crt_stdio_output@@@__crt_stdio_output@@IEBA_NXZ 00000001800e3cc0 f i libucrtd:output.obj
 0001:000e2db0       ?validate_and_update_state_at_end_of_format_string@?$format_validation_base@_WV?$string_output_adapter@_W@__crt_stdio_output@@@__crt_stdio_output@@IEBA_NXZ 00000001800e3db0 f i libucrtd:output.obj
 0001:000e2ea0       ?validate_and_update_state_at_end_of_format_string@?$positional_parameter_base@DV?$stream_output_adapter@D@__crt_stdio_output@@@__crt_stdio_output@@IEAA_NXZ 00000001800e3ea0 f i libucrtd:output.obj
 0001:000e3100       ?validate_and_update_state_at_end_of_format_string@?$positional_parameter_base@DV?$string_output_adapter@D@__crt_stdio_output@@@__crt_stdio_output@@IEAA_NXZ 00000001800e4100 f i libucrtd:output.obj
 0001:000e3360       ?validate_and_update_state_at_end_of_format_string@?$positional_parameter_base@_WV?$stream_output_adapter@_W@__crt_stdio_output@@@__crt_stdio_output@@IEAA_NXZ 00000001800e4360 f i libucrtd:output.obj
 0001:000e35c0       ?validate_and_update_state_at_end_of_format_string@?$positional_parameter_base@_WV?$string_output_adapter@_W@__crt_stdio_output@@@__crt_stdio_output@@IEAA_NXZ 00000001800e45c0 f i libucrtd:output.obj
 0001:000e3820       ?validate_and_update_state_at_end_of_format_string@?$standard_base@DV?$stream_output_adapter@D@__crt_stdio_output@@@__crt_stdio_output@@IEBA_NXZ 00000001800e4820 f i libucrtd:output.obj
 0001:000e3830       ?validate_and_update_state_at_end_of_format_string@?$standard_base@DV?$string_output_adapter@D@__crt_stdio_output@@@__crt_stdio_output@@IEBA_NXZ 00000001800e4830 f i libucrtd:output.obj
 0001:000e3840       ?validate_and_update_state_at_end_of_format_string@?$standard_base@_WV?$stream_output_adapter@_W@__crt_stdio_output@@@__crt_stdio_output@@IEBA_NXZ 00000001800e4840 f i libucrtd:output.obj
 0001:000e3850       ?validate_and_update_state_at_end_of_format_string@?$standard_base@_WV?$string_output_adapter@_W@__crt_stdio_output@@@__crt_stdio_output@@IEBA_NXZ 00000001800e4850 f i libucrtd:output.obj
 0001:000e3860       ?validate_state_for_type_case_a@?$positional_parameter_base@DV?$stream_output_adapter@D@__crt_stdio_output@@@__crt_stdio_output@@IEAA_NXZ 00000001800e4860 f i libucrtd:output.obj
 0001:000e39e0       ?validate_state_for_type_case_a@?$positional_parameter_base@DV?$string_output_adapter@D@__crt_stdio_output@@@__crt_stdio_output@@IEAA_NXZ 00000001800e49e0 f i libucrtd:output.obj
 0001:000e3b60       ?validate_state_for_type_case_a@?$positional_parameter_base@_WV?$stream_output_adapter@_W@__crt_stdio_output@@@__crt_stdio_output@@IEAA_NXZ 00000001800e4b60 f i libucrtd:output.obj
 0001:000e3ce0       ?validate_state_for_type_case_a@?$positional_parameter_base@_WV?$string_output_adapter@_W@__crt_stdio_output@@@__crt_stdio_output@@IEAA_NXZ 00000001800e4ce0 f i libucrtd:output.obj
 0001:000e3e60       ?validate_state_for_type_case_a@?$standard_base@DV?$stream_output_adapter@D@__crt_stdio_output@@@__crt_stdio_output@@IEBA_NXZ 00000001800e4e60 f i libucrtd:output.obj
 0001:000e3e70       ?validate_state_for_type_case_a@?$standard_base@DV?$string_output_adapter@D@__crt_stdio_output@@@__crt_stdio_output@@IEBA_NXZ 00000001800e4e70 f i libucrtd:output.obj
 0001:000e3e80       ?validate_state_for_type_case_a@?$standard_base@_WV?$stream_output_adapter@_W@__crt_stdio_output@@@__crt_stdio_output@@IEBA_NXZ 00000001800e4e80 f i libucrtd:output.obj
 0001:000e3e90       ?validate_state_for_type_case_a@?$standard_base@_WV?$string_output_adapter@_W@__crt_stdio_output@@@__crt_stdio_output@@IEBA_NXZ 00000001800e4e90 f i libucrtd:output.obj
 0001:000e3ea0       ?validate_stream_is_ansi_if_required@?$__acrt_stdio_char_traits@D@@SA_NQEAU_iobuf@@@Z 00000001800e4ea0 f i libucrtd:output.obj
 0001:000e4090       ?validate_stream_is_ansi_if_required@?$__acrt_stdio_char_traits@_W@@SA_NQEAU_iobuf@@@Z 00000001800e5090 f i libucrtd:output.obj
 0001:000e40a0       ?wide_null_string@?$output_processor@DV?$stream_output_adapter@D@__crt_stdio_output@@V?$format_validation_base@DV?$stream_output_adapter@D@__crt_stdio_output@@@2@@__crt_stdio_output@@CAPEA_WXZ 00000001800e50a0 f i libucrtd:output.obj
 0001:000e40b0       ?wide_null_string@?$output_processor@DV?$stream_output_adapter@D@__crt_stdio_output@@V?$positional_parameter_base@DV?$stream_output_adapter@D@__crt_stdio_output@@@2@@__crt_stdio_output@@CAPEA_WXZ 00000001800e50b0 f i libucrtd:output.obj
 0001:000e40c0       ?wide_null_string@?$output_processor@DV?$stream_output_adapter@D@__crt_stdio_output@@V?$standard_base@DV?$stream_output_adapter@D@__crt_stdio_output@@@2@@__crt_stdio_output@@CAPEA_WXZ 00000001800e50c0 f i libucrtd:output.obj
 0001:000e40d0       ?wide_null_string@?$output_processor@DV?$string_output_adapter@D@__crt_stdio_output@@V?$format_validation_base@DV?$string_output_adapter@D@__crt_stdio_output@@@2@@__crt_stdio_output@@CAPEA_WXZ 00000001800e50d0 f i libucrtd:output.obj
 0001:000e40e0       ?wide_null_string@?$output_processor@DV?$string_output_adapter@D@__crt_stdio_output@@V?$positional_parameter_base@DV?$string_output_adapter@D@__crt_stdio_output@@@2@@__crt_stdio_output@@CAPEA_WXZ 00000001800e50e0 f i libucrtd:output.obj
 0001:000e40f0       ?wide_null_string@?$output_processor@DV?$string_output_adapter@D@__crt_stdio_output@@V?$standard_base@DV?$string_output_adapter@D@__crt_stdio_output@@@2@@__crt_stdio_output@@CAPEA_WXZ 00000001800e50f0 f i libucrtd:output.obj
 0001:000e4100       ?wide_null_string@?$output_processor@_WV?$stream_output_adapter@_W@__crt_stdio_output@@V?$format_validation_base@_WV?$stream_output_adapter@_W@__crt_stdio_output@@@2@@__crt_stdio_output@@CAPEA_WXZ 00000001800e5100 f i libucrtd:output.obj
 0001:000e4110       ?wide_null_string@?$output_processor@_WV?$stream_output_adapter@_W@__crt_stdio_output@@V?$positional_parameter_base@_WV?$stream_output_adapter@_W@__crt_stdio_output@@@2@@__crt_stdio_output@@CAPEA_WXZ 00000001800e5110 f i libucrtd:output.obj
 0001:000e4120       ?wide_null_string@?$output_processor@_WV?$stream_output_adapter@_W@__crt_stdio_output@@V?$standard_base@_WV?$stream_output_adapter@_W@__crt_stdio_output@@@2@@__crt_stdio_output@@CAPEA_WXZ 00000001800e5120 f i libucrtd:output.obj
 0001:000e4130       ?wide_null_string@?$output_processor@_WV?$string_output_adapter@_W@__crt_stdio_output@@V?$format_validation_base@_WV?$string_output_adapter@_W@__crt_stdio_output@@@2@@__crt_stdio_output@@CAPEA_WXZ 00000001800e5130 f i libucrtd:output.obj
 0001:000e4140       ?wide_null_string@?$output_processor@_WV?$string_output_adapter@_W@__crt_stdio_output@@V?$positional_parameter_base@_WV?$string_output_adapter@_W@__crt_stdio_output@@@2@@__crt_stdio_output@@CAPEA_WXZ 00000001800e5140 f i libucrtd:output.obj
 0001:000e4150       ?wide_null_string@?$output_processor@_WV?$string_output_adapter@_W@__crt_stdio_output@@V?$standard_base@_WV?$string_output_adapter@_W@__crt_stdio_output@@@2@@__crt_stdio_output@@CAPEA_WXZ 00000001800e5150 f i libucrtd:output.obj
 0001:000e4160       ?write_character@?$output_adapter_common@DV?$stream_output_adapter@D@__crt_stdio_output@@@__crt_stdio_output@@QEBAXDQEAH@Z 00000001800e5160 f i libucrtd:output.obj
 0001:000e41c0       ?write_character@?$output_adapter_common@_WV?$stream_output_adapter@_W@__crt_stdio_output@@@__crt_stdio_output@@QEBAX_WQEAH@Z 00000001800e51c0 f i libucrtd:output.obj
 0001:000e4220       ?write_character@?$string_output_adapter@D@__crt_stdio_output@@QEBA_NDQEAH@Z 00000001800e5220 f i libucrtd:output.obj
 0001:000e4310       ?write_character@?$string_output_adapter@_W@__crt_stdio_output@@QEBA_N_WQEAH@Z 00000001800e5310 f i libucrtd:output.obj
 0001:000e4400       ?write_character_without_count_update@?$stream_output_adapter@D@__crt_stdio_output@@QEBA_ND@Z 00000001800e5400 f i libucrtd:output.obj
 0001:000e44a0       ?write_character_without_count_update@?$stream_output_adapter@_W@__crt_stdio_output@@QEBA_N_W@Z 00000001800e54a0 f i libucrtd:output.obj
 0001:000e4550       ?write_stored_string_tchar@?$output_processor@DV?$stream_output_adapter@D@__crt_stdio_output@@V?$format_validation_base@DV?$stream_output_adapter@D@__crt_stdio_output@@@2@@__crt_stdio_output@@AEAA_ND@Z 00000001800e5550 f i libucrtd:output.obj
 0001:000e4770       ?write_stored_string_tchar@?$output_processor@DV?$stream_output_adapter@D@__crt_stdio_output@@V?$positional_parameter_base@DV?$stream_output_adapter@D@__crt_stdio_output@@@2@@__crt_stdio_output@@AEAA_ND@Z 00000001800e5770 f i libucrtd:output.obj
 0001:000e4990       ?write_stored_string_tchar@?$output_processor@DV?$stream_output_adapter@D@__crt_stdio_output@@V?$standard_base@DV?$stream_output_adapter@D@__crt_stdio_output@@@2@@__crt_stdio_output@@AEAA_ND@Z 00000001800e5990 f i libucrtd:output.obj
 0001:000e4bb0       ?write_stored_string_tchar@?$output_processor@DV?$string_output_adapter@D@__crt_stdio_output@@V?$format_validation_base@DV?$string_output_adapter@D@__crt_stdio_output@@@2@@__crt_stdio_output@@AEAA_ND@Z 00000001800e5bb0 f i libucrtd:output.obj
 0001:000e4dd0       ?write_stored_string_tchar@?$output_processor@DV?$string_output_adapter@D@__crt_stdio_output@@V?$positional_parameter_base@DV?$string_output_adapter@D@__crt_stdio_output@@@2@@__crt_stdio_output@@AEAA_ND@Z 00000001800e5dd0 f i libucrtd:output.obj
 0001:000e4ff0       ?write_stored_string_tchar@?$output_processor@DV?$string_output_adapter@D@__crt_stdio_output@@V?$standard_base@DV?$string_output_adapter@D@__crt_stdio_output@@@2@@__crt_stdio_output@@AEAA_ND@Z 00000001800e5ff0 f i libucrtd:output.obj
 0001:000e5210       ?write_stored_string_tchar@?$output_processor@_WV?$stream_output_adapter@_W@__crt_stdio_output@@V?$format_validation_base@_WV?$stream_output_adapter@_W@__crt_stdio_output@@@2@@__crt_stdio_output@@AEAA_N_W@Z 00000001800e6210 f i libucrtd:output.obj
 0001:000e53b0       ?write_stored_string_tchar@?$output_processor@_WV?$stream_output_adapter@_W@__crt_stdio_output@@V?$positional_parameter_base@_WV?$stream_output_adapter@_W@__crt_stdio_output@@@2@@__crt_stdio_output@@AEAA_N_W@Z 00000001800e63b0 f i libucrtd:output.obj
 0001:000e5550       ?write_stored_string_tchar@?$output_processor@_WV?$stream_output_adapter@_W@__crt_stdio_output@@V?$standard_base@_WV?$stream_output_adapter@_W@__crt_stdio_output@@@2@@__crt_stdio_output@@AEAA_N_W@Z 00000001800e6550 f i libucrtd:output.obj
 0001:000e56f0       ?write_stored_string_tchar@?$output_processor@_WV?$string_output_adapter@_W@__crt_stdio_output@@V?$format_validation_base@_WV?$string_output_adapter@_W@__crt_stdio_output@@@2@@__crt_stdio_output@@AEAA_N_W@Z 00000001800e66f0 f i libucrtd:output.obj
 0001:000e5890       ?write_stored_string_tchar@?$output_processor@_WV?$string_output_adapter@_W@__crt_stdio_output@@V?$positional_parameter_base@_WV?$string_output_adapter@_W@__crt_stdio_output@@@2@@__crt_stdio_output@@AEAA_N_W@Z 00000001800e6890 f i libucrtd:output.obj
 0001:000e5a30       ?write_stored_string_tchar@?$output_processor@_WV?$string_output_adapter@_W@__crt_stdio_output@@V?$standard_base@_WV?$string_output_adapter@_W@__crt_stdio_output@@@2@@__crt_stdio_output@@AEAA_N_W@Z 00000001800e6a30 f i libucrtd:output.obj
 0001:000e5bd0       ?write_string@?$stream_output_adapter@D@__crt_stdio_output@@QEBAXQEBDHQEAHAEAV__crt_deferred_errno_cache@@@Z 00000001800e6bd0 f i libucrtd:output.obj
 0001:000e5c70       ?write_string@?$stream_output_adapter@_W@__crt_stdio_output@@QEBAXQEB_WHQEAHAEAV__crt_deferred_errno_cache@@@Z 00000001800e6c70 f i libucrtd:output.obj
 0001:000e5d10       ?write_string@?$string_output_adapter@D@__crt_stdio_output@@QEBAXQEBDHQEAHAEAV__crt_deferred_errno_cache@@@Z 00000001800e6d10 f i libucrtd:output.obj
 0001:000e5ed0       ?write_string@?$string_output_adapter@_W@__crt_stdio_output@@QEBAXQEB_WHQEAHAEAV__crt_deferred_errno_cache@@@Z 00000001800e6ed0 f i libucrtd:output.obj
 0001:000e60a0       ?write_string_impl@?$output_adapter_common@DV?$stream_output_adapter@D@__crt_stdio_output@@@__crt_stdio_output@@IEBAXQEBDHQEAHAEAV__crt_deferred_errno_cache@@@Z 00000001800e70a0 f i libucrtd:output.obj
 0001:000e61b0       ?write_string_impl@?$output_adapter_common@_WV?$stream_output_adapter@_W@__crt_stdio_output@@@__crt_stdio_output@@IEBAXQEB_WHQEAHAEAV__crt_deferred_errno_cache@@@Z 00000001800e71b0 f i libucrtd:output.obj
 0001:000e62c0       __acrt_isleadbyte_l_noupdate 00000001800e72c0 f i libucrtd:output.obj
 0001:000e6300       __acrt_locale_get_ctype_array_value 00000001800e7300 f i libucrtd:output.obj
 0001:000e6350       __stdio_common_vfprintf    00000001800e7350 f   libucrtd:output.obj
 0001:000e63a0       __stdio_common_vfprintf_p  00000001800e73a0 f   libucrtd:output.obj
 0001:000e63f0       __stdio_common_vfprintf_s  00000001800e73f0 f   libucrtd:output.obj
 0001:000e6440       __stdio_common_vfwprintf   00000001800e7440 f   libucrtd:output.obj
 0001:000e6490       __stdio_common_vfwprintf_p 00000001800e7490 f   libucrtd:output.obj
 0001:000e64e0       __stdio_common_vfwprintf_s 00000001800e74e0 f   libucrtd:output.obj
 0001:000e6530       __stdio_common_vsnprintf_s 00000001800e7530 f   libucrtd:output.obj
 0001:000e65a0       __stdio_common_vsnwprintf_s 00000001800e75a0 f   libucrtd:output.obj
 0001:000e6610       __stdio_common_vsprintf    00000001800e7610 f   libucrtd:output.obj
 0001:000e6670       __stdio_common_vsprintf_p  00000001800e7670 f   libucrtd:output.obj
 0001:000e66d0       __stdio_common_vsprintf_s  00000001800e76d0 f   libucrtd:output.obj
 0001:000e6730       __stdio_common_vswprintf   00000001800e7730 f   libucrtd:output.obj
 0001:000e6790       __stdio_common_vswprintf_p 00000001800e7790 f   libucrtd:output.obj
 0001:000e67f0       __stdio_common_vswprintf_s 00000001800e77f0 f   libucrtd:output.obj
 0001:000e6850       _ctype_fast_check_internal 00000001800e7850 f i libucrtd:output.obj
 0001:000e6880       _isdigit_fast_internal     00000001800e7880 f i libucrtd:output.obj
 0001:000e68b0       _tolower_fast_internal     00000001800e78b0 f i libucrtd:output.obj
 0001:000e79f0       _makepath                  00000001800e89f0 f   libucrtd:makepath.obj
 0001:000e7a50       _makepath_s                00000001800e8a50 f   libucrtd:makepath.obj
 0001:000e7ab0       _wmakepath                 00000001800e8ab0 f   libucrtd:makepath.obj
 0001:000e7b10       _wmakepath_s               00000001800e8b10 f   libucrtd:makepath.obj
 0001:000eaad0       ??$tcsncpy_s@AEAPEAD_KAEAPEBDAEB_K@?$__crt_char_traits@D@@SAHAEAPEAD$$QEA_KAEAPEBDAEB_K@Z 00000001800ebad0 f i libucrtd:splitpath.obj
 0001:000eab30       ??$tcsncpy_s@AEAPEAD_KAEAPEBDH@?$__crt_char_traits@D@@SAHAEAPEAD$$QEA_KAEAPEBD$$QEAH@Z 00000001800ebb30 f i libucrtd:splitpath.obj
 0001:000eab90       ??$tcsncpy_s@AEAPEA_W_KAEAPEB_WAEB_K@?$__crt_char_traits@_W@@SAHAEAPEA_W$$QEA_KAEAPEB_WAEB_K@Z 00000001800ebb90 f i libucrtd:splitpath.obj
 0001:000eabf0       ??$tcsncpy_s@AEAPEA_W_KAEAPEB_WH@?$__crt_char_traits@_W@@SAHAEAPEA_W$$QEA_KAEAPEB_W$$QEAH@Z 00000001800ebbf0 f i libucrtd:splitpath.obj
 0001:000eaf40       _splitpath                 00000001800ebf40 f   libucrtd:splitpath.obj
 0001:000eaf90       _splitpath_s               00000001800ebf90 f   libucrtd:splitpath.obj
 0001:000eb050       _wsplitpath                00000001800ec050 f   libucrtd:splitpath.obj
 0001:000eb0a0       _wsplitpath_s              00000001800ec0a0 f   libucrtd:splitpath.obj
 0001:000eb780       wcscpy_s                   00000001800ec780 f   libucrtd:wcscpy_s.obj
 0001:000eb7c0       _set_abort_behavior        00000001800ec7c0 f   libucrtd:abort.obj
 0001:000eb810       abort                      00000001800ec810 f   libucrtd:abort.obj
 0001:000eb8c0       strcmp                     00000001800ec8c0 f   libucrtd:strcmp.obj
 0001:000eb960       strlen                     00000001800ec960 f   libucrtd:strlen.obj
 0001:000eba40       ??$__crt_fast_decode_pointer@P6AXPEB_W00I_K@Z@@YAP6AXPEB_W00I_K@ZQ6AX000I1@Z@Z 00000001800eca40 f i libucrtd:invalid_parameter.obj
 0001:000eba90       ??$__crt_fast_encode_pointer@P6AXPEB_W00I_K@Z@@YAP6AXPEB_W00I_K@ZQ6AX000I1@Z@Z 00000001800eca90 f i libucrtd:invalid_parameter.obj
 0001:000ebae0       ??$initialize_from_array@$$BY00Q6AXPEB_W00I_K@Z@?$dual_state_global@P6AXPEB_W00I_K@Z@__crt_state_management@@QEAAXAEAY00Q6AXPEB_W00I_K@Z@Z 00000001800ecae0 f i libucrtd:invalid_parameter.obj
 0001:000ebc20       ?dangerous_get_state_array@?$dual_state_global@P6AXPEB_W00I_K@Z@__crt_state_management@@QEAAPEAP6AXPEB_W00I_K@ZXZ 00000001800ecc20 f i libucrtd:invalid_parameter.obj
 0001:000ebc30       ?value@?$dual_state_global@P6AXPEB_W00I_K@Z@__crt_state_management@@QEAAAEAP6AXPEB_W00I_K@ZXZ 00000001800ecc30 f i libucrtd:invalid_parameter.obj
 0001:000ebc60       __acrt_call_reportfault    00000001800ecc60 f   libucrtd:invalid_parameter.obj
 0001:000ebde0       __acrt_initialize_invalid_parameter_handler 00000001800ecde0 f   libucrtd:invalid_parameter.obj
 0001:000ebe20       _get_invalid_parameter_handler 00000001800ece20 f   libucrtd:invalid_parameter.obj
 0001:000ebe50       _get_thread_local_invalid_parameter_handler 00000001800ece50 f   libucrtd:invalid_parameter.obj
 0001:000ebe90       _invalid_parameter         00000001800ece90 f   libucrtd:invalid_parameter.obj
 0001:000ebfd0       _invalid_parameter_noinfo  00000001800ecfd0 f   libucrtd:invalid_parameter.obj
 0001:000ec000       _invalid_parameter_noinfo_noreturn 00000001800ed000 f   libucrtd:invalid_parameter.obj
 0001:000ec050       _invoke_watson             00000001800ed050 f   libucrtd:invalid_parameter.obj
 0001:000ec0d0       _set_invalid_parameter_handler 00000001800ed0d0 f   libucrtd:invalid_parameter.obj
 0001:000ec140       _set_thread_local_invalid_parameter_handler 00000001800ed140 f   libucrtd:invalid_parameter.obj
 0001:000ec190       ??$is_overflow_condition@K@__crt_strtox@@YA_NIK@Z 00000001800ed190 f i libucrtd:atox.obj
 0001:000ec210       ??$is_overflow_condition@_K@__crt_strtox@@YA_NI_K@Z 00000001800ed210 f i libucrtd:atox.obj
 0001:000ec2a0       ??$make_c_string_character_source@D$$T@__crt_strtox@@YA?AV?$c_string_character_source@D@0@QEBD$$T@Z 00000001800ed2a0 f i libucrtd:atox.obj
 0001:000ec2e0       ??$make_c_string_character_source@_W$$T@__crt_strtox@@YA?AV?$c_string_character_source@_W@0@QEB_W$$T@Z 00000001800ed2e0 f i libucrtd:atox.obj
 0001:000ec320       ??$parse_integer@KV?$c_string_character_source@D@__crt_strtox@@@__crt_strtox@@YAKQEAU__crt_locale_pointers@@V?$c_string_character_source@D@0@H_N@Z 00000001800ed320 f i libucrtd:atox.obj
 0001:000ec8e0       ??$parse_integer@KV?$c_string_character_source@_W@__crt_strtox@@@__crt_strtox@@YAKQEAU__crt_locale_pointers@@V?$c_string_character_source@_W@0@H_N@Z 00000001800ed8e0 f i libucrtd:atox.obj
 0001:000ecec0       ??$parse_integer@_KV?$c_string_character_source@D@__crt_strtox@@@__crt_strtox@@YA_KQEAU__crt_locale_pointers@@V?$c_string_character_source@D@0@H_N@Z 00000001800edec0 f i libucrtd:atox.obj
 0001:000ed520       ??$parse_integer@_KV?$c_string_character_source@_W@__crt_strtox@@@__crt_strtox@@YA_KQEAU__crt_locale_pointers@@V?$c_string_character_source@_W@0@H_N@Z 00000001800ee520 f i libucrtd:atox.obj
 0001:000edb90       ??$parse_integer_from_string@JD$$T@__crt_strtox@@YAJQEBD$$THQEAU__crt_locale_pointers@@@Z 00000001800eeb90 f i libucrtd:atox.obj
 0001:000edc00       ??$parse_integer_from_string@J_W$$T@__crt_strtox@@YAJQEB_W$$THQEAU__crt_locale_pointers@@@Z 00000001800eec00 f i libucrtd:atox.obj
 0001:000edc70       ??$parse_integer_from_string@_JD$$T@__crt_strtox@@YA_JQEBD$$THQEAU__crt_locale_pointers@@@Z 00000001800eec70 f i libucrtd:atox.obj
 0001:000edce0       ??$parse_integer_from_string@_J_W$$T@__crt_strtox@@YA_JQEB_W$$THQEAU__crt_locale_pointers@@@Z 00000001800eece0 f i libucrtd:atox.obj
 0001:000edd50       ??0?$c_string_character_source@D@__crt_strtox@@QEAA@QEBDQEAPEBD@Z 00000001800eed50 f i libucrtd:atox.obj
 0001:000eddb0       ??0?$c_string_character_source@_W@__crt_strtox@@QEAA@QEB_WQEAPEB_W@Z 00000001800eedb0 f i libucrtd:atox.obj
 0001:000ede10       ??1?$c_string_character_source@D@__crt_strtox@@QEAA@XZ 00000001800eee10 f i libucrtd:atox.obj
 0001:000ede40       ??1?$c_string_character_source@_W@__crt_strtox@@QEAA@XZ 00000001800eee40 f i libucrtd:atox.obj
 0001:000ede70       ?get@?$c_string_character_source@D@__crt_strtox@@QEAADXZ 00000001800eee70 f i libucrtd:atox.obj
 0001:000edeb0       ?get@?$c_string_character_source@_W@__crt_strtox@@QEAA_WXZ 00000001800eeeb0 f i libucrtd:atox.obj
 0001:000edf00       ?is_space@__crt_strtox@@YA_NDQEAU__crt_locale_pointers@@@Z 00000001800eef00 f i libucrtd:atox.obj
 0001:000edf60       ?is_space@__crt_strtox@@YA_N_WPEAU__crt_locale_pointers@@@Z 00000001800eef60 f i libucrtd:atox.obj
 0001:000edfb0       ?maximum_signed_value@__crt_strtox@@YAJK@Z 00000001800eefb0 f i libucrtd:atox.obj
 0001:000edfc0       ?maximum_signed_value@__crt_strtox@@YA_J_K@Z 00000001800eefc0 f i libucrtd:atox.obj
 0001:000edfe0       ?minimum_signed_value@__crt_strtox@@YAJK@Z 00000001800eefe0 f i libucrtd:atox.obj
 0001:000edff0       ?minimum_signed_value@__crt_strtox@@YA_J_K@Z 00000001800eeff0 f i libucrtd:atox.obj
 0001:000ee010       ?parse_digit@__crt_strtox@@YAID@Z 00000001800ef010 f i libucrtd:atox.obj
 0001:000ee090       ?parse_digit@__crt_strtox@@YAI_W@Z 00000001800ef090 f i libucrtd:atox.obj
 0001:000ee100       ?restore_state@?$c_string_character_source@D@__crt_strtox@@QEAA_NQEBD@Z 00000001800ef100 f i libucrtd:atox.obj
 0001:000ee120       ?restore_state@?$c_string_character_source@_W@__crt_strtox@@QEAA_NQEB_W@Z 00000001800ef120 f i libucrtd:atox.obj
 0001:000ee140       ?save_state@?$c_string_character_source@D@__crt_strtox@@QEBAPEBDXZ 00000001800ef140 f i libucrtd:atox.obj
 0001:000ee160       ?save_state@?$c_string_character_source@_W@__crt_strtox@@QEBAPEB_WXZ 00000001800ef160 f i libucrtd:atox.obj
 0001:000ee180       ?unget@?$c_string_character_source@D@__crt_strtox@@QEAAXD@Z 00000001800ef180 f i libucrtd:atox.obj
 0001:000ee290       ?unget@?$c_string_character_source@_W@__crt_strtox@@QEAAX_W@Z 00000001800ef290 f i libucrtd:atox.obj
 0001:000ee3a0       ?validate@?$c_string_character_source@D@__crt_strtox@@QEBA_NXZ 00000001800ef3a0 f i libucrtd:atox.obj
 0001:000ee490       ?validate@?$c_string_character_source@_W@__crt_strtox@@QEBA_NXZ 00000001800ef490 f i libucrtd:atox.obj
 0001:000ee580       ?wide_character_to_digit@__crt_strtox@@YAH_W@Z 00000001800ef580 f i libucrtd:atox.obj
 0001:000ee9c0       __ascii_iswalpha           00000001800ef9c0 f i libucrtd:atox.obj
 0001:000eea10       __ascii_toupper            00000001800efa10 f i libucrtd:atox.obj
 0001:000eea40       __ascii_towupper           00000001800efa40 f i libucrtd:atox.obj
 0001:000eea60       _atoi64                    00000001800efa60 f   libucrtd:atox.obj
 0001:000eea90       _atoi64_l                  00000001800efa90 f   libucrtd:atox.obj
 0001:000eead0       _atoi_l                    00000001800efad0 f   libucrtd:atox.obj
 0001:000eeb10       _atol_l                    00000001800efb10 f   libucrtd:atox.obj
 0001:000eeb50       _atoll_l                   00000001800efb50 f   libucrtd:atox.obj
 0001:000eeb90       _wtoi                      00000001800efb90 f   libucrtd:atox.obj
 0001:000eebc0       _wtoi64                    00000001800efbc0 f   libucrtd:atox.obj
 0001:000eebf0       _wtoi64_l                  00000001800efbf0 f   libucrtd:atox.obj
 0001:000eec30       _wtoi_l                    00000001800efc30 f   libucrtd:atox.obj
 0001:000eec70       _wtol                      00000001800efc70 f   libucrtd:atox.obj
 0001:000eeca0       _wtol_l                    00000001800efca0 f   libucrtd:atox.obj
 0001:000eece0       _wtoll                     00000001800efce0 f   libucrtd:atox.obj
 0001:000eed10       _wtoll_l                   00000001800efd10 f   libucrtd:atox.obj
 0001:000eed50       atoi                       00000001800efd50 f   libucrtd:atox.obj
 0001:000eed80       atol                       00000001800efd80 f   libucrtd:atox.obj
 0001:000eedb0       atoll                      00000001800efdb0 f   libucrtd:atox.obj
 0001:000eedf0       strncmp                    00000001800efdf0 f   libucrtd:strncmp.obj
 0001:000eee90       wcsncmp                    00000001800efe90 f   libucrtd:wcsncmp.obj
 0001:000eef40       free                       00000001800eff40 f   libucrtd:free.obj
 0001:000eef80       malloc                     00000001800eff80 f   libucrtd:malloc.obj
 0001:000eefb0       nextafter                  00000001800effb0 f   libucrtd:nextafter.obj
 0001:000eefe0       nextafterf                 00000001800effe0 f   libucrtd:nextafterf.obj
 0001:000ef260       _handle_error              00000001800f0260 f   libucrtd:libm_error.obj
 0001:000ef450       _handle_errorf             00000001800f0450 f   libucrtd:libm_error.obj
 0001:000ef640       _handle_nan                00000001800f0640 f   libucrtd:libm_error.obj
 0001:000ef6a0       _handle_nanf               00000001800f06a0 f   libucrtd:libm_error.obj
 0001:000ef6e0       _pow_special               00000001800f06e0 f   libucrtd:pow_special.obj
 0001:000efa00       _powf_special              00000001800f0a00 f   libucrtd:pow_special.obj
 0001:000efe10       __acrt_initialize_fma3     00000001800f0e10 f   libucrtd:fma3_available.obj
 0001:000efef0       _get_FMA3_enable           00000001800f0ef0 f   libucrtd:fma3_available.obj
 0001:000eff00       _set_FMA3_enable           00000001800f0f00 f   libucrtd:fma3_available.obj
 0001:000eff30       __remainder_piby2d2f_forAsm 00000001800f0f30 f   libucrtd:remainder_piby2f_forasm.obj
 0001:000f00d0       __remainder_piby2_fma3     00000001800f10d0 f   libucrtd:remainder_piby2_forfma3.obj
 0001:000f02c0       __remainder_piby2_fma3_bdl 00000001800f12c0 f   libucrtd:remainder_piby2_forfma3.obj
 0001:000f03d0       _cos_special               00000001800f13d0 f   libucrtd:sincos_special.obj
 0001:000f0400       _cosf_special              00000001800f1400 f   libucrtd:sincos_special.obj
 0001:000f0430       _sin_special               00000001800f1430 f   libucrtd:sincos_special.obj
 0001:000f0700       _sinf_special              00000001800f1700 f   libucrtd:sincos_special.obj
 0001:000f0730       _tan_special               00000001800f1730 f   libucrtd:sincos_special.obj
 0001:000f0760       _tanf_special              00000001800f1760 f   libucrtd:sincos_special.obj
 0001:000f0790       _clrfp                     00000001800f1790 f   libucrtd:fpctrl.obj
 0001:000f07c0       _ctrlfp                    00000001800f17c0 f   libucrtd:fpctrl.obj
 0001:000f08a0       _set_statfp                00000001800f18a0 f   libucrtd:fpctrl.obj
 0001:000f08f0       _statfp                    00000001800f18f0 f   libucrtd:fpctrl.obj
 0001:000f0920       __remainder_piby2d2f_forC  00000001800f1920 f   libucrtd:remainder_piby2f_forc.obj
 0001:000f0b10       _CrtGetReportHook          00000001800f1b10 f   libucrtd:dbgrptt.obj
 0001:000f0b20       _CrtSetReportFile          00000001800f1b20 f   libucrtd:dbgrptt.obj
 0001:000f0cd0       _CrtSetReportHook          00000001800f1cd0 f   libucrtd:dbgrptt.obj
 0001:000f0d10       _CrtSetReportMode          00000001800f1d10 f   libucrtd:dbgrptt.obj
 0001:000f0f30       _VCrtDbgReportA            00000001800f1f30 f   libucrtd:dbgrptt.obj
 0001:000f1b80       _VCrtDbgReportW            00000001800f2b80 f   libucrtd:dbgrptt.obj
 0001:000f29e0       _snprintf_s                00000001800f39e0 f i libucrtd:dbgrptt.obj
 0001:000f2a60       _vsnprintf_s               00000001800f3a60 f i libucrtd:dbgrptt.obj
 0001:000f2ac0       _vsnprintf_s_l             00000001800f3ac0 f i libucrtd:dbgrptt.obj
 0001:000f2b60       __acrt_errno_from_os_error 00000001800f3b60 f   libucrtd:errno.obj
 0001:000f2c10       __acrt_errno_map_os_error  00000001800f3c10 f   libucrtd:errno.obj
 0001:000f2c50       __doserrno                 00000001800f3c50 f   libucrtd:errno.obj
 0001:000f2c90       _errno                     00000001800f3c90 f   libucrtd:errno.obj
 0001:000f2cd0       _get_doserrno              00000001800f3cd0 f   libucrtd:errno.obj
 0001:000f2dc0       _get_errno                 00000001800f3dc0 f   libucrtd:errno.obj
 0001:000f2eb0       _set_doserrno              00000001800f3eb0 f   libucrtd:errno.obj
 0001:000f2ef0       _set_errno                 00000001800f3ef0 f   libucrtd:errno.obj
 0001:000f4750       ??1?$__crt_simd_cleanup_guard@$00@@QEAA@XZ 00000001800f5750 f i libucrtd:strnlen.obj
 0001:000f4760       ??1?$__crt_simd_cleanup_guard@$0A@@@QEAA@XZ 00000001800f5760 f i libucrtd:strnlen.obj
 0001:000f4770       ?compare_equals@?$__crt_simd_traits@$00E@@SA?AT__m256i@@T2@0@Z 00000001800f5770 f i libucrtd:strnlen.obj
 0001:000f47c0       ?compare_equals@?$__crt_simd_traits@$00G@@SA?AT__m256i@@T2@0@Z 00000001800f57c0 f i libucrtd:strnlen.obj
 0001:000f4810       ?compare_equals@?$__crt_simd_traits@$0A@E@@SA?AT__m128i@@T2@0@Z 00000001800f5810 f i libucrtd:strnlen.obj
